ARM GAS  C:\Users\X0217454\AppData\Local\Temp\ccHIP2aS.s 			page 1


   1              		.cpu cortex-m0
   2              		.fpu softvfp
   3              		.eabi_attribute 20, 1
   4              		.eabi_attribute 21, 1
   5              		.eabi_attribute 23, 3
   6              		.eabi_attribute 24, 1
   7              		.eabi_attribute 25, 1
   8              		.eabi_attribute 26, 1
   9              		.eabi_attribute 30, 6
  10              		.eabi_attribute 34, 0
  11              		.eabi_attribute 18, 4
  12              		.code	16
  13              		.file	"board.c"
  14              		.text
  15              	.Ltext0:
  16              		.cfi_sections	.debug_frame
  17              		.global	pIrqEventHandler
  18              		.bss
  19              		.align	2
  20              		.type	pIrqEventHandler, %object
  21              		.size	pIrqEventHandler, 4
  22              	pIrqEventHandler:
  23 0000 00000000 		.space	4
  24              		.comm	IntIsMasked,1,1
  25              		.section	.text.registerInterruptHandler,"ax",%progbits
  26              		.align	2
  27              		.global	registerInterruptHandler
  28              		.code	16
  29              		.thumb_func
  30              		.type	registerInterruptHandler, %function
  31              	registerInterruptHandler:
  32              	.LFB33:
  33              		.file 1 "..\\..\\..\\board.c"
   1:..\..\../board.c **** /*
   2:..\..\../board.c ****  * board.c - msp430f5529 launchpad configuration
   3:..\..\../board.c ****  *
   4:..\..\../board.c ****  * Copyright (C) 2014 Texas Instruments Incorporated - http://www.ti.com/
   5:..\..\../board.c ****  *
   6:..\..\../board.c ****  *
   7:..\..\../board.c ****  *  Redistribution and use in source and binary forms, with or without
   8:..\..\../board.c ****  *  modification, are permitted provided that the following conditions
   9:..\..\../board.c ****  *  are met:
  10:..\..\../board.c ****  *
  11:..\..\../board.c ****  *    Redistributions of source code must retain the above copyright
  12:..\..\../board.c ****  *    notice, this list of conditions and the following disclaimer.
  13:..\..\../board.c ****  *
  14:..\..\../board.c ****  *    Redistributions in binary form must reproduce the above copyright
  15:..\..\../board.c ****  *    notice, this list of conditions and the following disclaimer in the
  16:..\..\../board.c ****  *    documentation and/or other materials provided with the
  17:..\..\../board.c ****  *    distribution.
  18:..\..\../board.c ****  *
  19:..\..\../board.c ****  *    Neither the name of Texas Instruments Incorporated nor the names of
  20:..\..\../board.c ****  *    its contributors may be used to endorse or promote products derived
  21:..\..\../board.c ****  *    from this software without specific prior written permission.
  22:..\..\../board.c ****  *
  23:..\..\../board.c ****  *  THIS SOFTWARE IS PROVIDED BY THE COPYRIGHT HOLDERS AND CONTRIBUTORS
  24:..\..\../board.c ****  *  "AS IS" AND ANY EXPRESS OR IMPLIED WARRANTIES, INCLUDING, BUT NOT
ARM GAS  C:\Users\X0217454\AppData\Local\Temp\ccHIP2aS.s 			page 2


  25:..\..\../board.c ****  *  LIMITED TO, THE IMPLIED WARRANTIES OF MERCHANTABILITY AND FITNESS FOR
  26:..\..\../board.c ****  *  A PARTICULAR PURPOSE ARE DISCLAIMED. IN NO EVENT SHALL THE COPYRIGHT
  27:..\..\../board.c ****  *  OWNER OR CONTRIBUTORS BE LIABLE FOR ANY DIRECT, INDIRECT, INCIDENTAL,
  28:..\..\../board.c ****  *  SPECIAL, EXEMPLARY, OR CONSEQUENTIAL DAMAGES (INCLUDING, BUT NOT
  29:..\..\../board.c ****  *  LIMITED TO, PROCUREMENT OF SUBSTITUTE GOODS OR SERVICES; LOSS OF USE,
  30:..\..\../board.c ****  *  DATA, OR PROFITS; OR BUSINESS INTERRUPTION) HOWEVER CAUSED AND ON ANY
  31:..\..\../board.c ****  *  THEORY OF LIABILITY, WHETHER IN CONTRACT, STRICT LIABILITY, OR TORT
  32:..\..\../board.c ****  *  (INCLUDING NEGLIGENCE OR OTHERWISE) ARISING IN ANY WAY OUT OF THE USE
  33:..\..\../board.c ****  *  OF THIS SOFTWARE, EVEN IF ADVISED OF THE POSSIBILITY OF SUCH DAMAGE.
  34:..\..\../board.c ****  *
  35:..\..\../board.c **** */
  36:..\..\../board.c **** 
  37:..\..\../board.c **** #include "simplelink.h"
  38:..\..\../board.c **** #include "board.h"
  39:..\..\../board.c **** #include<project.h>
  40:..\..\../board.c **** 
  41:..\..\../board.c **** #ifdef SL_IF_TYPE_UART
  42:..\..\../board.c **** #include "UARTM.h"
  43:..\..\../board.c **** #endif
  44:..\..\../board.c **** 
  45:..\..\../board.c **** #define PMM_STATUS_ERROR  1
  46:..\..\../board.c **** #define PMM_STATUS_OK     0
  47:..\..\../board.c **** #define XT1HFOFFG   0
  48:..\..\../board.c **** 
  49:..\..\../board.c **** P_EVENT_HANDLER                pIrqEventHandler = 0;
  50:..\..\../board.c **** 
  51:..\..\../board.c **** BOOLEAN IntIsMasked;
  52:..\..\../board.c **** 
  53:..\..\../board.c **** #ifdef SL_IF_TYPE_UART
  54:..\..\../board.c **** #define ASSERT_UART(expr) {  if (!(expr)) { while(1) ;}}
  55:..\..\../board.c **** 
  56:..\..\../board.c **** unsigned char error_overrun = FALSE;
  57:..\..\../board.c **** _uartFlowctrl uartFlowctrl;
  58:..\..\../board.c **** _uartFlowctrl *puartFlowctrl = &uartFlowctrl;
  59:..\..\../board.c **** #endif
  60:..\..\../board.c **** 
  61:..\..\../board.c **** int registerInterruptHandler(P_EVENT_HANDLER InterruptHdl , void* pValue)
  62:..\..\../board.c **** {
  34              		.loc 1 62 0
  35              		.cfi_startproc
  36 0000 80B5     		push	{r7, lr}
  37              	.LCFI0:
  38              		.cfi_def_cfa_offset 8
  39              		.cfi_offset 7, -8
  40              		.cfi_offset 14, -4
  41 0002 82B0     		sub	sp, sp, #8
  42              	.LCFI1:
  43              		.cfi_def_cfa_offset 16
  44 0004 00AF     		add	r7, sp, #0
  45              	.LCFI2:
  46              		.cfi_def_cfa_register 7
  47 0006 7860     		str	r0, [r7, #4]
  48 0008 3960     		str	r1, [r7]
  63:..\..\../board.c ****     pIrqEventHandler = InterruptHdl;
  49              		.loc 1 63 0
  50 000a 044B     		ldr	r3, .L3
  51 000c 7A68     		ldr	r2, [r7, #4]
ARM GAS  C:\Users\X0217454\AppData\Local\Temp\ccHIP2aS.s 			page 3


  52 000e 1A60     		str	r2, [r3]
  64:..\..\../board.c **** 
  65:..\..\../board.c ****     return 0;
  53              		.loc 1 65 0
  54 0010 0023     		mov	r3, #0
  66:..\..\../board.c **** }
  55              		.loc 1 66 0
  56 0012 181C     		mov	r0, r3
  57 0014 BD46     		mov	sp, r7
  58 0016 02B0     		add	sp, sp, #8
  59              		@ sp needed for prologue
  60 0018 80BD     		pop	{r7, pc}
  61              	.L4:
  62 001a C046     		.align	2
  63              	.L3:
  64 001c 00000000 		.word	pIrqEventHandler
  65              		.cfi_endproc
  66              	.LFE33:
  67              		.size	registerInterruptHandler, .-registerInterruptHandler
  68              		.section	.text.CC3100_disable,"ax",%progbits
  69              		.align	2
  70              		.global	CC3100_disable
  71              		.code	16
  72              		.thumb_func
  73              		.type	CC3100_disable, %function
  74              	CC3100_disable:
  75              	.LFB34:
  67:..\..\../board.c **** 
  68:..\..\../board.c **** void CC3100_disable()
  69:..\..\../board.c **** {
  76              		.loc 1 69 0
  77              		.cfi_startproc
  78 0000 80B5     		push	{r7, lr}
  79              	.LCFI3:
  80              		.cfi_def_cfa_offset 8
  81              		.cfi_offset 7, -8
  82              		.cfi_offset 14, -4
  83 0002 00AF     		add	r7, sp, #0
  84              	.LCFI4:
  85              		.cfi_def_cfa_register 7
  70:..\..\../board.c ****     nHIB_Write(0);
  86              		.loc 1 70 0
  87 0004 0020     		mov	r0, #0
  88 0006 FFF7FEFF 		bl	nHIB_Write
  71:..\..\../board.c **** }
  89              		.loc 1 71 0
  90 000a BD46     		mov	sp, r7
  91              		@ sp needed for prologue
  92 000c 80BD     		pop	{r7, pc}
  93              		.cfi_endproc
  94              	.LFE34:
  95              		.size	CC3100_disable, .-CC3100_disable
  96 000e C046     		.section	.text.CC3100_enable,"ax",%progbits
  97              		.align	2
  98              		.global	CC3100_enable
  99              		.code	16
 100              		.thumb_func
ARM GAS  C:\Users\X0217454\AppData\Local\Temp\ccHIP2aS.s 			page 4


 101              		.type	CC3100_enable, %function
 102              	CC3100_enable:
 103              	.LFB35:
  72:..\..\../board.c **** 
  73:..\..\../board.c **** 
  74:..\..\../board.c **** void CC3100_enable()
  75:..\..\../board.c **** {
 104              		.loc 1 75 0
 105              		.cfi_startproc
 106 0000 80B5     		push	{r7, lr}
 107              	.LCFI5:
 108              		.cfi_def_cfa_offset 8
 109              		.cfi_offset 7, -8
 110              		.cfi_offset 14, -4
 111 0002 00AF     		add	r7, sp, #0
 112              	.LCFI6:
 113              		.cfi_def_cfa_register 7
  76:..\..\../board.c ****     nHIB_Write(1);
 114              		.loc 1 76 0
 115 0004 0120     		mov	r0, #1
 116 0006 FFF7FEFF 		bl	nHIB_Write
  77:..\..\../board.c **** }
 117              		.loc 1 77 0
 118 000a BD46     		mov	sp, r7
 119              		@ sp needed for prologue
 120 000c 80BD     		pop	{r7, pc}
 121              		.cfi_endproc
 122              	.LFE35:
 123              		.size	CC3100_enable, .-CC3100_enable
 124 000e C046     		.section	.text.CC3100_InterruptEnable,"ax",%progbits
 125              		.align	2
 126              		.global	CC3100_InterruptEnable
 127              		.code	16
 128              		.thumb_func
 129              		.type	CC3100_InterruptEnable, %function
 130              	CC3100_InterruptEnable:
 131              	.LFB36:
  78:..\..\../board.c **** 
  79:..\..\../board.c **** void CC3100_InterruptEnable(void)
  80:..\..\../board.c **** {
 132              		.loc 1 80 0
 133              		.cfi_startproc
 134 0000 80B5     		push	{r7, lr}
 135              	.LCFI7:
 136              		.cfi_def_cfa_offset 8
 137              		.cfi_offset 7, -8
 138              		.cfi_offset 14, -4
 139 0002 00AF     		add	r7, sp, #0
 140              	.LCFI8:
 141              		.cfi_def_cfa_register 7
  81:..\..\../board.c ****     /* Configure and enable interrupt */
  82:..\..\../board.c **** #ifndef SL_IF_TYPE_UART
  83:..\..\../board.c ****     isr_1_Start();
 142              		.loc 1 83 0
 143 0004 FFF7FEFF 		bl	isr_1_Start
  84:..\..\../board.c **** #endif
  85:..\..\../board.c **** 
ARM GAS  C:\Users\X0217454\AppData\Local\Temp\ccHIP2aS.s 			page 5


  86:..\..\../board.c **** #ifdef SL_IF_TYPE_UART
  87:..\..\../board.c ****     Rx_ISR_Start();
  88:..\..\../board.c **** #endif
  89:..\..\../board.c ****     
  90:..\..\../board.c **** #if(UARTM_RX_ENABLED || UARTM_HD_ENABLED)
  91:..\..\../board.c ****     #if(UARTM_RX_INTERRUPT_ENABLED)
  92:..\..\../board.c ****        UARTM_EnableRxInt();
  93:..\..\../board.c ****     #endif
  94:..\..\../board.c **** #endif
  95:..\..\../board.c **** 
  96:..\..\../board.c ****     CyGlobalIntEnable;
 144              		.loc 1 96 0
 145              	@ 96 "..\..\..\board.c" 1
 146 0008 62B6     		CPSIE   i
 147              	@ 0 "" 2
  97:..\..\../board.c **** }
 148              		.loc 1 97 0
 149              		.code	16
 150 000a BD46     		mov	sp, r7
 151              		@ sp needed for prologue
 152 000c 80BD     		pop	{r7, pc}
 153              		.cfi_endproc
 154              	.LFE36:
 155              		.size	CC3100_InterruptEnable, .-CC3100_InterruptEnable
 156 000e C046     		.section	.text.CC3100_InterruptDisable,"ax",%progbits
 157              		.align	2
 158              		.global	CC3100_InterruptDisable
 159              		.code	16
 160              		.thumb_func
 161              		.type	CC3100_InterruptDisable, %function
 162              	CC3100_InterruptDisable:
 163              	.LFB37:
  98:..\..\../board.c **** 
  99:..\..\../board.c **** void CC3100_InterruptDisable()
 100:..\..\../board.c **** {
 164              		.loc 1 100 0
 165              		.cfi_startproc
 166 0000 80B5     		push	{r7, lr}
 167              	.LCFI9:
 168              		.cfi_def_cfa_offset 8
 169              		.cfi_offset 7, -8
 170              		.cfi_offset 14, -4
 171 0002 00AF     		add	r7, sp, #0
 172              	.LCFI10:
 173              		.cfi_def_cfa_register 7
 101:..\..\../board.c ****      /* Configure and enable interrupt */
 102:..\..\../board.c **** #ifndef SL_IF_TYPE_UART
 103:..\..\../board.c ****     isr_1_Disable();
 174              		.loc 1 103 0
 175 0004 FFF7FEFF 		bl	isr_1_Disable
 104:..\..\../board.c **** #endif
 105:..\..\../board.c **** 
 106:..\..\../board.c **** #ifdef SL_IF_TYPE_UART
 107:..\..\../board.c ****     Rx_ISR_Disable();
 108:..\..\../board.c **** #endif
 109:..\..\../board.c ****     
 110:..\..\../board.c **** #if(UARTM_RX_ENABLED || UARTM_HD_ENABLED)
ARM GAS  C:\Users\X0217454\AppData\Local\Temp\ccHIP2aS.s 			page 6


 111:..\..\../board.c ****     #if(UARTM_RX_INTERRUPT_ENABLED)
 112:..\..\../board.c ****         UARTM_DisableRxInt();
 113:..\..\../board.c ****     #endif
 114:..\..\../board.c **** #endif
 115:..\..\../board.c **** 
 116:..\..\../board.c ****     CyGlobalIntDisable;
 176              		.loc 1 116 0
 177              	@ 116 "..\..\..\board.c" 1
 178 0008 72B6     		CPSID   i
 179              	@ 0 "" 2
 117:..\..\../board.c **** }
 180              		.loc 1 117 0
 181              		.code	16
 182 000a BD46     		mov	sp, r7
 183              		@ sp needed for prologue
 184 000c 80BD     		pop	{r7, pc}
 185              		.cfi_endproc
 186              	.LFE37:
 187              		.size	CC3100_InterruptDisable, .-CC3100_InterruptDisable
 188 000e C046     		.section	.text.MaskIntHdlr,"ax",%progbits
 189              		.align	2
 190              		.global	MaskIntHdlr
 191              		.code	16
 192              		.thumb_func
 193              		.type	MaskIntHdlr, %function
 194              	MaskIntHdlr:
 195              	.LFB38:
 118:..\..\../board.c **** 
 119:..\..\../board.c **** void MaskIntHdlr()
 120:..\..\../board.c **** {
 196              		.loc 1 120 0
 197              		.cfi_startproc
 198 0000 80B5     		push	{r7, lr}
 199              	.LCFI11:
 200              		.cfi_def_cfa_offset 8
 201              		.cfi_offset 7, -8
 202              		.cfi_offset 14, -4
 203 0002 00AF     		add	r7, sp, #0
 204              	.LCFI12:
 205              		.cfi_def_cfa_register 7
 121:..\..\../board.c ****     IntIsMasked = TRUE;
 206              		.loc 1 121 0
 207 0004 024B     		ldr	r3, .L10
 208 0006 0122     		mov	r2, #1
 209 0008 1A70     		strb	r2, [r3]
 122:..\..\../board.c **** }
 210              		.loc 1 122 0
 211 000a BD46     		mov	sp, r7
 212              		@ sp needed for prologue
 213 000c 80BD     		pop	{r7, pc}
 214              	.L11:
 215 000e C046     		.align	2
 216              	.L10:
 217 0010 00000000 		.word	IntIsMasked
 218              		.cfi_endproc
 219              	.LFE38:
 220              		.size	MaskIntHdlr, .-MaskIntHdlr
ARM GAS  C:\Users\X0217454\AppData\Local\Temp\ccHIP2aS.s 			page 7


 221              		.section	.text.UnMaskIntHdlr,"ax",%progbits
 222              		.align	2
 223              		.global	UnMaskIntHdlr
 224              		.code	16
 225              		.thumb_func
 226              		.type	UnMaskIntHdlr, %function
 227              	UnMaskIntHdlr:
 228              	.LFB39:
 123:..\..\../board.c **** 
 124:..\..\../board.c **** void UnMaskIntHdlr()
 125:..\..\../board.c **** {
 229              		.loc 1 125 0
 230              		.cfi_startproc
 231 0000 80B5     		push	{r7, lr}
 232              	.LCFI13:
 233              		.cfi_def_cfa_offset 8
 234              		.cfi_offset 7, -8
 235              		.cfi_offset 14, -4
 236 0002 00AF     		add	r7, sp, #0
 237              	.LCFI14:
 238              		.cfi_def_cfa_register 7
 126:..\..\../board.c ****     IntIsMasked = FALSE;
 239              		.loc 1 126 0
 240 0004 024B     		ldr	r3, .L13
 241 0006 0022     		mov	r2, #0
 242 0008 1A70     		strb	r2, [r3]
 127:..\..\../board.c **** }
 243              		.loc 1 127 0
 244 000a BD46     		mov	sp, r7
 245              		@ sp needed for prologue
 246 000c 80BD     		pop	{r7, pc}
 247              	.L14:
 248 000e C046     		.align	2
 249              	.L13:
 250 0010 00000000 		.word	IntIsMasked
 251              		.cfi_endproc
 252              	.LFE39:
 253              		.size	UnMaskIntHdlr, .-UnMaskIntHdlr
 254              		.section	.text.initClk,"ax",%progbits
 255              		.align	2
 256              		.global	initClk
 257              		.code	16
 258              		.thumb_func
 259              		.type	initClk, %function
 260              	initClk:
 261              	.LFB40:
 128:..\..\../board.c **** 
 129:..\..\../board.c **** void initClk(void)
 130:..\..\../board.c **** {
 262              		.loc 1 130 0
 263              		.cfi_startproc
 264 0000 80B5     		push	{r7, lr}
 265              	.LCFI15:
 266              		.cfi_def_cfa_offset 8
 267              		.cfi_offset 7, -8
 268              		.cfi_offset 14, -4
 269 0002 00AF     		add	r7, sp, #0
ARM GAS  C:\Users\X0217454\AppData\Local\Temp\ccHIP2aS.s 			page 8


 270              	.LCFI16:
 271              		.cfi_def_cfa_register 7
 131:..\..\../board.c ****     CySysClkImoStart();
 272              		.loc 1 131 0
 273 0004 FFF7FEFF 		bl	CySysClkImoStart
 132:..\..\../board.c ****     CySysClkWriteImoFreq(24u);
 274              		.loc 1 132 0
 275 0008 1820     		mov	r0, #24
 276 000a FFF7FEFF 		bl	CySysClkWriteImoFreq
 133:..\..\../board.c ****         
 134:..\..\../board.c ****     /* Globally enable interrupts */
 135:..\..\../board.c ****     CyGlobalIntEnable;
 277              		.loc 1 135 0
 278              	@ 135 "..\..\..\board.c" 1
 279 000e 62B6     		CPSIE   i
 280              	@ 0 "" 2
 136:..\..\../board.c **** }
 281              		.loc 1 136 0
 282              		.code	16
 283 0010 BD46     		mov	sp, r7
 284              		@ sp needed for prologue
 285 0012 80BD     		pop	{r7, pc}
 286              		.cfi_endproc
 287              	.LFE40:
 288              		.size	initClk, .-initClk
 289              		.section	.text.stopWDT,"ax",%progbits
 290              		.align	2
 291              		.global	stopWDT
 292              		.code	16
 293              		.thumb_func
 294              		.type	stopWDT, %function
 295              	stopWDT:
 296              	.LFB41:
 137:..\..\../board.c **** 
 138:..\..\../board.c **** void stopWDT()
 139:..\..\../board.c **** {
 297              		.loc 1 139 0
 298              		.cfi_startproc
 299 0000 80B5     		push	{r7, lr}
 300              	.LCFI17:
 301              		.cfi_def_cfa_offset 8
 302              		.cfi_offset 7, -8
 303              		.cfi_offset 14, -4
 304 0002 00AF     		add	r7, sp, #0
 305              	.LCFI18:
 306              		.cfi_def_cfa_register 7
 140:..\..\../board.c ****     CySysWdtDisable(1u);
 307              		.loc 1 140 0
 308 0004 0120     		mov	r0, #1
 309 0006 FFF7FEFF 		bl	CySysWdtDisable
 141:..\..\../board.c ****     CySysWdtDisable(2u);
 310              		.loc 1 141 0
 311 000a 0220     		mov	r0, #2
 312 000c FFF7FEFF 		bl	CySysWdtDisable
 142:..\..\../board.c ****     CySysWdtDisable(3u);
 313              		.loc 1 142 0
 314 0010 0320     		mov	r0, #3
ARM GAS  C:\Users\X0217454\AppData\Local\Temp\ccHIP2aS.s 			page 9


 315 0012 FFF7FEFF 		bl	CySysWdtDisable
 143:..\..\../board.c **** }
 316              		.loc 1 143 0
 317 0016 BD46     		mov	sp, r7
 318              		@ sp needed for prologue
 319 0018 80BD     		pop	{r7, pc}
 320              		.cfi_endproc
 321              	.LFE41:
 322              		.size	stopWDT, .-stopWDT
 323 001a C046     		.section	.text.initLEDs,"ax",%progbits
 324              		.align	2
 325              		.global	initLEDs
 326              		.code	16
 327              		.thumb_func
 328              		.type	initLEDs, %function
 329              	initLEDs:
 330              	.LFB42:
 144:..\..\../board.c **** 
 145:..\..\../board.c **** void initLEDs()
 146:..\..\../board.c **** {
 331              		.loc 1 146 0
 332              		.cfi_startproc
 333 0000 80B5     		push	{r7, lr}
 334              	.LCFI19:
 335              		.cfi_def_cfa_offset 8
 336              		.cfi_offset 7, -8
 337              		.cfi_offset 14, -4
 338 0002 00AF     		add	r7, sp, #0
 339              	.LCFI20:
 340              		.cfi_def_cfa_register 7
 147:..\..\../board.c ****     turnLedOff(LED1);
 341              		.loc 1 147 0
 342 0004 0120     		mov	r0, #1
 343 0006 FFF7FEFF 		bl	turnLedOff
 148:..\..\../board.c ****     turnLedOff(LED2);
 344              		.loc 1 148 0
 345 000a 0220     		mov	r0, #2
 346 000c FFF7FEFF 		bl	turnLedOff
 149:..\..\../board.c **** }
 347              		.loc 1 149 0
 348 0010 BD46     		mov	sp, r7
 349              		@ sp needed for prologue
 350 0012 80BD     		pop	{r7, pc}
 351              		.cfi_endproc
 352              	.LFE42:
 353              		.size	initLEDs, .-initLEDs
 354              		.section	.text.turnLedOn,"ax",%progbits
 355              		.align	2
 356              		.global	turnLedOn
 357              		.code	16
 358              		.thumb_func
 359              		.type	turnLedOn, %function
 360              	turnLedOn:
 361              	.LFB43:
 150:..\..\../board.c **** 
 151:..\..\../board.c **** /* BLUE LED - LED1
 152:..\..\../board.c ****    GREEN LED - LED2 */
ARM GAS  C:\Users\X0217454\AppData\Local\Temp\ccHIP2aS.s 			page 10


 153:..\..\../board.c **** 
 154:..\..\../board.c **** void turnLedOn(char ledNum)
 155:..\..\../board.c **** {
 362              		.loc 1 155 0
 363              		.cfi_startproc
 364 0000 80B5     		push	{r7, lr}
 365              	.LCFI21:
 366              		.cfi_def_cfa_offset 8
 367              		.cfi_offset 7, -8
 368              		.cfi_offset 14, -4
 369 0002 82B0     		sub	sp, sp, #8
 370              	.LCFI22:
 371              		.cfi_def_cfa_offset 16
 372 0004 00AF     		add	r7, sp, #0
 373              	.LCFI23:
 374              		.cfi_def_cfa_register 7
 375 0006 021C     		mov	r2, r0
 376 0008 FB1D     		add	r3, r7, #7
 377 000a 1A70     		strb	r2, [r3]
 156:..\..\../board.c ****     switch(ledNum)
 378              		.loc 1 156 0
 379 000c FB1D     		add	r3, r7, #7
 380 000e 1B78     		ldrb	r3, [r3]
 381 0010 012B     		cmp	r3, #1
 382 0012 02D0     		beq	.L20
 383 0014 022B     		cmp	r3, #2
 384 0016 04D0     		beq	.L21
 385 0018 07E0     		b	.L18
 386              	.L20:
 157:..\..\../board.c ****     {
 158:..\..\../board.c ****       case LED1:
 159:..\..\../board.c ****         LED_BLUE_Write(0);
 387              		.loc 1 159 0
 388 001a 0020     		mov	r0, #0
 389 001c FFF7FEFF 		bl	LED_BLUE_Write
 160:..\..\../board.c ****         break;
 390              		.loc 1 160 0
 391 0020 03E0     		b	.L18
 392              	.L21:
 161:..\..\../board.c ****       case LED2:
 162:..\..\../board.c ****         LED_GREEN_Write(0);
 393              		.loc 1 162 0
 394 0022 0020     		mov	r0, #0
 395 0024 FFF7FEFF 		bl	LED_GREEN_Write
 163:..\..\../board.c ****         break;
 396              		.loc 1 163 0
 397 0028 C046     		mov	r8, r8
 398              	.L18:
 164:..\..\../board.c ****     }
 165:..\..\../board.c **** 
 166:..\..\../board.c **** }
 399              		.loc 1 166 0
 400 002a BD46     		mov	sp, r7
 401 002c 02B0     		add	sp, sp, #8
 402              		@ sp needed for prologue
 403 002e 80BD     		pop	{r7, pc}
 404              		.cfi_endproc
ARM GAS  C:\Users\X0217454\AppData\Local\Temp\ccHIP2aS.s 			page 11


 405              	.LFE43:
 406              		.size	turnLedOn, .-turnLedOn
 407              		.section	.text.turnLedOff,"ax",%progbits
 408              		.align	2
 409              		.global	turnLedOff
 410              		.code	16
 411              		.thumb_func
 412              		.type	turnLedOff, %function
 413              	turnLedOff:
 414              	.LFB44:
 167:..\..\../board.c **** 
 168:..\..\../board.c **** void turnLedOff(char ledNum)
 169:..\..\../board.c **** {
 415              		.loc 1 169 0
 416              		.cfi_startproc
 417 0000 80B5     		push	{r7, lr}
 418              	.LCFI24:
 419              		.cfi_def_cfa_offset 8
 420              		.cfi_offset 7, -8
 421              		.cfi_offset 14, -4
 422 0002 82B0     		sub	sp, sp, #8
 423              	.LCFI25:
 424              		.cfi_def_cfa_offset 16
 425 0004 00AF     		add	r7, sp, #0
 426              	.LCFI26:
 427              		.cfi_def_cfa_register 7
 428 0006 021C     		mov	r2, r0
 429 0008 FB1D     		add	r3, r7, #7
 430 000a 1A70     		strb	r2, [r3]
 170:..\..\../board.c ****     switch(ledNum)
 431              		.loc 1 170 0
 432 000c FB1D     		add	r3, r7, #7
 433 000e 1B78     		ldrb	r3, [r3]
 434 0010 012B     		cmp	r3, #1
 435 0012 02D0     		beq	.L24
 436 0014 022B     		cmp	r3, #2
 437 0016 04D0     		beq	.L25
 438 0018 07E0     		b	.L22
 439              	.L24:
 171:..\..\../board.c ****     {
 172:..\..\../board.c ****       case LED1:
 173:..\..\../board.c ****         LED_BLUE_Write(1);
 440              		.loc 1 173 0
 441 001a 0120     		mov	r0, #1
 442 001c FFF7FEFF 		bl	LED_BLUE_Write
 174:..\..\../board.c ****         break;
 443              		.loc 1 174 0
 444 0020 03E0     		b	.L22
 445              	.L25:
 175:..\..\../board.c ****       case LED2:
 176:..\..\../board.c ****         LED_GREEN_Write(1);
 446              		.loc 1 176 0
 447 0022 0120     		mov	r0, #1
 448 0024 FFF7FEFF 		bl	LED_GREEN_Write
 177:..\..\../board.c ****         break;
 449              		.loc 1 177 0
 450 0028 C046     		mov	r8, r8
ARM GAS  C:\Users\X0217454\AppData\Local\Temp\ccHIP2aS.s 			page 12


 451              	.L22:
 178:..\..\../board.c ****     }  
 179:..\..\../board.c **** }
 452              		.loc 1 179 0
 453 002a BD46     		mov	sp, r7
 454 002c 02B0     		add	sp, sp, #8
 455              		@ sp needed for prologue
 456 002e 80BD     		pop	{r7, pc}
 457              		.cfi_endproc
 458              	.LFE44:
 459              		.size	turnLedOff, .-turnLedOff
 460              		.section	.text.toggleLed,"ax",%progbits
 461              		.align	2
 462              		.global	toggleLed
 463              		.code	16
 464              		.thumb_func
 465              		.type	toggleLed, %function
 466              	toggleLed:
 467              	.LFB45:
 180:..\..\../board.c **** 
 181:..\..\../board.c **** void toggleLed(char ledNum)
 182:..\..\../board.c **** {
 468              		.loc 1 182 0
 469              		.cfi_startproc
 470 0000 80B5     		push	{r7, lr}
 471              	.LCFI27:
 472              		.cfi_def_cfa_offset 8
 473              		.cfi_offset 7, -8
 474              		.cfi_offset 14, -4
 475 0002 82B0     		sub	sp, sp, #8
 476              	.LCFI28:
 477              		.cfi_def_cfa_offset 16
 478 0004 00AF     		add	r7, sp, #0
 479              	.LCFI29:
 480              		.cfi_def_cfa_register 7
 481 0006 021C     		mov	r2, r0
 482 0008 FB1D     		add	r3, r7, #7
 483 000a 1A70     		strb	r2, [r3]
 183:..\..\../board.c ****     switch(ledNum)
 484              		.loc 1 183 0
 485 000c FB1D     		add	r3, r7, #7
 486 000e 1B78     		ldrb	r3, [r3]
 487 0010 012B     		cmp	r3, #1
 488 0012 02D0     		beq	.L28
 489 0014 022B     		cmp	r3, #2
 490 0016 09D0     		beq	.L29
 491 0018 11E0     		b	.L26
 492              	.L28:
 184:..\..\../board.c ****     {
 185:..\..\../board.c ****       case LED1:
 186:..\..\../board.c ****         LED_BLUE_Write(~LED_BLUE_Read());
 493              		.loc 1 186 0
 494 001a FFF7FEFF 		bl	LED_BLUE_Read
 495 001e 031C     		mov	r3, r0
 496 0020 DB43     		mvn	r3, r3
 497 0022 DBB2     		uxtb	r3, r3
 498 0024 181C     		mov	r0, r3
ARM GAS  C:\Users\X0217454\AppData\Local\Temp\ccHIP2aS.s 			page 13


 499 0026 FFF7FEFF 		bl	LED_BLUE_Write
 187:..\..\../board.c ****         break;
 500              		.loc 1 187 0
 501 002a 08E0     		b	.L26
 502              	.L29:
 188:..\..\../board.c ****       case LED2:
 189:..\..\../board.c ****         LED_GREEN_Write(~LED_GREEN_Read());
 503              		.loc 1 189 0
 504 002c FFF7FEFF 		bl	LED_GREEN_Read
 505 0030 031C     		mov	r3, r0
 506 0032 DB43     		mvn	r3, r3
 507 0034 DBB2     		uxtb	r3, r3
 508 0036 181C     		mov	r0, r3
 509 0038 FFF7FEFF 		bl	LED_GREEN_Write
 190:..\..\../board.c ****         break;
 510              		.loc 1 190 0
 511 003c C046     		mov	r8, r8
 512              	.L26:
 191:..\..\../board.c ****     }
 192:..\..\../board.c **** 
 193:..\..\../board.c **** }
 513              		.loc 1 193 0
 514 003e BD46     		mov	sp, r7
 515 0040 02B0     		add	sp, sp, #8
 516              		@ sp needed for prologue
 517 0042 80BD     		pop	{r7, pc}
 518              		.cfi_endproc
 519              	.LFE45:
 520              		.size	toggleLed, .-toggleLed
 521              		.section	.text.GetLEDStatus,"ax",%progbits
 522              		.align	2
 523              		.global	GetLEDStatus
 524              		.code	16
 525              		.thumb_func
 526              		.type	GetLEDStatus, %function
 527              	GetLEDStatus:
 528              	.LFB46:
 194:..\..\../board.c **** 
 195:..\..\../board.c **** unsigned char GetLEDStatus()
 196:..\..\../board.c **** {
 529              		.loc 1 196 0
 530              		.cfi_startproc
 531 0000 80B5     		push	{r7, lr}
 532              	.LCFI30:
 533              		.cfi_def_cfa_offset 8
 534              		.cfi_offset 7, -8
 535              		.cfi_offset 14, -4
 536 0002 82B0     		sub	sp, sp, #8
 537              	.LCFI31:
 538              		.cfi_def_cfa_offset 16
 539 0004 00AF     		add	r7, sp, #0
 540              	.LCFI32:
 541              		.cfi_def_cfa_register 7
 197:..\..\../board.c ****   unsigned char status = 0;
 542              		.loc 1 197 0
 543 0006 FB1D     		add	r3, r7, #7
 544 0008 0022     		mov	r2, #0
ARM GAS  C:\Users\X0217454\AppData\Local\Temp\ccHIP2aS.s 			page 14


 545 000a 1A70     		strb	r2, [r3]
 198:..\..\../board.c ****     
 199:..\..\../board.c ****   if(LED_BLUE_Read() && LED_GREEN_Read())
 546              		.loc 1 199 0
 547 000c FFF7FEFF 		bl	LED_BLUE_Read
 548 0010 031C     		mov	r3, r0
 549 0012 002B     		cmp	r3, #0
 550 0014 07D0     		beq	.L31
 551              		.loc 1 199 0 is_stmt 0 discriminator 1
 552 0016 FFF7FEFF 		bl	LED_GREEN_Read
 553 001a 031C     		mov	r3, r0
 554 001c 002B     		cmp	r3, #0
 555 001e 02D0     		beq	.L31
 200:..\..\../board.c ****     status = 4;
 556              		.loc 1 200 0 is_stmt 1
 557 0020 FB1D     		add	r3, r7, #7
 558 0022 0422     		mov	r2, #4
 559 0024 1A70     		strb	r2, [r3]
 560              	.L31:
 201:..\..\../board.c ****   if(LED_BLUE_Read())
 561              		.loc 1 201 0
 562 0026 FFF7FEFF 		bl	LED_BLUE_Read
 563 002a 031C     		mov	r3, r0
 564 002c 002B     		cmp	r3, #0
 565 002e 02D0     		beq	.L32
 202:..\..\../board.c ****     status = 1;
 566              		.loc 1 202 0
 567 0030 FB1D     		add	r3, r7, #7
 568 0032 0122     		mov	r2, #1
 569 0034 1A70     		strb	r2, [r3]
 570              	.L32:
 203:..\..\../board.c ****     //status |= (1 << 0);
 204:..\..\../board.c ****   if(LED_GREEN_Read())
 571              		.loc 1 204 0
 572 0036 FFF7FEFF 		bl	LED_GREEN_Read
 573 003a 031C     		mov	r3, r0
 574 003c 002B     		cmp	r3, #0
 575 003e 02D0     		beq	.L33
 205:..\..\../board.c ****     status = 2;
 576              		.loc 1 205 0
 577 0040 FB1D     		add	r3, r7, #7
 578 0042 0222     		mov	r2, #2
 579 0044 1A70     		strb	r2, [r3]
 580              	.L33:
 206:..\..\../board.c ****     //status |= (1 << 1);
 207:..\..\../board.c **** 
 208:..\..\../board.c ****   return status;
 581              		.loc 1 208 0
 582 0046 FB1D     		add	r3, r7, #7
 583 0048 1B78     		ldrb	r3, [r3]
 209:..\..\../board.c **** }
 584              		.loc 1 209 0
 585 004a 181C     		mov	r0, r3
 586 004c BD46     		mov	sp, r7
 587 004e 02B0     		add	sp, sp, #8
 588              		@ sp needed for prologue
 589 0050 80BD     		pop	{r7, pc}
ARM GAS  C:\Users\X0217454\AppData\Local\Temp\ccHIP2aS.s 			page 15


 590              		.cfi_endproc
 591              	.LFE46:
 592              		.size	GetLEDStatus, .-GetLEDStatus
 593 0052 C046     		.section	.text.initAntSelGPIO,"ax",%progbits
 594              		.align	2
 595              		.global	initAntSelGPIO
 596              		.code	16
 597              		.thumb_func
 598              		.type	initAntSelGPIO, %function
 599              	initAntSelGPIO:
 600              	.LFB47:
 210:..\..\../board.c **** 
 211:..\..\../board.c **** void initAntSelGPIO()
 212:..\..\../board.c **** {
 601              		.loc 1 212 0
 602              		.cfi_startproc
 603 0000 80B5     		push	{r7, lr}
 604              	.LCFI33:
 605              		.cfi_def_cfa_offset 8
 606              		.cfi_offset 7, -8
 607              		.cfi_offset 14, -4
 608 0002 00AF     		add	r7, sp, #0
 609              	.LCFI34:
 610              		.cfi_def_cfa_register 7
 213:..\..\../board.c **** }
 611              		.loc 1 213 0
 612 0004 BD46     		mov	sp, r7
 613              		@ sp needed for prologue
 614 0006 80BD     		pop	{r7, pc}
 615              		.cfi_endproc
 616              	.LFE47:
 617              		.size	initAntSelGPIO, .-initAntSelGPIO
 618              		.section	.text.SelAntenna,"ax",%progbits
 619              		.align	2
 620              		.global	SelAntenna
 621              		.code	16
 622              		.thumb_func
 623              		.type	SelAntenna, %function
 624              	SelAntenna:
 625              	.LFB48:
 214:..\..\../board.c **** 
 215:..\..\../board.c **** void SelAntenna(int antenna)
 216:..\..\../board.c **** {
 626              		.loc 1 216 0
 627              		.cfi_startproc
 628 0000 80B5     		push	{r7, lr}
 629              	.LCFI35:
 630              		.cfi_def_cfa_offset 8
 631              		.cfi_offset 7, -8
 632              		.cfi_offset 14, -4
 633 0002 82B0     		sub	sp, sp, #8
 634              	.LCFI36:
 635              		.cfi_def_cfa_offset 16
 636 0004 00AF     		add	r7, sp, #0
 637              	.LCFI37:
 638              		.cfi_def_cfa_register 7
 639 0006 7860     		str	r0, [r7, #4]
ARM GAS  C:\Users\X0217454\AppData\Local\Temp\ccHIP2aS.s 			page 16


 217:..\..\../board.c **** }
 640              		.loc 1 217 0
 641 0008 BD46     		mov	sp, r7
 642 000a 02B0     		add	sp, sp, #8
 643              		@ sp needed for prologue
 644 000c 80BD     		pop	{r7, pc}
 645              		.cfi_endproc
 646              	.LFE48:
 647              		.size	SelAntenna, .-SelAntenna
 648 000e C046     		.section	.text.Delay,"ax",%progbits
 649              		.align	2
 650              		.global	Delay
 651              		.code	16
 652              		.thumb_func
 653              		.type	Delay, %function
 654              	Delay:
 655              	.LFB49:
 218:..\..\../board.c **** 
 219:..\..\../board.c **** void Delay(unsigned long interval)
 220:..\..\../board.c **** {
 656              		.loc 1 220 0
 657              		.cfi_startproc
 658 0000 80B5     		push	{r7, lr}
 659              	.LCFI38:
 660              		.cfi_def_cfa_offset 8
 661              		.cfi_offset 7, -8
 662              		.cfi_offset 14, -4
 663 0002 82B0     		sub	sp, sp, #8
 664              	.LCFI39:
 665              		.cfi_def_cfa_offset 16
 666 0004 00AF     		add	r7, sp, #0
 667              	.LCFI40:
 668              		.cfi_def_cfa_register 7
 669 0006 7860     		str	r0, [r7, #4]
 221:..\..\../board.c ****     while(interval > 0)
 670              		.loc 1 221 0
 671 0008 07E0     		b	.L38
 672              	.L39:
 222:..\..\../board.c ****     {
 223:..\..\../board.c ****         CyDelay(1000u);
 673              		.loc 1 223 0
 674 000a FA23     		mov	r3, #250
 675 000c 9B00     		lsl	r3, r3, #2
 676 000e 181C     		mov	r0, r3
 677 0010 FFF7FEFF 		bl	CyDelay
 224:..\..\../board.c ****         interval--;
 678              		.loc 1 224 0
 679 0014 7B68     		ldr	r3, [r7, #4]
 680 0016 013B     		sub	r3, r3, #1
 681 0018 7B60     		str	r3, [r7, #4]
 682              	.L38:
 221:..\..\../board.c ****     while(interval > 0)
 683              		.loc 1 221 0 discriminator 1
 684 001a 7B68     		ldr	r3, [r7, #4]
 685 001c 002B     		cmp	r3, #0
 686 001e F4D1     		bne	.L39
 225:..\..\../board.c ****     }
ARM GAS  C:\Users\X0217454\AppData\Local\Temp\ccHIP2aS.s 			page 17


 226:..\..\../board.c **** }...
 687              		.loc 1 226 0
 688 0020 BD46     		mov	sp, r7
 689 0022 02B0     		add	sp, sp, #8
 690              		@ sp needed for prologue
 691 0024 80BD     		pop	{r7, pc}
 692              		.cfi_endproc
 693              	.LFE49:
 694              		.size	Delay, .-Delay
 695 0026 C046     		.text
 696              	.Letext0:
 697              		.file 2 "..\\..\\../board.h"
 698              		.file 3 "..\\..\\..\\..\\..\\simplelink\\include/../source/datatypes.h"