ARM GAS  C:\Users\X0217454\AppData\Local\Temp\ccc0bbsn.s 			page 1


   1              		.cpu cortex-m0
   2              		.fpu softvfp
   3              		.eabi_attribute 20, 1
   4              		.eabi_attribute 21, 1
   5              		.eabi_attribute 23, 3
   6              		.eabi_attribute 24, 1
   7              		.eabi_attribute 25, 1
   8              		.eabi_attribute 26, 1
   9              		.eabi_attribute 30, 6
  10              		.eabi_attribute 34, 0
  11              		.eabi_attribute 18, 4
  12              		.code	16
  13              		.file	"cli_uart.c"
  14              		.text
  15              	.Ltext0:
  16              		.cfi_sections	.debug_frame
  17              		.comm	g_ucUARTBuffer,4,4
  18              		.global	cli_have_cmd
  19              		.bss
  20              		.align	2
  21              		.type	cli_have_cmd, %object
  22              		.size	cli_have_cmd, 4
  23              	cli_have_cmd:
  24 0000 00000000 		.space	4
  25              		.section	.text.CLI_Read,"ax",%progbits
  26              		.align	2
  27              		.global	CLI_Read
  28              		.code	16
  29              		.thumb_func
  30              		.type	CLI_Read, %function
  31              	CLI_Read:
  32              	.LFB0:
  33              		.file 1 "..\\..\\..\\cli_uart.c"
   1:..\..\../cli_uart.c **** /*
   2:..\..\../cli_uart.c ****  * cli_uart.c - msp430f5529 launchpad application uart interface implementation
   3:..\..\../cli_uart.c ****  *
   4:..\..\../cli_uart.c ****  * Copyright (C) 2014 Texas Instruments Incorporated - http://www.ti.com/ 
   5:..\..\../cli_uart.c ****  * 
   6:..\..\../cli_uart.c ****  * 
   7:..\..\../cli_uart.c ****  *  Redistribution and use in source and binary forms, with or without 
   8:..\..\../cli_uart.c ****  *  modification, are permitted provided that the following conditions 
   9:..\..\../cli_uart.c ****  *  are met:
  10:..\..\../cli_uart.c ****  *
  11:..\..\../cli_uart.c ****  *    Redistributions of source code must retain the above copyright 
  12:..\..\../cli_uart.c ****  *    notice, this list of conditions and the following disclaimer.
  13:..\..\../cli_uart.c ****  *
  14:..\..\../cli_uart.c ****  *    Redistributions in binary form must reproduce the above copyright
  15:..\..\../cli_uart.c ****  *    notice, this list of conditions and the following disclaimer in the 
  16:..\..\../cli_uart.c ****  *    documentation and/or other materials provided with the   
  17:..\..\../cli_uart.c ****  *    distribution.
  18:..\..\../cli_uart.c ****  *
  19:..\..\../cli_uart.c ****  *    Neither the name of Texas Instruments Incorporated nor the names of
  20:..\..\../cli_uart.c ****  *    its contributors may be used to endorse or promote products derived
  21:..\..\../cli_uart.c ****  *    from this software without specific prior written permission.
  22:..\..\../cli_uart.c ****  *
  23:..\..\../cli_uart.c ****  *  THIS SOFTWARE IS PROVIDED BY THE COPYRIGHT HOLDERS AND CONTRIBUTORS 
  24:..\..\../cli_uart.c ****  *  "AS IS" AND ANY EXPRESS OR IMPLIED WARRANTIES, INCLUDING, BUT NOT 
ARM GAS  C:\Users\X0217454\AppData\Local\Temp\ccc0bbsn.s 			page 2


  25:..\..\../cli_uart.c ****  *  LIMITED TO, THE IMPLIED WARRANTIES OF MERCHANTABILITY AND FITNESS FOR
  26:..\..\../cli_uart.c ****  *  A PARTICULAR PURPOSE ARE DISCLAIMED. IN NO EVENT SHALL THE COPYRIGHT 
  27:..\..\../cli_uart.c ****  *  OWNER OR CONTRIBUTORS BE LIABLE FOR ANY DIRECT, INDIRECT, INCIDENTAL, 
  28:..\..\../cli_uart.c ****  *  SPECIAL, EXEMPLARY, OR CONSEQUENTIAL DAMAGES (INCLUDING, BUT NOT 
  29:..\..\../cli_uart.c ****  *  LIMITED TO, PROCUREMENT OF SUBSTITUTE GOODS OR SERVICES; LOSS OF USE,
  30:..\..\../cli_uart.c ****  *  DATA, OR PROFITS; OR BUSINESS INTERRUPTION) HOWEVER CAUSED AND ON ANY
  31:..\..\../cli_uart.c ****  *  THEORY OF LIABILITY, WHETHER IN CONTRACT, STRICT LIABILITY, OR TORT 
  32:..\..\../cli_uart.c ****  *  (INCLUDING NEGLIGENCE OR OTHERWISE) ARISING IN ANY WAY OUT OF THE USE 
  33:..\..\../cli_uart.c ****  *  OF THIS SOFTWARE, EVEN IF ADVISED OF THE POSSIBILITY OF SUCH DAMAGE.
  34:..\..\../cli_uart.c ****  *
  35:..\..\../cli_uart.c **** */
  36:..\..\../cli_uart.c **** 
  37:..\..\../cli_uart.c **** 
  38:..\..\../cli_uart.c **** //*****************************************************************************
  39:..\..\../cli_uart.c **** //
  40:..\..\../cli_uart.c **** //! \addtogroup CLI_UART
  41:..\..\../cli_uart.c **** //! @{
  42:..\..\../cli_uart.c **** //
  43:..\..\../cli_uart.c **** //*****************************************************************************
  44:..\..\../cli_uart.c **** 
  45:..\..\../cli_uart.c **** #include "cli_uart.h"
  46:..\..\../cli_uart.c **** #include <string.h>
  47:..\..\../cli_uart.c **** #include "UART_1_SPI_UART_PVT.h"
  48:..\..\../cli_uart.c **** #include "UART_1.h"
  49:..\..\../cli_uart.c **** #include "UART_1_SPI_UART.h"
  50:..\..\../cli_uart.c **** 
  51:..\..\../cli_uart.c **** #ifdef _USE_CLI_
  52:..\..\../cli_uart.c **** unsigned char *g_ucUARTBuffer;
  53:..\..\../cli_uart.c **** 
  54:..\..\../cli_uart.c **** int cli_have_cmd = 0;
  55:..\..\../cli_uart.c **** #endif
  56:..\..\../cli_uart.c **** 
  57:..\..\../cli_uart.c **** 
  58:..\..\../cli_uart.c **** int
  59:..\..\../cli_uart.c **** CLI_Read(unsigned char *pBuff)
  60:..\..\../cli_uart.c **** {
  34              		.loc 1 60 0
  35              		.cfi_startproc
  36 0000 80B5     		push	{r7, lr}
  37              	.LCFI0:
  38              		.cfi_def_cfa_offset 8
  39              		.cfi_offset 7, -8
  40              		.cfi_offset 14, -4
  41 0002 82B0     		sub	sp, sp, #8
  42              	.LCFI1:
  43              		.cfi_def_cfa_offset 16
  44 0004 00AF     		add	r7, sp, #0
  45              	.LCFI2:
  46              		.cfi_def_cfa_register 7
  47 0006 7860     		str	r0, [r7, #4]
  61:..\..\../cli_uart.c ****     if(pBuff == NULL)
  48              		.loc 1 61 0
  49 0008 7B68     		ldr	r3, [r7, #4]
  50 000a 002B     		cmp	r3, #0
  51 000c 02D1     		bne	.L2
  62:..\..\../cli_uart.c ****         return -1;
  52              		.loc 1 62 0
ARM GAS  C:\Users\X0217454\AppData\Local\Temp\ccc0bbsn.s 			page 3


  53 000e 0123     		mov	r3, #1
  54 0010 5B42     		neg	r3, r3
  55 0012 0BE0     		b	.L3
  56              	.L2:
  63:..\..\../cli_uart.c **** #ifdef _USE_CLI_
  64:..\..\../cli_uart.c ****     cli_have_cmd = 0;
  57              		.loc 1 64 0
  58 0014 074B     		ldr	r3, .L4
  59 0016 0022     		mov	r2, #0
  60 0018 1A60     		str	r2, [r3]
  65:..\..\../cli_uart.c ****     pBuff = (unsigned char *)UART_1_SpiUartReadRxData();
  61              		.loc 1 65 0
  62 001a FFF7FEFF 		bl	UART_1_SpiUartReadRxData
  63 001e 031C     		mov	r3, r0
  64 0020 7B60     		str	r3, [r7, #4]
  66:..\..\../cli_uart.c **** 
  67:..\..\../cli_uart.c ****     return strlen((const char *)pBuff);
  65              		.loc 1 67 0
  66 0022 7B68     		ldr	r3, [r7, #4]
  67 0024 181C     		mov	r0, r3
  68 0026 FFF7FEFF 		bl	strlen
  69 002a 031C     		mov	r3, r0
  70              	.L3:
  68:..\..\../cli_uart.c **** #else
  69:..\..\../cli_uart.c ****     return 0;
  70:..\..\../cli_uart.c **** #endif
  71:..\..\../cli_uart.c **** }
  71              		.loc 1 71 0
  72 002c 181C     		mov	r0, r3
  73 002e BD46     		mov	sp, r7
  74 0030 02B0     		add	sp, sp, #8
  75              		@ sp needed for prologue
  76 0032 80BD     		pop	{r7, pc}
  77              	.L5:
  78              		.align	2
  79              	.L4:
  80 0034 00000000 		.word	cli_have_cmd
  81              		.cfi_endproc
  82              	.LFE0:
  83              		.size	CLI_Read, .-CLI_Read
  84              		.section	.text.CLI_Write,"ax",%progbits
  85              		.align	2
  86              		.global	CLI_Write
  87              		.code	16
  88              		.thumb_func
  89              		.type	CLI_Write, %function
  90              	CLI_Write:
  91              	.LFB1:
  72:..\..\../cli_uart.c **** 
  73:..\..\../cli_uart.c **** 
  74:..\..\../cli_uart.c **** int
  75:..\..\../cli_uart.c **** CLI_Write(unsigned char *inBuff)
  76:..\..\../cli_uart.c **** {
  92              		.loc 1 76 0
  93              		.cfi_startproc
  94 0000 80B5     		push	{r7, lr}
  95              	.LCFI3:
ARM GAS  C:\Users\X0217454\AppData\Local\Temp\ccc0bbsn.s 			page 4


  96              		.cfi_def_cfa_offset 8
  97              		.cfi_offset 7, -8
  98              		.cfi_offset 14, -4
  99 0002 84B0     		sub	sp, sp, #16
 100              	.LCFI4:
 101              		.cfi_def_cfa_offset 24
 102 0004 00AF     		add	r7, sp, #0
 103              	.LCFI5:
 104              		.cfi_def_cfa_register 7
 105 0006 7860     		str	r0, [r7, #4]
  77:..\..\../cli_uart.c ****     if(inBuff == NULL)
 106              		.loc 1 77 0
 107 0008 7B68     		ldr	r3, [r7, #4]
 108 000a 002B     		cmp	r3, #0
 109 000c 02D1     		bne	.L7
  78:..\..\../cli_uart.c ****         return -1;
 110              		.loc 1 78 0
 111 000e 0123     		mov	r3, #1
 112 0010 5B42     		neg	r3, r3
 113 0012 25E0     		b	.L8
 114              	.L7:
  79:..\..\../cli_uart.c **** #ifdef _USE_CLI_
  80:..\..\../cli_uart.c ****     unsigned short ret,usLength = strlen((const char *)inBuff);
 115              		.loc 1 80 0
 116 0014 7B68     		ldr	r3, [r7, #4]
 117 0016 181C     		mov	r0, r3
 118 0018 FFF7FEFF 		bl	strlen
 119 001c 021C     		mov	r2, r0
 120 001e 3B1C     		mov	r3, r7
 121 0020 0E33     		add	r3, r3, #14
 122 0022 1A80     		strh	r2, [r3]
  81:..\..\../cli_uart.c ****     ret = usLength;
 123              		.loc 1 81 0
 124 0024 3B1C     		mov	r3, r7
 125 0026 0C33     		add	r3, r3, #12
 126 0028 3A1C     		mov	r2, r7
 127 002a 0E32     		add	r2, r2, #14
 128 002c 1288     		ldrh	r2, [r2]
 129 002e 1A80     		strh	r2, [r3]
  82:..\..\../cli_uart.c ****     while (usLength)
 130              		.loc 1 82 0
 131 0030 0EE0     		b	.L9
 132              	.L10:
  83:..\..\../cli_uart.c ****     {
  84:..\..\../cli_uart.c ****         UART_1_UartPutChar(*inBuff);
 133              		.loc 1 84 0
 134 0032 7B68     		ldr	r3, [r7, #4]
 135 0034 1B78     		ldrb	r3, [r3]
 136 0036 181C     		mov	r0, r3
 137 0038 FFF7FEFF 		bl	UART_1_SpiUartWriteTxData
  85:..\..\../cli_uart.c ****         usLength--;
 138              		.loc 1 85 0
 139 003c 3B1C     		mov	r3, r7
 140 003e 0E33     		add	r3, r3, #14
 141 0040 3A1C     		mov	r2, r7
 142 0042 0E32     		add	r2, r2, #14
 143 0044 1288     		ldrh	r2, [r2]
ARM GAS  C:\Users\X0217454\AppData\Local\Temp\ccc0bbsn.s 			page 5


 144 0046 013A     		sub	r2, r2, #1
 145 0048 1A80     		strh	r2, [r3]
  86:..\..\../cli_uart.c ****         inBuff++;
 146              		.loc 1 86 0
 147 004a 7B68     		ldr	r3, [r7, #4]
 148 004c 0133     		add	r3, r3, #1
 149 004e 7B60     		str	r3, [r7, #4]
 150              	.L9:
  82:..\..\../cli_uart.c ****     while (usLength)
 151              		.loc 1 82 0 discriminator 1
 152 0050 3B1C     		mov	r3, r7
 153 0052 0E33     		add	r3, r3, #14
 154 0054 1B88     		ldrh	r3, [r3]
 155 0056 002B     		cmp	r3, #0
 156 0058 EBD1     		bne	.L10
  87:..\..\../cli_uart.c ****     }
  88:..\..\../cli_uart.c ****     return (int)ret;
 157              		.loc 1 88 0
 158 005a 3B1C     		mov	r3, r7
 159 005c 0C33     		add	r3, r3, #12
 160 005e 1B88     		ldrh	r3, [r3]
 161              	.L8:
  89:..\..\../cli_uart.c **** #else
  90:..\..\../cli_uart.c ****     return 0;
  91:..\..\../cli_uart.c **** #endif
  92:..\..\../cli_uart.c **** }
 162              		.loc 1 92 0
 163 0060 181C     		mov	r0, r3
 164 0062 BD46     		mov	sp, r7
 165 0064 04B0     		add	sp, sp, #16
 166              		@ sp needed for prologue
 167 0066 80BD     		pop	{r7, pc}
 168              		.cfi_endproc
 169              	.LFE1:
 170              		.size	CLI_Write, .-CLI_Write
 171              		.section	.text.CLI_Configure,"ax",%progbits
 172              		.align	2
 173              		.global	CLI_Configure
 174              		.code	16
 175              		.thumb_func
 176              		.type	CLI_Configure, %function
 177              	CLI_Configure:
 178              	.LFB2:
  93:..\..\../cli_uart.c **** 
  94:..\..\../cli_uart.c **** 
  95:..\..\../cli_uart.c **** void
  96:..\..\../cli_uart.c **** CLI_Configure(void)
  97:..\..\../cli_uart.c **** {
 179              		.loc 1 97 0
 180              		.cfi_startproc
 181 0000 80B5     		push	{r7, lr}
 182              	.LCFI6:
 183              		.cfi_def_cfa_offset 8
 184              		.cfi_offset 7, -8
 185              		.cfi_offset 14, -4
 186 0002 00AF     		add	r7, sp, #0
 187              	.LCFI7:
ARM GAS  C:\Users\X0217454\AppData\Local\Temp\ccc0bbsn.s 			page 6


 188              		.cfi_def_cfa_register 7
  98:..\..\../cli_uart.c **** #ifdef _USE_CLI_
  99:..\..\../cli_uart.c ****     UART_1_UartInit();
 189              		.loc 1 99 0
 190 0004 FFF7FEFF 		bl	UART_1_UartInit
 100:..\..\../cli_uart.c ****     UART_1_Start();
 191              		.loc 1 100 0
 192 0008 FFF7FEFF 		bl	UART_1_Start
 101:..\..\../cli_uart.c **** #endif
 102:..\..\../cli_uart.c **** }
 193              		.loc 1 102 0
 194 000c BD46     		mov	sp, r7
 195              		@ sp needed for prologue
 196 000e 80BD     		pop	{r7, pc}
 197              		.cfi_endproc
 198              	.LFE2:
 199              		.size	CLI_Configure, .-CLI_Configure
 200              		.text
 201              	.Letext0:
 202              		.file 2 "./Generated_Source/PSoC4/cytypes.h"