ARM GAS  C:\Users\X0217454\AppData\Local\Temp\ccCTgOik.s 			page 1


   1              		.cpu cortex-m0
   2              		.fpu softvfp
   3              		.eabi_attribute 20, 1
   4              		.eabi_attribute 21, 1
   5              		.eabi_attribute 23, 3
   6              		.eabi_attribute 24, 1
   7              		.eabi_attribute 25, 1
   8              		.eabi_attribute 26, 1
   9              		.eabi_attribute 30, 6
  10              		.eabi_attribute 34, 0
  11              		.eabi_attribute 18, 4
  12              		.code	16
  13              		.file	"cyfitter_cfg.c"
  14              		.text
  15              	.Ltext0:
  16              		.cfi_sections	.debug_frame
  17              		.section	.text.CYMEMZERO,"ax",%progbits
  18              		.align	2
  19              		.code	16
  20              		.thumb_func
  21              		.type	CYMEMZERO, %function
  22              	CYMEMZERO:
  23              	.LFB0:
  24              		.file 1 ".\\Generated_Source\\PSoC4\\cyfitter_cfg.c"
   1:.\Generated_Source\PSoC4/cyfitter_cfg.c **** /*******************************************************************************
   2:.\Generated_Source\PSoC4/cyfitter_cfg.c **** * FILENAME: cyfitter_cfg.c
   3:.\Generated_Source\PSoC4/cyfitter_cfg.c **** * PSoC Creator 3.0 SP1
   4:.\Generated_Source\PSoC4/cyfitter_cfg.c **** *
   5:.\Generated_Source\PSoC4/cyfitter_cfg.c **** * Description:
   6:.\Generated_Source\PSoC4/cyfitter_cfg.c **** * This file is automatically generated by PSoC Creator with device 
   7:.\Generated_Source\PSoC4/cyfitter_cfg.c **** * initialization code.  Except for the user defined sections in
   8:.\Generated_Source\PSoC4/cyfitter_cfg.c **** * CyClockStartupError(), this file should not be modified.
   9:.\Generated_Source\PSoC4/cyfitter_cfg.c **** *
  10:.\Generated_Source\PSoC4/cyfitter_cfg.c **** ********************************************************************************
  11:.\Generated_Source\PSoC4/cyfitter_cfg.c **** * Copyright 2013, Cypress Semiconductor Corporation.  All rights reserved.
  12:.\Generated_Source\PSoC4/cyfitter_cfg.c **** * You may use this file only in accordance with the license, terms, conditions, 
  13:.\Generated_Source\PSoC4/cyfitter_cfg.c **** * disclaimers, and limitations in the end user license agreement accompanying 
  14:.\Generated_Source\PSoC4/cyfitter_cfg.c **** * the software package with which this file was provided.
  15:.\Generated_Source\PSoC4/cyfitter_cfg.c **** ********************************************************************************/
  16:.\Generated_Source\PSoC4/cyfitter_cfg.c **** 
  17:.\Generated_Source\PSoC4/cyfitter_cfg.c **** #include <string.h>
  18:.\Generated_Source\PSoC4/cyfitter_cfg.c **** #include <cytypes.h>
  19:.\Generated_Source\PSoC4/cyfitter_cfg.c **** #include <cydevice_trm.h>
  20:.\Generated_Source\PSoC4/cyfitter_cfg.c **** #include <cyfitter.h>
  21:.\Generated_Source\PSoC4/cyfitter_cfg.c **** #include <CyLib.h>
  22:.\Generated_Source\PSoC4/cyfitter_cfg.c **** #include <cyfitter_cfg.h>
  23:.\Generated_Source\PSoC4/cyfitter_cfg.c **** 
  24:.\Generated_Source\PSoC4/cyfitter_cfg.c **** 
  25:.\Generated_Source\PSoC4/cyfitter_cfg.c **** #if defined(__GNUC__) || defined(__ARMCC_VERSION)
  26:.\Generated_Source\PSoC4/cyfitter_cfg.c ****     #define CYPACKED 
  27:.\Generated_Source\PSoC4/cyfitter_cfg.c ****     #define CYPACKED_ATTR __attribute__ ((packed))
  28:.\Generated_Source\PSoC4/cyfitter_cfg.c ****     #define CYALIGNED __attribute__ ((aligned))
  29:.\Generated_Source\PSoC4/cyfitter_cfg.c ****     #define CY_CFG_UNUSED __attribute__ ((unused))
  30:.\Generated_Source\PSoC4/cyfitter_cfg.c ****     #define CY_CFG_SECTION __attribute__ ((section(".psocinit")))
  31:.\Generated_Source\PSoC4/cyfitter_cfg.c ****     
  32:.\Generated_Source\PSoC4/cyfitter_cfg.c ****     #if defined(__ARMCC_VERSION)
  33:.\Generated_Source\PSoC4/cyfitter_cfg.c ****         #define CY_CFG_MEMORY_BARRIER() __memory_changed()
ARM GAS  C:\Users\X0217454\AppData\Local\Temp\ccCTgOik.s 			page 2


  34:.\Generated_Source\PSoC4/cyfitter_cfg.c ****     #else
  35:.\Generated_Source\PSoC4/cyfitter_cfg.c ****         #define CY_CFG_MEMORY_BARRIER() __sync_synchronize()
  36:.\Generated_Source\PSoC4/cyfitter_cfg.c ****     #endif
  37:.\Generated_Source\PSoC4/cyfitter_cfg.c ****     
  38:.\Generated_Source\PSoC4/cyfitter_cfg.c **** #elif defined(__ICCARM__)
  39:.\Generated_Source\PSoC4/cyfitter_cfg.c ****     #include <intrinsics.h>
  40:.\Generated_Source\PSoC4/cyfitter_cfg.c **** 
  41:.\Generated_Source\PSoC4/cyfitter_cfg.c ****     #define CYPACKED __packed
  42:.\Generated_Source\PSoC4/cyfitter_cfg.c ****     #define CYPACKED_ATTR 
  43:.\Generated_Source\PSoC4/cyfitter_cfg.c ****     #define CYALIGNED _Pragma("data_alignment=4")
  44:.\Generated_Source\PSoC4/cyfitter_cfg.c ****     #define CY_CFG_UNUSED _Pragma("diag_suppress=Pe177")
  45:.\Generated_Source\PSoC4/cyfitter_cfg.c ****     #define CY_CFG_SECTION _Pragma("location=\".psocinit\"")
  46:.\Generated_Source\PSoC4/cyfitter_cfg.c ****     
  47:.\Generated_Source\PSoC4/cyfitter_cfg.c ****     #define CY_CFG_MEMORY_BARRIER() __DMB()
  48:.\Generated_Source\PSoC4/cyfitter_cfg.c ****     
  49:.\Generated_Source\PSoC4/cyfitter_cfg.c **** #else
  50:.\Generated_Source\PSoC4/cyfitter_cfg.c ****     #error Unsupported toolchain
  51:.\Generated_Source\PSoC4/cyfitter_cfg.c **** #endif
  52:.\Generated_Source\PSoC4/cyfitter_cfg.c **** 
  53:.\Generated_Source\PSoC4/cyfitter_cfg.c **** 
  54:.\Generated_Source\PSoC4/cyfitter_cfg.c **** CY_CFG_UNUSED
  55:.\Generated_Source\PSoC4/cyfitter_cfg.c **** static void CYMEMZERO(void *s, size_t n);
  56:.\Generated_Source\PSoC4/cyfitter_cfg.c **** CY_CFG_UNUSED
  57:.\Generated_Source\PSoC4/cyfitter_cfg.c **** static void CYMEMZERO(void *s, size_t n)
  58:.\Generated_Source\PSoC4/cyfitter_cfg.c **** {
  25              		.loc 1 58 0
  26              		.cfi_startproc
  27 0000 80B5     		push	{r7, lr}
  28              	.LCFI0:
  29              		.cfi_def_cfa_offset 8
  30              		.cfi_offset 7, -8
  31              		.cfi_offset 14, -4
  32 0002 82B0     		sub	sp, sp, #8
  33              	.LCFI1:
  34              		.cfi_def_cfa_offset 16
  35 0004 00AF     		add	r7, sp, #0
  36              	.LCFI2:
  37              		.cfi_def_cfa_register 7
  38 0006 7860     		str	r0, [r7, #4]
  39 0008 3960     		str	r1, [r7]
  59:.\Generated_Source\PSoC4/cyfitter_cfg.c **** 	(void)memset(s, 0, n);
  40              		.loc 1 59 0
  41 000a 7A68     		ldr	r2, [r7, #4]
  42 000c 3B68     		ldr	r3, [r7]
  43 000e 101C     		mov	r0, r2
  44 0010 0021     		mov	r1, #0
  45 0012 1A1C     		mov	r2, r3
  46 0014 FFF7FEFF 		bl	memset
  60:.\Generated_Source\PSoC4/cyfitter_cfg.c **** }
  47              		.loc 1 60 0
  48 0018 BD46     		mov	sp, r7
  49 001a 02B0     		add	sp, sp, #8
  50              		@ sp needed for prologue
  51 001c 80BD     		pop	{r7, pc}
  52              		.cfi_endproc
  53              	.LFE0:
  54              		.size	CYMEMZERO, .-CYMEMZERO
ARM GAS  C:\Users\X0217454\AppData\Local\Temp\ccCTgOik.s 			page 3


  55 001e C046     		.section	.text.CYCONFIGCPY,"ax",%progbits
  56              		.align	2
  57              		.code	16
  58              		.thumb_func
  59              		.type	CYCONFIGCPY, %function
  60              	CYCONFIGCPY:
  61              	.LFB1:
  61:.\Generated_Source\PSoC4/cyfitter_cfg.c **** CY_CFG_UNUSED
  62:.\Generated_Source\PSoC4/cyfitter_cfg.c **** static void CYCONFIGCPY(void *dest, const void *src, size_t n);
  63:.\Generated_Source\PSoC4/cyfitter_cfg.c **** CY_CFG_UNUSED
  64:.\Generated_Source\PSoC4/cyfitter_cfg.c **** static void CYCONFIGCPY(void *dest, const void *src, size_t n)
  65:.\Generated_Source\PSoC4/cyfitter_cfg.c **** {
  62              		.loc 1 65 0
  63              		.cfi_startproc
  64 0000 80B5     		push	{r7, lr}
  65              	.LCFI3:
  66              		.cfi_def_cfa_offset 8
  67              		.cfi_offset 7, -8
  68              		.cfi_offset 14, -4
  69 0002 84B0     		sub	sp, sp, #16
  70              	.LCFI4:
  71              		.cfi_def_cfa_offset 24
  72 0004 00AF     		add	r7, sp, #0
  73              	.LCFI5:
  74              		.cfi_def_cfa_register 7
  75 0006 F860     		str	r0, [r7, #12]
  76 0008 B960     		str	r1, [r7, #8]
  77 000a 7A60     		str	r2, [r7, #4]
  66:.\Generated_Source\PSoC4/cyfitter_cfg.c **** 	(void)memcpy(dest, src, n);
  78              		.loc 1 66 0
  79 000c F968     		ldr	r1, [r7, #12]
  80 000e BA68     		ldr	r2, [r7, #8]
  81 0010 7B68     		ldr	r3, [r7, #4]
  82 0012 081C     		mov	r0, r1
  83 0014 111C     		mov	r1, r2
  84 0016 1A1C     		mov	r2, r3
  85 0018 FFF7FEFF 		bl	memcpy
  67:.\Generated_Source\PSoC4/cyfitter_cfg.c **** }
  86              		.loc 1 67 0
  87 001c BD46     		mov	sp, r7
  88 001e 04B0     		add	sp, sp, #16
  89              		@ sp needed for prologue
  90 0020 80BD     		pop	{r7, pc}
  91              		.cfi_endproc
  92              	.LFE1:
  93              		.size	CYCONFIGCPY, .-CYCONFIGCPY
  94 0022 C046     		.section	.text.CYCONFIGCPYCODE,"ax",%progbits
  95              		.align	2
  96              		.code	16
  97              		.thumb_func
  98              		.type	CYCONFIGCPYCODE, %function
  99              	CYCONFIGCPYCODE:
 100              	.LFB2:
  68:.\Generated_Source\PSoC4/cyfitter_cfg.c **** CY_CFG_UNUSED
  69:.\Generated_Source\PSoC4/cyfitter_cfg.c **** static void CYCONFIGCPYCODE(void *dest, const void *src, size_t n);
  70:.\Generated_Source\PSoC4/cyfitter_cfg.c **** CY_CFG_UNUSED
  71:.\Generated_Source\PSoC4/cyfitter_cfg.c **** static void CYCONFIGCPYCODE(void *dest, const void *src, size_t n)
ARM GAS  C:\Users\X0217454\AppData\Local\Temp\ccCTgOik.s 			page 4


  72:.\Generated_Source\PSoC4/cyfitter_cfg.c **** {
 101              		.loc 1 72 0
 102              		.cfi_startproc
 103 0000 80B5     		push	{r7, lr}
 104              	.LCFI6:
 105              		.cfi_def_cfa_offset 8
 106              		.cfi_offset 7, -8
 107              		.cfi_offset 14, -4
 108 0002 84B0     		sub	sp, sp, #16
 109              	.LCFI7:
 110              		.cfi_def_cfa_offset 24
 111 0004 00AF     		add	r7, sp, #0
 112              	.LCFI8:
 113              		.cfi_def_cfa_register 7
 114 0006 F860     		str	r0, [r7, #12]
 115 0008 B960     		str	r1, [r7, #8]
 116 000a 7A60     		str	r2, [r7, #4]
  73:.\Generated_Source\PSoC4/cyfitter_cfg.c **** 	(void)memcpy(dest, src, n);
 117              		.loc 1 73 0
 118 000c F968     		ldr	r1, [r7, #12]
 119 000e BA68     		ldr	r2, [r7, #8]
 120 0010 7B68     		ldr	r3, [r7, #4]
 121 0012 081C     		mov	r0, r1
 122 0014 111C     		mov	r1, r2
 123 0016 1A1C     		mov	r2, r3
 124 0018 FFF7FEFF 		bl	memcpy
  74:.\Generated_Source\PSoC4/cyfitter_cfg.c **** }
 125              		.loc 1 74 0
 126 001c BD46     		mov	sp, r7
 127 001e 04B0     		add	sp, sp, #16
 128              		@ sp needed for prologue
 129 0020 80BD     		pop	{r7, pc}
 130              		.cfi_endproc
 131              	.LFE2:
 132              		.size	CYCONFIGCPYCODE, .-CYCONFIGCPYCODE
 133 0022 C046     		.section	.text.cfg_write_bytes32,"ax",%progbits
 134              		.align	2
 135              		.code	16
 136              		.thumb_func
 137              		.type	cfg_write_bytes32, %function
 138              	cfg_write_bytes32:
 139              	.LFB3:
  75:.\Generated_Source\PSoC4/cyfitter_cfg.c **** 
  76:.\Generated_Source\PSoC4/cyfitter_cfg.c **** 
  77:.\Generated_Source\PSoC4/cyfitter_cfg.c **** 
  78:.\Generated_Source\PSoC4/cyfitter_cfg.c **** /* Clock startup error codes                                                   */
  79:.\Generated_Source\PSoC4/cyfitter_cfg.c **** #define CYCLOCKSTART_NO_ERROR    0u
  80:.\Generated_Source\PSoC4/cyfitter_cfg.c **** #define CYCLOCKSTART_XTAL_ERROR  1u
  81:.\Generated_Source\PSoC4/cyfitter_cfg.c **** #define CYCLOCKSTART_32KHZ_ERROR 2u
  82:.\Generated_Source\PSoC4/cyfitter_cfg.c **** #define CYCLOCKSTART_PLL_ERROR   3u
  83:.\Generated_Source\PSoC4/cyfitter_cfg.c **** 
  84:.\Generated_Source\PSoC4/cyfitter_cfg.c **** #ifdef CY_NEED_CYCLOCKSTARTUPERROR
  85:.\Generated_Source\PSoC4/cyfitter_cfg.c **** /*******************************************************************************
  86:.\Generated_Source\PSoC4/cyfitter_cfg.c **** * Function Name: CyClockStartupError
  87:.\Generated_Source\PSoC4/cyfitter_cfg.c **** ********************************************************************************
  88:.\Generated_Source\PSoC4/cyfitter_cfg.c **** * Summary:
  89:.\Generated_Source\PSoC4/cyfitter_cfg.c **** *  If an error is encountered during clock configuration (crystal startup error,
ARM GAS  C:\Users\X0217454\AppData\Local\Temp\ccCTgOik.s 			page 5


  90:.\Generated_Source\PSoC4/cyfitter_cfg.c **** *  PLL lock error, etc.), the system will end up here.  Unless reimplemented by
  91:.\Generated_Source\PSoC4/cyfitter_cfg.c **** *  the customer, this function will stop in an infinite loop.
  92:.\Generated_Source\PSoC4/cyfitter_cfg.c **** *
  93:.\Generated_Source\PSoC4/cyfitter_cfg.c **** * Parameters:
  94:.\Generated_Source\PSoC4/cyfitter_cfg.c **** *   void
  95:.\Generated_Source\PSoC4/cyfitter_cfg.c **** *
  96:.\Generated_Source\PSoC4/cyfitter_cfg.c **** * Return:
  97:.\Generated_Source\PSoC4/cyfitter_cfg.c **** *   void
  98:.\Generated_Source\PSoC4/cyfitter_cfg.c **** *
  99:.\Generated_Source\PSoC4/cyfitter_cfg.c **** *******************************************************************************/
 100:.\Generated_Source\PSoC4/cyfitter_cfg.c **** CY_CFG_UNUSED
 101:.\Generated_Source\PSoC4/cyfitter_cfg.c **** static void CyClockStartupError(uint8 errorCode);
 102:.\Generated_Source\PSoC4/cyfitter_cfg.c **** CY_CFG_UNUSED
 103:.\Generated_Source\PSoC4/cyfitter_cfg.c **** static void CyClockStartupError(uint8 errorCode)
 104:.\Generated_Source\PSoC4/cyfitter_cfg.c **** {
 105:.\Generated_Source\PSoC4/cyfitter_cfg.c ****     /* To remove the compiler warning if errorCode not used.                */
 106:.\Generated_Source\PSoC4/cyfitter_cfg.c ****     errorCode = errorCode;
 107:.\Generated_Source\PSoC4/cyfitter_cfg.c **** 
 108:.\Generated_Source\PSoC4/cyfitter_cfg.c ****     /* `#START CyClockStartupError` */
 109:.\Generated_Source\PSoC4/cyfitter_cfg.c **** 
 110:.\Generated_Source\PSoC4/cyfitter_cfg.c ****     /* If we have a clock startup error (bad MHz crystal, PLL lock, etc.),  */
 111:.\Generated_Source\PSoC4/cyfitter_cfg.c ****     /* we will end up here to allow the customer to implement something to  */
 112:.\Generated_Source\PSoC4/cyfitter_cfg.c ****     /* deal with the clock condition.                                       */
 113:.\Generated_Source\PSoC4/cyfitter_cfg.c **** 
 114:.\Generated_Source\PSoC4/cyfitter_cfg.c ****     /* `#END` */
 115:.\Generated_Source\PSoC4/cyfitter_cfg.c **** 
 116:.\Generated_Source\PSoC4/cyfitter_cfg.c ****     /* If nothing else, stop here since the clocks have not started         */
 117:.\Generated_Source\PSoC4/cyfitter_cfg.c ****     /* correctly.                                                           */
 118:.\Generated_Source\PSoC4/cyfitter_cfg.c ****     while(1) {}
 119:.\Generated_Source\PSoC4/cyfitter_cfg.c **** }
 120:.\Generated_Source\PSoC4/cyfitter_cfg.c **** #endif
 121:.\Generated_Source\PSoC4/cyfitter_cfg.c **** 
 122:.\Generated_Source\PSoC4/cyfitter_cfg.c **** #define CY_CFG_BASE_ADDR_COUNT 8u
 123:.\Generated_Source\PSoC4/cyfitter_cfg.c **** CYPACKED typedef struct
 124:.\Generated_Source\PSoC4/cyfitter_cfg.c **** {
 125:.\Generated_Source\PSoC4/cyfitter_cfg.c **** 	uint8 offset;
 126:.\Generated_Source\PSoC4/cyfitter_cfg.c **** 	uint8 value;
 127:.\Generated_Source\PSoC4/cyfitter_cfg.c **** } CYPACKED_ATTR cy_cfg_addrvalue_t;
 128:.\Generated_Source\PSoC4/cyfitter_cfg.c **** 
 129:.\Generated_Source\PSoC4/cyfitter_cfg.c **** 
 130:.\Generated_Source\PSoC4/cyfitter_cfg.c **** 
 131:.\Generated_Source\PSoC4/cyfitter_cfg.c **** /*******************************************************************************
 132:.\Generated_Source\PSoC4/cyfitter_cfg.c **** * Function Name: cfg_write_bytes32
 133:.\Generated_Source\PSoC4/cyfitter_cfg.c **** ********************************************************************************
 134:.\Generated_Source\PSoC4/cyfitter_cfg.c **** * Summary:
 135:.\Generated_Source\PSoC4/cyfitter_cfg.c **** *  This function is used for setting up the chip configuration areas that
 136:.\Generated_Source\PSoC4/cyfitter_cfg.c **** *  contain relatively sparse data.
 137:.\Generated_Source\PSoC4/cyfitter_cfg.c **** *
 138:.\Generated_Source\PSoC4/cyfitter_cfg.c **** * Parameters:
 139:.\Generated_Source\PSoC4/cyfitter_cfg.c **** *   void
 140:.\Generated_Source\PSoC4/cyfitter_cfg.c **** *
 141:.\Generated_Source\PSoC4/cyfitter_cfg.c **** * Return:
 142:.\Generated_Source\PSoC4/cyfitter_cfg.c **** *   void
 143:.\Generated_Source\PSoC4/cyfitter_cfg.c **** *
 144:.\Generated_Source\PSoC4/cyfitter_cfg.c **** *******************************************************************************/
 145:.\Generated_Source\PSoC4/cyfitter_cfg.c **** static void cfg_write_bytes32(const uint32 addr_table[], const cy_cfg_addrvalue_t data_table[]);
 146:.\Generated_Source\PSoC4/cyfitter_cfg.c **** static void cfg_write_bytes32(const uint32 addr_table[], const cy_cfg_addrvalue_t data_table[])
ARM GAS  C:\Users\X0217454\AppData\Local\Temp\ccCTgOik.s 			page 6


 147:.\Generated_Source\PSoC4/cyfitter_cfg.c **** {
 140              		.loc 1 147 0
 141              		.cfi_startproc
 142 0000 80B5     		push	{r7, lr}
 143              	.LCFI9:
 144              		.cfi_def_cfa_offset 8
 145              		.cfi_offset 7, -8
 146              		.cfi_offset 14, -4
 147 0002 86B0     		sub	sp, sp, #24
 148              	.LCFI10:
 149              		.cfi_def_cfa_offset 32
 150 0004 00AF     		add	r7, sp, #0
 151              	.LCFI11:
 152              		.cfi_def_cfa_register 7
 153 0006 7860     		str	r0, [r7, #4]
 154 0008 3960     		str	r1, [r7]
 148:.\Generated_Source\PSoC4/cyfitter_cfg.c **** 	/* For 32-bit little-endian architectures */
 149:.\Generated_Source\PSoC4/cyfitter_cfg.c **** 	uint32 i, j = 0u;
 155              		.loc 1 149 0
 156 000a 0023     		mov	r3, #0
 157 000c 3B61     		str	r3, [r7, #16]
 150:.\Generated_Source\PSoC4/cyfitter_cfg.c **** 	for (i = 0u; i < CY_CFG_BASE_ADDR_COUNT; i++)
 158              		.loc 1 150 0
 159 000e 0023     		mov	r3, #0
 160 0010 7B61     		str	r3, [r7, #20]
 161 0012 2EE0     		b	.L5
 162              	.L8:
 163              	.LBB2:
 151:.\Generated_Source\PSoC4/cyfitter_cfg.c **** 	{
 152:.\Generated_Source\PSoC4/cyfitter_cfg.c **** 		uint32 baseAddr = addr_table[i];
 164              		.loc 1 152 0
 165 0014 7B69     		ldr	r3, [r7, #20]
 166 0016 9B00     		lsl	r3, r3, #2
 167 0018 7A68     		ldr	r2, [r7, #4]
 168 001a D318     		add	r3, r2, r3
 169 001c 1B68     		ldr	r3, [r3]
 170 001e BB60     		str	r3, [r7, #8]
 153:.\Generated_Source\PSoC4/cyfitter_cfg.c **** 		uint8 count = (uint8)baseAddr;
 171              		.loc 1 153 0
 172 0020 3B1C     		mov	r3, r7
 173 0022 0F33     		add	r3, r3, #15
 174 0024 BA68     		ldr	r2, [r7, #8]
 175 0026 1A70     		strb	r2, [r3]
 154:.\Generated_Source\PSoC4/cyfitter_cfg.c **** 		baseAddr &= 0xFFFFFF00u;
 176              		.loc 1 154 0
 177 0028 BB68     		ldr	r3, [r7, #8]
 178 002a FF22     		mov	r2, #255
 179 002c 9343     		bic	r3, r2
 180 002e BB60     		str	r3, [r7, #8]
 155:.\Generated_Source\PSoC4/cyfitter_cfg.c **** 		while (count != 0u)
 181              		.loc 1 155 0
 182 0030 17E0     		b	.L6
 183              	.L7:
 156:.\Generated_Source\PSoC4/cyfitter_cfg.c **** 		{
 157:.\Generated_Source\PSoC4/cyfitter_cfg.c **** 			CY_SET_XTND_REG8((void CYFAR *)(baseAddr + data_table[j].offset), data_table[j].value);
 184              		.loc 1 157 0
 185 0032 3B69     		ldr	r3, [r7, #16]
ARM GAS  C:\Users\X0217454\AppData\Local\Temp\ccCTgOik.s 			page 7


 186 0034 5B00     		lsl	r3, r3, #1
 187 0036 3A68     		ldr	r2, [r7]
 188 0038 D318     		add	r3, r2, r3
 189 003a 1B78     		ldrb	r3, [r3]
 190 003c 1A1C     		mov	r2, r3
 191 003e BB68     		ldr	r3, [r7, #8]
 192 0040 D318     		add	r3, r2, r3
 193 0042 3A69     		ldr	r2, [r7, #16]
 194 0044 5200     		lsl	r2, r2, #1
 195 0046 3968     		ldr	r1, [r7]
 196 0048 8A18     		add	r2, r1, r2
 197 004a 5278     		ldrb	r2, [r2, #1]
 198 004c 1A70     		strb	r2, [r3]
 158:.\Generated_Source\PSoC4/cyfitter_cfg.c **** 			j++;
 199              		.loc 1 158 0
 200 004e 3B69     		ldr	r3, [r7, #16]
 201 0050 0133     		add	r3, r3, #1
 202 0052 3B61     		str	r3, [r7, #16]
 159:.\Generated_Source\PSoC4/cyfitter_cfg.c **** 			count--;
 203              		.loc 1 159 0
 204 0054 3B1C     		mov	r3, r7
 205 0056 0F33     		add	r3, r3, #15
 206 0058 3A1C     		mov	r2, r7
 207 005a 0F32     		add	r2, r2, #15
 208 005c 1278     		ldrb	r2, [r2]
 209 005e 013A     		sub	r2, r2, #1
 210 0060 1A70     		strb	r2, [r3]
 211              	.L6:
 155:.\Generated_Source\PSoC4/cyfitter_cfg.c **** 		while (count != 0u)
 212              		.loc 1 155 0 discriminator 1
 213 0062 3B1C     		mov	r3, r7
 214 0064 0F33     		add	r3, r3, #15
 215 0066 1B78     		ldrb	r3, [r3]
 216 0068 002B     		cmp	r3, #0
 217 006a E2D1     		bne	.L7
 218              	.LBE2:
 150:.\Generated_Source\PSoC4/cyfitter_cfg.c **** 	for (i = 0u; i < CY_CFG_BASE_ADDR_COUNT; i++)
 219              		.loc 1 150 0
 220 006c 7B69     		ldr	r3, [r7, #20]
 221 006e 0133     		add	r3, r3, #1
 222 0070 7B61     		str	r3, [r7, #20]
 223              	.L5:
 150:.\Generated_Source\PSoC4/cyfitter_cfg.c **** 	for (i = 0u; i < CY_CFG_BASE_ADDR_COUNT; i++)
 224              		.loc 1 150 0 is_stmt 0 discriminator 1
 225 0072 7B69     		ldr	r3, [r7, #20]
 226 0074 072B     		cmp	r3, #7
 227 0076 CDD9     		bls	.L8
 160:.\Generated_Source\PSoC4/cyfitter_cfg.c **** 		}
 161:.\Generated_Source\PSoC4/cyfitter_cfg.c **** 	}
 162:.\Generated_Source\PSoC4/cyfitter_cfg.c **** }
 228              		.loc 1 162 0 is_stmt 1
 229 0078 BD46     		mov	sp, r7
 230 007a 06B0     		add	sp, sp, #24
 231              		@ sp needed for prologue
 232 007c 80BD     		pop	{r7, pc}
 233              		.cfi_endproc
 234              	.LFE3:
ARM GAS  C:\Users\X0217454\AppData\Local\Temp\ccCTgOik.s 			page 8


 235              		.size	cfg_write_bytes32, .-cfg_write_bytes32
 236 007e C046     		.section	.psocinit,"ax",%progbits
 237              		.align	2
 238              		.code	16
 239              		.thumb_func
 240              		.type	SetIMOBGTrims, %function
 241              	SetIMOBGTrims:
 242              	.LFB4:
 163:.\Generated_Source\PSoC4/cyfitter_cfg.c **** 
 164:.\Generated_Source\PSoC4/cyfitter_cfg.c **** /*******************************************************************************
 165:.\Generated_Source\PSoC4/cyfitter_cfg.c **** * Function Name: SetIMOBGTrims
 166:.\Generated_Source\PSoC4/cyfitter_cfg.c **** ********************************************************************************
 167:.\Generated_Source\PSoC4/cyfitter_cfg.c **** *
 168:.\Generated_Source\PSoC4/cyfitter_cfg.c **** * Summary:
 169:.\Generated_Source\PSoC4/cyfitter_cfg.c **** *   Performs the configuration of the bandgap trim for the IMO based on the given
 170:.\Generated_Source\PSoC4/cyfitter_cfg.c **** *   expected frequency of the IMO. 
 171:.\Generated_Source\PSoC4/cyfitter_cfg.c **** *
 172:.\Generated_Source\PSoC4/cyfitter_cfg.c **** * Parameters:
 173:.\Generated_Source\PSoC4/cyfitter_cfg.c **** *   imoFreq: Frequency for operation of the IMO.
 174:.\Generated_Source\PSoC4/cyfitter_cfg.c **** *
 175:.\Generated_Source\PSoC4/cyfitter_cfg.c **** * Return:
 176:.\Generated_Source\PSoC4/cyfitter_cfg.c **** *   void
 177:.\Generated_Source\PSoC4/cyfitter_cfg.c **** *
 178:.\Generated_Source\PSoC4/cyfitter_cfg.c **** *******************************************************************************/
 179:.\Generated_Source\PSoC4/cyfitter_cfg.c **** static void SetIMOBGTrims(uint8 imoFreq);
 180:.\Generated_Source\PSoC4/cyfitter_cfg.c **** CY_CFG_SECTION
 181:.\Generated_Source\PSoC4/cyfitter_cfg.c **** static void SetIMOBGTrims(uint8 imoFreq)
 182:.\Generated_Source\PSoC4/cyfitter_cfg.c **** {
 243              		.loc 1 182 0
 244              		.cfi_startproc
 245 0000 80B5     		push	{r7, lr}
 246              	.LCFI12:
 247              		.cfi_def_cfa_offset 8
 248              		.cfi_offset 7, -8
 249              		.cfi_offset 14, -4
 250 0002 84B0     		sub	sp, sp, #16
 251              	.LCFI13:
 252              		.cfi_def_cfa_offset 24
 253 0004 00AF     		add	r7, sp, #0
 254              	.LCFI14:
 255              		.cfi_def_cfa_register 7
 256 0006 021C     		mov	r2, r0
 257 0008 FB1D     		add	r3, r7, #7
 258 000a 1A70     		strb	r2, [r3]
 183:.\Generated_Source\PSoC4/cyfitter_cfg.c **** 	CYPACKED typedef struct {
 184:.\Generated_Source\PSoC4/cyfitter_cfg.c **** 		uint8 freq;
 185:.\Generated_Source\PSoC4/cyfitter_cfg.c **** 		uint8 absolute;
 186:.\Generated_Source\PSoC4/cyfitter_cfg.c **** 		uint8 tmpco;
 187:.\Generated_Source\PSoC4/cyfitter_cfg.c **** 	} CYPACKED_ATTR imo_trim_entry_t;
 188:.\Generated_Source\PSoC4/cyfitter_cfg.c **** 
 189:.\Generated_Source\PSoC4/cyfitter_cfg.c **** 	CYPACKED typedef struct {
 190:.\Generated_Source\PSoC4/cyfitter_cfg.c **** 		imo_trim_entry_t entries[4];
 191:.\Generated_Source\PSoC4/cyfitter_cfg.c **** 	} CYPACKED_ATTR imo_trim_table_t;
 192:.\Generated_Source\PSoC4/cyfitter_cfg.c **** 
 193:.\Generated_Source\PSoC4/cyfitter_cfg.c **** 	static const imo_trim_table_t *imo_trim_table = (const imo_trim_table_t *)CYREG_SFLASH_IMO_MAXF0;
 194:.\Generated_Source\PSoC4/cyfitter_cfg.c **** 	static const uint32 IMO_TRIM_FREQ_TABLE_ENTRIES = sizeof(imo_trim_table->entries)/sizeof(imo_trim_
 195:.\Generated_Source\PSoC4/cyfitter_cfg.c **** 
ARM GAS  C:\Users\X0217454\AppData\Local\Temp\ccCTgOik.s 			page 9


 196:.\Generated_Source\PSoC4/cyfitter_cfg.c **** 	int32 imoTrimIndex;
 197:.\Generated_Source\PSoC4/cyfitter_cfg.c **** 	uint8 setAbs;
 198:.\Generated_Source\PSoC4/cyfitter_cfg.c **** 	uint8 setTmpCo;
 199:.\Generated_Source\PSoC4/cyfitter_cfg.c **** 
 200:.\Generated_Source\PSoC4/cyfitter_cfg.c **** 	/* Traverse the SFLASH IMO frequency-dependent bandgap trim table to
 201:.\Generated_Source\PSoC4/cyfitter_cfg.c **** 	 * locate the appropriate value to trim the IMO bandgap based on freq. */
 202:.\Generated_Source\PSoC4/cyfitter_cfg.c **** 	setAbs = CY_GET_REG8((const void *)CYREG_SFLASH_IMO_ABS4);
 259              		.loc 1 202 0
 260 000c 224A     		ldr	r2, .L13
 261 000e 3B1C     		mov	r3, r7
 262 0010 0B33     		add	r3, r3, #11
 263 0012 1278     		ldrb	r2, [r2]
 264 0014 1A70     		strb	r2, [r3]
 203:.\Generated_Source\PSoC4/cyfitter_cfg.c **** 	setTmpCo = CY_GET_REG8((const void *)CYREG_SFLASH_IMO_TMPCO4);
 265              		.loc 1 203 0
 266 0016 214A     		ldr	r2, .L13+4
 267 0018 3B1C     		mov	r3, r7
 268 001a 0A33     		add	r3, r3, #10
 269 001c 1278     		ldrb	r2, [r2]
 270 001e 1A70     		strb	r2, [r3]
 204:.\Generated_Source\PSoC4/cyfitter_cfg.c **** 	for (imoTrimIndex = ((int32)IMO_TRIM_FREQ_TABLE_ENTRIES)-1;
 271              		.loc 1 204 0
 272 0020 1F4B     		ldr	r3, .L13+8
 273 0022 1B68     		ldr	r3, [r3]
 274 0024 013B     		sub	r3, r3, #1
 275 0026 FB60     		str	r3, [r7, #12]
 276 0028 1AE0     		b	.L10
 277              	.L12:
 205:.\Generated_Source\PSoC4/cyfitter_cfg.c **** 	     (imoTrimIndex >= 0) && (imoFreq <= imo_trim_table->entries[imoTrimIndex].freq);
 206:.\Generated_Source\PSoC4/cyfitter_cfg.c **** 	     imoTrimIndex--)
 207:.\Generated_Source\PSoC4/cyfitter_cfg.c **** 	{
 208:.\Generated_Source\PSoC4/cyfitter_cfg.c **** 		setAbs = imo_trim_table->entries[imoTrimIndex].absolute;
 278              		.loc 1 208 0
 279 002a 1E4B     		ldr	r3, .L13+12
 280 002c 1868     		ldr	r0, [r3]
 281 002e 391C     		mov	r1, r7
 282 0030 0B31     		add	r1, r1, #11
 283 0032 FA68     		ldr	r2, [r7, #12]
 284 0034 131C     		mov	r3, r2
 285 0036 5B00     		lsl	r3, r3, #1
 286 0038 9B18     		add	r3, r3, r2
 287 003a C318     		add	r3, r0, r3
 288 003c 0133     		add	r3, r3, #1
 289 003e 1B78     		ldrb	r3, [r3]
 290 0040 0B70     		strb	r3, [r1]
 209:.\Generated_Source\PSoC4/cyfitter_cfg.c **** 		setTmpCo = imo_trim_table->entries[imoTrimIndex].tmpco;
 291              		.loc 1 209 0
 292 0042 184B     		ldr	r3, .L13+12
 293 0044 1868     		ldr	r0, [r3]
 294 0046 391C     		mov	r1, r7
 295 0048 0A31     		add	r1, r1, #10
 296 004a FA68     		ldr	r2, [r7, #12]
 297 004c 131C     		mov	r3, r2
 298 004e 5B00     		lsl	r3, r3, #1
 299 0050 9B18     		add	r3, r3, r2
 300 0052 C318     		add	r3, r0, r3
 301 0054 0233     		add	r3, r3, #2
ARM GAS  C:\Users\X0217454\AppData\Local\Temp\ccCTgOik.s 			page 10


 302 0056 1B78     		ldrb	r3, [r3]
 303 0058 0B70     		strb	r3, [r1]
 206:.\Generated_Source\PSoC4/cyfitter_cfg.c **** 	     imoTrimIndex--)
 304              		.loc 1 206 0
 305 005a FB68     		ldr	r3, [r7, #12]
 306 005c 013B     		sub	r3, r3, #1
 307 005e FB60     		str	r3, [r7, #12]
 308              	.L10:
 204:.\Generated_Source\PSoC4/cyfitter_cfg.c **** 	for (imoTrimIndex = ((int32)IMO_TRIM_FREQ_TABLE_ENTRIES)-1;
 309              		.loc 1 204 0 discriminator 1
 310 0060 FB68     		ldr	r3, [r7, #12]
 311 0062 002B     		cmp	r3, #0
 312 0064 0ADB     		blt	.L11
 205:.\Generated_Source\PSoC4/cyfitter_cfg.c **** 	     (imoTrimIndex >= 0) && (imoFreq <= imo_trim_table->entries[imoTrimIndex].freq);
 313              		.loc 1 205 0
 314 0066 0F4B     		ldr	r3, .L13+12
 315 0068 1968     		ldr	r1, [r3]
 316 006a FA68     		ldr	r2, [r7, #12]
 317 006c 131C     		mov	r3, r2
 318 006e 5B00     		lsl	r3, r3, #1
 319 0070 9B18     		add	r3, r3, r2
 320 0072 5B5C     		ldrb	r3, [r3, r1]
 321 0074 FA1D     		add	r2, r7, #7
 322 0076 1278     		ldrb	r2, [r2]
 323 0078 9A42     		cmp	r2, r3
 324 007a D6D9     		bls	.L12
 325              	.L11:
 210:.\Generated_Source\PSoC4/cyfitter_cfg.c **** 	}
 211:.\Generated_Source\PSoC4/cyfitter_cfg.c **** 
 212:.\Generated_Source\PSoC4/cyfitter_cfg.c **** 	CY_SET_REG32((void *)CYREG_PWR_BG_TRIM4, setAbs);
 326              		.loc 1 212 0
 327 007c 0A4B     		ldr	r3, .L13+16
 328 007e 3A1C     		mov	r2, r7
 329 0080 0B32     		add	r2, r2, #11
 330 0082 1278     		ldrb	r2, [r2]
 331 0084 1A60     		str	r2, [r3]
 213:.\Generated_Source\PSoC4/cyfitter_cfg.c **** 	CY_SET_REG32((void *)CYREG_PWR_BG_TRIM5, setTmpCo);
 332              		.loc 1 213 0
 333 0086 094B     		ldr	r3, .L13+20
 334 0088 3A1C     		mov	r2, r7
 335 008a 0A32     		add	r2, r2, #10
 336 008c 1278     		ldrb	r2, [r2]
 337 008e 1A60     		str	r2, [r3]
 214:.\Generated_Source\PSoC4/cyfitter_cfg.c **** }
 338              		.loc 1 214 0
 339 0090 BD46     		mov	sp, r7
 340 0092 04B0     		add	sp, sp, #16
 341              		@ sp needed for prologue
 342 0094 80BD     		pop	{r7, pc}
 343              	.L14:
 344 0096 C046     		.align	2
 345              	.L13:
 346 0098 CCF1FF0F 		.word	268431820
 347 009c CDF1FF0F 		.word	268431821
 348 00a0 84020000 		.word	IMO_TRIM_FREQ_TABLE_ENTRIES.4642
 349 00a4 00000000 		.word	imo_trim_table.4641
 350 00a8 1CFF0B40 		.word	1074528028
ARM GAS  C:\Users\X0217454\AppData\Local\Temp\ccCTgOik.s 			page 11


 351 00ac 20FF0B40 		.word	1074528032
 352              		.cfi_endproc
 353              	.LFE4:
 354              		.size	SetIMOBGTrims, .-SetIMOBGTrims
 355              		.align	2
 356              		.code	16
 357              		.thumb_func
 358              		.type	ClockSetup, %function
 359              	ClockSetup:
 360              	.LFB5:
 215:.\Generated_Source\PSoC4/cyfitter_cfg.c **** 
 216:.\Generated_Source\PSoC4/cyfitter_cfg.c **** 
 217:.\Generated_Source\PSoC4/cyfitter_cfg.c **** 
 218:.\Generated_Source\PSoC4/cyfitter_cfg.c **** /*******************************************************************************
 219:.\Generated_Source\PSoC4/cyfitter_cfg.c **** * Function Name: ClockSetup
 220:.\Generated_Source\PSoC4/cyfitter_cfg.c **** ********************************************************************************
 221:.\Generated_Source\PSoC4/cyfitter_cfg.c **** *
 222:.\Generated_Source\PSoC4/cyfitter_cfg.c **** * Summary:
 223:.\Generated_Source\PSoC4/cyfitter_cfg.c **** *   Performs the initialization of all of the clocks in the device based on the
 224:.\Generated_Source\PSoC4/cyfitter_cfg.c **** *   settings in the Clock tab of the DWR.  This includes enabling the requested
 225:.\Generated_Source\PSoC4/cyfitter_cfg.c **** *   clocks and setting the necessary dividers to produce the desired frequency. 
 226:.\Generated_Source\PSoC4/cyfitter_cfg.c **** *
 227:.\Generated_Source\PSoC4/cyfitter_cfg.c **** * Parameters:
 228:.\Generated_Source\PSoC4/cyfitter_cfg.c **** *   void
 229:.\Generated_Source\PSoC4/cyfitter_cfg.c **** *
 230:.\Generated_Source\PSoC4/cyfitter_cfg.c **** * Return:
 231:.\Generated_Source\PSoC4/cyfitter_cfg.c **** *   void
 232:.\Generated_Source\PSoC4/cyfitter_cfg.c **** *
 233:.\Generated_Source\PSoC4/cyfitter_cfg.c **** *******************************************************************************/
 234:.\Generated_Source\PSoC4/cyfitter_cfg.c **** static void ClockSetup(void);
 235:.\Generated_Source\PSoC4/cyfitter_cfg.c **** CY_CFG_SECTION
 236:.\Generated_Source\PSoC4/cyfitter_cfg.c **** static void ClockSetup(void)
 237:.\Generated_Source\PSoC4/cyfitter_cfg.c **** {
 361              		.loc 1 237 0
 362              		.cfi_startproc
 363 00b0 80B5     		push	{r7, lr}
 364              	.LCFI15:
 365              		.cfi_def_cfa_offset 8
 366              		.cfi_offset 7, -8
 367              		.cfi_offset 14, -4
 368 00b2 00AF     		add	r7, sp, #0
 369              	.LCFI16:
 370              		.cfi_def_cfa_register 7
 238:.\Generated_Source\PSoC4/cyfitter_cfg.c **** 	/* Enable HALF_EN before trimming for the flash accelerator. */
 239:.\Generated_Source\PSoC4/cyfitter_cfg.c **** 	CY_SET_REG32((void CYXDATA *)(CYREG_CLK_SELECT), (CY_GET_REG32((void *)CYREG_CLK_SELECT) | 0x00040
 371              		.loc 1 239 0
 372 00b4 194B     		ldr	r3, .L16
 373 00b6 194A     		ldr	r2, .L16
 374 00b8 1268     		ldr	r2, [r2]
 375 00ba 8021     		mov	r1, #128
 376 00bc C902     		lsl	r1, r1, #11
 377 00be 0A43     		orr	r2, r1
 378 00c0 1A60     		str	r2, [r3]
 240:.\Generated_Source\PSoC4/cyfitter_cfg.c **** 
 241:.\Generated_Source\PSoC4/cyfitter_cfg.c **** 	/* Trim IMO BG based on desired frequency. */
 242:.\Generated_Source\PSoC4/cyfitter_cfg.c **** 	SetIMOBGTrims(24u);
 379              		.loc 1 242 0
ARM GAS  C:\Users\X0217454\AppData\Local\Temp\ccCTgOik.s 			page 12


 380 00c2 1820     		mov	r0, #24
 381 00c4 FFF79CFF 		bl	SetIMOBGTrims
 243:.\Generated_Source\PSoC4/cyfitter_cfg.c **** 
 244:.\Generated_Source\PSoC4/cyfitter_cfg.c **** 	/* Going less than or equal to 24MHz, so update the clock speed then adjust trim value. */
 245:.\Generated_Source\PSoC4/cyfitter_cfg.c **** 	CY_SET_REG32((void CYXDATA *)(CYREG_CLK_IMO_TRIM2), (25u));
 382              		.loc 1 245 0
 383 00c8 154B     		ldr	r3, .L16+4
 384 00ca 1922     		mov	r2, #25
 385 00cc 1A60     		str	r2, [r3]
 246:.\Generated_Source\PSoC4/cyfitter_cfg.c **** 	CyDelayCycles(5u);
 386              		.loc 1 246 0
 387 00ce 0520     		mov	r0, #5
 388 00d0 FFF7FEFF 		bl	CyDelayCycles
 247:.\Generated_Source\PSoC4/cyfitter_cfg.c **** 	CY_SET_REG32((void CYXDATA *)(CYREG_CLK_IMO_TRIM1), (CY_GET_REG8((void *)CYREG_SFLASH_IMO_TRIM21))
 389              		.loc 1 247 0
 390 00d4 134B     		ldr	r3, .L16+8
 391 00d6 144A     		ldr	r2, .L16+12
 392 00d8 1278     		ldrb	r2, [r2]
 393 00da D2B2     		uxtb	r2, r2
 394 00dc 1A60     		str	r2, [r3]
 248:.\Generated_Source\PSoC4/cyfitter_cfg.c **** 	CyDelayUs(5u);
 395              		.loc 1 248 0
 396 00de 0520     		mov	r0, #5
 397 00e0 FFF7FEFF 		bl	CyDelayUs
 249:.\Generated_Source\PSoC4/cyfitter_cfg.c **** 
 250:.\Generated_Source\PSoC4/cyfitter_cfg.c **** 	/* Disable HALF_EN since it is not required at this IMO frequency. */
 251:.\Generated_Source\PSoC4/cyfitter_cfg.c **** 	CY_SET_REG32((void CYXDATA *)(CYREG_CLK_SELECT), (CY_GET_REG32((void *)CYREG_CLK_SELECT) & 0xFFFBF
 398              		.loc 1 251 0
 399 00e4 0D4B     		ldr	r3, .L16
 400 00e6 0D4A     		ldr	r2, .L16
 401 00e8 1168     		ldr	r1, [r2]
 402 00ea 104A     		ldr	r2, .L16+16
 403 00ec 0A40     		and	r2, r1
 404 00ee 1A60     		str	r2, [r3]
 252:.\Generated_Source\PSoC4/cyfitter_cfg.c **** 
 253:.\Generated_Source\PSoC4/cyfitter_cfg.c **** 	/* CYDEV_CLK_SELECT00 Starting address: CYDEV_CLK_SELECT00 */
 254:.\Generated_Source\PSoC4/cyfitter_cfg.c **** 	CY_SET_XTND_REG32((void CYFAR *)(CYREG_CLK_SELECT02), 0x00000020u);
 405              		.loc 1 254 0
 406 00f0 0F4B     		ldr	r3, .L16+20
 407 00f2 2022     		mov	r2, #32
 408 00f4 1A60     		str	r2, [r3]
 255:.\Generated_Source\PSoC4/cyfitter_cfg.c **** 	CY_SET_XTND_REG32((void CYFAR *)(CYREG_CLK_SELECT12), 0x00000010u);
 409              		.loc 1 255 0
 410 00f6 0F4B     		ldr	r3, .L16+24
 411 00f8 1022     		mov	r2, #16
 412 00fa 1A60     		str	r2, [r3]
 256:.\Generated_Source\PSoC4/cyfitter_cfg.c **** 
 257:.\Generated_Source\PSoC4/cyfitter_cfg.c **** 	/* CYDEV_CLK_IMO_CONFIG Starting address: CYDEV_CLK_IMO_CONFIG */
 258:.\Generated_Source\PSoC4/cyfitter_cfg.c **** 	CY_SET_XTND_REG32((void CYFAR *)(CYREG_CLK_IMO_CONFIG), 0x80000000u);
 413              		.loc 1 258 0
 414 00fc 0E4B     		ldr	r3, .L16+28
 415 00fe 8022     		mov	r2, #128
 416 0100 1206     		lsl	r2, r2, #24
 417 0102 1A60     		str	r2, [r3]
 259:.\Generated_Source\PSoC4/cyfitter_cfg.c **** 
 260:.\Generated_Source\PSoC4/cyfitter_cfg.c **** 	/* CYDEV_CLK_ILO_CONFIG Starting address: CYDEV_CLK_ILO_CONFIG */
 261:.\Generated_Source\PSoC4/cyfitter_cfg.c **** 	CY_SET_XTND_REG32((void CYFAR *)(CYREG_CLK_ILO_CONFIG), 0x80000000u);
ARM GAS  C:\Users\X0217454\AppData\Local\Temp\ccCTgOik.s 			page 13


 418              		.loc 1 261 0
 419 0104 0D4B     		ldr	r3, .L16+32
 420 0106 8022     		mov	r2, #128
 421 0108 1206     		lsl	r2, r2, #24
 422 010a 1A60     		str	r2, [r3]
 262:.\Generated_Source\PSoC4/cyfitter_cfg.c **** 
 263:.\Generated_Source\PSoC4/cyfitter_cfg.c **** 	/* CYDEV_CLK_DIVIDER_A00 Starting address: CYDEV_CLK_DIVIDER_A00 */
 264:.\Generated_Source\PSoC4/cyfitter_cfg.c **** 	CY_SET_XTND_REG32((void CYFAR *)(CYREG_CLK_DIVIDER_A00), 0x80000002u);
 423              		.loc 1 264 0
 424 010c 0C4B     		ldr	r3, .L16+36
 425 010e 0D4A     		ldr	r2, .L16+40
 426 0110 1A60     		str	r2, [r3]
 265:.\Generated_Source\PSoC4/cyfitter_cfg.c **** 
 266:.\Generated_Source\PSoC4/cyfitter_cfg.c **** 	/* CYDEV_CLK_DIVIDER_B00 Starting address: CYDEV_CLK_DIVIDER_B00 */
 267:.\Generated_Source\PSoC4/cyfitter_cfg.c **** 	CY_SET_XTND_REG32((void CYFAR *)(CYREG_CLK_DIVIDER_B00), 0x800000CFu);
 427              		.loc 1 267 0
 428 0112 0D4B     		ldr	r3, .L16+44
 429 0114 0D4A     		ldr	r2, .L16+48
 430 0116 1A60     		str	r2, [r3]
 268:.\Generated_Source\PSoC4/cyfitter_cfg.c **** 
 269:.\Generated_Source\PSoC4/cyfitter_cfg.c **** }
 431              		.loc 1 269 0
 432 0118 BD46     		mov	sp, r7
 433              		@ sp needed for prologue
 434 011a 80BD     		pop	{r7, pc}
 435              	.L17:
 436              		.align	2
 437              	.L16:
 438 011c 00010B40 		.word	1074462976
 439 0120 2CFF0B40 		.word	1074528044
 440 0124 28FF0B40 		.word	1074528040
 441 0128 E5F1FF0F 		.word	268431845
 442 012c FFFFFBFF 		.word	-262145
 443 0130 08020240 		.word	1073873416
 444 0134 30020240 		.word	1073873456
 445 0138 08010B40 		.word	1074462984
 446 013c 04010B40 		.word	1074462980
 447 0140 00000240 		.word	1073872896
 448 0144 02000080 		.word	-2147483646
 449 0148 40000240 		.word	1073872960
 450 014c CF000080 		.word	-2147483441
 451              		.cfi_endproc
 452              	.LFE5:
 453              		.size	ClockSetup, .-ClockSetup
 454              		.section	.text.AnalogSetDefault,"ax",%progbits
 455              		.align	2
 456              		.code	16
 457              		.thumb_func
 458              		.type	AnalogSetDefault, %function
 459              	AnalogSetDefault:
 460              	.LFB6:
 270:.\Generated_Source\PSoC4/cyfitter_cfg.c **** 
 271:.\Generated_Source\PSoC4/cyfitter_cfg.c **** 
 272:.\Generated_Source\PSoC4/cyfitter_cfg.c **** /* Analog API Functions */
 273:.\Generated_Source\PSoC4/cyfitter_cfg.c **** 
 274:.\Generated_Source\PSoC4/cyfitter_cfg.c **** 
 275:.\Generated_Source\PSoC4/cyfitter_cfg.c **** /*******************************************************************************
ARM GAS  C:\Users\X0217454\AppData\Local\Temp\ccCTgOik.s 			page 14


 276:.\Generated_Source\PSoC4/cyfitter_cfg.c **** * Function Name: AnalogSetDefault
 277:.\Generated_Source\PSoC4/cyfitter_cfg.c **** ********************************************************************************
 278:.\Generated_Source\PSoC4/cyfitter_cfg.c **** *
 279:.\Generated_Source\PSoC4/cyfitter_cfg.c **** * Summary:
 280:.\Generated_Source\PSoC4/cyfitter_cfg.c **** *  Sets up the analog portions of the chip to default values based on chip
 281:.\Generated_Source\PSoC4/cyfitter_cfg.c **** *  configuration options from the project.
 282:.\Generated_Source\PSoC4/cyfitter_cfg.c **** *
 283:.\Generated_Source\PSoC4/cyfitter_cfg.c **** * Parameters:
 284:.\Generated_Source\PSoC4/cyfitter_cfg.c **** *  void
 285:.\Generated_Source\PSoC4/cyfitter_cfg.c **** *
 286:.\Generated_Source\PSoC4/cyfitter_cfg.c **** * Return:
 287:.\Generated_Source\PSoC4/cyfitter_cfg.c **** *  void
 288:.\Generated_Source\PSoC4/cyfitter_cfg.c **** *
 289:.\Generated_Source\PSoC4/cyfitter_cfg.c **** *******************************************************************************/
 290:.\Generated_Source\PSoC4/cyfitter_cfg.c **** static void AnalogSetDefault(void);
 291:.\Generated_Source\PSoC4/cyfitter_cfg.c **** static void AnalogSetDefault(void)
 292:.\Generated_Source\PSoC4/cyfitter_cfg.c **** {
 461              		.loc 1 292 0
 462              		.cfi_startproc
 463 0000 80B5     		push	{r7, lr}
 464              	.LCFI17:
 465              		.cfi_def_cfa_offset 8
 466              		.cfi_offset 7, -8
 467              		.cfi_offset 14, -4
 468 0002 00AF     		add	r7, sp, #0
 469              	.LCFI18:
 470              		.cfi_def_cfa_register 7
 293:.\Generated_Source\PSoC4/cyfitter_cfg.c **** }
 471              		.loc 1 293 0
 472 0004 BD46     		mov	sp, r7
 473              		@ sp needed for prologue
 474 0006 80BD     		pop	{r7, pc}
 475              		.cfi_endproc
 476              	.LFE6:
 477              		.size	AnalogSetDefault, .-AnalogSetDefault
 478              		.section	.psocinit
 479              		.align	2
 480              		.global	cyfitter_cfg
 481              		.code	16
 482              		.thumb_func
 483              		.type	cyfitter_cfg, %function
 484              	cyfitter_cfg:
 485              	.LFB7:
 294:.\Generated_Source\PSoC4/cyfitter_cfg.c **** 
 295:.\Generated_Source\PSoC4/cyfitter_cfg.c **** #define CY_AMUX_UNUSED CYREG_CM0_ROM_DWT
 296:.\Generated_Source\PSoC4/cyfitter_cfg.c **** 
 297:.\Generated_Source\PSoC4/cyfitter_cfg.c **** 
 298:.\Generated_Source\PSoC4/cyfitter_cfg.c **** /*******************************************************************************
 299:.\Generated_Source\PSoC4/cyfitter_cfg.c **** * Function Name: cyfitter_cfg
 300:.\Generated_Source\PSoC4/cyfitter_cfg.c **** ********************************************************************************
 301:.\Generated_Source\PSoC4/cyfitter_cfg.c **** * Summary:
 302:.\Generated_Source\PSoC4/cyfitter_cfg.c **** *  This function is called by the start-up code for the selected device. It
 303:.\Generated_Source\PSoC4/cyfitter_cfg.c **** *  performs all of the necessary device configuration based on the design
 304:.\Generated_Source\PSoC4/cyfitter_cfg.c **** *  settings.  This includes settings from the Design Wide Resources (DWR) such
 305:.\Generated_Source\PSoC4/cyfitter_cfg.c **** *  as Clocks and Pins as well as any component configuration that is necessary.
 306:.\Generated_Source\PSoC4/cyfitter_cfg.c **** *
 307:.\Generated_Source\PSoC4/cyfitter_cfg.c **** * Parameters:  
ARM GAS  C:\Users\X0217454\AppData\Local\Temp\ccCTgOik.s 			page 15


 308:.\Generated_Source\PSoC4/cyfitter_cfg.c **** *   void
 309:.\Generated_Source\PSoC4/cyfitter_cfg.c **** *
 310:.\Generated_Source\PSoC4/cyfitter_cfg.c **** * Return:
 311:.\Generated_Source\PSoC4/cyfitter_cfg.c **** *   void
 312:.\Generated_Source\PSoC4/cyfitter_cfg.c **** *
 313:.\Generated_Source\PSoC4/cyfitter_cfg.c **** *******************************************************************************/
 314:.\Generated_Source\PSoC4/cyfitter_cfg.c **** CY_CFG_SECTION
 315:.\Generated_Source\PSoC4/cyfitter_cfg.c **** void cyfitter_cfg(void)
 316:.\Generated_Source\PSoC4/cyfitter_cfg.c **** {
 486              		.loc 1 316 0
 487              		.cfi_startproc
 488 0150 80B5     		push	{r7, lr}
 489              	.LCFI19:
 490              		.cfi_def_cfa_offset 8
 491              		.cfi_offset 7, -8
 492              		.cfi_offset 14, -4
 493 0152 86B0     		sub	sp, sp, #24
 494              	.LCFI20:
 495              		.cfi_def_cfa_offset 32
 496 0154 00AF     		add	r7, sp, #0
 497              	.LCFI21:
 498              		.cfi_def_cfa_register 7
 317:.\Generated_Source\PSoC4/cyfitter_cfg.c **** 	/* Disable interrupts by default. Let user enable if/when they want. */
 318:.\Generated_Source\PSoC4/cyfitter_cfg.c **** 	CyGlobalIntDisable;
 499              		.loc 1 318 0
 500              	@ 318 ".\Generated_Source\PSoC4\cyfitter_cfg.c" 1
 501 0156 72B6     		CPSID   i
 502              	@ 0 "" 2
 319:.\Generated_Source\PSoC4/cyfitter_cfg.c **** 
 320:.\Generated_Source\PSoC4/cyfitter_cfg.c **** 	/* Enable the clock in the interrupt controller for the routed interrupts */
 321:.\Generated_Source\PSoC4/cyfitter_cfg.c **** 	CY_SET_REG8((void *)CYREG_UDB_UDBIF_INT_CLK_CTL, 0x01u);
 503              		.loc 1 321 0
 504              		.code	16
 505 0158 6C4B     		ldr	r3, .L24
 506 015a 0122     		mov	r2, #1
 507 015c 1A70     		strb	r2, [r3]
 508              	.LBB3:
 322:.\Generated_Source\PSoC4/cyfitter_cfg.c **** 	{
 323:.\Generated_Source\PSoC4/cyfitter_cfg.c **** 		static const uint32 CYCODE cy_cfg_addr_table[] = {
 324:.\Generated_Source\PSoC4/cyfitter_cfg.c **** 			0x400F0001u, /* Base address: 0x400F0000 Count: 1 */
 325:.\Generated_Source\PSoC4/cyfitter_cfg.c **** 			0x400F3046u, /* Base address: 0x400F3000 Count: 70 */
 326:.\Generated_Source\PSoC4/cyfitter_cfg.c **** 			0x400F3134u, /* Base address: 0x400F3100 Count: 52 */
 327:.\Generated_Source\PSoC4/cyfitter_cfg.c **** 			0x400F3212u, /* Base address: 0x400F3200 Count: 18 */
 328:.\Generated_Source\PSoC4/cyfitter_cfg.c **** 			0x400F3344u, /* Base address: 0x400F3300 Count: 68 */
 329:.\Generated_Source\PSoC4/cyfitter_cfg.c **** 			0x400F4008u, /* Base address: 0x400F4000 Count: 8 */
 330:.\Generated_Source\PSoC4/cyfitter_cfg.c **** 			0x400F4307u, /* Base address: 0x400F4300 Count: 7 */
 331:.\Generated_Source\PSoC4/cyfitter_cfg.c **** 			0x400F6002u, /* Base address: 0x400F6000 Count: 2 */
 332:.\Generated_Source\PSoC4/cyfitter_cfg.c **** 		};
 333:.\Generated_Source\PSoC4/cyfitter_cfg.c **** 
 334:.\Generated_Source\PSoC4/cyfitter_cfg.c **** 		static const cy_cfg_addrvalue_t CYCODE cy_cfg_data_table[] = {
 335:.\Generated_Source\PSoC4/cyfitter_cfg.c **** 			{0x80u, 0x0Fu},
 336:.\Generated_Source\PSoC4/cyfitter_cfg.c **** 			{0x11u, 0x02u},
 337:.\Generated_Source\PSoC4/cyfitter_cfg.c **** 			{0x13u, 0x0Du},
 338:.\Generated_Source\PSoC4/cyfitter_cfg.c **** 			{0x15u, 0x03u},
 339:.\Generated_Source\PSoC4/cyfitter_cfg.c **** 			{0x17u, 0x0Cu},
 340:.\Generated_Source\PSoC4/cyfitter_cfg.c **** 			{0x1Cu, 0x01u},
 341:.\Generated_Source\PSoC4/cyfitter_cfg.c **** 			{0x1Du, 0x05u},
ARM GAS  C:\Users\X0217454\AppData\Local\Temp\ccCTgOik.s 			page 16


 342:.\Generated_Source\PSoC4/cyfitter_cfg.c **** 			{0x1Fu, 0x0Au},
 343:.\Generated_Source\PSoC4/cyfitter_cfg.c **** 			{0x20u, 0x01u},
 344:.\Generated_Source\PSoC4/cyfitter_cfg.c **** 			{0x24u, 0x01u},
 345:.\Generated_Source\PSoC4/cyfitter_cfg.c **** 			{0x25u, 0x09u},
 346:.\Generated_Source\PSoC4/cyfitter_cfg.c **** 			{0x27u, 0x06u},
 347:.\Generated_Source\PSoC4/cyfitter_cfg.c **** 			{0x28u, 0x01u},
 348:.\Generated_Source\PSoC4/cyfitter_cfg.c **** 			{0x2Eu, 0x01u},
 349:.\Generated_Source\PSoC4/cyfitter_cfg.c **** 			{0x30u, 0x01u},
 350:.\Generated_Source\PSoC4/cyfitter_cfg.c **** 			{0x31u, 0x0Fu},
 351:.\Generated_Source\PSoC4/cyfitter_cfg.c **** 			{0x37u, 0x0Fu},
 352:.\Generated_Source\PSoC4/cyfitter_cfg.c **** 			{0x3Bu, 0x82u},
 353:.\Generated_Source\PSoC4/cyfitter_cfg.c **** 			{0x3Eu, 0x01u},
 354:.\Generated_Source\PSoC4/cyfitter_cfg.c **** 			{0x56u, 0x02u},
 355:.\Generated_Source\PSoC4/cyfitter_cfg.c **** 			{0x57u, 0x20u},
 356:.\Generated_Source\PSoC4/cyfitter_cfg.c **** 			{0x58u, 0x04u},
 357:.\Generated_Source\PSoC4/cyfitter_cfg.c **** 			{0x59u, 0x04u},
 358:.\Generated_Source\PSoC4/cyfitter_cfg.c **** 			{0x5Bu, 0x04u},
 359:.\Generated_Source\PSoC4/cyfitter_cfg.c **** 			{0x5Fu, 0x01u},
 360:.\Generated_Source\PSoC4/cyfitter_cfg.c **** 			{0x81u, 0x18u},
 361:.\Generated_Source\PSoC4/cyfitter_cfg.c **** 			{0x84u, 0x98u},
 362:.\Generated_Source\PSoC4/cyfitter_cfg.c **** 			{0x85u, 0x08u},
 363:.\Generated_Source\PSoC4/cyfitter_cfg.c **** 			{0x86u, 0x07u},
 364:.\Generated_Source\PSoC4/cyfitter_cfg.c **** 			{0x87u, 0x10u},
 365:.\Generated_Source\PSoC4/cyfitter_cfg.c **** 			{0x88u, 0x10u},
 366:.\Generated_Source\PSoC4/cyfitter_cfg.c **** 			{0x89u, 0x3Du},
 367:.\Generated_Source\PSoC4/cyfitter_cfg.c **** 			{0x8Cu, 0xC3u},
 368:.\Generated_Source\PSoC4/cyfitter_cfg.c **** 			{0x8Du, 0x28u},
 369:.\Generated_Source\PSoC4/cyfitter_cfg.c **** 			{0x8Eu, 0x30u},
 370:.\Generated_Source\PSoC4/cyfitter_cfg.c **** 			{0x8Fu, 0x17u},
 371:.\Generated_Source\PSoC4/cyfitter_cfg.c **** 			{0x90u, 0x14u},
 372:.\Generated_Source\PSoC4/cyfitter_cfg.c **** 			{0x91u, 0x08u},
 373:.\Generated_Source\PSoC4/cyfitter_cfg.c **** 			{0x93u, 0x10u},
 374:.\Generated_Source\PSoC4/cyfitter_cfg.c **** 			{0x94u, 0x84u},
 375:.\Generated_Source\PSoC4/cyfitter_cfg.c **** 			{0x95u, 0x10u},
 376:.\Generated_Source\PSoC4/cyfitter_cfg.c **** 			{0x97u, 0x08u},
 377:.\Generated_Source\PSoC4/cyfitter_cfg.c **** 			{0x98u, 0x26u},
 378:.\Generated_Source\PSoC4/cyfitter_cfg.c **** 			{0x9Au, 0x49u},
 379:.\Generated_Source\PSoC4/cyfitter_cfg.c **** 			{0x9Bu, 0x02u},
 380:.\Generated_Source\PSoC4/cyfitter_cfg.c **** 			{0x9Cu, 0x14u},
 381:.\Generated_Source\PSoC4/cyfitter_cfg.c **** 			{0x9Du, 0x24u},
 382:.\Generated_Source\PSoC4/cyfitter_cfg.c **** 			{0x9Fu, 0x0Bu},
 383:.\Generated_Source\PSoC4/cyfitter_cfg.c **** 			{0xA0u, 0x10u},
 384:.\Generated_Source\PSoC4/cyfitter_cfg.c **** 			{0xA1u, 0x18u},
 385:.\Generated_Source\PSoC4/cyfitter_cfg.c **** 			{0xA2u, 0x04u},
 386:.\Generated_Source\PSoC4/cyfitter_cfg.c **** 			{0xA4u, 0x04u},
 387:.\Generated_Source\PSoC4/cyfitter_cfg.c **** 			{0xA5u, 0x08u},
 388:.\Generated_Source\PSoC4/cyfitter_cfg.c **** 			{0xA6u, 0x10u},
 389:.\Generated_Source\PSoC4/cyfitter_cfg.c **** 			{0xA8u, 0x10u},
 390:.\Generated_Source\PSoC4/cyfitter_cfg.c **** 			{0xA9u, 0x10u},
 391:.\Generated_Source\PSoC4/cyfitter_cfg.c **** 			{0xAAu, 0x04u},
 392:.\Generated_Source\PSoC4/cyfitter_cfg.c **** 			{0xB1u, 0x20u},
 393:.\Generated_Source\PSoC4/cyfitter_cfg.c **** 			{0xB2u, 0xE0u},
 394:.\Generated_Source\PSoC4/cyfitter_cfg.c **** 			{0xB3u, 0x1Cu},
 395:.\Generated_Source\PSoC4/cyfitter_cfg.c **** 			{0xB4u, 0x01u},
 396:.\Generated_Source\PSoC4/cyfitter_cfg.c **** 			{0xB5u, 0x03u},
 397:.\Generated_Source\PSoC4/cyfitter_cfg.c **** 			{0xB6u, 0x1Eu},
 398:.\Generated_Source\PSoC4/cyfitter_cfg.c **** 			{0xBAu, 0x88u},
ARM GAS  C:\Users\X0217454\AppData\Local\Temp\ccCTgOik.s 			page 17


 399:.\Generated_Source\PSoC4/cyfitter_cfg.c **** 			{0xBEu, 0x10u},
 400:.\Generated_Source\PSoC4/cyfitter_cfg.c **** 			{0xBFu, 0x01u},
 401:.\Generated_Source\PSoC4/cyfitter_cfg.c **** 			{0xD4u, 0x09u},
 402:.\Generated_Source\PSoC4/cyfitter_cfg.c **** 			{0xD8u, 0x04u},
 403:.\Generated_Source\PSoC4/cyfitter_cfg.c **** 			{0xD9u, 0x04u},
 404:.\Generated_Source\PSoC4/cyfitter_cfg.c **** 			{0xDBu, 0x04u},
 405:.\Generated_Source\PSoC4/cyfitter_cfg.c **** 			{0xDFu, 0x01u},
 406:.\Generated_Source\PSoC4/cyfitter_cfg.c **** 			{0x04u, 0x20u},
 407:.\Generated_Source\PSoC4/cyfitter_cfg.c **** 			{0x05u, 0x44u},
 408:.\Generated_Source\PSoC4/cyfitter_cfg.c **** 			{0x06u, 0x08u},
 409:.\Generated_Source\PSoC4/cyfitter_cfg.c **** 			{0x07u, 0x02u},
 410:.\Generated_Source\PSoC4/cyfitter_cfg.c **** 			{0x0Au, 0x01u},
 411:.\Generated_Source\PSoC4/cyfitter_cfg.c **** 			{0x0Du, 0x01u},
 412:.\Generated_Source\PSoC4/cyfitter_cfg.c **** 			{0x0Eu, 0x18u},
 413:.\Generated_Source\PSoC4/cyfitter_cfg.c **** 			{0x0Fu, 0x01u},
 414:.\Generated_Source\PSoC4/cyfitter_cfg.c **** 			{0x10u, 0x2Au},
 415:.\Generated_Source\PSoC4/cyfitter_cfg.c **** 			{0x13u, 0x01u},
 416:.\Generated_Source\PSoC4/cyfitter_cfg.c **** 			{0x17u, 0x25u},
 417:.\Generated_Source\PSoC4/cyfitter_cfg.c **** 			{0x19u, 0x02u},
 418:.\Generated_Source\PSoC4/cyfitter_cfg.c **** 			{0x1Du, 0x4Cu},
 419:.\Generated_Source\PSoC4/cyfitter_cfg.c **** 			{0x1Fu, 0x10u},
 420:.\Generated_Source\PSoC4/cyfitter_cfg.c **** 			{0x20u, 0x01u},
 421:.\Generated_Source\PSoC4/cyfitter_cfg.c **** 			{0x21u, 0x02u},
 422:.\Generated_Source\PSoC4/cyfitter_cfg.c **** 			{0x24u, 0x90u},
 423:.\Generated_Source\PSoC4/cyfitter_cfg.c **** 			{0x26u, 0x2Cu},
 424:.\Generated_Source\PSoC4/cyfitter_cfg.c **** 			{0x29u, 0x04u},
 425:.\Generated_Source\PSoC4/cyfitter_cfg.c **** 			{0x2Eu, 0x19u},
 426:.\Generated_Source\PSoC4/cyfitter_cfg.c **** 			{0x2Fu, 0x08u},
 427:.\Generated_Source\PSoC4/cyfitter_cfg.c **** 			{0x31u, 0x42u},
 428:.\Generated_Source\PSoC4/cyfitter_cfg.c **** 			{0x32u, 0x08u},
 429:.\Generated_Source\PSoC4/cyfitter_cfg.c **** 			{0x35u, 0x40u},
 430:.\Generated_Source\PSoC4/cyfitter_cfg.c **** 			{0x36u, 0x20u},
 431:.\Generated_Source\PSoC4/cyfitter_cfg.c **** 			{0x37u, 0x05u},
 432:.\Generated_Source\PSoC4/cyfitter_cfg.c **** 			{0x38u, 0x80u},
 433:.\Generated_Source\PSoC4/cyfitter_cfg.c **** 			{0x3Au, 0x40u},
 434:.\Generated_Source\PSoC4/cyfitter_cfg.c **** 			{0x3Cu, 0x10u},
 435:.\Generated_Source\PSoC4/cyfitter_cfg.c **** 			{0x3Du, 0x80u},
 436:.\Generated_Source\PSoC4/cyfitter_cfg.c **** 			{0x3Eu, 0x04u},
 437:.\Generated_Source\PSoC4/cyfitter_cfg.c **** 			{0x3Fu, 0x01u},
 438:.\Generated_Source\PSoC4/cyfitter_cfg.c **** 			{0x5Cu, 0x82u},
 439:.\Generated_Source\PSoC4/cyfitter_cfg.c **** 			{0x5Du, 0x0Au},
 440:.\Generated_Source\PSoC4/cyfitter_cfg.c **** 			{0x5Eu, 0x10u},
 441:.\Generated_Source\PSoC4/cyfitter_cfg.c **** 			{0x60u, 0x01u},
 442:.\Generated_Source\PSoC4/cyfitter_cfg.c **** 			{0x66u, 0x40u},
 443:.\Generated_Source\PSoC4/cyfitter_cfg.c **** 			{0x68u, 0x2Au},
 444:.\Generated_Source\PSoC4/cyfitter_cfg.c **** 			{0x69u, 0x06u},
 445:.\Generated_Source\PSoC4/cyfitter_cfg.c **** 			{0x6Au, 0x05u},
 446:.\Generated_Source\PSoC4/cyfitter_cfg.c **** 			{0x6Bu, 0x25u},
 447:.\Generated_Source\PSoC4/cyfitter_cfg.c **** 			{0x73u, 0x01u},
 448:.\Generated_Source\PSoC4/cyfitter_cfg.c **** 			{0x85u, 0x48u},
 449:.\Generated_Source\PSoC4/cyfitter_cfg.c **** 			{0x86u, 0x20u},
 450:.\Generated_Source\PSoC4/cyfitter_cfg.c **** 			{0xC0u, 0xE0u},
 451:.\Generated_Source\PSoC4/cyfitter_cfg.c **** 			{0xC2u, 0xF1u},
 452:.\Generated_Source\PSoC4/cyfitter_cfg.c **** 			{0xC4u, 0x7Fu},
 453:.\Generated_Source\PSoC4/cyfitter_cfg.c **** 			{0xCAu, 0xE2u},
 454:.\Generated_Source\PSoC4/cyfitter_cfg.c **** 			{0xCCu, 0xFBu},
 455:.\Generated_Source\PSoC4/cyfitter_cfg.c **** 			{0xCEu, 0xF0u},
ARM GAS  C:\Users\X0217454\AppData\Local\Temp\ccCTgOik.s 			page 18


 456:.\Generated_Source\PSoC4/cyfitter_cfg.c **** 			{0xD6u, 0xF0u},
 457:.\Generated_Source\PSoC4/cyfitter_cfg.c **** 			{0xD8u, 0x18u},
 458:.\Generated_Source\PSoC4/cyfitter_cfg.c **** 			{0x81u, 0x04u},
 459:.\Generated_Source\PSoC4/cyfitter_cfg.c **** 			{0x85u, 0x04u},
 460:.\Generated_Source\PSoC4/cyfitter_cfg.c **** 			{0x89u, 0x04u},
 461:.\Generated_Source\PSoC4/cyfitter_cfg.c **** 			{0x91u, 0x04u},
 462:.\Generated_Source\PSoC4/cyfitter_cfg.c **** 			{0x97u, 0x04u},
 463:.\Generated_Source\PSoC4/cyfitter_cfg.c **** 			{0x99u, 0x01u},
 464:.\Generated_Source\PSoC4/cyfitter_cfg.c **** 			{0x9Du, 0x0Au},
 465:.\Generated_Source\PSoC4/cyfitter_cfg.c **** 			{0x9Fu, 0x10u},
 466:.\Generated_Source\PSoC4/cyfitter_cfg.c **** 			{0xA1u, 0x60u},
 467:.\Generated_Source\PSoC4/cyfitter_cfg.c **** 			{0xA5u, 0x56u},
 468:.\Generated_Source\PSoC4/cyfitter_cfg.c **** 			{0xA7u, 0x09u},
 469:.\Generated_Source\PSoC4/cyfitter_cfg.c **** 			{0xA9u, 0x07u},
 470:.\Generated_Source\PSoC4/cyfitter_cfg.c **** 			{0xABu, 0x38u},
 471:.\Generated_Source\PSoC4/cyfitter_cfg.c **** 			{0xADu, 0x04u},
 472:.\Generated_Source\PSoC4/cyfitter_cfg.c **** 			{0xB5u, 0x7Fu},
 473:.\Generated_Source\PSoC4/cyfitter_cfg.c **** 			{0xB9u, 0x20u},
 474:.\Generated_Source\PSoC4/cyfitter_cfg.c **** 			{0xD9u, 0x04u},
 475:.\Generated_Source\PSoC4/cyfitter_cfg.c **** 			{0xDFu, 0x01u},
 476:.\Generated_Source\PSoC4/cyfitter_cfg.c **** 			{0x04u, 0x10u},
 477:.\Generated_Source\PSoC4/cyfitter_cfg.c **** 			{0x05u, 0x80u},
 478:.\Generated_Source\PSoC4/cyfitter_cfg.c **** 			{0x06u, 0x82u},
 479:.\Generated_Source\PSoC4/cyfitter_cfg.c **** 			{0x0Cu, 0x02u},
 480:.\Generated_Source\PSoC4/cyfitter_cfg.c **** 			{0x0Du, 0x08u},
 481:.\Generated_Source\PSoC4/cyfitter_cfg.c **** 			{0x0Eu, 0x08u},
 482:.\Generated_Source\PSoC4/cyfitter_cfg.c **** 			{0x0Fu, 0x01u},
 483:.\Generated_Source\PSoC4/cyfitter_cfg.c **** 			{0x15u, 0x02u},
 484:.\Generated_Source\PSoC4/cyfitter_cfg.c **** 			{0x16u, 0x40u},
 485:.\Generated_Source\PSoC4/cyfitter_cfg.c **** 			{0x17u, 0x24u},
 486:.\Generated_Source\PSoC4/cyfitter_cfg.c **** 			{0x1Cu, 0x10u},
 487:.\Generated_Source\PSoC4/cyfitter_cfg.c **** 			{0x1Fu, 0x10u},
 488:.\Generated_Source\PSoC4/cyfitter_cfg.c **** 			{0x21u, 0x20u},
 489:.\Generated_Source\PSoC4/cyfitter_cfg.c **** 			{0x24u, 0x20u},
 490:.\Generated_Source\PSoC4/cyfitter_cfg.c **** 			{0x26u, 0x80u},
 491:.\Generated_Source\PSoC4/cyfitter_cfg.c **** 			{0x27u, 0x10u},
 492:.\Generated_Source\PSoC4/cyfitter_cfg.c **** 			{0x29u, 0x24u},
 493:.\Generated_Source\PSoC4/cyfitter_cfg.c **** 			{0x2Au, 0x40u},
 494:.\Generated_Source\PSoC4/cyfitter_cfg.c **** 			{0x2Bu, 0x40u},
 495:.\Generated_Source\PSoC4/cyfitter_cfg.c **** 			{0x2Cu, 0x02u},
 496:.\Generated_Source\PSoC4/cyfitter_cfg.c **** 			{0x2Du, 0x20u},
 497:.\Generated_Source\PSoC4/cyfitter_cfg.c **** 			{0x2Eu, 0x01u},
 498:.\Generated_Source\PSoC4/cyfitter_cfg.c **** 			{0x30u, 0x02u},
 499:.\Generated_Source\PSoC4/cyfitter_cfg.c **** 			{0x31u, 0x60u},
 500:.\Generated_Source\PSoC4/cyfitter_cfg.c **** 			{0x33u, 0x04u},
 501:.\Generated_Source\PSoC4/cyfitter_cfg.c **** 			{0x36u, 0x80u},
 502:.\Generated_Source\PSoC4/cyfitter_cfg.c **** 			{0x37u, 0x16u},
 503:.\Generated_Source\PSoC4/cyfitter_cfg.c **** 			{0x38u, 0x20u},
 504:.\Generated_Source\PSoC4/cyfitter_cfg.c **** 			{0x39u, 0x04u},
 505:.\Generated_Source\PSoC4/cyfitter_cfg.c **** 			{0x3Bu, 0x01u},
 506:.\Generated_Source\PSoC4/cyfitter_cfg.c **** 			{0x3Eu, 0x24u},
 507:.\Generated_Source\PSoC4/cyfitter_cfg.c **** 			{0x3Fu, 0x01u},
 508:.\Generated_Source\PSoC4/cyfitter_cfg.c **** 			{0x44u, 0x0Au},
 509:.\Generated_Source\PSoC4/cyfitter_cfg.c **** 			{0x45u, 0x08u},
 510:.\Generated_Source\PSoC4/cyfitter_cfg.c **** 			{0x46u, 0xA0u},
 511:.\Generated_Source\PSoC4/cyfitter_cfg.c **** 			{0x47u, 0x02u},
 512:.\Generated_Source\PSoC4/cyfitter_cfg.c **** 			{0x4Du, 0x28u},
ARM GAS  C:\Users\X0217454\AppData\Local\Temp\ccCTgOik.s 			page 19


 513:.\Generated_Source\PSoC4/cyfitter_cfg.c **** 			{0x4Eu, 0x08u},
 514:.\Generated_Source\PSoC4/cyfitter_cfg.c **** 			{0x56u, 0x12u},
 515:.\Generated_Source\PSoC4/cyfitter_cfg.c **** 			{0x57u, 0x48u},
 516:.\Generated_Source\PSoC4/cyfitter_cfg.c **** 			{0x65u, 0x80u},
 517:.\Generated_Source\PSoC4/cyfitter_cfg.c **** 			{0x66u, 0x10u},
 518:.\Generated_Source\PSoC4/cyfitter_cfg.c **** 			{0x67u, 0x20u},
 519:.\Generated_Source\PSoC4/cyfitter_cfg.c **** 			{0x8Cu, 0x08u},
 520:.\Generated_Source\PSoC4/cyfitter_cfg.c **** 			{0x8Du, 0x20u},
 521:.\Generated_Source\PSoC4/cyfitter_cfg.c **** 			{0x91u, 0x06u},
 522:.\Generated_Source\PSoC4/cyfitter_cfg.c **** 			{0x92u, 0x05u},
 523:.\Generated_Source\PSoC4/cyfitter_cfg.c **** 			{0x93u, 0x01u},
 524:.\Generated_Source\PSoC4/cyfitter_cfg.c **** 			{0x94u, 0x20u},
 525:.\Generated_Source\PSoC4/cyfitter_cfg.c **** 			{0x98u, 0x02u},
 526:.\Generated_Source\PSoC4/cyfitter_cfg.c **** 			{0x99u, 0x44u},
 527:.\Generated_Source\PSoC4/cyfitter_cfg.c **** 			{0x9Bu, 0x26u},
 528:.\Generated_Source\PSoC4/cyfitter_cfg.c **** 			{0x9Du, 0x08u},
 529:.\Generated_Source\PSoC4/cyfitter_cfg.c **** 			{0xA0u, 0x02u},
 530:.\Generated_Source\PSoC4/cyfitter_cfg.c **** 			{0xA1u, 0x08u},
 531:.\Generated_Source\PSoC4/cyfitter_cfg.c **** 			{0xA2u, 0x0Cu},
 532:.\Generated_Source\PSoC4/cyfitter_cfg.c **** 			{0xA7u, 0x08u},
 533:.\Generated_Source\PSoC4/cyfitter_cfg.c **** 			{0xACu, 0x80u},
 534:.\Generated_Source\PSoC4/cyfitter_cfg.c **** 			{0xAFu, 0x10u},
 535:.\Generated_Source\PSoC4/cyfitter_cfg.c **** 			{0xC0u, 0xD0u},
 536:.\Generated_Source\PSoC4/cyfitter_cfg.c **** 			{0xC2u, 0xF0u},
 537:.\Generated_Source\PSoC4/cyfitter_cfg.c **** 			{0xC4u, 0x70u},
 538:.\Generated_Source\PSoC4/cyfitter_cfg.c **** 			{0xCAu, 0xBFu},
 539:.\Generated_Source\PSoC4/cyfitter_cfg.c **** 			{0xCCu, 0xFFu},
 540:.\Generated_Source\PSoC4/cyfitter_cfg.c **** 			{0xCEu, 0xE7u},
 541:.\Generated_Source\PSoC4/cyfitter_cfg.c **** 			{0xD0u, 0xF0u},
 542:.\Generated_Source\PSoC4/cyfitter_cfg.c **** 			{0xD2u, 0x20u},
 543:.\Generated_Source\PSoC4/cyfitter_cfg.c **** 			{0xD8u, 0x70u},
 544:.\Generated_Source\PSoC4/cyfitter_cfg.c **** 			{0x11u, 0x08u},
 545:.\Generated_Source\PSoC4/cyfitter_cfg.c **** 			{0x5Fu, 0x02u},
 546:.\Generated_Source\PSoC4/cyfitter_cfg.c **** 			{0x6Du, 0x08u},
 547:.\Generated_Source\PSoC4/cyfitter_cfg.c **** 			{0x87u, 0x02u},
 548:.\Generated_Source\PSoC4/cyfitter_cfg.c **** 			{0xC4u, 0x10u},
 549:.\Generated_Source\PSoC4/cyfitter_cfg.c **** 			{0xD6u, 0x80u},
 550:.\Generated_Source\PSoC4/cyfitter_cfg.c **** 			{0xDAu, 0x80u},
 551:.\Generated_Source\PSoC4/cyfitter_cfg.c **** 			{0xE6u, 0x40u},
 552:.\Generated_Source\PSoC4/cyfitter_cfg.c **** 			{0x04u, 0x02u},
 553:.\Generated_Source\PSoC4/cyfitter_cfg.c **** 			{0x54u, 0x02u},
 554:.\Generated_Source\PSoC4/cyfitter_cfg.c **** 			{0x8Cu, 0x03u},
 555:.\Generated_Source\PSoC4/cyfitter_cfg.c **** 			{0xC0u, 0x04u},
 556:.\Generated_Source\PSoC4/cyfitter_cfg.c **** 			{0xD6u, 0x04u},
 557:.\Generated_Source\PSoC4/cyfitter_cfg.c **** 			{0xE2u, 0x02u},
 558:.\Generated_Source\PSoC4/cyfitter_cfg.c **** 			{0xE4u, 0x02u},
 559:.\Generated_Source\PSoC4/cyfitter_cfg.c **** 			{0x10u, 0x01u},
 560:.\Generated_Source\PSoC4/cyfitter_cfg.c **** 			{0x11u, 0x01u},
 561:.\Generated_Source\PSoC4/cyfitter_cfg.c **** 		};
 562:.\Generated_Source\PSoC4/cyfitter_cfg.c **** 
 563:.\Generated_Source\PSoC4/cyfitter_cfg.c **** 
 564:.\Generated_Source\PSoC4/cyfitter_cfg.c **** 
 565:.\Generated_Source\PSoC4/cyfitter_cfg.c **** 		CYPACKED typedef struct {
 566:.\Generated_Source\PSoC4/cyfitter_cfg.c **** 			void CYFAR *address;
 567:.\Generated_Source\PSoC4/cyfitter_cfg.c **** 			uint16 size;
 568:.\Generated_Source\PSoC4/cyfitter_cfg.c **** 		} CYPACKED_ATTR cfg_memset_t;
 569:.\Generated_Source\PSoC4/cyfitter_cfg.c **** 
ARM GAS  C:\Users\X0217454\AppData\Local\Temp\ccCTgOik.s 			page 20


 570:.\Generated_Source\PSoC4/cyfitter_cfg.c **** 
 571:.\Generated_Source\PSoC4/cyfitter_cfg.c **** 		CYPACKED typedef struct {
 572:.\Generated_Source\PSoC4/cyfitter_cfg.c **** 			void CYFAR *dest;
 573:.\Generated_Source\PSoC4/cyfitter_cfg.c **** 			const void CYCODE *src;
 574:.\Generated_Source\PSoC4/cyfitter_cfg.c **** 			uint16 size;
 575:.\Generated_Source\PSoC4/cyfitter_cfg.c **** 		} CYPACKED_ATTR cfg_memcpy_t;
 576:.\Generated_Source\PSoC4/cyfitter_cfg.c **** 
 577:.\Generated_Source\PSoC4/cyfitter_cfg.c **** 		static const cfg_memset_t CYCODE cfg_memset_list [] = {
 578:.\Generated_Source\PSoC4/cyfitter_cfg.c **** 			/* address, size */
 579:.\Generated_Source\PSoC4/cyfitter_cfg.c **** 			{(void CYFAR *)(CYDEV_UDB_P0_U0_BASE), 512u},
 580:.\Generated_Source\PSoC4/cyfitter_cfg.c **** 			{(void CYFAR *)(CYDEV_UDB_P1_U1_BASE), 384u},
 581:.\Generated_Source\PSoC4/cyfitter_cfg.c **** 			{(void CYFAR *)(CYDEV_UDB_DSI0_BASE), 1024u},
 582:.\Generated_Source\PSoC4/cyfitter_cfg.c **** 		};
 583:.\Generated_Source\PSoC4/cyfitter_cfg.c **** 
 584:.\Generated_Source\PSoC4/cyfitter_cfg.c **** 		/* UDB_0_0_1_CONFIG Address: CYDEV_UDB_P1_U0_BASE Size (bytes): 128 */
 585:.\Generated_Source\PSoC4/cyfitter_cfg.c **** 		static const uint8 CYCODE BS_UDB_0_0_1_CONFIG_VAL[] = {
 586:.\Generated_Source\PSoC4/cyfitter_cfg.c **** 			0x04u, 0x40u, 0x08u, 0x00u, 0x00u, 0x40u, 0x00u, 0x00u, 0x04u, 0x74u, 0x1Au, 0x09u, 0x00u, 0x00u
 587:.\Generated_Source\PSoC4/cyfitter_cfg.c **** 			0x1Au, 0x15u, 0x01u, 0x6Au, 0x04u, 0x00u, 0x10u, 0x40u, 0x02u, 0x10u, 0x04u, 0x60u, 0x1Bu, 0x0Eu
 588:.\Generated_Source\PSoC4/cyfitter_cfg.c **** 			0x1Bu, 0x40u, 0x00u, 0x00u, 0x1Bu, 0x00u, 0x00u, 0x00u, 0x1Bu, 0x03u, 0x00u, 0x34u, 0x00u, 0x40u
 589:.\Generated_Source\PSoC4/cyfitter_cfg.c **** 			0x00u, 0x00u, 0x1Eu, 0x70u, 0x01u, 0x00u, 0x00u, 0x0Fu, 0x00u, 0x80u, 0x08u, 0x08u, 0x00u, 0x00u
 590:.\Generated_Source\PSoC4/cyfitter_cfg.c **** 			0x43u, 0x06u, 0x10u, 0x00u, 0x02u, 0x0Eu, 0xFBu, 0xDCu, 0x3Du, 0xFFu, 0xFFu, 0xFFu, 0x22u, 0x00u
 591:.\Generated_Source\PSoC4/cyfitter_cfg.c **** 			0x04u, 0x00u, 0x00u, 0x00u, 0x40u, 0x00u, 0x00u, 0x00u, 0x04u, 0x04u, 0x04u, 0x04u, 0x00u, 0x00u
 592:.\Generated_Source\PSoC4/cyfitter_cfg.c **** 			0x00u, 0x00u, 0xC0u, 0x00u, 0x40u, 0x01u, 0x10u, 0x11u, 0xC0u, 0x01u, 0x00u, 0x11u, 0x40u, 0x01u
 593:.\Generated_Source\PSoC4/cyfitter_cfg.c **** 			0x00u, 0x00u, 0x00u, 0x00u, 0x00u, 0x00u, 0x00u, 0x00u, 0x00u, 0x00u, 0x00u, 0x00u, 0x00u, 0x00u
 594:.\Generated_Source\PSoC4/cyfitter_cfg.c **** 
 595:.\Generated_Source\PSoC4/cyfitter_cfg.c **** 		static const cfg_memcpy_t CYCODE cfg_memcpy_list [] = {
 596:.\Generated_Source\PSoC4/cyfitter_cfg.c **** 			/* dest, src, size */
 597:.\Generated_Source\PSoC4/cyfitter_cfg.c **** 			{(void CYFAR *)(CYDEV_UDB_P1_U0_BASE), BS_UDB_0_0_1_CONFIG_VAL, 128u},
 598:.\Generated_Source\PSoC4/cyfitter_cfg.c **** 		};
 599:.\Generated_Source\PSoC4/cyfitter_cfg.c **** 
 600:.\Generated_Source\PSoC4/cyfitter_cfg.c **** 		uint8 CYDATA i;
 601:.\Generated_Source\PSoC4/cyfitter_cfg.c **** 
 602:.\Generated_Source\PSoC4/cyfitter_cfg.c **** 		/* Zero out critical memory blocks before beginning configuration */
 603:.\Generated_Source\PSoC4/cyfitter_cfg.c **** 		for (i = 0u; i < (sizeof(cfg_memset_list)/sizeof(cfg_memset_list[0])); i++)
 509              		.loc 1 603 0
 510 015e 3B1C     		mov	r3, r7
 511 0160 1733     		add	r3, r3, #23
 512 0162 0022     		mov	r2, #0
 513 0164 1A70     		strb	r2, [r3]
 514 0166 26E0     		b	.L20
 515              	.L21:
 516              	.LBB4:
 604:.\Generated_Source\PSoC4/cyfitter_cfg.c **** 		{
 605:.\Generated_Source\PSoC4/cyfitter_cfg.c **** 			const cfg_memset_t CYCODE * CYDATA ms = &cfg_memset_list[i];
 517              		.loc 1 605 0 discriminator 2
 518 0168 3B1C     		mov	r3, r7
 519 016a 1733     		add	r3, r3, #23
 520 016c 1A78     		ldrb	r2, [r3]
 521 016e 131C     		mov	r3, r2
 522 0170 5B00     		lsl	r3, r3, #1
 523 0172 9B18     		add	r3, r3, r2
 524 0174 5B00     		lsl	r3, r3, #1
 525 0176 664A     		ldr	r2, .L24+4
 526 0178 9B18     		add	r3, r3, r2
 527 017a 3B61     		str	r3, [r7, #16]
 606:.\Generated_Source\PSoC4/cyfitter_cfg.c **** 			CYMEMZERO(ms->address, (uint32)(ms->size));
 528              		.loc 1 606 0 discriminator 2
ARM GAS  C:\Users\X0217454\AppData\Local\Temp\ccCTgOik.s 			page 21


 529 017c 3B69     		ldr	r3, [r7, #16]
 530 017e 1A78     		ldrb	r2, [r3]
 531 0180 5978     		ldrb	r1, [r3, #1]
 532 0182 0902     		lsl	r1, r1, #8
 533 0184 0A43     		orr	r2, r1
 534 0186 9978     		ldrb	r1, [r3, #2]
 535 0188 0904     		lsl	r1, r1, #16
 536 018a 0A43     		orr	r2, r1
 537 018c DB78     		ldrb	r3, [r3, #3]
 538 018e 1B06     		lsl	r3, r3, #24
 539 0190 1343     		orr	r3, r2
 540 0192 1A1C     		mov	r2, r3
 541 0194 3B69     		ldr	r3, [r7, #16]
 542 0196 1979     		ldrb	r1, [r3, #4]
 543 0198 5B79     		ldrb	r3, [r3, #5]
 544 019a 1B02     		lsl	r3, r3, #8
 545 019c 0B43     		orr	r3, r1
 546 019e 9BB2     		uxth	r3, r3
 547 01a0 101C     		mov	r0, r2
 548 01a2 191C     		mov	r1, r3
 549 01a4 FFF7FEFF 		bl	CYMEMZERO
 550              	.LBE4:
 603:.\Generated_Source\PSoC4/cyfitter_cfg.c **** 		for (i = 0u; i < (sizeof(cfg_memset_list)/sizeof(cfg_memset_list[0])); i++)
 551              		.loc 1 603 0 discriminator 2
 552 01a8 3B1C     		mov	r3, r7
 553 01aa 1733     		add	r3, r3, #23
 554 01ac 3A1C     		mov	r2, r7
 555 01ae 1732     		add	r2, r2, #23
 556 01b0 1278     		ldrb	r2, [r2]
 557 01b2 0132     		add	r2, r2, #1
 558 01b4 1A70     		strb	r2, [r3]
 559              	.L20:
 603:.\Generated_Source\PSoC4/cyfitter_cfg.c **** 		for (i = 0u; i < (sizeof(cfg_memset_list)/sizeof(cfg_memset_list[0])); i++)
 560              		.loc 1 603 0 is_stmt 0 discriminator 1
 561 01b6 3B1C     		mov	r3, r7
 562 01b8 1733     		add	r3, r3, #23
 563 01ba 1B78     		ldrb	r3, [r3]
 564 01bc 022B     		cmp	r3, #2
 565 01be D3D9     		bls	.L21
 607:.\Generated_Source\PSoC4/cyfitter_cfg.c **** 		}
 608:.\Generated_Source\PSoC4/cyfitter_cfg.c **** 
 609:.\Generated_Source\PSoC4/cyfitter_cfg.c **** 		/* Copy device configuration data into registers */
 610:.\Generated_Source\PSoC4/cyfitter_cfg.c **** 		for (i = 0u; i < (sizeof(cfg_memcpy_list)/sizeof(cfg_memcpy_list[0])); i++)
 566              		.loc 1 610 0 is_stmt 1
 567 01c0 3B1C     		mov	r3, r7
 568 01c2 1733     		add	r3, r3, #23
 569 01c4 0022     		mov	r2, #0
 570 01c6 1A70     		strb	r2, [r3]
 571 01c8 38E0     		b	.L22
 572              	.L23:
 573              	.LBB5:
 611:.\Generated_Source\PSoC4/cyfitter_cfg.c **** 		{
 612:.\Generated_Source\PSoC4/cyfitter_cfg.c **** 			const cfg_memcpy_t CYCODE * CYDATA mc = &cfg_memcpy_list[i];
 574              		.loc 1 612 0 discriminator 2
 575 01ca 3B1C     		mov	r3, r7
 576 01cc 1733     		add	r3, r3, #23
 577 01ce 1A78     		ldrb	r2, [r3]
ARM GAS  C:\Users\X0217454\AppData\Local\Temp\ccCTgOik.s 			page 22


 578 01d0 131C     		mov	r3, r2
 579 01d2 9B00     		lsl	r3, r3, #2
 580 01d4 9B18     		add	r3, r3, r2
 581 01d6 5B00     		lsl	r3, r3, #1
 582 01d8 4E4A     		ldr	r2, .L24+8
 583 01da 9B18     		add	r3, r3, r2
 584 01dc FB60     		str	r3, [r7, #12]
 613:.\Generated_Source\PSoC4/cyfitter_cfg.c **** 			void * CYDATA destPtr = mc->dest;
 585              		.loc 1 613 0 discriminator 2
 586 01de FB68     		ldr	r3, [r7, #12]
 587 01e0 1A78     		ldrb	r2, [r3]
 588 01e2 5978     		ldrb	r1, [r3, #1]
 589 01e4 0902     		lsl	r1, r1, #8
 590 01e6 0A43     		orr	r2, r1
 591 01e8 9978     		ldrb	r1, [r3, #2]
 592 01ea 0904     		lsl	r1, r1, #16
 593 01ec 0A43     		orr	r2, r1
 594 01ee DB78     		ldrb	r3, [r3, #3]
 595 01f0 1B06     		lsl	r3, r3, #24
 596 01f2 1343     		orr	r3, r2
 597 01f4 BB60     		str	r3, [r7, #8]
 614:.\Generated_Source\PSoC4/cyfitter_cfg.c **** 			const void CYCODE * CYDATA srcPtr = mc->src;
 598              		.loc 1 614 0 discriminator 2
 599 01f6 FB68     		ldr	r3, [r7, #12]
 600 01f8 1A79     		ldrb	r2, [r3, #4]
 601 01fa 5979     		ldrb	r1, [r3, #5]
 602 01fc 0902     		lsl	r1, r1, #8
 603 01fe 0A43     		orr	r2, r1
 604 0200 9979     		ldrb	r1, [r3, #6]
 605 0202 0904     		lsl	r1, r1, #16
 606 0204 0A43     		orr	r2, r1
 607 0206 DB79     		ldrb	r3, [r3, #7]
 608 0208 1B06     		lsl	r3, r3, #24
 609 020a 1343     		orr	r3, r2
 610 020c 7B60     		str	r3, [r7, #4]
 615:.\Generated_Source\PSoC4/cyfitter_cfg.c **** 			uint16 CYDATA numBytes = mc->size;
 611              		.loc 1 615 0 discriminator 2
 612 020e BA1C     		add	r2, r7, #2
 613 0210 FB68     		ldr	r3, [r7, #12]
 614 0212 197A     		ldrb	r1, [r3, #8]
 615 0214 5B7A     		ldrb	r3, [r3, #9]
 616 0216 1B02     		lsl	r3, r3, #8
 617 0218 0B43     		orr	r3, r1
 618 021a 1380     		strh	r3, [r2]
 616:.\Generated_Source\PSoC4/cyfitter_cfg.c **** 			CYCONFIGCPYCODE(destPtr, srcPtr, numBytes);
 619              		.loc 1 616 0 discriminator 2
 620 021c BB1C     		add	r3, r7, #2
 621 021e 1B88     		ldrh	r3, [r3]
 622 0220 B968     		ldr	r1, [r7, #8]
 623 0222 7A68     		ldr	r2, [r7, #4]
 624 0224 081C     		mov	r0, r1
 625 0226 111C     		mov	r1, r2
 626 0228 1A1C     		mov	r2, r3
 627 022a FFF7FEFF 		bl	CYCONFIGCPYCODE
 628              	.LBE5:
 610:.\Generated_Source\PSoC4/cyfitter_cfg.c **** 		for (i = 0u; i < (sizeof(cfg_memcpy_list)/sizeof(cfg_memcpy_list[0])); i++)
 629              		.loc 1 610 0 discriminator 2
ARM GAS  C:\Users\X0217454\AppData\Local\Temp\ccCTgOik.s 			page 23


 630 022e 3B1C     		mov	r3, r7
 631 0230 1733     		add	r3, r3, #23
 632 0232 3A1C     		mov	r2, r7
 633 0234 1732     		add	r2, r2, #23
 634 0236 1278     		ldrb	r2, [r2]
 635 0238 0132     		add	r2, r2, #1
 636 023a 1A70     		strb	r2, [r3]
 637              	.L22:
 610:.\Generated_Source\PSoC4/cyfitter_cfg.c **** 		for (i = 0u; i < (sizeof(cfg_memcpy_list)/sizeof(cfg_memcpy_list[0])); i++)
 638              		.loc 1 610 0 is_stmt 0 discriminator 1
 639 023c 3B1C     		mov	r3, r7
 640 023e 1733     		add	r3, r3, #23
 641 0240 1B78     		ldrb	r3, [r3]
 642 0242 002B     		cmp	r3, #0
 643 0244 C1D0     		beq	.L23
 617:.\Generated_Source\PSoC4/cyfitter_cfg.c **** 		}
 618:.\Generated_Source\PSoC4/cyfitter_cfg.c **** 
 619:.\Generated_Source\PSoC4/cyfitter_cfg.c **** 		cfg_write_bytes32(cy_cfg_addr_table, cy_cfg_data_table);
 644              		.loc 1 619 0 is_stmt 1
 645 0246 344A     		ldr	r2, .L24+12
 646 0248 344B     		ldr	r3, .L24+16
 647 024a 101C     		mov	r0, r2
 648 024c 191C     		mov	r1, r3
 649 024e FFF7FEFF 		bl	cfg_write_bytes32
 620:.\Generated_Source\PSoC4/cyfitter_cfg.c **** 
 621:.\Generated_Source\PSoC4/cyfitter_cfg.c **** 		/* Perform normal device configuration. Order is not critical for these items. */
 622:.\Generated_Source\PSoC4/cyfitter_cfg.c **** 		CY_SET_XTND_REG16((void CYFAR *)(CYREG_UDB_BCTL0_DRV), 0x0100u);
 650              		.loc 1 622 0
 651 0252 334B     		ldr	r3, .L24+20
 652 0254 8022     		mov	r2, #128
 653 0256 5200     		lsl	r2, r2, #1
 654 0258 1A80     		strh	r2, [r3]
 623:.\Generated_Source\PSoC4/cyfitter_cfg.c **** 		CY_SET_XTND_REG8((void CYFAR *)(CYREG_UDB_BCTL0_DRV + 0x2u), 0x01u);
 655              		.loc 1 623 0
 656 025a 324B     		ldr	r3, .L24+24
 657 025c 0122     		mov	r2, #1
 658 025e 1A70     		strb	r2, [r3]
 624:.\Generated_Source\PSoC4/cyfitter_cfg.c **** 
 625:.\Generated_Source\PSoC4/cyfitter_cfg.c **** 		/* HSIOM Starting address: CYDEV_HSIOM_BASE */
 626:.\Generated_Source\PSoC4/cyfitter_cfg.c **** 		CY_SET_XTND_REG32((void CYFAR *)(CYDEV_HSIOM_BASE), 0x03000000u);
 659              		.loc 1 626 0
 660 0260 314B     		ldr	r3, .L24+28
 661 0262 C022     		mov	r2, #192
 662 0264 9204     		lsl	r2, r2, #18
 663 0266 1A60     		str	r2, [r3]
 627:.\Generated_Source\PSoC4/cyfitter_cfg.c **** 		CY_SET_XTND_REG32((void CYFAR *)(CYREG_HSIOM_PORT_SEL3), 0x0000EE03u);
 664              		.loc 1 627 0
 665 0268 304B     		ldr	r3, .L24+32
 666 026a 314A     		ldr	r2, .L24+36
 667 026c 1A60     		str	r2, [r3]
 628:.\Generated_Source\PSoC4/cyfitter_cfg.c **** 		CY_SET_XTND_REG32((void CYFAR *)(CYREG_HSIOM_PORT_SEL4), 0x00000099u);
 668              		.loc 1 628 0
 669 026e 314B     		ldr	r3, .L24+40
 670 0270 9922     		mov	r2, #153
 671 0272 1A60     		str	r2, [r3]
 629:.\Generated_Source\PSoC4/cyfitter_cfg.c **** 
 630:.\Generated_Source\PSoC4/cyfitter_cfg.c **** 		/* IOPINS0_0 Starting address: CYDEV_PRT0_DR */
ARM GAS  C:\Users\X0217454\AppData\Local\Temp\ccCTgOik.s 			page 24


 631:.\Generated_Source\PSoC4/cyfitter_cfg.c **** 		CY_SET_XTND_REG32((void CYFAR *)(CYREG_PRT0_DR), 0x00000041u);
 672              		.loc 1 631 0
 673 0274 304B     		ldr	r3, .L24+44
 674 0276 4122     		mov	r2, #65
 675 0278 1A60     		str	r2, [r3]
 632:.\Generated_Source\PSoC4/cyfitter_cfg.c **** 		CY_SET_XTND_REG32((void CYFAR *)(CYREG_PRT0_PC), 0x00180D87u);
 676              		.loc 1 632 0
 677 027a 304B     		ldr	r3, .L24+48
 678 027c 304A     		ldr	r2, .L24+52
 679 027e 1A60     		str	r2, [r3]
 633:.\Generated_Source\PSoC4/cyfitter_cfg.c **** 		CY_SET_XTND_REG32((void CYFAR *)(CYREG_PRT0_INTCFG), 0x00000001u);
 680              		.loc 1 633 0
 681 0280 304B     		ldr	r3, .L24+56
 682 0282 0122     		mov	r2, #1
 683 0284 1A60     		str	r2, [r3]
 634:.\Generated_Source\PSoC4/cyfitter_cfg.c **** 
 635:.\Generated_Source\PSoC4/cyfitter_cfg.c **** 		/* IOPINS0_3 Starting address: CYDEV_PRT3_DR */
 636:.\Generated_Source\PSoC4/cyfitter_cfg.c **** 		CY_SET_XTND_REG32((void CYFAR *)(CYREG_PRT3_DR), 0x00000011u);
 684              		.loc 1 636 0
 685 0286 304B     		ldr	r3, .L24+60
 686 0288 1122     		mov	r2, #17
 687 028a 1A60     		str	r2, [r3]
 637:.\Generated_Source\PSoC4/cyfitter_cfg.c **** 		CY_SET_XTND_REG32((void CYFAR *)(CYREG_PRT3_PC), 0x00186D8Eu);
 688              		.loc 1 637 0
 689 028c 2F4B     		ldr	r3, .L24+64
 690 028e 304A     		ldr	r2, .L24+68
 691 0290 1A60     		str	r2, [r3]
 638:.\Generated_Source\PSoC4/cyfitter_cfg.c **** 
 639:.\Generated_Source\PSoC4/cyfitter_cfg.c **** 		/* IOPINS0_4 Starting address: CYDEV_PRT4_DR */
 640:.\Generated_Source\PSoC4/cyfitter_cfg.c **** 		CY_SET_XTND_REG32((void CYFAR *)(CYREG_PRT4_DR), 0x00000002u);
 692              		.loc 1 640 0
 693 0292 304B     		ldr	r3, .L24+72
 694 0294 0222     		mov	r2, #2
 695 0296 1A60     		str	r2, [r3]
 641:.\Generated_Source\PSoC4/cyfitter_cfg.c **** 		CY_SET_XTND_REG32((void CYFAR *)(CYREG_PRT4_PC), 0x00000031u);
 696              		.loc 1 641 0
 697 0298 2F4B     		ldr	r3, .L24+76
 698 029a 3122     		mov	r2, #49
 699 029c 1A60     		str	r2, [r3]
 642:.\Generated_Source\PSoC4/cyfitter_cfg.c **** 		CY_SET_XTND_REG32((void CYFAR *)(CYREG_PRT4_PC2), 0x00000002u);
 700              		.loc 1 642 0
 701 029e 2F4B     		ldr	r3, .L24+80
 702 02a0 0222     		mov	r2, #2
 703 02a2 1A60     		str	r2, [r3]
 643:.\Generated_Source\PSoC4/cyfitter_cfg.c **** 
 644:.\Generated_Source\PSoC4/cyfitter_cfg.c **** 		/* UDB_PA_0 Starting address: CYDEV_UDB_PA0_BASE */
 645:.\Generated_Source\PSoC4/cyfitter_cfg.c **** 		CY_SET_XTND_REG32((void CYFAR *)(CYDEV_UDB_PA0_BASE), 0x00990000u);
 704              		.loc 1 645 0
 705 02a4 2E4B     		ldr	r3, .L24+84
 706 02a6 9922     		mov	r2, #153
 707 02a8 1204     		lsl	r2, r2, #16
 708 02aa 1A60     		str	r2, [r3]
 646:.\Generated_Source\PSoC4/cyfitter_cfg.c **** 		CY_SET_XTND_REG32((void CYFAR *)(CYREG_UDB_PA0_CFG4), 0x00020000u);
 709              		.loc 1 646 0
 710 02ac 2D4B     		ldr	r3, .L24+88
 711 02ae 8022     		mov	r2, #128
 712 02b0 9202     		lsl	r2, r2, #10
ARM GAS  C:\Users\X0217454\AppData\Local\Temp\ccCTgOik.s 			page 25


 713 02b2 1A60     		str	r2, [r3]
 647:.\Generated_Source\PSoC4/cyfitter_cfg.c **** 		CY_SET_XTND_REG32((void CYFAR *)(CYREG_UDB_PA0_CFG8), 0x10000000u);
 714              		.loc 1 647 0
 715 02b4 2C4B     		ldr	r3, .L24+92
 716 02b6 8022     		mov	r2, #128
 717 02b8 5205     		lsl	r2, r2, #21
 718 02ba 1A60     		str	r2, [r3]
 648:.\Generated_Source\PSoC4/cyfitter_cfg.c **** 
 649:.\Generated_Source\PSoC4/cyfitter_cfg.c **** 		/* UDB_PA_3 Starting address: CYDEV_UDB_PA3_BASE */
 650:.\Generated_Source\PSoC4/cyfitter_cfg.c **** 		CY_SET_XTND_REG32((void CYFAR *)(CYDEV_UDB_PA3_BASE), 0x00990004u);
 719              		.loc 1 650 0
 720 02bc 2B4B     		ldr	r3, .L24+96
 721 02be 2C4A     		ldr	r2, .L24+100
 722 02c0 1A60     		str	r2, [r3]
 651:.\Generated_Source\PSoC4/cyfitter_cfg.c **** 		CY_SET_XTND_REG32((void CYFAR *)(CYREG_UDB_PA3_CFG4), 0x00080000u);
 723              		.loc 1 651 0
 724 02c2 2C4B     		ldr	r3, .L24+104
 725 02c4 8022     		mov	r2, #128
 726 02c6 1203     		lsl	r2, r2, #12
 727 02c8 1A60     		str	r2, [r3]
 652:.\Generated_Source\PSoC4/cyfitter_cfg.c **** 		CY_SET_XTND_REG32((void CYFAR *)(CYREG_UDB_PA3_CFG8), 0x00030000u);
 728              		.loc 1 652 0
 729 02ca 2B4B     		ldr	r3, .L24+108
 730 02cc C022     		mov	r2, #192
 731 02ce 9202     		lsl	r2, r2, #10
 732 02d0 1A60     		str	r2, [r3]
 653:.\Generated_Source\PSoC4/cyfitter_cfg.c **** 
 654:.\Generated_Source\PSoC4/cyfitter_cfg.c **** 		/* INT_SELECT Starting address: CYDEV_CPUSS_INTR_SELECT */
 655:.\Generated_Source\PSoC4/cyfitter_cfg.c **** 		CY_SET_XTND_REG32((void CYFAR *)(CYREG_CPUSS_INTR_SELECT), 0x00000001u);
 733              		.loc 1 655 0
 734 02d2 2A4B     		ldr	r3, .L24+112
 735 02d4 0122     		mov	r2, #1
 736 02d6 1A60     		str	r2, [r3]
 656:.\Generated_Source\PSoC4/cyfitter_cfg.c **** 
 657:.\Generated_Source\PSoC4/cyfitter_cfg.c **** 		/* INT_CONFIG Starting address: CYDEV_UDB_INT_CFG */
 658:.\Generated_Source\PSoC4/cyfitter_cfg.c **** 		CY_SET_XTND_REG32((void CYFAR *)(CYREG_UDB_INT_CFG), 0x00000002u);
 737              		.loc 1 658 0
 738 02d8 294B     		ldr	r3, .L24+116
 739 02da 0222     		mov	r2, #2
 740 02dc 1A60     		str	r2, [r3]
 659:.\Generated_Source\PSoC4/cyfitter_cfg.c **** 
 660:.\Generated_Source\PSoC4/cyfitter_cfg.c **** 		/* Enable digital routing */
 661:.\Generated_Source\PSoC4/cyfitter_cfg.c **** 		CY_SET_XTND_REG8((void *)CYREG_UDB_UDBIF_BANK_CTL, CY_GET_XTND_REG8((void *)CYREG_UDB_UDBIF_BANK_
 741              		.loc 1 661 0
 742 02de 294B     		ldr	r3, .L24+120
 743 02e0 284A     		ldr	r2, .L24+120
 744 02e2 1278     		ldrb	r2, [r2]
 745 02e4 D2B2     		uxtb	r2, r2
 746 02e6 0221     		mov	r1, #2
 747 02e8 0A43     		orr	r2, r1
 748 02ea D2B2     		uxtb	r2, r2
 749 02ec 1A70     		strb	r2, [r3]
 662:.\Generated_Source\PSoC4/cyfitter_cfg.c **** 
 663:.\Generated_Source\PSoC4/cyfitter_cfg.c **** 		/* Enable UDB array */
 664:.\Generated_Source\PSoC4/cyfitter_cfg.c **** 		CY_SET_XTND_REG8((void *)CYREG_UDB_UDBIF_BANK_CTL, CY_GET_XTND_REG8((void *)CYREG_UDB_UDBIF_BANK_
 750              		.loc 1 664 0
 751 02ee 254B     		ldr	r3, .L24+120
ARM GAS  C:\Users\X0217454\AppData\Local\Temp\ccCTgOik.s 			page 26


 752 02f0 244A     		ldr	r2, .L24+120
 753 02f2 1278     		ldrb	r2, [r2]
 754 02f4 D2B2     		uxtb	r2, r2
 755 02f6 0621     		mov	r1, #6
 756 02f8 0A43     		orr	r2, r1
 757 02fa D2B2     		uxtb	r2, r2
 758 02fc 1A70     		strb	r2, [r3]
 759              	.LBE3:
 665:.\Generated_Source\PSoC4/cyfitter_cfg.c **** 	}
 666:.\Generated_Source\PSoC4/cyfitter_cfg.c **** 
 667:.\Generated_Source\PSoC4/cyfitter_cfg.c **** 	/* Setup clocks based on selections from Clock DWR */
 668:.\Generated_Source\PSoC4/cyfitter_cfg.c **** 	ClockSetup();
 760              		.loc 1 668 0
 761 02fe FFF7D7FE 		bl	ClockSetup
 669:.\Generated_Source\PSoC4/cyfitter_cfg.c **** 
 670:.\Generated_Source\PSoC4/cyfitter_cfg.c **** 	/* Perform basic analog initialization to defaults */
 671:.\Generated_Source\PSoC4/cyfitter_cfg.c **** 	AnalogSetDefault();
 762              		.loc 1 671 0
 763 0302 FFF7FEFF 		bl	AnalogSetDefault
 672:.\Generated_Source\PSoC4/cyfitter_cfg.c **** 
 673:.\Generated_Source\PSoC4/cyfitter_cfg.c **** }
 764              		.loc 1 673 0
 765 0306 BD46     		mov	sp, r7
 766 0308 06B0     		add	sp, sp, #24
 767              		@ sp needed for prologue
 768 030a 80BD     		pop	{r7, pc}
 769              	.L25:
 770              		.align	2
 771              	.L24:
 772 030c 1C700F40 		.word	1074753564
 773 0310 00000000 		.word	cfg_memset_list.4673
 774 0314 14000000 		.word	cfg_memcpy_list.4675
 775 0318 20000000 		.word	cy_cfg_addr_table.4662
 776 031c 40000000 		.word	cy_cfg_data_table.4663
 777 0320 00600F40 		.word	1074749440
 778 0324 02600F40 		.word	1074749442
 779 0328 00000140 		.word	1073807360
 780 032c 0C000140 		.word	1073807372
 781 0330 03EE0000 		.word	60931
 782 0334 10000140 		.word	1073807376
 783 0338 00000440 		.word	1074003968
 784 033c 08000440 		.word	1074003976
 785 0340 870D1800 		.word	1576327
 786 0344 0C000440 		.word	1074003980
 787 0348 00030440 		.word	1074004736
 788 034c 08030440 		.word	1074004744
 789 0350 8E6D1800 		.word	1600910
 790 0354 00040440 		.word	1074004992
 791 0358 08040440 		.word	1074005000
 792 035c 18040440 		.word	1074005016
 793 0360 00500F40 		.word	1074745344
 794 0364 04500F40 		.word	1074745348
 795 0368 08500F40 		.word	1074745352
 796 036c 30500F40 		.word	1074745392
 797 0370 04009900 		.word	10027012
 798 0374 34500F40 		.word	1074745396
 799 0378 38500F40 		.word	1074745400
ARM GAS  C:\Users\X0217454\AppData\Local\Temp\ccCTgOik.s 			page 27


 800 037c 20000040 		.word	1073741856
 801 0380 00800F40 		.word	1074757632
 802 0384 00700F40 		.word	1074753536
 803              		.cfi_endproc
 804              	.LFE7:
 805              		.size	cyfitter_cfg, .-cyfitter_cfg
 806              		.section	.rodata
 807              		.align	2
 808              		.type	cfg_memset_list.4673, %object
 809              		.size	cfg_memset_list.4673, 18
 810              	cfg_memset_list.4673:
 811 0000 00300F40 		.word	1074737152
 812 0004 0002     		.short	512
 813 0006 80320F40 		.4byte	1074737792
 814 000a 8001     		.short	384
 815 000c 00400F40 		.word	1074741248
 816 0010 0004     		.short	1024
 817 0012 0000     		.align	2
 818              		.type	cfg_memcpy_list.4675, %object
 819              		.size	cfg_memcpy_list.4675, 10
 820              	cfg_memcpy_list.4675:
 821 0014 00320F40 		.word	1074737664
 822 0018 04020000 		.word	BS_UDB_0_0_1_CONFIG_VAL.4674
 823 001c 8000     		.short	128
 824 001e 0000     		.align	2
 825              		.type	cy_cfg_addr_table.4662, %object
 826              		.size	cy_cfg_addr_table.4662, 32
 827              	cy_cfg_addr_table.4662:
 828 0020 01000F40 		.word	1074724865
 829 0024 46300F40 		.word	1074737222
 830 0028 34310F40 		.word	1074737460
 831 002c 12320F40 		.word	1074737682
 832 0030 44330F40 		.word	1074737988
 833 0034 08400F40 		.word	1074741256
 834 0038 07430F40 		.word	1074742023
 835 003c 02600F40 		.word	1074749442
 836              		.align	2
 837              		.type	cy_cfg_data_table.4663, %object
 838              		.size	cy_cfg_data_table.4663, 452
 839              	cy_cfg_data_table.4663:
 840 0040 80       		.byte	-128
 841 0041 0F       		.byte	15
 842 0042 11       		.byte	17
 843 0043 02       		.byte	2
 844 0044 13       		.byte	19
 845 0045 0D       		.byte	13
 846 0046 15       		.byte	21
 847 0047 03       		.byte	3
 848 0048 17       		.byte	23
 849 0049 0C       		.byte	12
 850 004a 1C       		.byte	28
 851 004b 01       		.byte	1
 852 004c 1D       		.byte	29
 853 004d 05       		.byte	5
 854 004e 1F       		.byte	31
 855 004f 0A       		.byte	10
 856 0050 20       		.byte	32
ARM GAS  C:\Users\X0217454\AppData\Local\Temp\ccCTgOik.s 			page 28


 857 0051 01       		.byte	1
 858 0052 24       		.byte	36
 859 0053 01       		.byte	1
 860 0054 25       		.byte	37
 861 0055 09       		.byte	9
 862 0056 27       		.byte	39
 863 0057 06       		.byte	6
 864 0058 28       		.byte	40
 865 0059 01       		.byte	1
 866 005a 2E       		.byte	46
 867 005b 01       		.byte	1
 868 005c 30       		.byte	48
 869 005d 01       		.byte	1
 870 005e 31       		.byte	49
 871 005f 0F       		.byte	15
 872 0060 37       		.byte	55
 873 0061 0F       		.byte	15
 874 0062 3B       		.byte	59
 875 0063 82       		.byte	-126
 876 0064 3E       		.byte	62
 877 0065 01       		.byte	1
 878 0066 56       		.byte	86
 879 0067 02       		.byte	2
 880 0068 57       		.byte	87
 881 0069 20       		.byte	32
 882 006a 58       		.byte	88
 883 006b 04       		.byte	4
 884 006c 59       		.byte	89
 885 006d 04       		.byte	4
 886 006e 5B       		.byte	91
 887 006f 04       		.byte	4
 888 0070 5F       		.byte	95
 889 0071 01       		.byte	1
 890 0072 81       		.byte	-127
 891 0073 18       		.byte	24
 892 0074 84       		.byte	-124
 893 0075 98       		.byte	-104
 894 0076 85       		.byte	-123
 895 0077 08       		.byte	8
 896 0078 86       		.byte	-122
 897 0079 07       		.byte	7
 898 007a 87       		.byte	-121
 899 007b 10       		.byte	16
 900 007c 88       		.byte	-120
 901 007d 10       		.byte	16
 902 007e 89       		.byte	-119
 903 007f 3D       		.byte	61
 904 0080 8C       		.byte	-116
 905 0081 C3       		.byte	-61
 906 0082 8D       		.byte	-115
 907 0083 28       		.byte	40
 908 0084 8E       		.byte	-114
 909 0085 30       		.byte	48
 910 0086 8F       		.byte	-113
 911 0087 17       		.byte	23
 912 0088 90       		.byte	-112
 913 0089 14       		.byte	20
ARM GAS  C:\Users\X0217454\AppData\Local\Temp\ccCTgOik.s 			page 29


 914 008a 91       		.byte	-111
 915 008b 08       		.byte	8
 916 008c 93       		.byte	-109
 917 008d 10       		.byte	16
 918 008e 94       		.byte	-108
 919 008f 84       		.byte	-124
 920 0090 95       		.byte	-107
 921 0091 10       		.byte	16
 922 0092 97       		.byte	-105
 923 0093 08       		.byte	8
 924 0094 98       		.byte	-104
 925 0095 26       		.byte	38
 926 0096 9A       		.byte	-102
 927 0097 49       		.byte	73
 928 0098 9B       		.byte	-101
 929 0099 02       		.byte	2
 930 009a 9C       		.byte	-100
 931 009b 14       		.byte	20
 932 009c 9D       		.byte	-99
 933 009d 24       		.byte	36
 934 009e 9F       		.byte	-97
 935 009f 0B       		.byte	11
 936 00a0 A0       		.byte	-96
 937 00a1 10       		.byte	16
 938 00a2 A1       		.byte	-95
 939 00a3 18       		.byte	24
 940 00a4 A2       		.byte	-94
 941 00a5 04       		.byte	4
 942 00a6 A4       		.byte	-92
 943 00a7 04       		.byte	4
 944 00a8 A5       		.byte	-91
 945 00a9 08       		.byte	8
 946 00aa A6       		.byte	-90
 947 00ab 10       		.byte	16
 948 00ac A8       		.byte	-88
 949 00ad 10       		.byte	16
 950 00ae A9       		.byte	-87
 951 00af 10       		.byte	16
 952 00b0 AA       		.byte	-86
 953 00b1 04       		.byte	4
 954 00b2 B1       		.byte	-79
 955 00b3 20       		.byte	32
 956 00b4 B2       		.byte	-78
 957 00b5 E0       		.byte	-32
 958 00b6 B3       		.byte	-77
 959 00b7 1C       		.byte	28
 960 00b8 B4       		.byte	-76
 961 00b9 01       		.byte	1
 962 00ba B5       		.byte	-75
 963 00bb 03       		.byte	3
 964 00bc B6       		.byte	-74
 965 00bd 1E       		.byte	30
 966 00be BA       		.byte	-70
 967 00bf 88       		.byte	-120
 968 00c0 BE       		.byte	-66
 969 00c1 10       		.byte	16
 970 00c2 BF       		.byte	-65
ARM GAS  C:\Users\X0217454\AppData\Local\Temp\ccCTgOik.s 			page 30


 971 00c3 01       		.byte	1
 972 00c4 D4       		.byte	-44
 973 00c5 09       		.byte	9
 974 00c6 D8       		.byte	-40
 975 00c7 04       		.byte	4
 976 00c8 D9       		.byte	-39
 977 00c9 04       		.byte	4
 978 00ca DB       		.byte	-37
 979 00cb 04       		.byte	4
 980 00cc DF       		.byte	-33
 981 00cd 01       		.byte	1
 982 00ce 04       		.byte	4
 983 00cf 20       		.byte	32
 984 00d0 05       		.byte	5
 985 00d1 44       		.byte	68
 986 00d2 06       		.byte	6
 987 00d3 08       		.byte	8
 988 00d4 07       		.byte	7
 989 00d5 02       		.byte	2
 990 00d6 0A       		.byte	10
 991 00d7 01       		.byte	1
 992 00d8 0D       		.byte	13
 993 00d9 01       		.byte	1
 994 00da 0E       		.byte	14
 995 00db 18       		.byte	24
 996 00dc 0F       		.byte	15
 997 00dd 01       		.byte	1
 998 00de 10       		.byte	16
 999 00df 2A       		.byte	42
 1000 00e0 13       		.byte	19
 1001 00e1 01       		.byte	1
 1002 00e2 17       		.byte	23
 1003 00e3 25       		.byte	37
 1004 00e4 19       		.byte	25
 1005 00e5 02       		.byte	2
 1006 00e6 1D       		.byte	29
 1007 00e7 4C       		.byte	76
 1008 00e8 1F       		.byte	31
 1009 00e9 10       		.byte	16
 1010 00ea 20       		.byte	32
 1011 00eb 01       		.byte	1
 1012 00ec 21       		.byte	33
 1013 00ed 02       		.byte	2
 1014 00ee 24       		.byte	36
 1015 00ef 90       		.byte	-112
 1016 00f0 26       		.byte	38
 1017 00f1 2C       		.byte	44
 1018 00f2 29       		.byte	41
 1019 00f3 04       		.byte	4
 1020 00f4 2E       		.byte	46
 1021 00f5 19       		.byte	25
 1022 00f6 2F       		.byte	47
 1023 00f7 08       		.byte	8
 1024 00f8 31       		.byte	49
 1025 00f9 42       		.byte	66
 1026 00fa 32       		.byte	50
 1027 00fb 08       		.byte	8
ARM GAS  C:\Users\X0217454\AppData\Local\Temp\ccCTgOik.s 			page 31


 1028 00fc 35       		.byte	53
 1029 00fd 40       		.byte	64
 1030 00fe 36       		.byte	54
 1031 00ff 20       		.byte	32
 1032 0100 37       		.byte	55
 1033 0101 05       		.byte	5
 1034 0102 38       		.byte	56
 1035 0103 80       		.byte	-128
 1036 0104 3A       		.byte	58
 1037 0105 40       		.byte	64
 1038 0106 3C       		.byte	60
 1039 0107 10       		.byte	16
 1040 0108 3D       		.byte	61
 1041 0109 80       		.byte	-128
 1042 010a 3E       		.byte	62
 1043 010b 04       		.byte	4
 1044 010c 3F       		.byte	63
 1045 010d 01       		.byte	1
 1046 010e 5C       		.byte	92
 1047 010f 82       		.byte	-126
 1048 0110 5D       		.byte	93
 1049 0111 0A       		.byte	10
 1050 0112 5E       		.byte	94
 1051 0113 10       		.byte	16
 1052 0114 60       		.byte	96
 1053 0115 01       		.byte	1
 1054 0116 66       		.byte	102
 1055 0117 40       		.byte	64
 1056 0118 68       		.byte	104
 1057 0119 2A       		.byte	42
 1058 011a 69       		.byte	105
 1059 011b 06       		.byte	6
 1060 011c 6A       		.byte	106
 1061 011d 05       		.byte	5
 1062 011e 6B       		.byte	107
 1063 011f 25       		.byte	37
 1064 0120 73       		.byte	115
 1065 0121 01       		.byte	1
 1066 0122 85       		.byte	-123
 1067 0123 48       		.byte	72
 1068 0124 86       		.byte	-122
 1069 0125 20       		.byte	32
 1070 0126 C0       		.byte	-64
 1071 0127 E0       		.byte	-32
 1072 0128 C2       		.byte	-62
 1073 0129 F1       		.byte	-15
 1074 012a C4       		.byte	-60
 1075 012b 7F       		.byte	127
 1076 012c CA       		.byte	-54
 1077 012d E2       		.byte	-30
 1078 012e CC       		.byte	-52
 1079 012f FB       		.byte	-5
 1080 0130 CE       		.byte	-50
 1081 0131 F0       		.byte	-16
 1082 0132 D6       		.byte	-42
 1083 0133 F0       		.byte	-16
 1084 0134 D8       		.byte	-40
ARM GAS  C:\Users\X0217454\AppData\Local\Temp\ccCTgOik.s 			page 32


 1085 0135 18       		.byte	24
 1086 0136 81       		.byte	-127
 1087 0137 04       		.byte	4
 1088 0138 85       		.byte	-123
 1089 0139 04       		.byte	4
 1090 013a 89       		.byte	-119
 1091 013b 04       		.byte	4
 1092 013c 91       		.byte	-111
 1093 013d 04       		.byte	4
 1094 013e 97       		.byte	-105
 1095 013f 04       		.byte	4
 1096 0140 99       		.byte	-103
 1097 0141 01       		.byte	1
 1098 0142 9D       		.byte	-99
 1099 0143 0A       		.byte	10
 1100 0144 9F       		.byte	-97
 1101 0145 10       		.byte	16
 1102 0146 A1       		.byte	-95
 1103 0147 60       		.byte	96
 1104 0148 A5       		.byte	-91
 1105 0149 56       		.byte	86
 1106 014a A7       		.byte	-89
 1107 014b 09       		.byte	9
 1108 014c A9       		.byte	-87
 1109 014d 07       		.byte	7
 1110 014e AB       		.byte	-85
 1111 014f 38       		.byte	56
 1112 0150 AD       		.byte	-83
 1113 0151 04       		.byte	4
 1114 0152 B5       		.byte	-75
 1115 0153 7F       		.byte	127
 1116 0154 B9       		.byte	-71
 1117 0155 20       		.byte	32
 1118 0156 D9       		.byte	-39
 1119 0157 04       		.byte	4
 1120 0158 DF       		.byte	-33
 1121 0159 01       		.byte	1
 1122 015a 04       		.byte	4
 1123 015b 10       		.byte	16
 1124 015c 05       		.byte	5
 1125 015d 80       		.byte	-128
 1126 015e 06       		.byte	6
 1127 015f 82       		.byte	-126
 1128 0160 0C       		.byte	12
 1129 0161 02       		.byte	2
 1130 0162 0D       		.byte	13
 1131 0163 08       		.byte	8
 1132 0164 0E       		.byte	14
 1133 0165 08       		.byte	8
 1134 0166 0F       		.byte	15
 1135 0167 01       		.byte	1
 1136 0168 15       		.byte	21
 1137 0169 02       		.byte	2
 1138 016a 16       		.byte	22
 1139 016b 40       		.byte	64
 1140 016c 17       		.byte	23
 1141 016d 24       		.byte	36
ARM GAS  C:\Users\X0217454\AppData\Local\Temp\ccCTgOik.s 			page 33


 1142 016e 1C       		.byte	28
 1143 016f 10       		.byte	16
 1144 0170 1F       		.byte	31
 1145 0171 10       		.byte	16
 1146 0172 21       		.byte	33
 1147 0173 20       		.byte	32
 1148 0174 24       		.byte	36
 1149 0175 20       		.byte	32
 1150 0176 26       		.byte	38
 1151 0177 80       		.byte	-128
 1152 0178 27       		.byte	39
 1153 0179 10       		.byte	16
 1154 017a 29       		.byte	41
 1155 017b 24       		.byte	36
 1156 017c 2A       		.byte	42
 1157 017d 40       		.byte	64
 1158 017e 2B       		.byte	43
 1159 017f 40       		.byte	64
 1160 0180 2C       		.byte	44
 1161 0181 02       		.byte	2
 1162 0182 2D       		.byte	45
 1163 0183 20       		.byte	32
 1164 0184 2E       		.byte	46
 1165 0185 01       		.byte	1
 1166 0186 30       		.byte	48
 1167 0187 02       		.byte	2
 1168 0188 31       		.byte	49
 1169 0189 60       		.byte	96
 1170 018a 33       		.byte	51
 1171 018b 04       		.byte	4
 1172 018c 36       		.byte	54
 1173 018d 80       		.byte	-128
 1174 018e 37       		.byte	55
 1175 018f 16       		.byte	22
 1176 0190 38       		.byte	56
 1177 0191 20       		.byte	32
 1178 0192 39       		.byte	57
 1179 0193 04       		.byte	4
 1180 0194 3B       		.byte	59
 1181 0195 01       		.byte	1
 1182 0196 3E       		.byte	62
 1183 0197 24       		.byte	36
 1184 0198 3F       		.byte	63
 1185 0199 01       		.byte	1
 1186 019a 44       		.byte	68
 1187 019b 0A       		.byte	10
 1188 019c 45       		.byte	69
 1189 019d 08       		.byte	8
 1190 019e 46       		.byte	70
 1191 019f A0       		.byte	-96
 1192 01a0 47       		.byte	71
 1193 01a1 02       		.byte	2
 1194 01a2 4D       		.byte	77
 1195 01a3 28       		.byte	40
 1196 01a4 4E       		.byte	78
 1197 01a5 08       		.byte	8
 1198 01a6 56       		.byte	86
ARM GAS  C:\Users\X0217454\AppData\Local\Temp\ccCTgOik.s 			page 34


 1199 01a7 12       		.byte	18
 1200 01a8 57       		.byte	87
 1201 01a9 48       		.byte	72
 1202 01aa 65       		.byte	101
 1203 01ab 80       		.byte	-128
 1204 01ac 66       		.byte	102
 1205 01ad 10       		.byte	16
 1206 01ae 67       		.byte	103
 1207 01af 20       		.byte	32
 1208 01b0 8C       		.byte	-116
 1209 01b1 08       		.byte	8
 1210 01b2 8D       		.byte	-115
 1211 01b3 20       		.byte	32
 1212 01b4 91       		.byte	-111
 1213 01b5 06       		.byte	6
 1214 01b6 92       		.byte	-110
 1215 01b7 05       		.byte	5
 1216 01b8 93       		.byte	-109
 1217 01b9 01       		.byte	1
 1218 01ba 94       		.byte	-108
 1219 01bb 20       		.byte	32
 1220 01bc 98       		.byte	-104
 1221 01bd 02       		.byte	2
 1222 01be 99       		.byte	-103
 1223 01bf 44       		.byte	68
 1224 01c0 9B       		.byte	-101
 1225 01c1 26       		.byte	38
 1226 01c2 9D       		.byte	-99
 1227 01c3 08       		.byte	8
 1228 01c4 A0       		.byte	-96
 1229 01c5 02       		.byte	2
 1230 01c6 A1       		.byte	-95
 1231 01c7 08       		.byte	8
 1232 01c8 A2       		.byte	-94
 1233 01c9 0C       		.byte	12
 1234 01ca A7       		.byte	-89
 1235 01cb 08       		.byte	8
 1236 01cc AC       		.byte	-84
 1237 01cd 80       		.byte	-128
 1238 01ce AF       		.byte	-81
 1239 01cf 10       		.byte	16
 1240 01d0 C0       		.byte	-64
 1241 01d1 D0       		.byte	-48
 1242 01d2 C2       		.byte	-62
 1243 01d3 F0       		.byte	-16
 1244 01d4 C4       		.byte	-60
 1245 01d5 70       		.byte	112
 1246 01d6 CA       		.byte	-54
 1247 01d7 BF       		.byte	-65
 1248 01d8 CC       		.byte	-52
 1249 01d9 FF       		.byte	-1
 1250 01da CE       		.byte	-50
 1251 01db E7       		.byte	-25
 1252 01dc D0       		.byte	-48
 1253 01dd F0       		.byte	-16
 1254 01de D2       		.byte	-46
 1255 01df 20       		.byte	32
ARM GAS  C:\Users\X0217454\AppData\Local\Temp\ccCTgOik.s 			page 35


 1256 01e0 D8       		.byte	-40
 1257 01e1 70       		.byte	112
 1258 01e2 11       		.byte	17
 1259 01e3 08       		.byte	8
 1260 01e4 5F       		.byte	95
 1261 01e5 02       		.byte	2
 1262 01e6 6D       		.byte	109
 1263 01e7 08       		.byte	8
 1264 01e8 87       		.byte	-121
 1265 01e9 02       		.byte	2
 1266 01ea C4       		.byte	-60
 1267 01eb 10       		.byte	16
 1268 01ec D6       		.byte	-42
 1269 01ed 80       		.byte	-128
 1270 01ee DA       		.byte	-38
 1271 01ef 80       		.byte	-128
 1272 01f0 E6       		.byte	-26
 1273 01f1 40       		.byte	64
 1274 01f2 04       		.byte	4
 1275 01f3 02       		.byte	2
 1276 01f4 54       		.byte	84
 1277 01f5 02       		.byte	2
 1278 01f6 8C       		.byte	-116
 1279 01f7 03       		.byte	3
 1280 01f8 C0       		.byte	-64
 1281 01f9 04       		.byte	4
 1282 01fa D6       		.byte	-42
 1283 01fb 04       		.byte	4
 1284 01fc E2       		.byte	-30
 1285 01fd 02       		.byte	2
 1286 01fe E4       		.byte	-28
 1287 01ff 02       		.byte	2
 1288 0200 10       		.byte	16
 1289 0201 01       		.byte	1
 1290 0202 11       		.byte	17
 1291 0203 01       		.byte	1
 1292              		.align	2
 1293              		.type	BS_UDB_0_0_1_CONFIG_VAL.4674, %object
 1294              		.size	BS_UDB_0_0_1_CONFIG_VAL.4674, 128
 1295              	BS_UDB_0_0_1_CONFIG_VAL.4674:
 1296 0204 04       		.byte	4
 1297 0205 40       		.byte	64
 1298 0206 08       		.byte	8
 1299 0207 00       		.byte	0
 1300 0208 00       		.byte	0
 1301 0209 40       		.byte	64
 1302 020a 00       		.byte	0
 1303 020b 00       		.byte	0
 1304 020c 04       		.byte	4
 1305 020d 74       		.byte	116
 1306 020e 1A       		.byte	26
 1307 020f 09       		.byte	9
 1308 0210 00       		.byte	0
 1309 0211 00       		.byte	0
 1310 0212 01       		.byte	1
 1311 0213 00       		.byte	0
 1312 0214 1A       		.byte	26
ARM GAS  C:\Users\X0217454\AppData\Local\Temp\ccCTgOik.s 			page 36


 1313 0215 15       		.byte	21
 1314 0216 01       		.byte	1
 1315 0217 6A       		.byte	106
 1316 0218 04       		.byte	4
 1317 0219 00       		.byte	0
 1318 021a 10       		.byte	16
 1319 021b 40       		.byte	64
 1320 021c 02       		.byte	2
 1321 021d 10       		.byte	16
 1322 021e 04       		.byte	4
 1323 021f 60       		.byte	96
 1324 0220 1B       		.byte	27
 1325 0221 0E       		.byte	14
 1326 0222 00       		.byte	0
 1327 0223 00       		.byte	0
 1328 0224 1B       		.byte	27
 1329 0225 40       		.byte	64
 1330 0226 00       		.byte	0
 1331 0227 00       		.byte	0
 1332 0228 1B       		.byte	27
 1333 0229 00       		.byte	0
 1334 022a 00       		.byte	0
 1335 022b 00       		.byte	0
 1336 022c 1B       		.byte	27
 1337 022d 03       		.byte	3
 1338 022e 00       		.byte	0
 1339 022f 34       		.byte	52
 1340 0230 00       		.byte	0
 1341 0231 40       		.byte	64
 1342 0232 00       		.byte	0
 1343 0233 00       		.byte	0
 1344 0234 00       		.byte	0
 1345 0235 00       		.byte	0
 1346 0236 1E       		.byte	30
 1347 0237 70       		.byte	112
 1348 0238 01       		.byte	1
 1349 0239 00       		.byte	0
 1350 023a 00       		.byte	0
 1351 023b 0F       		.byte	15
 1352 023c 00       		.byte	0
 1353 023d 80       		.byte	-128
 1354 023e 08       		.byte	8
 1355 023f 08       		.byte	8
 1356 0240 00       		.byte	0
 1357 0241 00       		.byte	0
 1358 0242 10       		.byte	16
 1359 0243 00       		.byte	0
 1360 0244 43       		.byte	67
 1361 0245 06       		.byte	6
 1362 0246 10       		.byte	16
 1363 0247 00       		.byte	0
 1364 0248 02       		.byte	2
 1365 0249 0E       		.byte	14
 1366 024a FB       		.byte	-5
 1367 024b DC       		.byte	-36
 1368 024c 3D       		.byte	61
 1369 024d FF       		.byte	-1
ARM GAS  C:\Users\X0217454\AppData\Local\Temp\ccCTgOik.s 			page 37


 1370 024e FF       		.byte	-1
 1371 024f FF       		.byte	-1
 1372 0250 22       		.byte	34
 1373 0251 00       		.byte	0
 1374 0252 F0       		.byte	-16
 1375 0253 08       		.byte	8
 1376 0254 04       		.byte	4
 1377 0255 00       		.byte	0
 1378 0256 00       		.byte	0
 1379 0257 00       		.byte	0
 1380 0258 40       		.byte	64
 1381 0259 00       		.byte	0
 1382 025a 00       		.byte	0
 1383 025b 00       		.byte	0
 1384 025c 04       		.byte	4
 1385 025d 04       		.byte	4
 1386 025e 04       		.byte	4
 1387 025f 04       		.byte	4
 1388 0260 00       		.byte	0
 1389 0261 00       		.byte	0
 1390 0262 00       		.byte	0
 1391 0263 01       		.byte	1
 1392 0264 00       		.byte	0
 1393 0265 00       		.byte	0
 1394 0266 C0       		.byte	-64
 1395 0267 00       		.byte	0
 1396 0268 40       		.byte	64
 1397 0269 01       		.byte	1
 1398 026a 10       		.byte	16
 1399 026b 11       		.byte	17
 1400 026c C0       		.byte	-64
 1401 026d 01       		.byte	1
 1402 026e 00       		.byte	0
 1403 026f 11       		.byte	17
 1404 0270 40       		.byte	64
 1405 0271 01       		.byte	1
 1406 0272 40       		.byte	64
 1407 0273 01       		.byte	1
 1408 0274 00       		.byte	0
 1409 0275 00       		.byte	0
 1410 0276 00       		.byte	0
 1411 0277 00       		.byte	0
 1412 0278 00       		.byte	0
 1413 0279 00       		.byte	0
 1414 027a 00       		.byte	0
 1415 027b 00       		.byte	0
 1416 027c 00       		.byte	0
 1417 027d 00       		.byte	0
 1418 027e 00       		.byte	0
 1419 027f 00       		.byte	0
 1420 0280 00       		.byte	0
 1421 0281 00       		.byte	0
 1422 0282 00       		.byte	0
 1423 0283 00       		.byte	0
 1424              		.align	2
 1425              		.type	IMO_TRIM_FREQ_TABLE_ENTRIES.4642, %object
 1426              		.size	IMO_TRIM_FREQ_TABLE_ENTRIES.4642, 4
ARM GAS  C:\Users\X0217454\AppData\Local\Temp\ccCTgOik.s 			page 38


 1427              	IMO_TRIM_FREQ_TABLE_ENTRIES.4642:
 1428 0284 04000000 		.word	4
 1429              		.data
 1430              		.align	2
 1431              		.type	imo_trim_table.4641, %object
 1432              		.size	imo_trim_table.4641, 4
 1433              	imo_trim_table.4641:
 1434 0000 C0F1FF0F 		.word	268431808
 1435              		.text
 1436              	.Letext0:
 1437              		.file 2 "c:\\program files (x86)\\cypress\\psoc creator\\3.0\\psoc creator\\import\\gnu_cs\\arm\\4
 1438              		.file 3 "./Generated_Source/PSoC4/cytypes.h"