ARM GAS  C:\Users\X0217454\AppData\Local\Temp\ccoHoMkg.s 			page 1


   1              		.cpu cortex-m0
   2              		.fpu softvfp
   3              		.eabi_attribute 20, 1
   4              		.eabi_attribute 21, 1
   5              		.eabi_attribute 23, 3
   6              		.eabi_attribute 24, 1
   7              		.eabi_attribute 25, 1
   8              		.eabi_attribute 26, 1
   9              		.eabi_attribute 30, 6
  10              		.eabi_attribute 34, 0
  11              		.eabi_attribute 18, 4
  12              		.code	16
  13              		.file	"spi.c"
  14              		.text
  15              	.Ltext0:
  16              		.cfi_sections	.debug_frame
  17              		.section	.text.spi_Close,"ax",%progbits
  18              		.align	2
  19              		.global	spi_Close
  20              		.code	16
  21              		.thumb_func
  22              		.type	spi_Close, %function
  23              	spi_Close:
  24              	.LFB0:
  25              		.file 1 "..\\..\\..\\spi.c"
   1:..\..\../spi.c **** /*
   2:..\..\../spi.c ****  * spi.c - msp430f5529 launchpad spi interface implementation
   3:..\..\../spi.c ****  *
   4:..\..\../spi.c ****  * Copyright (C) 2014 Texas Instruments Incorporated - http://www.ti.com/
   5:..\..\../spi.c ****  *
   6:..\..\../spi.c ****  *
   7:..\..\../spi.c ****  *  Redistribution and use in source and binary forms, with or without
   8:..\..\../spi.c ****  *  modification, are permitted provided that the following conditions
   9:..\..\../spi.c ****  *  are met:
  10:..\..\../spi.c ****  *
  11:..\..\../spi.c ****  *    Redistributions of source code must retain the above copyright
  12:..\..\../spi.c ****  *    notice, this list of conditions and the following disclaimer.
  13:..\..\../spi.c ****  *
  14:..\..\../spi.c ****  *    Redistributions in binary form must reproduce the above copyright
  15:..\..\../spi.c ****  *    notice, this list of conditions and the following disclaimer in the
  16:..\..\../spi.c ****  *    documentation and/or other materials provided with the
  17:..\..\../spi.c ****  *    distribution.
  18:..\..\../spi.c ****  *
  19:..\..\../spi.c ****  *    Neither the name of Texas Instruments Incorporated nor the names of
  20:..\..\../spi.c ****  *    its contributors may be used to endorse or promote products derived
  21:..\..\../spi.c ****  *    from this software without specific prior written permission.
  22:..\..\../spi.c ****  *
  23:..\..\../spi.c ****  *  THIS SOFTWARE IS PROVIDED BY THE COPYRIGHT HOLDERS AND CONTRIBUTORS
  24:..\..\../spi.c ****  *  "AS IS" AND ANY EXPRESS OR IMPLIED WARRANTIES, INCLUDING, BUT NOT
  25:..\..\../spi.c ****  *  LIMITED TO, THE IMPLIED WARRANTIES OF MERCHANTABILITY AND FITNESS FOR
  26:..\..\../spi.c ****  *  A PARTICULAR PURPOSE ARE DISCLAIMED. IN NO EVENT SHALL THE COPYRIGHT
  27:..\..\../spi.c ****  *  OWNER OR CONTRIBUTORS BE LIABLE FOR ANY DIRECT, INDIRECT, INCIDENTAL,
  28:..\..\../spi.c ****  *  SPECIAL, EXEMPLARY, OR CONSEQUENTIAL DAMAGES (INCLUDING, BUT NOT
  29:..\..\../spi.c ****  *  LIMITED TO, PROCUREMENT OF SUBSTITUTE GOODS OR SERVICES; LOSS OF USE,
  30:..\..\../spi.c ****  *  DATA, OR PROFITS; OR BUSINESS INTERRUPTION) HOWEVER CAUSED AND ON ANY
  31:..\..\../spi.c ****  *  THEORY OF LIABILITY, WHETHER IN CONTRACT, STRICT LIABILITY, OR TORT
  32:..\..\../spi.c ****  *  (INCLUDING NEGLIGENCE OR OTHERWISE) ARISING IN ANY WAY OUT OF THE USE
ARM GAS  C:\Users\X0217454\AppData\Local\Temp\ccoHoMkg.s 			page 2


  33:..\..\../spi.c ****  *  OF THIS SOFTWARE, EVEN IF ADVISED OF THE POSSIBILITY OF SUCH DAMAGE.
  34:..\..\../spi.c ****  *
  35:..\..\../spi.c **** */
  36:..\..\../spi.c **** #ifndef SL_IF_TYPE_UART
  37:..\..\../spi.c **** #include "datatypes.h"
  38:..\..\../spi.c **** #include "simplelink.h"
  39:..\..\../spi.c **** #include <SPIM.h>
  40:..\..\../spi.c **** #include <SPIM_IntClock.h>
  41:..\..\../spi.c **** #include "spi.h"
  42:..\..\../spi.c **** #include "board.h"
  43:..\..\../spi.c **** #include "m_ss_pin.h"
  44:..\..\../spi.c **** 
  45:..\..\../spi.c **** #define ASSERT_CS()     (m_ss_pin_Write(0))
  46:..\..\../spi.c **** #define DEASSERT_CS()     (m_ss_pin_Write(1))
  47:..\..\../spi.c **** 
  48:..\..\../spi.c **** #define NONOS_RET_OK                            (0)
  49:..\..\../spi.c **** 
  50:..\..\../spi.c **** int spi_Close(Fd_t fd)
  51:..\..\../spi.c **** {
  26              		.loc 1 51 0
  27              		.cfi_startproc
  28 0000 80B5     		push	{r7, lr}
  29              	.LCFI0:
  30              		.cfi_def_cfa_offset 8
  31              		.cfi_offset 7, -8
  32              		.cfi_offset 14, -4
  33 0002 82B0     		sub	sp, sp, #8
  34              	.LCFI1:
  35              		.cfi_def_cfa_offset 16
  36 0004 00AF     		add	r7, sp, #0
  37              	.LCFI2:
  38              		.cfi_def_cfa_register 7
  39 0006 7860     		str	r0, [r7, #4]
  52:..\..\../spi.c ****     SPIM_Stop();
  40              		.loc 1 52 0
  41 0008 FFF7FEFF 		bl	SPIM_Stop
  53:..\..\../spi.c **** 
  54:..\..\../spi.c ****     /* Disable WLAN Interrupt ... */
  55:..\..\../spi.c ****     CC3100_InterruptDisable();
  42              		.loc 1 55 0
  43 000c FFF7FEFF 		bl	CC3100_InterruptDisable
  56:..\..\../spi.c **** 
  57:..\..\../spi.c ****     return 0;
  44              		.loc 1 57 0
  45 0010 0023     		mov	r3, #0
  58:..\..\../spi.c **** }
  46              		.loc 1 58 0
  47 0012 181C     		mov	r0, r3
  48 0014 BD46     		mov	sp, r7
  49 0016 02B0     		add	sp, sp, #8
  50              		@ sp needed for prologue
  51 0018 80BD     		pop	{r7, pc}
  52              		.cfi_endproc
  53              	.LFE0:
  54              		.size	spi_Close, .-spi_Close
  55 001a C046     		.section	.text.spi_Open,"ax",%progbits
  56              		.align	2
ARM GAS  C:\Users\X0217454\AppData\Local\Temp\ccoHoMkg.s 			page 3


  57              		.global	spi_Open
  58              		.code	16
  59              		.thumb_func
  60              		.type	spi_Open, %function
  61              	spi_Open:
  62              	.LFB1:
  59:..\..\../spi.c **** 
  60:..\..\../spi.c **** Fd_t spi_Open(char *ifName, unsigned long flags)
  61:..\..\../spi.c **** {
  63              		.loc 1 61 0
  64              		.cfi_startproc
  65 0000 80B5     		push	{r7, lr}
  66              	.LCFI3:
  67              		.cfi_def_cfa_offset 8
  68              		.cfi_offset 7, -8
  69              		.cfi_offset 14, -4
  70 0002 82B0     		sub	sp, sp, #8
  71              	.LCFI4:
  72              		.cfi_def_cfa_offset 16
  73 0004 00AF     		add	r7, sp, #0
  74              	.LCFI5:
  75              		.cfi_def_cfa_register 7
  76 0006 7860     		str	r0, [r7, #4]
  77 0008 3960     		str	r1, [r7]
  62:..\..\../spi.c ****     SPIM_Start();
  78              		.loc 1 62 0
  79 000a FFF7FEFF 		bl	SPIM_Start
  63:..\..\../spi.c **** 
  64:..\..\../spi.c ****     /* 50 ms delay */
  65:..\..\../spi.c ****     CyDelay(50u);
  80              		.loc 1 65 0
  81 000e 3220     		mov	r0, #50
  82 0010 FFF7FEFF 		bl	CyDelay
  66:..\..\../spi.c **** 
  67:..\..\../spi.c ****     /* Enable WLAN interrupt */
  68:..\..\../spi.c ****     CC3100_InterruptEnable();
  83              		.loc 1 68 0
  84 0014 FFF7FEFF 		bl	CC3100_InterruptEnable
  69:..\..\../spi.c **** 
  70:..\..\../spi.c ****     return NONOS_RET_OK;
  85              		.loc 1 70 0
  86 0018 0023     		mov	r3, #0
  71:..\..\../spi.c **** }
  87              		.loc 1 71 0
  88 001a 181C     		mov	r0, r3
  89 001c BD46     		mov	sp, r7
  90 001e 02B0     		add	sp, sp, #8
  91              		@ sp needed for prologue
  92 0020 80BD     		pop	{r7, pc}
  93              		.cfi_endproc
  94              	.LFE1:
  95              		.size	spi_Open, .-spi_Open
  96 0022 C046     		.section	.text.spi_Write,"ax",%progbits
  97              		.align	2
  98              		.global	spi_Write
  99              		.code	16
 100              		.thumb_func
ARM GAS  C:\Users\X0217454\AppData\Local\Temp\ccoHoMkg.s 			page 4


 101              		.type	spi_Write, %function
 102              	spi_Write:
 103              	.LFB2:
  72:..\..\../spi.c **** 
  73:..\..\../spi.c **** 
  74:..\..\../spi.c **** int spi_Write(Fd_t fd, unsigned char *pBuff, int len)
  75:..\..\../spi.c **** {
 104              		.loc 1 75 0
 105              		.cfi_startproc
 106 0000 80B5     		push	{r7, lr}
 107              	.LCFI6:
 108              		.cfi_def_cfa_offset 8
 109              		.cfi_offset 7, -8
 110              		.cfi_offset 14, -4
 111 0002 86B0     		sub	sp, sp, #24
 112              	.LCFI7:
 113              		.cfi_def_cfa_offset 32
 114 0004 00AF     		add	r7, sp, #0
 115              	.LCFI8:
 116              		.cfi_def_cfa_register 7
 117 0006 F860     		str	r0, [r7, #12]
 118 0008 B960     		str	r1, [r7, #8]
 119 000a 7A60     		str	r2, [r7, #4]
  76:..\..\../spi.c ****     int len_to_return = len;
 120              		.loc 1 76 0
 121 000c 7B68     		ldr	r3, [r7, #4]
 122 000e 7B61     		str	r3, [r7, #20]
  77:..\..\../spi.c ****     ASSERT_CS();
 123              		.loc 1 77 0
 124 0010 0020     		mov	r0, #0
 125 0012 FFF7FEFF 		bl	m_ss_pin_Write
  78:..\..\../spi.c ****     while (len)
 126              		.loc 1 78 0
 127 0016 0CE0     		b	.L6
 128              	.L7:
  79:..\..\../spi.c ****     {
  80:..\..\../spi.c ****         SPIM_WriteTxData(*pBuff); 
 129              		.loc 1 80 0
 130 0018 BB68     		ldr	r3, [r7, #8]
 131 001a 1B78     		ldrb	r3, [r3]
 132 001c 181C     		mov	r0, r3
 133 001e FFF7FEFF 		bl	SPIM_WriteTxData
  81:..\..\../spi.c ****         SPIM_ReadRxData();
 134              		.loc 1 81 0
 135 0022 FFF7FEFF 		bl	SPIM_ReadRxData
  82:..\..\../spi.c ****         len --;
 136              		.loc 1 82 0
 137 0026 7B68     		ldr	r3, [r7, #4]
 138 0028 013B     		sub	r3, r3, #1
 139 002a 7B60     		str	r3, [r7, #4]
  83:..\..\../spi.c ****         pBuff++;
 140              		.loc 1 83 0
 141 002c BB68     		ldr	r3, [r7, #8]
 142 002e 0133     		add	r3, r3, #1
 143 0030 BB60     		str	r3, [r7, #8]
 144              	.L6:
  78:..\..\../spi.c ****     while (len)
ARM GAS  C:\Users\X0217454\AppData\Local\Temp\ccoHoMkg.s 			page 5


 145              		.loc 1 78 0 discriminator 1
 146 0032 7B68     		ldr	r3, [r7, #4]
 147 0034 002B     		cmp	r3, #0
 148 0036 EFD1     		bne	.L7
  84:..\..\../spi.c ****     }
  85:..\..\../spi.c **** 
  86:..\..\../spi.c ****     /* Alternatively, the Put_Array command may be used (below) */
  87:..\..\../spi.c ****     /*SPIM_PutArray(pBuff,len);*/
  88:..\..\../spi.c **** 
  89:..\..\../spi.c ****     DEASSERT_CS();
 149              		.loc 1 89 0
 150 0038 0120     		mov	r0, #1
 151 003a FFF7FEFF 		bl	m_ss_pin_Write
  90:..\..\../spi.c **** 
  91:..\..\../spi.c ****     return len_to_return;
 152              		.loc 1 91 0
 153 003e 7B69     		ldr	r3, [r7, #20]
  92:..\..\../spi.c **** }
 154              		.loc 1 92 0
 155 0040 181C     		mov	r0, r3
 156 0042 BD46     		mov	sp, r7
 157 0044 06B0     		add	sp, sp, #24
 158              		@ sp needed for prologue
 159 0046 80BD     		pop	{r7, pc}
 160              		.cfi_endproc
 161              	.LFE2:
 162              		.size	spi_Write, .-spi_Write
 163              		.section	.text.spi_Read,"ax",%progbits
 164              		.align	2
 165              		.global	spi_Read
 166              		.code	16
 167              		.thumb_func
 168              		.type	spi_Read, %function
 169              	spi_Read:
 170              	.LFB3:
  93:..\..\../spi.c **** 
  94:..\..\../spi.c **** 
  95:..\..\../spi.c **** int spi_Read(Fd_t fd, unsigned char *pBuff, int len)
  96:..\..\../spi.c **** {
 171              		.loc 1 96 0
 172              		.cfi_startproc
 173 0000 90B5     		push	{r4, r7, lr}
 174              	.LCFI9:
 175              		.cfi_def_cfa_offset 12
 176              		.cfi_offset 4, -12
 177              		.cfi_offset 7, -8
 178              		.cfi_offset 14, -4
 179 0002 87B0     		sub	sp, sp, #28
 180              	.LCFI10:
 181              		.cfi_def_cfa_offset 40
 182 0004 00AF     		add	r7, sp, #0
 183              	.LCFI11:
 184              		.cfi_def_cfa_register 7
 185 0006 F860     		str	r0, [r7, #12]
 186 0008 B960     		str	r1, [r7, #8]
 187 000a 7A60     		str	r2, [r7, #4]
  97:..\..\../spi.c ****     int i = 0;
ARM GAS  C:\Users\X0217454\AppData\Local\Temp\ccoHoMkg.s 			page 6


 188              		.loc 1 97 0
 189 000c 0023     		mov	r3, #0
 190 000e 7B61     		str	r3, [r7, #20]
  98:..\..\../spi.c ****     ASSERT_CS();
 191              		.loc 1 98 0
 192 0010 0020     		mov	r0, #0
 193 0012 FFF7FEFF 		bl	m_ss_pin_Write
  99:..\..\../spi.c ****     
 100:..\..\../spi.c ****     for (i = 0; i < len; i ++)
 194              		.loc 1 100 0
 195 0016 0023     		mov	r3, #0
 196 0018 7B61     		str	r3, [r7, #20]
 197 001a 0CE0     		b	.L10
 198              	.L11:
 101:..\..\../spi.c ****     {
 102:..\..\../spi.c ****         SPIM_WriteTxData(0xFF);
 199              		.loc 1 102 0 discriminator 2
 200 001c FF20     		mov	r0, #255
 201 001e FFF7FEFF 		bl	SPIM_WriteTxData
 103:..\..\../spi.c ****         pBuff[i] = SPIM_ReadRxData();
 202              		.loc 1 103 0 discriminator 2
 203 0022 7B69     		ldr	r3, [r7, #20]
 204 0024 BA68     		ldr	r2, [r7, #8]
 205 0026 D418     		add	r4, r2, r3
 206 0028 FFF7FEFF 		bl	SPIM_ReadRxData
 207 002c 031C     		mov	r3, r0
 208 002e 2370     		strb	r3, [r4]
 100:..\..\../spi.c ****     for (i = 0; i < len; i ++)
 209              		.loc 1 100 0 discriminator 2
 210 0030 7B69     		ldr	r3, [r7, #20]
 211 0032 0133     		add	r3, r3, #1
 212 0034 7B61     		str	r3, [r7, #20]
 213              	.L10:
 100:..\..\../spi.c ****     for (i = 0; i < len; i ++)
 214              		.loc 1 100 0 is_stmt 0 discriminator 1
 215 0036 7A69     		ldr	r2, [r7, #20]
 216 0038 7B68     		ldr	r3, [r7, #4]
 217 003a 9A42     		cmp	r2, r3
 218 003c EEDB     		blt	.L11
 104:..\..\../spi.c ****     }
 105:..\..\../spi.c **** 
 106:..\..\../spi.c ****     DEASSERT_CS();
 219              		.loc 1 106 0 is_stmt 1
 220 003e 0120     		mov	r0, #1
 221 0040 FFF7FEFF 		bl	m_ss_pin_Write
 107:..\..\../spi.c **** 
 108:..\..\../spi.c ****     return len;
 222              		.loc 1 108 0
 223 0044 7B68     		ldr	r3, [r7, #4]
 109:..\..\../spi.c **** }
 224              		.loc 1 109 0
 225 0046 181C     		mov	r0, r3
 226 0048 BD46     		mov	sp, r7
 227 004a 07B0     		add	sp, sp, #28
 228              		@ sp needed for prologue
 229 004c 90BD     		pop	{r4, r7, pc}
 230              		.cfi_endproc
ARM GAS  C:\Users\X0217454\AppData\Local\Temp\ccoHoMkg.s 			page 7


 231              	.LFE3:
 232              		.size	spi_Read, .-spi_Read
 233 004e C046     		.text
 234              	.Letext0:
 235              		.file 2 "..\\..\\../spi.h"