ARM GAS  C:\Users\X0217454\AppData\Local\Temp\ccuVQjTZ.s 			page 1


   1              		.cpu cortex-m0
   2              		.fpu softvfp
   3              		.eabi_attribute 20, 1
   4              		.eabi_attribute 21, 1
   5              		.eabi_attribute 23, 3
   6              		.eabi_attribute 24, 1
   7              		.eabi_attribute 25, 1
   8              		.eabi_attribute 26, 1
   9              		.eabi_attribute 30, 6
  10              		.eabi_attribute 34, 0
  11              		.eabi_attribute 18, 4
  12              		.code	16
  13              		.file	"device.c"
  14              		.text
  15              	.Ltext0:
  16              		.cfi_sections	.debug_frame
  17              		.section	.text.sl_Task,"ax",%progbits
  18              		.align	2
  19              		.global	sl_Task
  20              		.code	16
  21              		.thumb_func
  22              		.type	sl_Task, %function
  23              	sl_Task:
  24              	.LFB0:
  25              		.file 1 "..\\..\\..\\..\\..\\simplelink\\source\\device.c"
   1:..\..\..\..\..\simplelink\source/device.c **** /*
   2:..\..\..\..\..\simplelink\source/device.c ****  * device.c - CC31xx/CC32xx Host Driver Implementation
   3:..\..\..\..\..\simplelink\source/device.c ****  *
   4:..\..\..\..\..\simplelink\source/device.c ****  * Copyright (C) 2014 Texas Instruments Incorporated - http://www.ti.com/ 
   5:..\..\..\..\..\simplelink\source/device.c ****  * 
   6:..\..\..\..\..\simplelink\source/device.c ****  * 
   7:..\..\..\..\..\simplelink\source/device.c ****  *  Redistribution and use in source and binary forms, with or without 
   8:..\..\..\..\..\simplelink\source/device.c ****  *  modification, are permitted provided that the following conditions 
   9:..\..\..\..\..\simplelink\source/device.c ****  *  are met:
  10:..\..\..\..\..\simplelink\source/device.c ****  *
  11:..\..\..\..\..\simplelink\source/device.c ****  *    Redistributions of source code must retain the above copyright 
  12:..\..\..\..\..\simplelink\source/device.c ****  *    notice, this list of conditions and the following disclaimer.
  13:..\..\..\..\..\simplelink\source/device.c ****  *
  14:..\..\..\..\..\simplelink\source/device.c ****  *    Redistributions in binary form must reproduce the above copyright
  15:..\..\..\..\..\simplelink\source/device.c ****  *    notice, this list of conditions and the following disclaimer in the 
  16:..\..\..\..\..\simplelink\source/device.c ****  *    documentation and/or other materials provided with the   
  17:..\..\..\..\..\simplelink\source/device.c ****  *    distribution.
  18:..\..\..\..\..\simplelink\source/device.c ****  *
  19:..\..\..\..\..\simplelink\source/device.c ****  *    Neither the name of Texas Instruments Incorporated nor the names of
  20:..\..\..\..\..\simplelink\source/device.c ****  *    its contributors may be used to endorse or promote products derived
  21:..\..\..\..\..\simplelink\source/device.c ****  *    from this software without specific prior written permission.
  22:..\..\..\..\..\simplelink\source/device.c ****  *
  23:..\..\..\..\..\simplelink\source/device.c ****  *  THIS SOFTWARE IS PROVIDED BY THE COPYRIGHT HOLDERS AND CONTRIBUTORS 
  24:..\..\..\..\..\simplelink\source/device.c ****  *  "AS IS" AND ANY EXPRESS OR IMPLIED WARRANTIES, INCLUDING, BUT NOT 
  25:..\..\..\..\..\simplelink\source/device.c ****  *  LIMITED TO, THE IMPLIED WARRANTIES OF MERCHANTABILITY AND FITNESS FOR
  26:..\..\..\..\..\simplelink\source/device.c ****  *  A PARTICULAR PURPOSE ARE DISCLAIMED. IN NO EVENT SHALL THE COPYRIGHT 
  27:..\..\..\..\..\simplelink\source/device.c ****  *  OWNER OR CONTRIBUTORS BE LIABLE FOR ANY DIRECT, INDIRECT, INCIDENTAL, 
  28:..\..\..\..\..\simplelink\source/device.c ****  *  SPECIAL, EXEMPLARY, OR CONSEQUENTIAL DAMAGES (INCLUDING, BUT NOT 
  29:..\..\..\..\..\simplelink\source/device.c ****  *  LIMITED TO, PROCUREMENT OF SUBSTITUTE GOODS OR SERVICES; LOSS OF USE,
  30:..\..\..\..\..\simplelink\source/device.c ****  *  DATA, OR PROFITS; OR BUSINESS INTERRUPTION) HOWEVER CAUSED AND ON ANY
  31:..\..\..\..\..\simplelink\source/device.c ****  *  THEORY OF LIABILITY, WHETHER IN CONTRACT, STRICT LIABILITY, OR TORT 
  32:..\..\..\..\..\simplelink\source/device.c ****  *  (INCLUDING NEGLIGENCE OR OTHERWISE) ARISING IN ANY WAY OUT OF THE USE 
ARM GAS  C:\Users\X0217454\AppData\Local\Temp\ccuVQjTZ.s 			page 2


  33:..\..\..\..\..\simplelink\source/device.c ****  *  OF THIS SOFTWARE, EVEN IF ADVISED OF THE POSSIBILITY OF SUCH DAMAGE.
  34:..\..\..\..\..\simplelink\source/device.c ****  *
  35:..\..\..\..\..\simplelink\source/device.c **** */
  36:..\..\..\..\..\simplelink\source/device.c **** 
  37:..\..\..\..\..\simplelink\source/device.c **** /*****************************************************************************
  38:..\..\..\..\..\simplelink\source/device.c **** 
  39:..\..\..\..\..\simplelink\source/device.c ****     API Prototypes
  40:..\..\..\..\..\simplelink\source/device.c **** 
  41:..\..\..\..\..\simplelink\source/device.c ****  *****************************************************************************/
  42:..\..\..\..\..\simplelink\source/device.c **** #include "datatypes.h"
  43:..\..\..\..\..\simplelink\source/device.c **** #include "simplelink.h"
  44:..\..\..\..\..\simplelink\source/device.c **** #include "protocol.h"
  45:..\..\..\..\..\simplelink\source/device.c **** #include "flowcont.h"
  46:..\..\..\..\..\simplelink\source/device.c **** #include "driver.h"
  47:..\..\..\..\..\simplelink\source/device.c **** 
  48:..\..\..\..\..\simplelink\source/device.c **** 
  49:..\..\..\..\..\simplelink\source/device.c **** /*****************************************************************************
  50:..\..\..\..\..\simplelink\source/device.c **** ******************************************************************************/
  51:..\..\..\..\..\simplelink\source/device.c **** #if _SL_INCLUDE_FUNC(sl_Task)
  52:..\..\..\..\..\simplelink\source/device.c **** void sl_Task()
  53:..\..\..\..\..\simplelink\source/device.c **** {
  26              		.loc 1 53 0
  27              		.cfi_startproc
  28 0000 80B5     		push	{r7, lr}
  29              	.LCFI0:
  30              		.cfi_def_cfa_offset 8
  31              		.cfi_offset 7, -8
  32              		.cfi_offset 14, -4
  33 0002 00AF     		add	r7, sp, #0
  34              	.LCFI1:
  35              		.cfi_def_cfa_register 7
  54:..\..\..\..\..\simplelink\source/device.c **** #ifdef _SlTaskEntry
  55:..\..\..\..\..\simplelink\source/device.c ****     _SlTaskEntry();
  36              		.loc 1 55 0
  37 0004 FFF7FEFF 		bl	_SlNonOsMainLoopTask
  56:..\..\..\..\..\simplelink\source/device.c **** #endif
  57:..\..\..\..\..\simplelink\source/device.c **** }
  38              		.loc 1 57 0
  39 0008 BD46     		mov	sp, r7
  40              		@ sp needed for prologue
  41 000a 80BD     		pop	{r7, pc}
  42              		.cfi_endproc
  43              	.LFE0:
  44              		.size	sl_Task, .-sl_Task
  45              		.section	.text.GetStartResponseConvert,"ax",%progbits
  46              		.align	2
  47              		.global	GetStartResponseConvert
  48              		.code	16
  49              		.thumb_func
  50              		.type	GetStartResponseConvert, %function
  51              	GetStartResponseConvert:
  52              	.LFB1:
  58:..\..\..\..\..\simplelink\source/device.c **** #endif
  59:..\..\..\..\..\simplelink\source/device.c **** 
  60:..\..\..\..\..\simplelink\source/device.c **** int GetStartResponseConvert(unsigned long Status)
  61:..\..\..\..\..\simplelink\source/device.c **** {
  53              		.loc 1 61 0
ARM GAS  C:\Users\X0217454\AppData\Local\Temp\ccuVQjTZ.s 			page 3


  54              		.cfi_startproc
  55 0000 80B5     		push	{r7, lr}
  56              	.LCFI2:
  57              		.cfi_def_cfa_offset 8
  58              		.cfi_offset 7, -8
  59              		.cfi_offset 14, -4
  60 0002 82B0     		sub	sp, sp, #8
  61              	.LCFI3:
  62              		.cfi_def_cfa_offset 16
  63 0004 00AF     		add	r7, sp, #0
  64              	.LCFI4:
  65              		.cfi_def_cfa_register 7
  66 0006 7860     		str	r0, [r7, #4]
  62:..\..\..\..\..\simplelink\source/device.c ****     switch(Status)
  67              		.loc 1 62 0
  68 0008 7B68     		ldr	r3, [r7, #4]
  69 000a 154A     		ldr	r2, .L12
  70 000c 9342     		cmp	r3, r2
  71 000e 18D0     		beq	.L6
  72 0010 134A     		ldr	r2, .L12
  73 0012 9342     		cmp	r3, r2
  74 0014 06D8     		bhi	.L10
  75 0016 134A     		ldr	r2, .L12+4
  76 0018 9342     		cmp	r3, r2
  77 001a 0DD0     		beq	.L4
  78 001c 124A     		ldr	r2, .L12+8
  79 001e 9342     		cmp	r3, r2
  80 0020 0CD0     		beq	.L5
  81 0022 18E0     		b	.L3
  82              	.L10:
  83 0024 114A     		ldr	r2, .L12+12
  84 0026 9342     		cmp	r3, r2
  85 0028 10D0     		beq	.L8
  86 002a 114A     		ldr	r2, .L12+16
  87 002c 9342     		cmp	r3, r2
  88 002e 0FD0     		beq	.L9
  89 0030 104A     		ldr	r2, .L12+20
  90 0032 9342     		cmp	r3, r2
  91 0034 07D0     		beq	.L7
  92 0036 0EE0     		b	.L3
  93              	.L4:
  63:..\..\..\..\..\simplelink\source/device.c ****     {
  64:..\..\..\..\..\simplelink\source/device.c ****     case INIT_STA_OK:
  65:..\..\..\..\..\simplelink\source/device.c ****         return ROLE_STA;
  94              		.loc 1 65 0
  95 0038 0023     		mov	r3, #0
  96 003a 0DE0     		b	.L11
  97              	.L5:
  66:..\..\..\..\..\simplelink\source/device.c ****     case INIT_STA_ERR:
  67:..\..\..\..\..\simplelink\source/device.c ****         return ROLE_STA_ERR;
  98              		.loc 1 67 0
  99 003c 0123     		mov	r3, #1
 100 003e 5B42     		neg	r3, r3
 101 0040 0AE0     		b	.L11
 102              	.L6:
  68:..\..\..\..\..\simplelink\source/device.c ****     case INIT_AP_OK:
  69:..\..\..\..\..\simplelink\source/device.c ****         return ROLE_AP;
ARM GAS  C:\Users\X0217454\AppData\Local\Temp\ccuVQjTZ.s 			page 4


 103              		.loc 1 69 0
 104 0042 0223     		mov	r3, #2
 105 0044 08E0     		b	.L11
 106              	.L7:
  70:..\..\..\..\..\simplelink\source/device.c ****     case INIT_AP_ERR:
  71:..\..\..\..\..\simplelink\source/device.c ****         return ROLE_AP_ERR;
 107              		.loc 1 71 0
 108 0046 0223     		mov	r3, #2
 109 0048 5B42     		neg	r3, r3
 110 004a 05E0     		b	.L11
 111              	.L8:
  72:..\..\..\..\..\simplelink\source/device.c ****     case INIT_P2P_OK:
  73:..\..\..\..\..\simplelink\source/device.c ****         return ROLE_P2P;
 112              		.loc 1 73 0
 113 004c 0323     		mov	r3, #3
 114 004e 03E0     		b	.L11
 115              	.L9:
  74:..\..\..\..\..\simplelink\source/device.c ****     case INIT_P2P_ERR:
  75:..\..\..\..\..\simplelink\source/device.c ****         return ROLE_P2P_ERR;
 116              		.loc 1 75 0
 117 0050 0323     		mov	r3, #3
 118 0052 5B42     		neg	r3, r3
 119 0054 00E0     		b	.L11
 120              	.L3:
  76:..\..\..\..\..\simplelink\source/device.c ****     default:
  77:..\..\..\..\..\simplelink\source/device.c ****         return (int)Status;
 121              		.loc 1 77 0
 122 0056 7B68     		ldr	r3, [r7, #4]
 123              	.L11:
  78:..\..\..\..\..\simplelink\source/device.c ****     }
  79:..\..\..\..\..\simplelink\source/device.c **** }
 124              		.loc 1 79 0
 125 0058 181C     		mov	r0, r3
 126 005a BD46     		mov	sp, r7
 127 005c 02B0     		add	sp, sp, #8
 128              		@ sp needed for prologue
 129 005e 80BD     		pop	{r7, pc}
 130              	.L13:
 131              		.align	2
 132              	.L12:
 133 0060 33333333 		.word	858993459
 134 0064 11111111 		.word	286331153
 135 0068 22222222 		.word	572662306
 136 006c 55555555 		.word	1431655765
 137 0070 66666666 		.word	1717986918
 138 0074 44444444 		.word	1145324612
 139              		.cfi_endproc
 140              	.LFE1:
 141              		.size	GetStartResponseConvert, .-GetStartResponseConvert
 142              		.section	.text.sl_Start,"ax",%progbits
 143              		.align	2
 144              		.global	sl_Start
 145              		.code	16
 146              		.thumb_func
 147              		.type	sl_Start, %function
 148              	sl_Start:
 149              	.LFB2:
ARM GAS  C:\Users\X0217454\AppData\Local\Temp\ccuVQjTZ.s 			page 5


  80:..\..\..\..\..\simplelink\source/device.c **** 
  81:..\..\..\..\..\simplelink\source/device.c **** 
  82:..\..\..\..\..\simplelink\source/device.c **** /*****************************************************************************
  83:..\..\..\..\..\simplelink\source/device.c **** ******************************************************************************/
  84:..\..\..\..\..\simplelink\source/device.c **** #if _SL_INCLUDE_FUNC(sl_Start)
  85:..\..\..\..\..\simplelink\source/device.c **** int sl_Start(const void* pIfHdl, char* pDevName, const P_INIT_CALLBACK pInitCallBack)
  86:..\..\..\..\..\simplelink\source/device.c **** {
 150              		.loc 1 86 0
 151              		.cfi_startproc
 152 0000 90B5     		push	{r4, r7, lr}
 153              	.LCFI5:
 154              		.cfi_def_cfa_offset 12
 155              		.cfi_offset 4, -12
 156              		.cfi_offset 7, -8
 157              		.cfi_offset 14, -4
 158 0002 8BB0     		sub	sp, sp, #44
 159              	.LCFI6:
 160              		.cfi_def_cfa_offset 56
 161 0004 00AF     		add	r7, sp, #0
 162              	.LCFI7:
 163              		.cfi_def_cfa_register 7
 164 0006 F860     		str	r0, [r7, #12]
 165 0008 B960     		str	r1, [r7, #8]
 166 000a 7A60     		str	r2, [r7, #4]
  87:..\..\..\..\..\simplelink\source/device.c ****     int pObjIdx = MAX_CONCURRENT_ACTIONS;
 167              		.loc 1 87 0
 168 000c 0A23     		mov	r3, #10
 169 000e 7B62     		str	r3, [r7, #36]
  88:..\..\..\..\..\simplelink\source/device.c ****     InitComplete_t  AsyncRsp;
  89:..\..\..\..\..\simplelink\source/device.c ****   
  90:..\..\..\..\..\simplelink\source/device.c ****     /* callback init */
  91:..\..\..\..\..\simplelink\source/device.c ****     _SlDrvDriverCBInit();
 170              		.loc 1 91 0
 171 0010 FFF7FEFF 		bl	_SlDrvDriverCBInit
  92:..\..\..\..\..\simplelink\source/device.c **** 
  93:..\..\..\..\..\simplelink\source/device.c ****     /* open the interface: usually SPI or UART */
  94:..\..\..\..\..\simplelink\source/device.c ****     if (NULL == pIfHdl)
 172              		.loc 1 94 0
 173 0014 FB68     		ldr	r3, [r7, #12]
 174 0016 002B     		cmp	r3, #0
 175 0018 09D1     		bne	.L15
  95:..\..\..\..\..\simplelink\source/device.c ****     {
  96:..\..\..\..\..\simplelink\source/device.c ****         g_pCB->FD = sl_IfOpen(pDevName, 0);
 176              		.loc 1 96 0
 177 001a 404B     		ldr	r3, .L28
 178 001c 1C68     		ldr	r4, [r3]
 179 001e BB68     		ldr	r3, [r7, #8]
 180 0020 181C     		mov	r0, r3
 181 0022 0021     		mov	r1, #0
 182 0024 FFF7FEFF 		bl	uart_Open
 183 0028 031C     		mov	r3, r0
 184 002a 2360     		str	r3, [r4]
 185 002c 03E0     		b	.L16
 186              	.L15:
  97:..\..\..\..\..\simplelink\source/device.c ****     }
  98:..\..\..\..\..\simplelink\source/device.c ****     else
  99:..\..\..\..\..\simplelink\source/device.c ****     {
ARM GAS  C:\Users\X0217454\AppData\Local\Temp\ccuVQjTZ.s 			page 6


 100:..\..\..\..\..\simplelink\source/device.c ****         g_pCB->FD = (_SlFd_t)pIfHdl;
 187              		.loc 1 100 0
 188 002e 3B4B     		ldr	r3, .L28
 189 0030 1B68     		ldr	r3, [r3]
 190 0032 FA68     		ldr	r2, [r7, #12]
 191 0034 1A60     		str	r2, [r3]
 192              	.L16:
 101:..\..\..\..\..\simplelink\source/device.c ****     }
 102:..\..\..\..\..\simplelink\source/device.c ****     /* Use Obj to issue the command, if not available try later */
 103:..\..\..\..\..\simplelink\source/device.c ****     pObjIdx = _SlDrvWaitForPoolObj(START_STOP_ID,SL_MAX_SOCKETS);
 193              		.loc 1 103 0
 194 0036 0E20     		mov	r0, #14
 195 0038 0821     		mov	r1, #8
 196 003a FFF7FEFF 		bl	_SlDrvWaitForPoolObj
 197 003e 031C     		mov	r3, r0
 198 0040 7B62     		str	r3, [r7, #36]
 104:..\..\..\..\..\simplelink\source/device.c ****     if (MAX_CONCURRENT_ACTIONS == pObjIdx)
 199              		.loc 1 104 0
 200 0042 7B6A     		ldr	r3, [r7, #36]
 201 0044 0A2B     		cmp	r3, #10
 202 0046 01D1     		bne	.L17
 105:..\..\..\..\..\simplelink\source/device.c ****     {
 106:..\..\..\..\..\simplelink\source/device.c ****          return SL_POOL_IS_EMPTY;
 203              		.loc 1 106 0
 204 0048 354B     		ldr	r3, .L28+4
 205 004a 62E0     		b	.L27
 206              	.L17:
 207              	.LBB2:
 107:..\..\..\..\..\simplelink\source/device.c ****     }
 108:..\..\..\..\..\simplelink\source/device.c ****     OSI_RET_OK_CHECK(sl_LockObjLock(&g_pCB->ProtectionLockObj, SL_OS_WAIT_FOREVER));
 208              		.loc 1 108 0
 209 004c 334B     		ldr	r3, .L28
 210 004e 1B68     		ldr	r3, [r3]
 211 0050 9033     		add	r3, r3, #144
 212 0052 181C     		mov	r0, r3
 213 0054 3321     		mov	r1, #51
 214 0056 4422     		mov	r2, #68
 215 0058 FF23     		mov	r3, #255
 216 005a FFF7FEFF 		bl	_SlNonOsSemGet
 217 005e 031C     		mov	r3, r0
 218 0060 3B62     		str	r3, [r7, #32]
 219 0062 3B6A     		ldr	r3, [r7, #32]
 220 0064 002B     		cmp	r3, #0
 221 0066 00D0     		beq	.L19
 222              	.L20:
 223              		.loc 1 108 0 is_stmt 0 discriminator 1
 224 0068 FEE7     		b	.L20
 225              	.L19:
 226              	.LBE2:
 109:..\..\..\..\..\simplelink\source/device.c ****     g_pCB->ObjPool[pObjIdx].pRespArgs = (UINT8 *)&AsyncRsp;
 227              		.loc 1 109 0 is_stmt 1
 228 006a 2C4B     		ldr	r3, .L28
 229 006c 1968     		ldr	r1, [r3]
 230 006e 7A6A     		ldr	r2, [r7, #36]
 231 0070 131C     		mov	r3, r2
 232 0072 5B00     		lsl	r3, r3, #1
 233 0074 9B18     		add	r3, r3, r2
ARM GAS  C:\Users\X0217454\AppData\Local\Temp\ccuVQjTZ.s 			page 7


 234 0076 9B00     		lsl	r3, r3, #2
 235 0078 CB18     		add	r3, r1, r3
 236 007a 1433     		add	r3, r3, #20
 237 007c 3A1C     		mov	r2, r7
 238 007e 1432     		add	r2, r2, #20
 239 0080 1A60     		str	r2, [r3]
 240              	.LBB3:
 110:..\..\..\..\..\simplelink\source/device.c ****     OSI_RET_OK_CHECK(sl_LockObjUnlock(&g_pCB->ProtectionLockObj));
 241              		.loc 1 110 0
 242 0082 264B     		ldr	r3, .L28
 243 0084 1B68     		ldr	r3, [r3]
 244 0086 9033     		add	r3, r3, #144
 245 0088 181C     		mov	r0, r3
 246 008a 3321     		mov	r1, #51
 247 008c FFF7FEFF 		bl	_SlNonOsSemSet
 248 0090 031C     		mov	r3, r0
 249 0092 FB61     		str	r3, [r7, #28]
 250 0094 FB69     		ldr	r3, [r7, #28]
 251 0096 002B     		cmp	r3, #0
 252 0098 00D0     		beq	.L21
 253              	.L22:
 254              		.loc 1 110 0 is_stmt 0 discriminator 1
 255 009a FEE7     		b	.L22
 256              	.L21:
 257              	.LBE3:
 111:..\..\..\..\..\simplelink\source/device.c **** 
 112:..\..\..\..\..\simplelink\source/device.c ****     if( g_pCB->FD >= 0)
 258              		.loc 1 112 0 is_stmt 1
 259 009c 1F4B     		ldr	r3, .L28
 260 009e 1B68     		ldr	r3, [r3]
 261 00a0 1B68     		ldr	r3, [r3]
 262 00a2 002B     		cmp	r3, #0
 263 00a4 32DB     		blt	.L23
 113:..\..\..\..\..\simplelink\source/device.c ****     {
 114:..\..\..\..\..\simplelink\source/device.c ****         sl_DeviceDisable();
 264              		.loc 1 114 0
 265 00a6 FFF7FEFF 		bl	CC3100_disable
 115:..\..\..\..\..\simplelink\source/device.c **** 
 116:..\..\..\..\..\simplelink\source/device.c ****         sl_IfRegIntHdlr((SL_P_EVENT_HANDLER)_SlDrvRxIrqHandler, NULL);
 266              		.loc 1 116 0
 267 00aa 1E4B     		ldr	r3, .L28+8
 268 00ac 181C     		mov	r0, r3
 269 00ae 0021     		mov	r1, #0
 270 00b0 FFF7FEFF 		bl	registerInterruptHandler
 117:..\..\..\..\..\simplelink\source/device.c **** 
 118:..\..\..\..\..\simplelink\source/device.c ****         sl_DeviceEnable();
 271              		.loc 1 118 0
 272 00b4 FFF7FEFF 		bl	CC3100_enable
 119:..\..\..\..\..\simplelink\source/device.c **** 
 120:..\..\..\..\..\simplelink\source/device.c ****         if (NULL != pInitCallBack)
 273              		.loc 1 120 0
 274 00b8 7B68     		ldr	r3, [r7, #4]
 275 00ba 002B     		cmp	r3, #0
 276 00bc 04D0     		beq	.L24
 121:..\..\..\..\..\simplelink\source/device.c ****         {
 122:..\..\..\..\..\simplelink\source/device.c ****             g_pCB->pInitCallback = pInitCallBack;
 277              		.loc 1 122 0
ARM GAS  C:\Users\X0217454\AppData\Local\Temp\ccuVQjTZ.s 			page 8


 278 00be 174B     		ldr	r3, .L28
 279 00c0 1B68     		ldr	r3, [r3]
 280 00c2 7A68     		ldr	r2, [r7, #4]
 281 00c4 DA60     		str	r2, [r3, #12]
 282 00c6 21E0     		b	.L23
 283              	.L24:
 284              	.LBB4:
 123:..\..\..\..\..\simplelink\source/device.c ****         }
 124:..\..\..\..\..\simplelink\source/device.c ****         else
 125:..\..\..\..\..\simplelink\source/device.c ****         {
 126:..\..\..\..\..\simplelink\source/device.c **** 			OSI_RET_OK_CHECK(sl_SyncObjWait(&g_pCB->ObjPool[pObjIdx].SyncObj, SL_OS_WAIT_FOREVER));
 285              		.loc 1 126 0
 286 00c8 144B     		ldr	r3, .L28
 287 00ca 1968     		ldr	r1, [r3]
 288 00cc 7A6A     		ldr	r2, [r7, #36]
 289 00ce 131C     		mov	r3, r2
 290 00d0 5B00     		lsl	r3, r3, #1
 291 00d2 9B18     		add	r3, r3, r2
 292 00d4 9B00     		lsl	r3, r3, #2
 293 00d6 1033     		add	r3, r3, #16
 294 00d8 CB18     		add	r3, r1, r3
 295 00da 181C     		mov	r0, r3
 296 00dc 2221     		mov	r1, #34
 297 00de 1122     		mov	r2, #17
 298 00e0 FF23     		mov	r3, #255
 299 00e2 FFF7FEFF 		bl	_SlNonOsSemGet
 300 00e6 031C     		mov	r3, r0
 301 00e8 BB61     		str	r3, [r7, #24]
 302 00ea BB69     		ldr	r3, [r7, #24]
 303 00ec 002B     		cmp	r3, #0
 304 00ee 00D0     		beq	.L25
 305              	.L26:
 306              		.loc 1 126 0 is_stmt 0 discriminator 1
 307 00f0 FEE7     		b	.L26
 308              	.L25:
 309              	.LBE4:
 127:..\..\..\..\..\simplelink\source/device.c **** 	        /*release Pool Object*/
 128:..\..\..\..\..\simplelink\source/device.c ****             _SlDrvReleasePoolObj(g_pCB->FunctionParams.AsyncExt.ActionIndex);
 310              		.loc 1 128 0 is_stmt 1
 311 00f2 0A4B     		ldr	r3, .L28
 312 00f4 1A68     		ldr	r2, [r3]
 313 00f6 AC23     		mov	r3, #172
 314 00f8 D35C     		ldrb	r3, [r2, r3]
 315 00fa 181C     		mov	r0, r3
 316 00fc FFF7FEFF 		bl	_SlDrvReleasePoolObj
 129:..\..\..\..\..\simplelink\source/device.c **** 			return GetStartResponseConvert(AsyncRsp.Status);
 317              		.loc 1 129 0
 318 0100 7B69     		ldr	r3, [r7, #20]
 319 0102 181C     		mov	r0, r3
 320 0104 FFF7FEFF 		bl	GetStartResponseConvert
 321 0108 031C     		mov	r3, r0
 322 010a 02E0     		b	.L27
 323              	.L23:
 130:..\..\..\..\..\simplelink\source/device.c **** 		}
 131:..\..\..\..\..\simplelink\source/device.c ****     }
 132:..\..\..\..\..\simplelink\source/device.c **** 
 133:..\..\..\..\..\simplelink\source/device.c ****     return (int)g_pCB->FD;
ARM GAS  C:\Users\X0217454\AppData\Local\Temp\ccuVQjTZ.s 			page 9


 324              		.loc 1 133 0
 325 010c 034B     		ldr	r3, .L28
 326 010e 1B68     		ldr	r3, [r3]
 327 0110 1B68     		ldr	r3, [r3]
 328              	.L27:
 134:..\..\..\..\..\simplelink\source/device.c ****  
 135:..\..\..\..\..\simplelink\source/device.c **** }
 329              		.loc 1 135 0
 330 0112 181C     		mov	r0, r3
 331 0114 BD46     		mov	sp, r7
 332 0116 0BB0     		add	sp, sp, #44
 333              		@ sp needed for prologue
 334 0118 90BD     		pop	{r4, r7, pc}
 335              	.L29:
 336 011a C046     		.align	2
 337              	.L28:
 338 011c 00000000 		.word	g_pCB
 339 0120 30F8FFFF 		.word	-2000
 340 0124 00000000 		.word	_SlDrvRxIrqHandler
 341              		.cfi_endproc
 342              	.LFE2:
 343              		.size	sl_Start, .-sl_Start
 344              		.section	.text._sl_HandleAsync_InitComplete,"ax",%progbits
 345              		.align	2
 346              		.global	_sl_HandleAsync_InitComplete
 347              		.code	16
 348              		.thumb_func
 349              		.type	_sl_HandleAsync_InitComplete, %function
 350              	_sl_HandleAsync_InitComplete:
 351              	.LFB3:
 136:..\..\..\..\..\simplelink\source/device.c **** #endif
 137:..\..\..\..\..\simplelink\source/device.c **** 
 138:..\..\..\..\..\simplelink\source/device.c **** /*****************************************************************************
 139:..\..\..\..\..\simplelink\source/device.c ****  _sl_HandleAsync_InitComplete - handles init complete signalling to 
 140:..\..\..\..\..\simplelink\source/device.c ****                                 a waiting object
 141:..\..\..\..\..\simplelink\source/device.c **** ****************************************************************************/
 142:..\..\..\..\..\simplelink\source/device.c **** void _sl_HandleAsync_InitComplete(void *pVoidBuf)
 143:..\..\..\..\..\simplelink\source/device.c **** {
 352              		.loc 1 143 0
 353              		.cfi_startproc
 354 0000 90B5     		push	{r4, r7, lr}
 355              	.LCFI8:
 356              		.cfi_def_cfa_offset 12
 357              		.cfi_offset 4, -12
 358              		.cfi_offset 7, -8
 359              		.cfi_offset 14, -4
 360 0002 87B0     		sub	sp, sp, #28
 361              	.LCFI9:
 362              		.cfi_def_cfa_offset 40
 363 0004 00AF     		add	r7, sp, #0
 364              	.LCFI10:
 365              		.cfi_def_cfa_register 7
 366 0006 7860     		str	r0, [r7, #4]
 144:..\..\..\..\..\simplelink\source/device.c ****     InitComplete_t     *pMsgArgs   = (InitComplete_t *)_SL_RESP_ARGS_START(pVoidBuf);
 367              		.loc 1 144 0
 368 0008 7B68     		ldr	r3, [r7, #4]
 369 000a 0833     		add	r3, r3, #8
ARM GAS  C:\Users\X0217454\AppData\Local\Temp\ccuVQjTZ.s 			page 10


 370 000c 7B61     		str	r3, [r7, #20]
 371              	.LBB5:
 145:..\..\..\..\..\simplelink\source/device.c **** 
 146:..\..\..\..\..\simplelink\source/device.c ****     OSI_RET_OK_CHECK(sl_LockObjLock(&g_pCB->ProtectionLockObj, SL_OS_WAIT_FOREVER));
 372              		.loc 1 146 0
 373 000e 334B     		ldr	r3, .L39
 374 0010 1B68     		ldr	r3, [r3]
 375 0012 9033     		add	r3, r3, #144
 376 0014 181C     		mov	r0, r3
 377 0016 3321     		mov	r1, #51
 378 0018 4422     		mov	r2, #68
 379 001a FF23     		mov	r3, #255
 380 001c FFF7FEFF 		bl	_SlNonOsSemGet
 381 0020 031C     		mov	r3, r0
 382 0022 3B61     		str	r3, [r7, #16]
 383 0024 3B69     		ldr	r3, [r7, #16]
 384 0026 002B     		cmp	r3, #0
 385 0028 00D0     		beq	.L31
 386              	.L32:
 387              		.loc 1 146 0 is_stmt 0 discriminator 1
 388 002a FEE7     		b	.L32
 389              	.L31:
 390              	.LBE5:
 147:..\..\..\..\..\simplelink\source/device.c **** 
 148:..\..\..\..\..\simplelink\source/device.c ****     if(g_pCB->pInitCallback)
 391              		.loc 1 148 0 is_stmt 1
 392 002c 2B4B     		ldr	r3, .L39
 393 002e 1B68     		ldr	r3, [r3]
 394 0030 DB68     		ldr	r3, [r3, #12]
 395 0032 002B     		cmp	r3, #0
 396 0034 0BD0     		beq	.L33
 149:..\..\..\..\..\simplelink\source/device.c ****     {
 150:..\..\..\..\..\simplelink\source/device.c **** 		g_pCB->pInitCallback(GetStartResponseConvert(pMsgArgs->Status));
 397              		.loc 1 150 0
 398 0036 294B     		ldr	r3, .L39
 399 0038 1B68     		ldr	r3, [r3]
 400 003a DC68     		ldr	r4, [r3, #12]
 401 003c 7B69     		ldr	r3, [r7, #20]
 402 003e 1B68     		ldr	r3, [r3]
 403 0040 181C     		mov	r0, r3
 404 0042 FFF7FEFF 		bl	GetStartResponseConvert
 405 0046 031C     		mov	r3, r0
 406 0048 181C     		mov	r0, r3
 407 004a A047     		blx	r4
 408 004c 2AE0     		b	.L34
 409              	.L33:
 151:..\..\..\..\..\simplelink\source/device.c ****     }
 152:..\..\..\..\..\simplelink\source/device.c ****     else
 153:..\..\..\..\..\simplelink\source/device.c ****     {
 154:..\..\..\..\..\simplelink\source/device.c **** 		memcpy(g_pCB->ObjPool[g_pCB->FunctionParams.AsyncExt.ActionIndex].pRespArgs, pMsgArgs, sizeof(Ini
 410              		.loc 1 154 0
 411 004e 234B     		ldr	r3, .L39
 412 0050 1968     		ldr	r1, [r3]
 413 0052 224B     		ldr	r3, .L39
 414 0054 1A68     		ldr	r2, [r3]
 415 0056 AC23     		mov	r3, #172
 416 0058 D35C     		ldrb	r3, [r2, r3]
ARM GAS  C:\Users\X0217454\AppData\Local\Temp\ccuVQjTZ.s 			page 11


 417 005a 1A1C     		mov	r2, r3
 418 005c 131C     		mov	r3, r2
 419 005e 5B00     		lsl	r3, r3, #1
 420 0060 9B18     		add	r3, r3, r2
 421 0062 9B00     		lsl	r3, r3, #2
 422 0064 CB18     		add	r3, r1, r3
 423 0066 1433     		add	r3, r3, #20
 424 0068 1A68     		ldr	r2, [r3]
 425 006a 7B69     		ldr	r3, [r7, #20]
 426 006c 101C     		mov	r0, r2
 427 006e 191C     		mov	r1, r3
 428 0070 0422     		mov	r2, #4
 429 0072 FFF7FEFF 		bl	memcpy
 430              	.LBB6:
 155:..\..\..\..\..\simplelink\source/device.c ****         OSI_RET_OK_CHECK(sl_SyncObjSignal(&g_pCB->ObjPool[g_pCB->FunctionParams.AsyncExt.ActionInde
 431              		.loc 1 155 0
 432 0076 194B     		ldr	r3, .L39
 433 0078 1968     		ldr	r1, [r3]
 434 007a 184B     		ldr	r3, .L39
 435 007c 1A68     		ldr	r2, [r3]
 436 007e AC23     		mov	r3, #172
 437 0080 D35C     		ldrb	r3, [r2, r3]
 438 0082 1A1C     		mov	r2, r3
 439 0084 131C     		mov	r3, r2
 440 0086 5B00     		lsl	r3, r3, #1
 441 0088 9B18     		add	r3, r3, r2
 442 008a 9B00     		lsl	r3, r3, #2
 443 008c 1033     		add	r3, r3, #16
 444 008e CB18     		add	r3, r1, r3
 445 0090 181C     		mov	r0, r3
 446 0092 2221     		mov	r1, #34
 447 0094 FFF7FEFF 		bl	_SlNonOsSemSet
 448 0098 031C     		mov	r3, r0
 449 009a FB60     		str	r3, [r7, #12]
 450 009c FB68     		ldr	r3, [r7, #12]
 451 009e 002B     		cmp	r3, #0
 452 00a0 00D0     		beq	.L34
 453              	.L35:
 454              		.loc 1 155 0 is_stmt 0 discriminator 1
 455 00a2 FEE7     		b	.L35
 456              	.L34:
 457              	.LBE6:
 458              	.LBB7:
 156:..\..\..\..\..\simplelink\source/device.c ****     }
 157:..\..\..\..\..\simplelink\source/device.c ****    OSI_RET_OK_CHECK(sl_LockObjUnlock(&g_pCB->ProtectionLockObj));
 459              		.loc 1 157 0 is_stmt 1
 460 00a4 0D4B     		ldr	r3, .L39
 461 00a6 1B68     		ldr	r3, [r3]
 462 00a8 9033     		add	r3, r3, #144
 463 00aa 181C     		mov	r0, r3
 464 00ac 3321     		mov	r1, #51
 465 00ae FFF7FEFF 		bl	_SlNonOsSemSet
 466 00b2 031C     		mov	r3, r0
 467 00b4 BB60     		str	r3, [r7, #8]
 468 00b6 BB68     		ldr	r3, [r7, #8]
 469 00b8 002B     		cmp	r3, #0
 470 00ba 00D0     		beq	.L36
ARM GAS  C:\Users\X0217454\AppData\Local\Temp\ccuVQjTZ.s 			page 12


 471              	.L37:
 472              		.loc 1 157 0 is_stmt 0 discriminator 1
 473 00bc FEE7     		b	.L37
 474              	.L36:
 475              	.LBE7:
 158:..\..\..\..\..\simplelink\source/device.c **** 
 159:..\..\..\..\..\simplelink\source/device.c ****    if(g_pCB->pInitCallback)
 476              		.loc 1 159 0 is_stmt 1
 477 00be 074B     		ldr	r3, .L39
 478 00c0 1B68     		ldr	r3, [r3]
 479 00c2 DB68     		ldr	r3, [r3, #12]
 480 00c4 002B     		cmp	r3, #0
 481 00c6 06D0     		beq	.L30
 160:..\..\..\..\..\simplelink\source/device.c ****    {
 161:..\..\..\..\..\simplelink\source/device.c ****      _SlDrvReleasePoolObj(g_pCB->FunctionParams.AsyncExt.ActionIndex);
 482              		.loc 1 161 0
 483 00c8 044B     		ldr	r3, .L39
 484 00ca 1A68     		ldr	r2, [r3]
 485 00cc AC23     		mov	r3, #172
 486 00ce D35C     		ldrb	r3, [r2, r3]
 487 00d0 181C     		mov	r0, r3
 488 00d2 FFF7FEFF 		bl	_SlDrvReleasePoolObj
 489              	.L30:
 162:..\..\..\..\..\simplelink\source/device.c ****    }
 163:..\..\..\..\..\simplelink\source/device.c **** }
 490              		.loc 1 163 0
 491 00d6 BD46     		mov	sp, r7
 492 00d8 07B0     		add	sp, sp, #28
 493              		@ sp needed for prologue
 494 00da 90BD     		pop	{r4, r7, pc}
 495              	.L40:
 496              		.align	2
 497              	.L39:
 498 00dc 00000000 		.word	g_pCB
 499              		.cfi_endproc
 500              	.LFE3:
 501              		.size	_sl_HandleAsync_InitComplete, .-_sl_HandleAsync_InitComplete
 502              		.section	.text._sl_HandleAsync_Stop,"ax",%progbits
 503              		.align	2
 504              		.global	_sl_HandleAsync_Stop
 505              		.code	16
 506              		.thumb_func
 507              		.type	_sl_HandleAsync_Stop, %function
 508              	_sl_HandleAsync_Stop:
 509              	.LFB4:
 164:..\..\..\..\..\simplelink\source/device.c **** 
 165:..\..\..\..\..\simplelink\source/device.c **** void _sl_HandleAsync_Stop(void *pVoidBuf)
 166:..\..\..\..\..\simplelink\source/device.c **** {
 510              		.loc 1 166 0
 511              		.cfi_startproc
 512 0000 80B5     		push	{r7, lr}
 513              	.LCFI11:
 514              		.cfi_def_cfa_offset 8
 515              		.cfi_offset 7, -8
 516              		.cfi_offset 14, -4
 517 0002 86B0     		sub	sp, sp, #24
 518              	.LCFI12:
ARM GAS  C:\Users\X0217454\AppData\Local\Temp\ccuVQjTZ.s 			page 13


 519              		.cfi_def_cfa_offset 32
 520 0004 00AF     		add	r7, sp, #0
 521              	.LCFI13:
 522              		.cfi_def_cfa_register 7
 523 0006 7860     		str	r0, [r7, #4]
 167:..\..\..\..\..\simplelink\source/device.c ****     _BasicResponse_t     *pMsgArgs   = (_BasicResponse_t *)_SL_RESP_ARGS_START(pVoidBuf);
 524              		.loc 1 167 0
 525 0008 7B68     		ldr	r3, [r7, #4]
 526 000a 0833     		add	r3, r3, #8
 527 000c 7B61     		str	r3, [r7, #20]
 528              	.LBB8:
 168:..\..\..\..\..\simplelink\source/device.c **** 
 169:..\..\..\..\..\simplelink\source/device.c ****     VERIFY_SOCKET_CB(NULL != g_pCB->StopCB.pAsyncRsp);
 170:..\..\..\..\..\simplelink\source/device.c **** 
 171:..\..\..\..\..\simplelink\source/device.c ****     OSI_RET_OK_CHECK(sl_LockObjLock(&g_pCB->ProtectionLockObj, SL_OS_WAIT_FOREVER));
 529              		.loc 1 171 0
 530 000e 254B     		ldr	r3, .L50
 531 0010 1B68     		ldr	r3, [r3]
 532 0012 9033     		add	r3, r3, #144
 533 0014 181C     		mov	r0, r3
 534 0016 3321     		mov	r1, #51
 535 0018 4422     		mov	r2, #68
 536 001a FF23     		mov	r3, #255
 537 001c FFF7FEFF 		bl	_SlNonOsSemGet
 538 0020 031C     		mov	r3, r0
 539 0022 3B61     		str	r3, [r7, #16]
 540 0024 3B69     		ldr	r3, [r7, #16]
 541 0026 002B     		cmp	r3, #0
 542 0028 00D0     		beq	.L42
 543              	.L43:
 544              		.loc 1 171 0 is_stmt 0 discriminator 1
 545 002a FEE7     		b	.L43
 546              	.L42:
 547              	.LBE8:
 172:..\..\..\..\..\simplelink\source/device.c **** 
 173:..\..\..\..\..\simplelink\source/device.c ****     memcpy(g_pCB->ObjPool[g_pCB->FunctionParams.AsyncExt.ActionIndex].pRespArgs, pMsgArgs, sizeof(_
 548              		.loc 1 173 0 is_stmt 1
 549 002c 1D4B     		ldr	r3, .L50
 550 002e 1968     		ldr	r1, [r3]
 551 0030 1C4B     		ldr	r3, .L50
 552 0032 1A68     		ldr	r2, [r3]
 553 0034 AC23     		mov	r3, #172
 554 0036 D35C     		ldrb	r3, [r2, r3]
 555 0038 1A1C     		mov	r2, r3
 556 003a 131C     		mov	r3, r2
 557 003c 5B00     		lsl	r3, r3, #1
 558 003e 9B18     		add	r3, r3, r2
 559 0040 9B00     		lsl	r3, r3, #2
 560 0042 CB18     		add	r3, r1, r3
 561 0044 1433     		add	r3, r3, #20
 562 0046 1A68     		ldr	r2, [r3]
 563 0048 7B69     		ldr	r3, [r7, #20]
 564 004a 101C     		mov	r0, r2
 565 004c 191C     		mov	r1, r3
 566 004e 0422     		mov	r2, #4
 567 0050 FFF7FEFF 		bl	memcpy
 568              	.LBB9:
ARM GAS  C:\Users\X0217454\AppData\Local\Temp\ccuVQjTZ.s 			page 14


 174:..\..\..\..\..\simplelink\source/device.c ****     OSI_RET_OK_CHECK(sl_SyncObjSignal(&g_pCB->ObjPool[g_pCB->FunctionParams.AsyncExt.ActionIndex].S
 569              		.loc 1 174 0
 570 0054 134B     		ldr	r3, .L50
 571 0056 1968     		ldr	r1, [r3]
 572 0058 124B     		ldr	r3, .L50
 573 005a 1A68     		ldr	r2, [r3]
 574 005c AC23     		mov	r3, #172
 575 005e D35C     		ldrb	r3, [r2, r3]
 576 0060 1A1C     		mov	r2, r3
 577 0062 131C     		mov	r3, r2
 578 0064 5B00     		lsl	r3, r3, #1
 579 0066 9B18     		add	r3, r3, r2
 580 0068 9B00     		lsl	r3, r3, #2
 581 006a 1033     		add	r3, r3, #16
 582 006c CB18     		add	r3, r1, r3
 583 006e 181C     		mov	r0, r3
 584 0070 2221     		mov	r1, #34
 585 0072 FFF7FEFF 		bl	_SlNonOsSemSet
 586 0076 031C     		mov	r3, r0
 587 0078 FB60     		str	r3, [r7, #12]
 588 007a FB68     		ldr	r3, [r7, #12]
 589 007c 002B     		cmp	r3, #0
 590 007e 00D0     		beq	.L44
 591              	.L45:
 592              		.loc 1 174 0 is_stmt 0 discriminator 1
 593 0080 FEE7     		b	.L45
 594              	.L44:
 595              	.LBE9:
 596              	.LBB10:
 175:..\..\..\..\..\simplelink\source/device.c ****     OSI_RET_OK_CHECK(sl_LockObjUnlock(&g_pCB->ProtectionLockObj));
 597              		.loc 1 175 0 is_stmt 1
 598 0082 084B     		ldr	r3, .L50
 599 0084 1B68     		ldr	r3, [r3]
 600 0086 9033     		add	r3, r3, #144
 601 0088 181C     		mov	r0, r3
 602 008a 3321     		mov	r1, #51
 603 008c FFF7FEFF 		bl	_SlNonOsSemSet
 604 0090 031C     		mov	r3, r0
 605 0092 BB60     		str	r3, [r7, #8]
 606 0094 BB68     		ldr	r3, [r7, #8]
 607 0096 002B     		cmp	r3, #0
 608 0098 00D0     		beq	.L49
 609              	.L47:
 610              		.loc 1 175 0 is_stmt 0 discriminator 1
 611 009a FEE7     		b	.L47
 612              	.L49:
 613              	.LBE10:
 176:..\..\..\..\..\simplelink\source/device.c ****     return;
 614              		.loc 1 176 0 is_stmt 1
 615 009c C046     		mov	r8, r8
 616              	.L41:
 177:..\..\..\..\..\simplelink\source/device.c **** }
 617              		.loc 1 177 0
 618 009e BD46     		mov	sp, r7
 619 00a0 06B0     		add	sp, sp, #24
 620              		@ sp needed for prologue
 621 00a2 80BD     		pop	{r7, pc}
ARM GAS  C:\Users\X0217454\AppData\Local\Temp\ccuVQjTZ.s 			page 15


 622              	.L51:
 623              		.align	2
 624              	.L50:
 625 00a4 00000000 		.word	g_pCB
 626              		.cfi_endproc
 627              	.LFE4:
 628              		.size	_sl_HandleAsync_Stop, .-_sl_HandleAsync_Stop
 629              		.global	_SlStopCmdCtrl
 630              		.section	.rodata
 631              		.align	2
 632              		.type	_SlStopCmdCtrl, %object
 633              		.size	_SlStopCmdCtrl, 4
 634              	_SlStopCmdCtrl:
 635 0000 7384     		.short	-31629
 636 0002 04       		.byte	4
 637 0003 04       		.byte	4
 638              		.section	.text.sl_Stop,"ax",%progbits
 639              		.align	2
 640              		.global	sl_Stop
 641              		.code	16
 642              		.thumb_func
 643              		.type	sl_Stop, %function
 644              	sl_Stop:
 645              	.LFB5:
 178:..\..\..\..\..\simplelink\source/device.c **** 
 179:..\..\..\..\..\simplelink\source/device.c **** 
 180:..\..\..\..\..\simplelink\source/device.c **** /*****************************************************************************
 181:..\..\..\..\..\simplelink\source/device.c ****  sl_stop
 182:..\..\..\..\..\simplelink\source/device.c **** ******************************************************************************/
 183:..\..\..\..\..\simplelink\source/device.c **** typedef union
 184:..\..\..\..\..\simplelink\source/device.c **** {
 185:..\..\..\..\..\simplelink\source/device.c **** 	_DevStopCommand_t  Cmd;
 186:..\..\..\..\..\simplelink\source/device.c **** 	_BasicResponse_t   Rsp;    
 187:..\..\..\..\..\simplelink\source/device.c **** }_SlStopMsg_u;
 188:..\..\..\..\..\simplelink\source/device.c **** 
 189:..\..\..\..\..\simplelink\source/device.c **** const _SlCmdCtrl_t _SlStopCmdCtrl =
 190:..\..\..\..\..\simplelink\source/device.c **** {
 191:..\..\..\..\..\simplelink\source/device.c ****     SL_OPCODE_DEVICE_STOP_COMMAND,
 192:..\..\..\..\..\simplelink\source/device.c ****     sizeof(_DevStopCommand_t),
 193:..\..\..\..\..\simplelink\source/device.c ****     sizeof(_BasicResponse_t)
 194:..\..\..\..\..\simplelink\source/device.c **** };
 195:..\..\..\..\..\simplelink\source/device.c **** 
 196:..\..\..\..\..\simplelink\source/device.c **** #if _SL_INCLUDE_FUNC(sl_Stop)
 197:..\..\..\..\..\simplelink\source/device.c **** int sl_Stop(unsigned short timeout)
 198:..\..\..\..\..\simplelink\source/device.c **** {
 646              		.loc 1 198 0
 647              		.cfi_startproc
 648 0000 80B5     		push	{r7, lr}
 649              	.LCFI14:
 650              		.cfi_def_cfa_offset 8
 651              		.cfi_offset 7, -8
 652              		.cfi_offset 14, -4
 653 0002 8AB0     		sub	sp, sp, #40
 654              	.LCFI15:
 655              		.cfi_def_cfa_offset 48
 656 0004 00AF     		add	r7, sp, #0
 657              	.LCFI16:
ARM GAS  C:\Users\X0217454\AppData\Local\Temp\ccuVQjTZ.s 			page 16


 658              		.cfi_def_cfa_register 7
 659 0006 021C     		mov	r2, r0
 660 0008 BB1D     		add	r3, r7, #6
 661 000a 1A80     		strh	r2, [r3]
 199:..\..\..\..\..\simplelink\source/device.c ****     int RetVal=0;
 662              		.loc 1 199 0
 663 000c 0023     		mov	r3, #0
 664 000e 7B62     		str	r3, [r7, #36]
 200:..\..\..\..\..\simplelink\source/device.c ****     _SlStopMsg_u      Msg;
 201:..\..\..\..\..\simplelink\source/device.c ****     _BasicResponse_t  AsyncRsp;
 202:..\..\..\..\..\simplelink\source/device.c **** 	int				  pObjIdx = MAX_CONCURRENT_ACTIONS;
 665              		.loc 1 202 0
 666 0010 0A23     		mov	r3, #10
 667 0012 3B62     		str	r3, [r7, #32]
 203:..\..\..\..\..\simplelink\source/device.c ****     /* if timeout is 0 the shutdown is forced immediately */
 204:..\..\..\..\..\simplelink\source/device.c ****     if( 0 == timeout ) 
 668              		.loc 1 204 0
 669 0014 BB1D     		add	r3, r7, #6
 670 0016 1B88     		ldrh	r3, [r3]
 671 0018 002B     		cmp	r3, #0
 672 001a 0ED1     		bne	.L53
 205:..\..\..\..\..\simplelink\source/device.c ****     {
 206:..\..\..\..\..\simplelink\source/device.c ****       sl_IfRegIntHdlr(NULL, NULL);
 673              		.loc 1 206 0
 674 001c 0020     		mov	r0, #0
 675 001e 0021     		mov	r1, #0
 676 0020 FFF7FEFF 		bl	registerInterruptHandler
 207:..\..\..\..\..\simplelink\source/device.c ****       sl_DeviceDisable();
 677              		.loc 1 207 0
 678 0024 FFF7FEFF 		bl	CC3100_disable
 208:..\..\..\..\..\simplelink\source/device.c ****       RetVal = sl_IfClose(g_pCB->FD);
 679              		.loc 1 208 0
 680 0028 454B     		ldr	r3, .L67
 681 002a 1B68     		ldr	r3, [r3]
 682 002c 1B68     		ldr	r3, [r3]
 683 002e 181C     		mov	r0, r3
 684 0030 FFF7FEFF 		bl	uart_Close
 685 0034 031C     		mov	r3, r0
 686 0036 7B62     		str	r3, [r7, #36]
 687 0038 7BE0     		b	.L54
 688              	.L53:
 209:..\..\..\..\..\simplelink\source/device.c **** 
 210:..\..\..\..\..\simplelink\source/device.c ****     }
 211:..\..\..\..\..\simplelink\source/device.c ****     else
 212:..\..\..\..\..\simplelink\source/device.c ****     {
 213:..\..\..\..\..\simplelink\source/device.c ****       /* let the device make the shutdown using the defined timeout */
 214:..\..\..\..\..\simplelink\source/device.c ****       Msg.Cmd.Timeout = timeout;
 689              		.loc 1 214 0
 690 003a 3B1C     		mov	r3, r7
 691 003c 0C33     		add	r3, r3, #12
 692 003e BA1D     		add	r2, r7, #6
 693 0040 1288     		ldrh	r2, [r2]
 694 0042 1A80     		strh	r2, [r3]
 215:..\..\..\..\..\simplelink\source/device.c **** 	  /* Use Obj to issue the command, if not available try later */
 216:..\..\..\..\..\simplelink\source/device.c **** 	  pObjIdx = _SlDrvWaitForPoolObj(START_STOP_ID,SL_MAX_SOCKETS);
 695              		.loc 1 216 0
 696 0044 0E20     		mov	r0, #14
ARM GAS  C:\Users\X0217454\AppData\Local\Temp\ccuVQjTZ.s 			page 17


 697 0046 0821     		mov	r1, #8
 698 0048 FFF7FEFF 		bl	_SlDrvWaitForPoolObj
 699 004c 031C     		mov	r3, r0
 700 004e 3B62     		str	r3, [r7, #32]
 217:..\..\..\..\..\simplelink\source/device.c **** 	  if (MAX_CONCURRENT_ACTIONS == pObjIdx)
 701              		.loc 1 217 0
 702 0050 3B6A     		ldr	r3, [r7, #32]
 703 0052 0A2B     		cmp	r3, #10
 704 0054 01D1     		bne	.L55
 218:..\..\..\..\..\simplelink\source/device.c ****  	  {
 219:..\..\..\..\..\simplelink\source/device.c **** 		return SL_POOL_IS_EMPTY;
 705              		.loc 1 219 0
 706 0056 3B4B     		ldr	r3, .L67+4
 707 0058 6EE0     		b	.L66
 708              	.L55:
 709              	.LBB11:
 220:..\..\..\..\..\simplelink\source/device.c **** 	  }
 221:..\..\..\..\..\simplelink\source/device.c ****       OSI_RET_OK_CHECK(sl_LockObjLock(&g_pCB->ProtectionLockObj, SL_OS_WAIT_FOREVER));
 710              		.loc 1 221 0
 711 005a 394B     		ldr	r3, .L67
 712 005c 1B68     		ldr	r3, [r3]
 713 005e 9033     		add	r3, r3, #144
 714 0060 181C     		mov	r0, r3
 715 0062 3321     		mov	r1, #51
 716 0064 4422     		mov	r2, #68
 717 0066 FF23     		mov	r3, #255
 718 0068 FFF7FEFF 		bl	_SlNonOsSemGet
 719 006c 031C     		mov	r3, r0
 720 006e FB61     		str	r3, [r7, #28]
 721 0070 FB69     		ldr	r3, [r7, #28]
 722 0072 002B     		cmp	r3, #0
 723 0074 00D0     		beq	.L57
 724              	.L58:
 725              		.loc 1 221 0 is_stmt 0 discriminator 1
 726 0076 FEE7     		b	.L58
 727              	.L57:
 728              	.LBE11:
 222:..\..\..\..\..\simplelink\source/device.c **** 
 223:..\..\..\..\..\simplelink\source/device.c ****       g_pCB->ObjPool[pObjIdx].pRespArgs = (UINT8 *)&AsyncRsp;
 729              		.loc 1 223 0 is_stmt 1
 730 0078 314B     		ldr	r3, .L67
 731 007a 1968     		ldr	r1, [r3]
 732 007c 3A6A     		ldr	r2, [r7, #32]
 733 007e 131C     		mov	r3, r2
 734 0080 5B00     		lsl	r3, r3, #1
 735 0082 9B18     		add	r3, r3, r2
 736 0084 9B00     		lsl	r3, r3, #2
 737 0086 CB18     		add	r3, r1, r3
 738 0088 1433     		add	r3, r3, #20
 739 008a 3A1C     		mov	r2, r7
 740 008c 0832     		add	r2, r2, #8
 741 008e 1A60     		str	r2, [r3]
 742              	.LBB12:
 224:..\..\..\..\..\simplelink\source/device.c **** 
 225:..\..\..\..\..\simplelink\source/device.c ****       OSI_RET_OK_CHECK(sl_LockObjUnlock(&g_pCB->ProtectionLockObj));
 743              		.loc 1 225 0
 744 0090 2B4B     		ldr	r3, .L67
ARM GAS  C:\Users\X0217454\AppData\Local\Temp\ccuVQjTZ.s 			page 18


 745 0092 1B68     		ldr	r3, [r3]
 746 0094 9033     		add	r3, r3, #144
 747 0096 181C     		mov	r0, r3
 748 0098 3321     		mov	r1, #51
 749 009a FFF7FEFF 		bl	_SlNonOsSemSet
 750 009e 031C     		mov	r3, r0
 751 00a0 BB61     		str	r3, [r7, #24]
 752 00a2 BB69     		ldr	r3, [r7, #24]
 753 00a4 002B     		cmp	r3, #0
 754 00a6 00D0     		beq	.L59
 755              	.L60:
 756              		.loc 1 225 0 is_stmt 0 discriminator 1
 757 00a8 FEE7     		b	.L60
 758              	.L59:
 759              	.LBE12:
 760              	.LBB13:
 226:..\..\..\..\..\simplelink\source/device.c **** 
 227:..\..\..\..\..\simplelink\source/device.c ****       VERIFY_RET_OK(_SlDrvCmdOp((_SlCmdCtrl_t *)&_SlStopCmdCtrl, &Msg, NULL));
 761              		.loc 1 227 0 is_stmt 1
 762 00aa 274A     		ldr	r2, .L67+8
 763 00ac 3B1C     		mov	r3, r7
 764 00ae 0C33     		add	r3, r3, #12
 765 00b0 101C     		mov	r0, r2
 766 00b2 191C     		mov	r1, r3
 767 00b4 0022     		mov	r2, #0
 768 00b6 FFF7FEFF 		bl	_SlDrvCmdOp
 769 00ba 031C     		mov	r3, r0
 770 00bc 7B61     		str	r3, [r7, #20]
 771 00be 7B69     		ldr	r3, [r7, #20]
 772 00c0 002B     		cmp	r3, #0
 773 00c2 00D0     		beq	.L61
 774              	.L62:
 775              		.loc 1 227 0 is_stmt 0 discriminator 1
 776 00c4 FEE7     		b	.L62
 777              	.L61:
 778              	.LBE13:
 228:..\..\..\..\..\simplelink\source/device.c **** 
 229:..\..\..\..\..\simplelink\source/device.c ****       if(SL_OS_RET_CODE_OK == (int)Msg.Rsp.status)
 779              		.loc 1 229 0 is_stmt 1
 780 00c6 3B1C     		mov	r3, r7
 781 00c8 0C33     		add	r3, r3, #12
 782 00ca 1B88     		ldrh	r3, [r3]
 783 00cc 002B     		cmp	r3, #0
 784 00ce 1FD1     		bne	.L63
 785              	.LBB14:
 230:..\..\..\..\..\simplelink\source/device.c ****       {
 231:..\..\..\..\..\simplelink\source/device.c ****          OSI_RET_OK_CHECK(sl_SyncObjWait(&g_pCB->ObjPool[pObjIdx].SyncObj, SL_OS_WAIT_FOREVER));
 786              		.loc 1 231 0
 787 00d0 1B4B     		ldr	r3, .L67
 788 00d2 1968     		ldr	r1, [r3]
 789 00d4 3A6A     		ldr	r2, [r7, #32]
 790 00d6 131C     		mov	r3, r2
 791 00d8 5B00     		lsl	r3, r3, #1
 792 00da 9B18     		add	r3, r3, r2
 793 00dc 9B00     		lsl	r3, r3, #2
 794 00de 1033     		add	r3, r3, #16
 795 00e0 CB18     		add	r3, r1, r3
ARM GAS  C:\Users\X0217454\AppData\Local\Temp\ccuVQjTZ.s 			page 19


 796 00e2 181C     		mov	r0, r3
 797 00e4 2221     		mov	r1, #34
 798 00e6 1122     		mov	r2, #17
 799 00e8 FF23     		mov	r3, #255
 800 00ea FFF7FEFF 		bl	_SlNonOsSemGet
 801 00ee 031C     		mov	r3, r0
 802 00f0 3B61     		str	r3, [r7, #16]
 803 00f2 3B69     		ldr	r3, [r7, #16]
 804 00f4 002B     		cmp	r3, #0
 805 00f6 00D0     		beq	.L64
 806              	.L65:
 807              		.loc 1 231 0 is_stmt 0 discriminator 1
 808 00f8 FEE7     		b	.L65
 809              	.L64:
 810              	.LBE14:
 232:..\..\..\..\..\simplelink\source/device.c ****          Msg.Rsp.status = AsyncRsp.status;
 811              		.loc 1 232 0 is_stmt 1
 812 00fa 3B1C     		mov	r3, r7
 813 00fc 0833     		add	r3, r3, #8
 814 00fe 1A88     		ldrh	r2, [r3]
 815 0100 3B1C     		mov	r3, r7
 816 0102 0C33     		add	r3, r3, #12
 817 0104 1A80     		strh	r2, [r3]
 233:..\..\..\..\..\simplelink\source/device.c ****          RetVal = Msg.Rsp.status;
 818              		.loc 1 233 0
 819 0106 3B1C     		mov	r3, r7
 820 0108 0C33     		add	r3, r3, #12
 821 010a 1B88     		ldrh	r3, [r3]
 822 010c 1BB2     		sxth	r3, r3
 823 010e 7B62     		str	r3, [r7, #36]
 824              	.L63:
 234:..\..\..\..\..\simplelink\source/device.c ****       }
 235:..\..\..\..\..\simplelink\source/device.c **** 
 236:..\..\..\..\..\simplelink\source/device.c ****       _SlDrvReleasePoolObj(pObjIdx);
 825              		.loc 1 236 0
 826 0110 3B6A     		ldr	r3, [r7, #32]
 827 0112 DBB2     		uxtb	r3, r3
 828 0114 181C     		mov	r0, r3
 829 0116 FFF7FEFF 		bl	_SlDrvReleasePoolObj
 237:..\..\..\..\..\simplelink\source/device.c **** 
 238:..\..\..\..\..\simplelink\source/device.c ****       sl_IfRegIntHdlr(NULL, NULL);
 830              		.loc 1 238 0
 831 011a 0020     		mov	r0, #0
 832 011c 0021     		mov	r1, #0
 833 011e FFF7FEFF 		bl	registerInterruptHandler
 239:..\..\..\..\..\simplelink\source/device.c ****       sl_DeviceDisable();
 834              		.loc 1 239 0
 835 0122 FFF7FEFF 		bl	CC3100_disable
 240:..\..\..\..\..\simplelink\source/device.c ****       sl_IfClose(g_pCB->FD);
 836              		.loc 1 240 0
 837 0126 064B     		ldr	r3, .L67
 838 0128 1B68     		ldr	r3, [r3]
 839 012a 1B68     		ldr	r3, [r3]
 840 012c 181C     		mov	r0, r3
 841 012e FFF7FEFF 		bl	uart_Close
 842              	.L54:
 241:..\..\..\..\..\simplelink\source/device.c ****     }
ARM GAS  C:\Users\X0217454\AppData\Local\Temp\ccuVQjTZ.s 			page 20


 242:..\..\..\..\..\simplelink\source/device.c ****     _SlDrvDriverCBDeinit();
 843              		.loc 1 242 0
 844 0132 FFF7FEFF 		bl	_SlDrvDriverCBDeinit
 243:..\..\..\..\..\simplelink\source/device.c **** 
 244:..\..\..\..\..\simplelink\source/device.c ****     return RetVal;
 845              		.loc 1 244 0
 846 0136 7B6A     		ldr	r3, [r7, #36]
 847              	.L66:
 245:..\..\..\..\..\simplelink\source/device.c **** }
 848              		.loc 1 245 0
 849 0138 181C     		mov	r0, r3
 850 013a BD46     		mov	sp, r7
 851 013c 0AB0     		add	sp, sp, #40
 852              		@ sp needed for prologue
 853 013e 80BD     		pop	{r7, pc}
 854              	.L68:
 855              		.align	2
 856              	.L67:
 857 0140 00000000 		.word	g_pCB
 858 0144 30F8FFFF 		.word	-2000
 859 0148 00000000 		.word	_SlStopCmdCtrl
 860              		.cfi_endproc
 861              	.LFE5:
 862              		.size	sl_Stop, .-sl_Stop
 863              		.global	_SlEventMaskSetCmdCtrl
 864              		.section	.rodata
 865              		.align	2
 866              		.type	_SlEventMaskSetCmdCtrl, %object
 867              		.size	_SlEventMaskSetCmdCtrl, 4
 868              	_SlEventMaskSetCmdCtrl:
 869 0004 6484     		.short	-31644
 870 0006 08       		.byte	8
 871 0007 04       		.byte	4
 872              		.section	.text.sl_EventMaskSet,"ax",%progbits
 873              		.align	2
 874              		.global	sl_EventMaskSet
 875              		.code	16
 876              		.thumb_func
 877              		.type	sl_EventMaskSet, %function
 878              	sl_EventMaskSet:
 879              	.LFB6:
 246:..\..\..\..\..\simplelink\source/device.c **** #endif
 247:..\..\..\..\..\simplelink\source/device.c **** 
 248:..\..\..\..\..\simplelink\source/device.c **** 
 249:..\..\..\..\..\simplelink\source/device.c **** /*****************************************************************************
 250:..\..\..\..\..\simplelink\source/device.c ****  sl_EventMaskSet/sl_EventMaskGet
 251:..\..\..\..\..\simplelink\source/device.c **** *****************************************************************************/
 252:..\..\..\..\..\simplelink\source/device.c **** typedef union
 253:..\..\..\..\..\simplelink\source/device.c **** {
 254:..\..\..\..\..\simplelink\source/device.c **** 	_DevMaskEventSetCommand_t	    Cmd;
 255:..\..\..\..\..\simplelink\source/device.c **** 	_BasicResponse_t	            Rsp;
 256:..\..\..\..\..\simplelink\source/device.c **** }_SlEventMaskSetMsg_u;
 257:..\..\..\..\..\simplelink\source/device.c **** 
 258:..\..\..\..\..\simplelink\source/device.c **** const _SlCmdCtrl_t _SlEventMaskSetCmdCtrl =
 259:..\..\..\..\..\simplelink\source/device.c **** {
 260:..\..\..\..\..\simplelink\source/device.c ****     SL_OPCODE_DEVICE_EVENTMASKSET,
 261:..\..\..\..\..\simplelink\source/device.c ****     sizeof(_DevMaskEventSetCommand_t),
ARM GAS  C:\Users\X0217454\AppData\Local\Temp\ccuVQjTZ.s 			page 21


 262:..\..\..\..\..\simplelink\source/device.c ****     sizeof(_BasicResponse_t)
 263:..\..\..\..\..\simplelink\source/device.c **** };
 264:..\..\..\..\..\simplelink\source/device.c **** 
 265:..\..\..\..\..\simplelink\source/device.c **** #if _SL_INCLUDE_FUNC(sl_EventMaskSet)
 266:..\..\..\..\..\simplelink\source/device.c **** int sl_EventMaskSet(unsigned char EventClass , unsigned long Mask)
 267:..\..\..\..\..\simplelink\source/device.c **** {
 880              		.loc 1 267 0
 881              		.cfi_startproc
 882 0000 80B5     		push	{r7, lr}
 883              	.LCFI17:
 884              		.cfi_def_cfa_offset 8
 885              		.cfi_offset 7, -8
 886              		.cfi_offset 14, -4
 887 0002 86B0     		sub	sp, sp, #24
 888              	.LCFI18:
 889              		.cfi_def_cfa_offset 32
 890 0004 00AF     		add	r7, sp, #0
 891              	.LCFI19:
 892              		.cfi_def_cfa_register 7
 893 0006 021C     		mov	r2, r0
 894 0008 3960     		str	r1, [r7]
 895 000a FB1D     		add	r3, r7, #7
 896 000c 1A70     		strb	r2, [r3]
 268:..\..\..\..\..\simplelink\source/device.c ****     _SlEventMaskSetMsg_u Msg;
 269:..\..\..\..\..\simplelink\source/device.c **** 
 270:..\..\..\..\..\simplelink\source/device.c ****     Msg.Cmd.group = EventClass;
 897              		.loc 1 270 0
 898 000e FB1D     		add	r3, r7, #7
 899 0010 1A78     		ldrb	r2, [r3]
 900 0012 3B1C     		mov	r3, r7
 901 0014 0C33     		add	r3, r3, #12
 902 0016 1A60     		str	r2, [r3]
 271:..\..\..\..\..\simplelink\source/device.c ****     Msg.Cmd.mask = Mask;
 903              		.loc 1 271 0
 904 0018 3B1C     		mov	r3, r7
 905 001a 0C33     		add	r3, r3, #12
 906 001c 3A68     		ldr	r2, [r7]
 907 001e 5A60     		str	r2, [r3, #4]
 908              	.LBB15:
 272:..\..\..\..\..\simplelink\source/device.c **** 
 273:..\..\..\..\..\simplelink\source/device.c ****     VERIFY_RET_OK(_SlDrvCmdOp((_SlCmdCtrl_t *)&_SlEventMaskSetCmdCtrl, &Msg, NULL));
 909              		.loc 1 273 0
 910 0020 0A4A     		ldr	r2, .L73
 911 0022 3B1C     		mov	r3, r7
 912 0024 0C33     		add	r3, r3, #12
 913 0026 101C     		mov	r0, r2
 914 0028 191C     		mov	r1, r3
 915 002a 0022     		mov	r2, #0
 916 002c FFF7FEFF 		bl	_SlDrvCmdOp
 917 0030 031C     		mov	r3, r0
 918 0032 7B61     		str	r3, [r7, #20]
 919 0034 7B69     		ldr	r3, [r7, #20]
 920 0036 002B     		cmp	r3, #0
 921 0038 00D0     		beq	.L70
 922              	.L71:
 923              		.loc 1 273 0 is_stmt 0 discriminator 1
 924 003a FEE7     		b	.L71
ARM GAS  C:\Users\X0217454\AppData\Local\Temp\ccuVQjTZ.s 			page 22


 925              	.L70:
 926              	.LBE15:
 274:..\..\..\..\..\simplelink\source/device.c **** 
 275:..\..\..\..\..\simplelink\source/device.c ****     return (int)Msg.Rsp.status;
 927              		.loc 1 275 0 is_stmt 1
 928 003c 3B1C     		mov	r3, r7
 929 003e 0C33     		add	r3, r3, #12
 930 0040 1B88     		ldrh	r3, [r3]
 931 0042 1BB2     		sxth	r3, r3
 276:..\..\..\..\..\simplelink\source/device.c **** }
 932              		.loc 1 276 0
 933 0044 181C     		mov	r0, r3
 934 0046 BD46     		mov	sp, r7
 935 0048 06B0     		add	sp, sp, #24
 936              		@ sp needed for prologue
 937 004a 80BD     		pop	{r7, pc}
 938              	.L74:
 939              		.align	2
 940              	.L73:
 941 004c 00000000 		.word	_SlEventMaskSetCmdCtrl
 942              		.cfi_endproc
 943              	.LFE6:
 944              		.size	sl_EventMaskSet, .-sl_EventMaskSet
 945              		.global	_SlEventMaskGetCmdCtrl
 946              		.section	.rodata
 947              		.align	2
 948              		.type	_SlEventMaskGetCmdCtrl, %object
 949              		.size	_SlEventMaskGetCmdCtrl, 4
 950              	_SlEventMaskGetCmdCtrl:
 951 0008 6584     		.short	-31643
 952 000a 04       		.byte	4
 953 000b 08       		.byte	8
 954              		.section	.text.sl_EventMaskGet,"ax",%progbits
 955              		.align	2
 956              		.global	sl_EventMaskGet
 957              		.code	16
 958              		.thumb_func
 959              		.type	sl_EventMaskGet, %function
 960              	sl_EventMaskGet:
 961              	.LFB7:
 277:..\..\..\..\..\simplelink\source/device.c **** #endif
 278:..\..\..\..\..\simplelink\source/device.c **** 
 279:..\..\..\..\..\simplelink\source/device.c **** /******************************************************************************
 280:..\..\..\..\..\simplelink\source/device.c **** 
 281:..\..\..\..\..\simplelink\source/device.c **** ******************************************************************************/
 282:..\..\..\..\..\simplelink\source/device.c **** typedef union
 283:..\..\..\..\..\simplelink\source/device.c **** {
 284:..\..\..\..\..\simplelink\source/device.c **** 	_DevMaskEventGetCommand_t	    Cmd;
 285:..\..\..\..\..\simplelink\source/device.c **** 	_DevMaskEventGetResponse_t      Rsp;
 286:..\..\..\..\..\simplelink\source/device.c **** }_SlEventMaskGetMsg_u;
 287:..\..\..\..\..\simplelink\source/device.c **** 
 288:..\..\..\..\..\simplelink\source/device.c **** const _SlCmdCtrl_t _SlEventMaskGetCmdCtrl =
 289:..\..\..\..\..\simplelink\source/device.c **** {
 290:..\..\..\..\..\simplelink\source/device.c ****     SL_OPCODE_DEVICE_EVENTMASKGET,
 291:..\..\..\..\..\simplelink\source/device.c ****     sizeof(_DevMaskEventGetCommand_t),
 292:..\..\..\..\..\simplelink\source/device.c ****     sizeof(_DevMaskEventGetResponse_t)
 293:..\..\..\..\..\simplelink\source/device.c **** };
ARM GAS  C:\Users\X0217454\AppData\Local\Temp\ccuVQjTZ.s 			page 23


 294:..\..\..\..\..\simplelink\source/device.c **** 
 295:..\..\..\..\..\simplelink\source/device.c **** #if _SL_INCLUDE_FUNC(sl_EventMaskGet)
 296:..\..\..\..\..\simplelink\source/device.c **** int sl_EventMaskGet(unsigned char EventClass, unsigned long *pMask)
 297:..\..\..\..\..\simplelink\source/device.c **** {
 962              		.loc 1 297 0
 963              		.cfi_startproc
 964 0000 80B5     		push	{r7, lr}
 965              	.LCFI20:
 966              		.cfi_def_cfa_offset 8
 967              		.cfi_offset 7, -8
 968              		.cfi_offset 14, -4
 969 0002 86B0     		sub	sp, sp, #24
 970              	.LCFI21:
 971              		.cfi_def_cfa_offset 32
 972 0004 00AF     		add	r7, sp, #0
 973              	.LCFI22:
 974              		.cfi_def_cfa_register 7
 975 0006 021C     		mov	r2, r0
 976 0008 3960     		str	r1, [r7]
 977 000a FB1D     		add	r3, r7, #7
 978 000c 1A70     		strb	r2, [r3]
 298:..\..\..\..\..\simplelink\source/device.c ****     _SlEventMaskGetMsg_u Msg;
 299:..\..\..\..\..\simplelink\source/device.c **** 
 300:..\..\..\..\..\simplelink\source/device.c ****     Msg.Cmd.group = EventClass;
 979              		.loc 1 300 0
 980 000e FB1D     		add	r3, r7, #7
 981 0010 1A78     		ldrb	r2, [r3]
 982 0012 3B1C     		mov	r3, r7
 983 0014 0C33     		add	r3, r3, #12
 984 0016 1A60     		str	r2, [r3]
 985              	.LBB16:
 301:..\..\..\..\..\simplelink\source/device.c **** 
 302:..\..\..\..\..\simplelink\source/device.c ****     VERIFY_RET_OK(_SlDrvCmdOp((_SlCmdCtrl_t *)&_SlEventMaskGetCmdCtrl, &Msg, NULL));
 986              		.loc 1 302 0
 987 0018 0B4A     		ldr	r2, .L79
 988 001a 3B1C     		mov	r3, r7
 989 001c 0C33     		add	r3, r3, #12
 990 001e 101C     		mov	r0, r2
 991 0020 191C     		mov	r1, r3
 992 0022 0022     		mov	r2, #0
 993 0024 FFF7FEFF 		bl	_SlDrvCmdOp
 994 0028 031C     		mov	r3, r0
 995 002a 7B61     		str	r3, [r7, #20]
 996 002c 7B69     		ldr	r3, [r7, #20]
 997 002e 002B     		cmp	r3, #0
 998 0030 00D0     		beq	.L76
 999              	.L77:
 1000              		.loc 1 302 0 is_stmt 0 discriminator 1
 1001 0032 FEE7     		b	.L77
 1002              	.L76:
 1003              	.LBE16:
 303:..\..\..\..\..\simplelink\source/device.c **** 
 304:..\..\..\..\..\simplelink\source/device.c ****     *pMask = Msg.Rsp.mask;
 1004              		.loc 1 304 0 is_stmt 1
 1005 0034 3B1C     		mov	r3, r7
 1006 0036 0C33     		add	r3, r3, #12
 1007 0038 5A68     		ldr	r2, [r3, #4]
ARM GAS  C:\Users\X0217454\AppData\Local\Temp\ccuVQjTZ.s 			page 24


 1008 003a 3B68     		ldr	r3, [r7]
 1009 003c 1A60     		str	r2, [r3]
 305:..\..\..\..\..\simplelink\source/device.c ****     return SL_RET_CODE_OK;
 1010              		.loc 1 305 0
 1011 003e 0023     		mov	r3, #0
 306:..\..\..\..\..\simplelink\source/device.c **** }
 1012              		.loc 1 306 0
 1013 0040 181C     		mov	r0, r3
 1014 0042 BD46     		mov	sp, r7
 1015 0044 06B0     		add	sp, sp, #24
 1016              		@ sp needed for prologue
 1017 0046 80BD     		pop	{r7, pc}
 1018              	.L80:
 1019              		.align	2
 1020              	.L79:
 1021 0048 00000000 		.word	_SlEventMaskGetCmdCtrl
 1022              		.cfi_endproc
 1023              	.LFE7:
 1024              		.size	sl_EventMaskGet, .-sl_EventMaskGet
 1025              		.global	_SlDeviceGetCmdCtrl
 1026              		.section	.rodata
 1027              		.align	2
 1028              		.type	_SlDeviceGetCmdCtrl, %object
 1029              		.size	_SlDeviceGetCmdCtrl, 4
 1030              	_SlDeviceGetCmdCtrl:
 1031 000c 6684     		.short	-31642
 1032 000e 08       		.byte	8
 1033 000f 08       		.byte	8
 1034              		.section	.text.sl_DevGet,"ax",%progbits
 1035              		.align	2
 1036              		.global	sl_DevGet
 1037              		.code	16
 1038              		.thumb_func
 1039              		.type	sl_DevGet, %function
 1040              	sl_DevGet:
 1041              	.LFB8:
 307:..\..\..\..\..\simplelink\source/device.c **** #endif
 308:..\..\..\..\..\simplelink\source/device.c **** 
 309:..\..\..\..\..\simplelink\source/device.c **** 
 310:..\..\..\..\..\simplelink\source/device.c **** 
 311:..\..\..\..\..\simplelink\source/device.c **** /******************************************************************************
 312:..\..\..\..\..\simplelink\source/device.c ****  sl_DevGet
 313:..\..\..\..\..\simplelink\source/device.c **** ******************************************************************************/
 314:..\..\..\..\..\simplelink\source/device.c **** 
 315:..\..\..\..\..\simplelink\source/device.c **** typedef union
 316:..\..\..\..\..\simplelink\source/device.c **** {
 317:..\..\..\..\..\simplelink\source/device.c **** 	_DeviceSetGet_t	    Cmd;
 318:..\..\..\..\..\simplelink\source/device.c **** 	_DeviceSetGet_t	    Rsp;
 319:..\..\..\..\..\simplelink\source/device.c **** }_SlDeviceMsgGet_u;
 320:..\..\..\..\..\simplelink\source/device.c **** 
 321:..\..\..\..\..\simplelink\source/device.c **** const _SlCmdCtrl_t _SlDeviceGetCmdCtrl =
 322:..\..\..\..\..\simplelink\source/device.c **** {
 323:..\..\..\..\..\simplelink\source/device.c **** 	SL_OPCODE_DEVICE_DEVICEGET,
 324:..\..\..\..\..\simplelink\source/device.c **** 	sizeof(_DeviceSetGet_t),
 325:..\..\..\..\..\simplelink\source/device.c **** 	sizeof(_DeviceSetGet_t)
 326:..\..\..\..\..\simplelink\source/device.c **** };
 327:..\..\..\..\..\simplelink\source/device.c **** 
ARM GAS  C:\Users\X0217454\AppData\Local\Temp\ccuVQjTZ.s 			page 25


 328:..\..\..\..\..\simplelink\source/device.c **** 
 329:..\..\..\..\..\simplelink\source/device.c **** 
 330:..\..\..\..\..\simplelink\source/device.c **** #if _SL_INCLUDE_FUNC(sl_DevGet)
 331:..\..\..\..\..\simplelink\source/device.c **** long sl_DevGet(unsigned char DeviceGetId, unsigned char *pOption,unsigned char *pConfigLen, unsigne
 332:..\..\..\..\..\simplelink\source/device.c **** {
 1042              		.loc 1 332 0
 1043              		.cfi_startproc
 1044 0000 80B5     		push	{r7, lr}
 1045              	.LCFI23:
 1046              		.cfi_def_cfa_offset 8
 1047              		.cfi_offset 7, -8
 1048              		.cfi_offset 14, -4
 1049 0002 8CB0     		sub	sp, sp, #48
 1050              	.LCFI24:
 1051              		.cfi_def_cfa_offset 56
 1052 0004 00AF     		add	r7, sp, #0
 1053              	.LCFI25:
 1054              		.cfi_def_cfa_register 7
 1055 0006 B960     		str	r1, [r7, #8]
 1056 0008 7A60     		str	r2, [r7, #4]
 1057 000a 3B60     		str	r3, [r7]
 1058 000c 3B1C     		mov	r3, r7
 1059 000e 0F33     		add	r3, r3, #15
 1060 0010 021C     		add	r2, r0, #0
 1061 0012 1A70     		strb	r2, [r3]
 333:..\..\..\..\..\simplelink\source/device.c **** 	_SlDeviceMsgGet_u         Msg;
 334:..\..\..\..\..\simplelink\source/device.c **** 	_SlCmdExt_t               CmdExt;
 335:..\..\..\..\..\simplelink\source/device.c **** 
 336:..\..\..\..\..\simplelink\source/device.c **** 	if (*pConfigLen == 0)
 1062              		.loc 1 336 0
 1063 0014 7B68     		ldr	r3, [r7, #4]
 1064 0016 1B78     		ldrb	r3, [r3]
 1065 0018 002B     		cmp	r3, #0
 1066 001a 01D1     		bne	.L82
 337:..\..\..\..\..\simplelink\source/device.c **** 	{
 338:..\..\..\..\..\simplelink\source/device.c **** 		return SL_EZEROLEN;
 1067              		.loc 1 338 0
 1068 001c 304B     		ldr	r3, .L90
 1069 001e 5AE0     		b	.L89
 1070              	.L82:
 339:..\..\..\..\..\simplelink\source/device.c **** 	}
 340:..\..\..\..\..\simplelink\source/device.c **** 
 341:..\..\..\..\..\simplelink\source/device.c **** 	if( pOption )
 1071              		.loc 1 341 0
 1072 0020 BB68     		ldr	r3, [r7, #8]
 1073 0022 002B     		cmp	r3, #0
 1074 0024 55D0     		beq	.L84
 342:..\..\..\..\..\simplelink\source/device.c **** 	{
 343:..\..\..\..\..\simplelink\source/device.c **** 	  CmdExt.TxPayloadLen = 0;
 1075              		.loc 1 343 0
 1076 0026 3B1C     		mov	r3, r7
 1077 0028 1433     		add	r3, r3, #20
 1078 002a 0022     		mov	r2, #0
 1079 002c 1A80     		strh	r2, [r3]
 344:..\..\..\..\..\simplelink\source/device.c **** 	  CmdExt.RxPayloadLen = *pConfigLen;
 1080              		.loc 1 344 0
 1081 002e 7B68     		ldr	r3, [r7, #4]
ARM GAS  C:\Users\X0217454\AppData\Local\Temp\ccuVQjTZ.s 			page 26


 1082 0030 1B78     		ldrb	r3, [r3]
 1083 0032 1A1C     		mov	r2, r3
 1084 0034 3B1C     		mov	r3, r7
 1085 0036 1433     		add	r3, r3, #20
 1086 0038 5A80     		strh	r2, [r3, #2]
 345:..\..\..\..\..\simplelink\source/device.c **** 	  CmdExt.pTxPayload = NULL;
 1087              		.loc 1 345 0
 1088 003a 3B1C     		mov	r3, r7
 1089 003c 1433     		add	r3, r3, #20
 1090 003e 0022     		mov	r2, #0
 1091 0040 9A60     		str	r2, [r3, #8]
 346:..\..\..\..\..\simplelink\source/device.c **** 	  CmdExt.pRxPayload = (UINT8 *)pValues;
 1092              		.loc 1 346 0
 1093 0042 3B1C     		mov	r3, r7
 1094 0044 1433     		add	r3, r3, #20
 1095 0046 3A68     		ldr	r2, [r7]
 1096 0048 DA60     		str	r2, [r3, #12]
 347:..\..\..\..\..\simplelink\source/device.c **** 	  CmdExt.ActualRxPayloadLen = 0;
 1097              		.loc 1 347 0
 1098 004a 3B1C     		mov	r3, r7
 1099 004c 1433     		add	r3, r3, #20
 1100 004e 0022     		mov	r2, #0
 1101 0050 9A80     		strh	r2, [r3, #4]
 348:..\..\..\..\..\simplelink\source/device.c ****   
 349:..\..\..\..\..\simplelink\source/device.c **** 	  Msg.Cmd.DeviceSetId = DeviceGetId;
 1102              		.loc 1 349 0
 1103 0052 3B1C     		mov	r3, r7
 1104 0054 0F33     		add	r3, r3, #15
 1105 0056 1B78     		ldrb	r3, [r3]
 1106 0058 9AB2     		uxth	r2, r3
 1107 005a 3B1C     		mov	r3, r7
 1108 005c 2433     		add	r3, r3, #36
 1109 005e 5A80     		strh	r2, [r3, #2]
 350:..\..\..\..\..\simplelink\source/device.c **** 
 351:..\..\..\..\..\simplelink\source/device.c **** 	  Msg.Cmd.Option   = (UINT16)*pOption;
 1110              		.loc 1 351 0
 1111 0060 BB68     		ldr	r3, [r7, #8]
 1112 0062 1B78     		ldrb	r3, [r3]
 1113 0064 1A1C     		mov	r2, r3
 1114 0066 3B1C     		mov	r3, r7
 1115 0068 2433     		add	r3, r3, #36
 1116 006a 9A80     		strh	r2, [r3, #4]
 1117              	.LBB17:
 352:..\..\..\..\..\simplelink\source/device.c **** 	  
 353:..\..\..\..\..\simplelink\source/device.c **** 	  VERIFY_RET_OK(_SlDrvCmdOp((_SlCmdCtrl_t *)&_SlDeviceGetCmdCtrl, &Msg, &CmdExt));
 1118              		.loc 1 353 0
 1119 006c 1D49     		ldr	r1, .L90+4
 1120 006e 3A1C     		mov	r2, r7
 1121 0070 2432     		add	r2, r2, #36
 1122 0072 3B1C     		mov	r3, r7
 1123 0074 1433     		add	r3, r3, #20
 1124 0076 081C     		mov	r0, r1
 1125 0078 111C     		mov	r1, r2
 1126 007a 1A1C     		mov	r2, r3
 1127 007c FFF7FEFF 		bl	_SlDrvCmdOp
 1128 0080 031C     		mov	r3, r0
 1129 0082 FB62     		str	r3, [r7, #44]
ARM GAS  C:\Users\X0217454\AppData\Local\Temp\ccuVQjTZ.s 			page 27


 1130 0084 FB6A     		ldr	r3, [r7, #44]
 1131 0086 002B     		cmp	r3, #0
 1132 0088 00D0     		beq	.L85
 1133              	.L86:
 1134              		.loc 1 353 0 is_stmt 0 discriminator 1
 1135 008a FEE7     		b	.L86
 1136              	.L85:
 1137              	.LBE17:
 354:..\..\..\..\..\simplelink\source/device.c **** 	  
 355:..\..\..\..\..\simplelink\source/device.c **** 	  if( pOption )
 1138              		.loc 1 355 0 is_stmt 1
 1139 008c BB68     		ldr	r3, [r7, #8]
 1140 008e 002B     		cmp	r3, #0
 1141 0090 05D0     		beq	.L87
 356:..\..\..\..\..\simplelink\source/device.c **** 	  {
 357:..\..\..\..\..\simplelink\source/device.c **** 		  *pOption = (UINT8)Msg.Rsp.Option;
 1142              		.loc 1 357 0
 1143 0092 3B1C     		mov	r3, r7
 1144 0094 2433     		add	r3, r3, #36
 1145 0096 9B88     		ldrh	r3, [r3, #4]
 1146 0098 DAB2     		uxtb	r2, r3
 1147 009a BB68     		ldr	r3, [r7, #8]
 1148 009c 1A70     		strb	r2, [r3]
 1149              	.L87:
 358:..\..\..\..\..\simplelink\source/device.c **** 	  }
 359:..\..\..\..\..\simplelink\source/device.c **** 	 
 360:..\..\..\..\..\simplelink\source/device.c **** 	  if (CmdExt.RxPayloadLen < CmdExt.ActualRxPayloadLen) 
 1150              		.loc 1 360 0
 1151 009e 3B1C     		mov	r3, r7
 1152 00a0 1433     		add	r3, r3, #20
 1153 00a2 5A88     		ldrh	r2, [r3, #2]
 1154 00a4 3B1C     		mov	r3, r7
 1155 00a6 1433     		add	r3, r3, #20
 1156 00a8 9B88     		ldrh	r3, [r3, #4]
 1157 00aa 9A42     		cmp	r2, r3
 1158 00ac 07D2     		bcs	.L88
 361:..\..\..\..\..\simplelink\source/device.c **** 	  {
 362:..\..\..\..\..\simplelink\source/device.c **** 		  *pConfigLen = (UINT8)CmdExt.RxPayloadLen;
 1159              		.loc 1 362 0
 1160 00ae 3B1C     		mov	r3, r7
 1161 00b0 1433     		add	r3, r3, #20
 1162 00b2 5B88     		ldrh	r3, [r3, #2]
 1163 00b4 DAB2     		uxtb	r2, r3
 1164 00b6 7B68     		ldr	r3, [r7, #4]
 1165 00b8 1A70     		strb	r2, [r3]
 363:..\..\..\..\..\simplelink\source/device.c **** 		  return SL_ESMALLBUF;
 1166              		.loc 1 363 0
 1167 00ba 0B4B     		ldr	r3, .L90+8
 1168 00bc 0BE0     		b	.L89
 1169              	.L88:
 364:..\..\..\..\..\simplelink\source/device.c **** 	  }
 365:..\..\..\..\..\simplelink\source/device.c **** 	  else
 366:..\..\..\..\..\simplelink\source/device.c **** 	  {
 367:..\..\..\..\..\simplelink\source/device.c **** 		  *pConfigLen = (UINT8)CmdExt.ActualRxPayloadLen;
 1170              		.loc 1 367 0
 1171 00be 3B1C     		mov	r3, r7
 1172 00c0 1433     		add	r3, r3, #20
ARM GAS  C:\Users\X0217454\AppData\Local\Temp\ccuVQjTZ.s 			page 28


 1173 00c2 9B88     		ldrh	r3, [r3, #4]
 1174 00c4 DAB2     		uxtb	r2, r3
 1175 00c6 7B68     		ldr	r3, [r7, #4]
 1176 00c8 1A70     		strb	r2, [r3]
 368:..\..\..\..\..\simplelink\source/device.c **** 	  }
 369:..\..\..\..\..\simplelink\source/device.c ****   
 370:..\..\..\..\..\simplelink\source/device.c **** 	  return (int)Msg.Rsp.Status;
 1177              		.loc 1 370 0
 1178 00ca 3B1C     		mov	r3, r7
 1179 00cc 2433     		add	r3, r3, #36
 1180 00ce 1B88     		ldrh	r3, [r3]
 1181 00d0 01E0     		b	.L89
 1182              	.L84:
 371:..\..\..\..\..\simplelink\source/device.c **** 	}
 372:..\..\..\..\..\simplelink\source/device.c ****     else
 373:..\..\..\..\..\simplelink\source/device.c ****     {
 374:..\..\..\..\..\simplelink\source/device.c **** 		return -1;
 1183              		.loc 1 374 0
 1184 00d2 0123     		mov	r3, #1
 1185 00d4 5B42     		neg	r3, r3
 1186              	.L89:
 375:..\..\..\..\..\simplelink\source/device.c ****     }
 376:..\..\..\..\..\simplelink\source/device.c **** }
 1187              		.loc 1 376 0
 1188 00d6 181C     		mov	r0, r3
 1189 00d8 BD46     		mov	sp, r7
 1190 00da 0CB0     		add	sp, sp, #48
 1191              		@ sp needed for prologue
 1192 00dc 80BD     		pop	{r7, pc}
 1193              	.L91:
 1194 00de C046     		.align	2
 1195              	.L90:
 1196 00e0 2EF8FFFF 		.word	-2002
 1197 00e4 00000000 		.word	_SlDeviceGetCmdCtrl
 1198 00e8 2FF8FFFF 		.word	-2001
 1199              		.cfi_endproc
 1200              	.LFE8:
 1201              		.size	sl_DevGet, .-sl_DevGet
 1202              		.global	_SlDeviceSetCmdCtrl
 1203              		.section	.rodata
 1204              		.align	2
 1205              		.type	_SlDeviceSetCmdCtrl, %object
 1206              		.size	_SlDeviceSetCmdCtrl, 4
 1207              	_SlDeviceSetCmdCtrl:
 1208 0010 B784     		.short	-31561
 1209 0012 08       		.byte	8
 1210 0013 04       		.byte	4
 1211              		.section	.text.sl_DevSet,"ax",%progbits
 1212              		.align	2
 1213              		.global	sl_DevSet
 1214              		.code	16
 1215              		.thumb_func
 1216              		.type	sl_DevSet, %function
 1217              	sl_DevSet:
 1218              	.LFB9:
 377:..\..\..\..\..\simplelink\source/device.c **** #endif
 378:..\..\..\..\..\simplelink\source/device.c **** 
ARM GAS  C:\Users\X0217454\AppData\Local\Temp\ccuVQjTZ.s 			page 29


 379:..\..\..\..\..\simplelink\source/device.c **** /******************************************************************************
 380:..\..\..\..\..\simplelink\source/device.c ****  sl_DevSet
 381:..\..\..\..\..\simplelink\source/device.c **** ******************************************************************************/
 382:..\..\..\..\..\simplelink\source/device.c **** typedef union
 383:..\..\..\..\..\simplelink\source/device.c **** {
 384:..\..\..\..\..\simplelink\source/device.c ****     _DeviceSetGet_t    Cmd;
 385:..\..\..\..\..\simplelink\source/device.c ****     _BasicResponse_t   Rsp;
 386:..\..\..\..\..\simplelink\source/device.c **** }_SlDeviceMsgSet_u;
 387:..\..\..\..\..\simplelink\source/device.c **** 
 388:..\..\..\..\..\simplelink\source/device.c **** const _SlCmdCtrl_t _SlDeviceSetCmdCtrl =
 389:..\..\..\..\..\simplelink\source/device.c **** {
 390:..\..\..\..\..\simplelink\source/device.c ****     SL_OPCODE_DEVICE_DEVICESET,
 391:..\..\..\..\..\simplelink\source/device.c ****     sizeof(_DeviceSetGet_t),
 392:..\..\..\..\..\simplelink\source/device.c ****     sizeof(_BasicResponse_t)
 393:..\..\..\..\..\simplelink\source/device.c **** };
 394:..\..\..\..\..\simplelink\source/device.c **** 
 395:..\..\..\..\..\simplelink\source/device.c **** #if _SL_INCLUDE_FUNC(sl_DevSet)
 396:..\..\..\..\..\simplelink\source/device.c **** long sl_DevSet(unsigned char DeviceSetId ,unsigned char Option,unsigned char ConfigLen, unsigned ch
 397:..\..\..\..\..\simplelink\source/device.c **** {
 1219              		.loc 1 397 0
 1220              		.cfi_startproc
 1221 0000 80B5     		push	{r7, lr}
 1222              	.LCFI26:
 1223              		.cfi_def_cfa_offset 8
 1224              		.cfi_offset 7, -8
 1225              		.cfi_offset 14, -4
 1226 0002 8AB0     		sub	sp, sp, #40
 1227              	.LCFI27:
 1228              		.cfi_def_cfa_offset 48
 1229 0004 00AF     		add	r7, sp, #0
 1230              	.LCFI28:
 1231              		.cfi_def_cfa_register 7
 1232 0006 3B60     		str	r3, [r7]
 1233 0008 FB1D     		add	r3, r7, #7
 1234 000a 1870     		strb	r0, [r3]
 1235 000c BB1D     		add	r3, r7, #6
 1236 000e 1970     		strb	r1, [r3]
 1237 0010 7B1D     		add	r3, r7, #5
 1238 0012 1A70     		strb	r2, [r3]
 398:..\..\..\..\..\simplelink\source/device.c **** 	_SlDeviceMsgSet_u         Msg;
 399:..\..\..\..\..\simplelink\source/device.c **** 	_SlCmdExt_t               CmdExt;
 400:..\..\..\..\..\simplelink\source/device.c **** 
 401:..\..\..\..\..\simplelink\source/device.c **** 	CmdExt.TxPayloadLen = (ConfigLen+3) & (~3);
 1239              		.loc 1 401 0
 1240 0014 7B1D     		add	r3, r7, #5
 1241 0016 1B78     		ldrb	r3, [r3]
 1242 0018 9BB2     		uxth	r3, r3
 1243 001a 0333     		add	r3, r3, #3
 1244 001c 9BB2     		uxth	r3, r3
 1245 001e 0322     		mov	r2, #3
 1246 0020 9343     		bic	r3, r2
 1247 0022 9AB2     		uxth	r2, r3
 1248 0024 3B1C     		mov	r3, r7
 1249 0026 0C33     		add	r3, r3, #12
 1250 0028 1A80     		strh	r2, [r3]
 402:..\..\..\..\..\simplelink\source/device.c **** 	CmdExt.RxPayloadLen = 0;
 1251              		.loc 1 402 0
ARM GAS  C:\Users\X0217454\AppData\Local\Temp\ccuVQjTZ.s 			page 30


 1252 002a 3B1C     		mov	r3, r7
 1253 002c 0C33     		add	r3, r3, #12
 1254 002e 0022     		mov	r2, #0
 1255 0030 5A80     		strh	r2, [r3, #2]
 403:..\..\..\..\..\simplelink\source/device.c **** 	CmdExt.pTxPayload = (UINT8 *)pValues;
 1256              		.loc 1 403 0
 1257 0032 3B1C     		mov	r3, r7
 1258 0034 0C33     		add	r3, r3, #12
 1259 0036 3A68     		ldr	r2, [r7]
 1260 0038 9A60     		str	r2, [r3, #8]
 404:..\..\..\..\..\simplelink\source/device.c **** 	CmdExt.pRxPayload = NULL;
 1261              		.loc 1 404 0
 1262 003a 3B1C     		mov	r3, r7
 1263 003c 0C33     		add	r3, r3, #12
 1264 003e 0022     		mov	r2, #0
 1265 0040 DA60     		str	r2, [r3, #12]
 405:..\..\..\..\..\simplelink\source/device.c **** 
 406:..\..\..\..\..\simplelink\source/device.c **** 
 407:..\..\..\..\..\simplelink\source/device.c **** 	Msg.Cmd.DeviceSetId    = DeviceSetId;
 1266              		.loc 1 407 0
 1267 0042 FB1D     		add	r3, r7, #7
 1268 0044 1B78     		ldrb	r3, [r3]
 1269 0046 9AB2     		uxth	r2, r3
 1270 0048 3B1C     		mov	r3, r7
 1271 004a 1C33     		add	r3, r3, #28
 1272 004c 5A80     		strh	r2, [r3, #2]
 408:..\..\..\..\..\simplelink\source/device.c **** 	Msg.Cmd.ConfigLen   = ConfigLen;
 1273              		.loc 1 408 0
 1274 004e 7B1D     		add	r3, r7, #5
 1275 0050 1B78     		ldrb	r3, [r3]
 1276 0052 9AB2     		uxth	r2, r3
 1277 0054 3B1C     		mov	r3, r7
 1278 0056 1C33     		add	r3, r3, #28
 1279 0058 DA80     		strh	r2, [r3, #6]
 409:..\..\..\..\..\simplelink\source/device.c **** 	Msg.Cmd.Option   = Option;
 1280              		.loc 1 409 0
 1281 005a BB1D     		add	r3, r7, #6
 1282 005c 1B78     		ldrb	r3, [r3]
 1283 005e 9AB2     		uxth	r2, r3
 1284 0060 3B1C     		mov	r3, r7
 1285 0062 1C33     		add	r3, r3, #28
 1286 0064 9A80     		strh	r2, [r3, #4]
 1287              	.LBB18:
 410:..\..\..\..\..\simplelink\source/device.c **** 
 411:..\..\..\..\..\simplelink\source/device.c **** 	VERIFY_RET_OK(_SlDrvCmdOp((_SlCmdCtrl_t *)&_SlDeviceSetCmdCtrl, &Msg, &CmdExt));
 1288              		.loc 1 411 0
 1289 0066 0C49     		ldr	r1, .L96
 1290 0068 3A1C     		mov	r2, r7
 1291 006a 1C32     		add	r2, r2, #28
 1292 006c 3B1C     		mov	r3, r7
 1293 006e 0C33     		add	r3, r3, #12
 1294 0070 081C     		mov	r0, r1
 1295 0072 111C     		mov	r1, r2
 1296 0074 1A1C     		mov	r2, r3
 1297 0076 FFF7FEFF 		bl	_SlDrvCmdOp
 1298 007a 031C     		mov	r3, r0
 1299 007c 7B62     		str	r3, [r7, #36]
ARM GAS  C:\Users\X0217454\AppData\Local\Temp\ccuVQjTZ.s 			page 31


 1300 007e 7B6A     		ldr	r3, [r7, #36]
 1301 0080 002B     		cmp	r3, #0
 1302 0082 00D0     		beq	.L93
 1303              	.L94:
 1304              		.loc 1 411 0 is_stmt 0 discriminator 1
 1305 0084 FEE7     		b	.L94
 1306              	.L93:
 1307              	.LBE18:
 412:..\..\..\..\..\simplelink\source/device.c **** 
 413:..\..\..\..\..\simplelink\source/device.c **** 	return (int)Msg.Rsp.status;
 1308              		.loc 1 413 0 is_stmt 1
 1309 0086 3B1C     		mov	r3, r7
 1310 0088 1C33     		add	r3, r3, #28
 1311 008a 1B88     		ldrh	r3, [r3]
 1312 008c 1BB2     		sxth	r3, r3
 414:..\..\..\..\..\simplelink\source/device.c **** }
 1313              		.loc 1 414 0
 1314 008e 181C     		mov	r0, r3
 1315 0090 BD46     		mov	sp, r7
 1316 0092 0AB0     		add	sp, sp, #40
 1317              		@ sp needed for prologue
 1318 0094 80BD     		pop	{r7, pc}
 1319              	.L97:
 1320 0096 C046     		.align	2
 1321              	.L96:
 1322 0098 00000000 		.word	_SlDeviceSetCmdCtrl
 1323              		.cfi_endproc
 1324              	.LFE9:
 1325              		.size	sl_DevSet, .-sl_DevSet
 1326              		.section	.text._SlDrvDeviceEventHandler,"ax",%progbits
 1327              		.align	2
 1328              		.global	_SlDrvDeviceEventHandler
 1329              		.code	16
 1330              		.thumb_func
 1331              		.type	_SlDrvDeviceEventHandler, %function
 1332              	_SlDrvDeviceEventHandler:
 1333              	.LFB10:
 415:..\..\..\..\..\simplelink\source/device.c **** #endif
 416:..\..\..\..\..\simplelink\source/device.c **** 
 417:..\..\..\..\..\simplelink\source/device.c **** 
 418:..\..\..\..\..\simplelink\source/device.c **** /******************************************************************************
 419:..\..\..\..\..\simplelink\source/device.c ****  _SlDrvDeviceEventHandler - handles internally device async events
 420:..\..\..\..\..\simplelink\source/device.c **** ******************************************************************************/
 421:..\..\..\..\..\simplelink\source/device.c **** void _SlDrvDeviceEventHandler(void *pArgs)
 422:..\..\..\..\..\simplelink\source/device.c **** {
 1334              		.loc 1 422 0
 1335              		.cfi_startproc
 1336 0000 80B5     		push	{r7, lr}
 1337              	.LCFI29:
 1338              		.cfi_def_cfa_offset 8
 1339              		.cfi_offset 7, -8
 1340              		.cfi_offset 14, -4
 1341 0002 84B0     		sub	sp, sp, #16
 1342              	.LCFI30:
 1343              		.cfi_def_cfa_offset 24
 1344 0004 00AF     		add	r7, sp, #0
 1345              	.LCFI31:
ARM GAS  C:\Users\X0217454\AppData\Local\Temp\ccuVQjTZ.s 			page 32


 1346              		.cfi_def_cfa_register 7
 1347 0006 7860     		str	r0, [r7, #4]
 423:..\..\..\..\..\simplelink\source/device.c ****     _SlResponseHeader_t      *pHdr       = (_SlResponseHeader_t *)pArgs;
 1348              		.loc 1 423 0
 1349 0008 7B68     		ldr	r3, [r7, #4]
 1350 000a FB60     		str	r3, [r7, #12]
 424:..\..\..\..\..\simplelink\source/device.c **** 
 425:..\..\..\..\..\simplelink\source/device.c ****     switch(pHdr->GenHeader.Opcode)
 1351              		.loc 1 425 0
 1352 000c FB68     		ldr	r3, [r7, #12]
 1353 000e 1B88     		ldrh	r3, [r3]
 1354 0010 732B     		cmp	r3, #115
 1355 0012 09D0     		beq	.L101
 1356 0014 782B     		cmp	r3, #120
 1357 0016 0DD0     		beq	.L104
 1358 0018 082B     		cmp	r3, #8
 1359 001a 00D0     		beq	.L100
 1360 001c 09E0     		b	.L99
 1361              	.L100:
 426:..\..\..\..\..\simplelink\source/device.c ****     {
 427:..\..\..\..\..\simplelink\source/device.c ****         case SL_OPCODE_DEVICE_INITCOMPLETE:
 428:..\..\..\..\..\simplelink\source/device.c ****             _sl_HandleAsync_InitComplete(pHdr);
 1362              		.loc 1 428 0
 1363 001e FB68     		ldr	r3, [r7, #12]
 1364 0020 181C     		mov	r0, r3
 1365 0022 FFF7FEFF 		bl	_sl_HandleAsync_InitComplete
 429:..\..\..\..\..\simplelink\source/device.c ****             break;
 1366              		.loc 1 429 0
 1367 0026 06E0     		b	.L98
 1368              	.L101:
 430:..\..\..\..\..\simplelink\source/device.c ****         case SL_OPCODE_DEVICE_STOP_ASYNC_RESPONSE:
 431:..\..\..\..\..\simplelink\source/device.c ****             _sl_HandleAsync_Stop(pHdr);
 1369              		.loc 1 431 0
 1370 0028 FB68     		ldr	r3, [r7, #12]
 1371 002a 181C     		mov	r0, r3
 1372 002c FFF7FEFF 		bl	_sl_HandleAsync_Stop
 432:..\..\..\..\..\simplelink\source/device.c ****             break;
 1373              		.loc 1 432 0
 1374 0030 01E0     		b	.L98
 1375              	.L99:
 433:..\..\..\..\..\simplelink\source/device.c ****         case  SL_OPCODE_DEVICE_DEVICEASYNCFATALERROR:
 434:..\..\..\..\..\simplelink\source/device.c **** #ifdef sl_GeneralEvtHdlr
 435:..\..\..\..\..\simplelink\source/device.c ****             {
 436:..\..\..\..\..\simplelink\source/device.c ****               _BasicResponse_t     *pMsgArgs   = (_BasicResponse_t *)_SL_RESP_ARGS_START(pHdr);
 437:..\..\..\..\..\simplelink\source/device.c ****               SlDeviceEvent_t      devHandler;
 438:..\..\..\..\..\simplelink\source/device.c ****               devHandler.EventData.deviceEvent.status = pMsgArgs->status & 0xFF;
 439:..\..\..\..\..\simplelink\source/device.c ****               devHandler.EventData.deviceEvent.sender = (pMsgArgs->status >> 8) & 0xFF;
 440:..\..\..\..\..\simplelink\source/device.c ****               sl_GeneralEvtHdlr(&devHandler);
 441:..\..\..\..\..\simplelink\source/device.c ****             }
 442:..\..\..\..\..\simplelink\source/device.c **** #endif
 443:..\..\..\..\..\simplelink\source/device.c ****             break;
 444:..\..\..\..\..\simplelink\source/device.c ****         default:
 445:..\..\..\..\..\simplelink\source/device.c ****             SL_ERROR_TRACE2(MSG_306, "ASSERT: _SlDrvDeviceEventHandler : invalid opcode = 0x%x = %1
 446:..\..\..\..\..\simplelink\source/device.c ****             VERIFY_PROTOCOL(0);
 1376              		.loc 1 446 0 discriminator 1
 1377 0032 FEE7     		b	.L99
 1378              	.L104:
ARM GAS  C:\Users\X0217454\AppData\Local\Temp\ccuVQjTZ.s 			page 33


 443:..\..\..\..\..\simplelink\source/device.c ****             break;
 1379              		.loc 1 443 0
 1380 0034 C046     		mov	r8, r8
 1381              	.L98:
 447:..\..\..\..\..\simplelink\source/device.c ****     }
 448:..\..\..\..\..\simplelink\source/device.c **** }
 1382              		.loc 1 448 0
 1383 0036 BD46     		mov	sp, r7
 1384 0038 04B0     		add	sp, sp, #16
 1385              		@ sp needed for prologue
 1386 003a 80BD     		pop	{r7, pc}
 1387              		.cfi_endproc
 1388              	.LFE10:
 1389              		.size	_SlDrvDeviceEventHandler, .-_SlDrvDeviceEventHandler
 1390              		.global	_SlUartSetModeCmdCtrl
 1391              		.section	.rodata
 1392              		.align	2
 1393              		.type	_SlUartSetModeCmdCtrl, %object
 1394              		.size	_SlUartSetModeCmdCtrl, 4
 1395              	_SlUartSetModeCmdCtrl:
 1396 0014 6B84     		.short	-31637
 1397 0016 08       		.byte	8
 1398 0017 04       		.byte	4
 1399              		.section	.text.sl_UartSetMode,"ax",%progbits
 1400              		.align	2
 1401              		.global	sl_UartSetMode
 1402              		.code	16
 1403              		.thumb_func
 1404              		.type	sl_UartSetMode, %function
 1405              	sl_UartSetMode:
 1406              	.LFB11:
 449:..\..\..\..\..\simplelink\source/device.c **** 
 450:..\..\..\..\..\simplelink\source/device.c **** 
 451:..\..\..\..\..\simplelink\source/device.c **** /******************************************************************************
 452:..\..\..\..\..\simplelink\source/device.c ****  sl_UartSetMode 
 453:..\..\..\..\..\simplelink\source/device.c **** ******************************************************************************/
 454:..\..\..\..\..\simplelink\source/device.c **** #ifdef SL_IF_TYPE_UART
 455:..\..\..\..\..\simplelink\source/device.c **** typedef union
 456:..\..\..\..\..\simplelink\source/device.c **** {
 457:..\..\..\..\..\simplelink\source/device.c **** 	_DevUartSetModeCommand_t	  Cmd;
 458:..\..\..\..\..\simplelink\source/device.c **** 	_DevUartSetModeResponse_t     Rsp;
 459:..\..\..\..\..\simplelink\source/device.c **** }_SlUartSetModeMsg_u;
 460:..\..\..\..\..\simplelink\source/device.c **** 
 461:..\..\..\..\..\simplelink\source/device.c **** const _SlCmdCtrl_t _SlUartSetModeCmdCtrl =
 462:..\..\..\..\..\simplelink\source/device.c **** {
 463:..\..\..\..\..\simplelink\source/device.c ****     SL_OPCODE_DEVICE_SETUARTMODECOMMAND,
 464:..\..\..\..\..\simplelink\source/device.c ****     sizeof(_DevUartSetModeCommand_t),
 465:..\..\..\..\..\simplelink\source/device.c ****     sizeof(_DevUartSetModeResponse_t)
 466:..\..\..\..\..\simplelink\source/device.c **** };
 467:..\..\..\..\..\simplelink\source/device.c **** 
 468:..\..\..\..\..\simplelink\source/device.c **** 
 469:..\..\..\..\..\simplelink\source/device.c **** #if _SL_INCLUDE_FUNC(sl_UartSetMode)
 470:..\..\..\..\..\simplelink\source/device.c **** int sl_UartSetMode(const SlUartIfParams_t* pUartParams)
 471:..\..\..\..\..\simplelink\source/device.c **** {
 1407              		.loc 1 471 0
 1408              		.cfi_startproc
 1409 0000 80B5     		push	{r7, lr}
ARM GAS  C:\Users\X0217454\AppData\Local\Temp\ccuVQjTZ.s 			page 34


 1410              	.LCFI32:
 1411              		.cfi_def_cfa_offset 8
 1412              		.cfi_offset 7, -8
 1413              		.cfi_offset 14, -4
 1414 0002 86B0     		sub	sp, sp, #24
 1415              	.LCFI33:
 1416              		.cfi_def_cfa_offset 32
 1417 0004 00AF     		add	r7, sp, #0
 1418              	.LCFI34:
 1419              		.cfi_def_cfa_register 7
 1420 0006 7860     		str	r0, [r7, #4]
 472:..\..\..\..\..\simplelink\source/device.c **** 	_SlUartSetModeMsg_u Msg;
 473:..\..\..\..\..\simplelink\source/device.c ****         UINT32 magicCode = 0xFFFFFFFF;
 1421              		.loc 1 473 0
 1422 0008 0123     		mov	r3, #1
 1423 000a 5B42     		neg	r3, r3
 1424 000c BB60     		str	r3, [r7, #8]
 474:..\..\..\..\..\simplelink\source/device.c ****         
 475:..\..\..\..\..\simplelink\source/device.c **** 	Msg.Cmd.BaudRate = pUartParams->BaudRate;
 1425              		.loc 1 475 0
 1426 000e 7B68     		ldr	r3, [r7, #4]
 1427 0010 1A68     		ldr	r2, [r3]
 1428 0012 3B1C     		mov	r3, r7
 1429 0014 0C33     		add	r3, r3, #12
 1430 0016 1A60     		str	r2, [r3]
 476:..\..\..\..\..\simplelink\source/device.c **** 	Msg.Cmd.FlowControlEnable = pUartParams->FlowControlEnable;
 1431              		.loc 1 476 0
 1432 0018 7B68     		ldr	r3, [r7, #4]
 1433 001a 1A79     		ldrb	r2, [r3, #4]
 1434 001c 3B1C     		mov	r3, r7
 1435 001e 0C33     		add	r3, r3, #12
 1436 0020 1A71     		strb	r2, [r3, #4]
 1437              	.LBB19:
 477:..\..\..\..\..\simplelink\source/device.c **** 
 478:..\..\..\..\..\simplelink\source/device.c ****     
 479:..\..\..\..\..\simplelink\source/device.c ****     VERIFY_RET_OK(_SlDrvCmdOp((_SlCmdCtrl_t *)&_SlUartSetModeCmdCtrl, &Msg, NULL));
 1438              		.loc 1 479 0
 1439 0022 2A4A     		ldr	r2, .L111
 1440 0024 3B1C     		mov	r3, r7
 1441 0026 0C33     		add	r3, r3, #12
 1442 0028 101C     		mov	r0, r2
 1443 002a 191C     		mov	r1, r3
 1444 002c 0022     		mov	r2, #0
 1445 002e FFF7FEFF 		bl	_SlDrvCmdOp
 1446 0032 031C     		mov	r3, r0
 1447 0034 7B61     		str	r3, [r7, #20]
 1448 0036 7B69     		ldr	r3, [r7, #20]
 1449 0038 002B     		cmp	r3, #0
 1450 003a 00D0     		beq	.L106
 1451              	.L107:
 1452              		.loc 1 479 0 is_stmt 0 discriminator 1
 1453 003c FEE7     		b	.L107
 1454              	.L106:
 1455              	.LBE19:
 480:..\..\..\..\..\simplelink\source/device.c ****         
 481:..\..\..\..\..\simplelink\source/device.c **** 	/* cmd response OK, we can continue with the handshake */
 482:..\..\..\..\..\simplelink\source/device.c **** 	if (SL_RET_CODE_OK == Msg.Rsp.status)
ARM GAS  C:\Users\X0217454\AppData\Local\Temp\ccuVQjTZ.s 			page 35


 1456              		.loc 1 482 0 is_stmt 1
 1457 003e 3B1C     		mov	r3, r7
 1458 0040 0C33     		add	r3, r3, #12
 1459 0042 1B88     		ldrh	r3, [r3]
 1460 0044 002B     		cmp	r3, #0
 1461 0046 38D1     		bne	.L108
 483:..\..\..\..\..\simplelink\source/device.c **** 	{
 484:..\..\..\..\..\simplelink\source/device.c ****             sl_IfMaskIntHdlr();
 1462              		.loc 1 484 0
 1463 0048 FFF7FEFF 		bl	MaskIntHdlr
 485:..\..\..\..\..\simplelink\source/device.c **** 
 486:..\..\..\..\..\simplelink\source/device.c ****             /* Close the comm port */
 487:..\..\..\..\..\simplelink\source/device.c ****             sl_IfClose(g_pCB->FD);
 1464              		.loc 1 487 0
 1465 004c 204B     		ldr	r3, .L111+4
 1466 004e 1B68     		ldr	r3, [r3]
 1467 0050 1B68     		ldr	r3, [r3]
 1468 0052 181C     		mov	r0, r3
 1469 0054 FFF7FEFF 		bl	uart_Close
 488:..\..\..\..\..\simplelink\source/device.c ****               
 489:..\..\..\..\..\simplelink\source/device.c ****               /* Re-open the comm port */
 490:..\..\..\..\..\simplelink\source/device.c ****             sl_IfOpen((char*)pUartParams, UART_IF_OPEN_FLAG_RE_OPEN);
 1470              		.loc 1 490 0
 1471 0058 7B68     		ldr	r3, [r7, #4]
 1472 005a 181C     		mov	r0, r3
 1473 005c 0121     		mov	r1, #1
 1474 005e FFF7FEFF 		bl	uart_Open
 491:..\..\..\..\..\simplelink\source/device.c **** 
 492:..\..\..\..\..\simplelink\source/device.c ****             sl_IfUnMaskIntHdlr();
 1475              		.loc 1 492 0
 1476 0062 FFF7FEFF 		bl	UnMaskIntHdlr
 493:..\..\..\..\..\simplelink\source/device.c ****               
 494:..\..\..\..\..\simplelink\source/device.c ****             /* send the magic code and wait for the response */
 495:..\..\..\..\..\simplelink\source/device.c ****             sl_IfWrite(g_pCB->FD, (unsigned char*)&magicCode, 4);
 1477              		.loc 1 495 0
 1478 0066 1A4B     		ldr	r3, .L111+4
 1479 0068 1B68     		ldr	r3, [r3]
 1480 006a 1B68     		ldr	r3, [r3]
 1481 006c 1A1C     		mov	r2, r3
 1482 006e 3B1C     		mov	r3, r7
 1483 0070 0833     		add	r3, r3, #8
 1484 0072 101C     		mov	r0, r2
 1485 0074 191C     		mov	r1, r3
 1486 0076 0422     		mov	r2, #4
 1487 0078 FFF7FEFF 		bl	uart_Write
 496:..\..\..\..\..\simplelink\source/device.c ****             
 497:..\..\..\..\..\simplelink\source/device.c ****             magicCode = UART_SET_MODE_MAGIC_CODE;
 1488              		.loc 1 497 0
 1489 007c 154B     		ldr	r3, .L111+8
 1490 007e BB60     		str	r3, [r7, #8]
 498:..\..\..\..\..\simplelink\source/device.c ****             sl_IfWrite(g_pCB->FD, (unsigned char*)&magicCode, 4);
 1491              		.loc 1 498 0
 1492 0080 134B     		ldr	r3, .L111+4
 1493 0082 1B68     		ldr	r3, [r3]
 1494 0084 1B68     		ldr	r3, [r3]
 1495 0086 1A1C     		mov	r2, r3
 1496 0088 3B1C     		mov	r3, r7
ARM GAS  C:\Users\X0217454\AppData\Local\Temp\ccuVQjTZ.s 			page 36


 1497 008a 0833     		add	r3, r3, #8
 1498 008c 101C     		mov	r0, r2
 1499 008e 191C     		mov	r1, r3
 1500 0090 0422     		mov	r2, #4
 1501 0092 FFF7FEFF 		bl	uart_Write
 499:..\..\..\..\..\simplelink\source/device.c ****             
 500:..\..\..\..\..\simplelink\source/device.c ****             /* clear magic code */
 501:..\..\..\..\..\simplelink\source/device.c ****             magicCode = 0;
 1502              		.loc 1 501 0
 1503 0096 0023     		mov	r3, #0
 1504 0098 BB60     		str	r3, [r7, #8]
 502:..\..\..\..\..\simplelink\source/device.c ****             
 503:..\..\..\..\..\simplelink\source/device.c ****             /* wait (blocking) till the magic code to be returned from device */
 504:..\..\..\..\..\simplelink\source/device.c ****             sl_IfRead(g_pCB->FD, (unsigned char*)&magicCode, 4);
 1505              		.loc 1 504 0
 1506 009a 0D4B     		ldr	r3, .L111+4
 1507 009c 1B68     		ldr	r3, [r3]
 1508 009e 1B68     		ldr	r3, [r3]
 1509 00a0 1A1C     		mov	r2, r3
 1510 00a2 3B1C     		mov	r3, r7
 1511 00a4 0833     		add	r3, r3, #8
 1512 00a6 101C     		mov	r0, r2
 1513 00a8 191C     		mov	r1, r3
 1514 00aa 0422     		mov	r2, #4
 1515 00ac FFF7FEFF 		bl	uart_Read
 505:..\..\..\..\..\simplelink\source/device.c ****             
 506:..\..\..\..\..\simplelink\source/device.c ****             /* check for the received magic code matching */
 507:..\..\..\..\..\simplelink\source/device.c ****             if (UART_SET_MODE_MAGIC_CODE != magicCode)
 1516              		.loc 1 507 0
 1517 00b0 BA68     		ldr	r2, [r7, #8]
 1518 00b2 084B     		ldr	r3, .L111+8
 1519 00b4 9A42     		cmp	r2, r3
 1520 00b6 00D0     		beq	.L108
 1521              	.L109:
 508:..\..\..\..\..\simplelink\source/device.c ****             {
 509:..\..\..\..\..\simplelink\source/device.c ****                 _SL_ASSERT(0);
 1522              		.loc 1 509 0 discriminator 1
 1523 00b8 FEE7     		b	.L109
 1524              	.L108:
 510:..\..\..\..\..\simplelink\source/device.c ****             }
 511:..\..\..\..\..\simplelink\source/device.c **** 	}
 512:..\..\..\..\..\simplelink\source/device.c ****        
 513:..\..\..\..\..\simplelink\source/device.c **** 	return (int)Msg.Rsp.status;
 1525              		.loc 1 513 0
 1526 00ba 3B1C     		mov	r3, r7
 1527 00bc 0C33     		add	r3, r3, #12
 1528 00be 1B88     		ldrh	r3, [r3]
 1529 00c0 1BB2     		sxth	r3, r3
 514:..\..\..\..\..\simplelink\source/device.c **** }
 1530              		.loc 1 514 0
 1531 00c2 181C     		mov	r0, r3
 1532 00c4 BD46     		mov	sp, r7
 1533 00c6 06B0     		add	sp, sp, #24
 1534              		@ sp needed for prologue
 1535 00c8 80BD     		pop	{r7, pc}
 1536              	.L112:
 1537 00ca C046     		.align	2
ARM GAS  C:\Users\X0217454\AppData\Local\Temp\ccuVQjTZ.s 			page 37


 1538              	.L111:
 1539 00cc 00000000 		.word	_SlUartSetModeCmdCtrl
 1540 00d0 00000000 		.word	g_pCB
 1541 00d4 55AA55AA 		.word	-1437226411
 1542              		.cfi_endproc
 1543              	.LFE11:
 1544              		.size	sl_UartSetMode, .-sl_UartSetMode
 1545              		.text
 1546              	.Letext0:
 1547              		.file 2 "..\\..\\..\\..\\..\\simplelink\\source\\datatypes.h"
 1548              		.file 3 "..\\..\\../board.h"
 1549              		.file 4 "..\\..\\../user.h"
 1550              		.file 5 "..\\..\\..\\..\\..\\simplelink\\include/simplelink.h"
 1551              		.file 6 "..\\..\\..\\..\\..\\simplelink\\include/../source/nonos.h"
 1552              		.file 7 "..\\..\\..\\..\\..\\simplelink\\include/device.h"
 1553              		.file 8 "..\\..\\..\\..\\..\\simplelink\\source\\protocol.h"
 1554              		.file 9 "..\\..\\..\\..\\..\\simplelink\\source\\driver.h"
 1555              		.file 10 "..\\..\\..\\..\\..\\simplelink\\include/wlan.h"