ARM GAS  C:\Users\X0217454\AppData\Local\Temp\cc7UAvFx.s 			page 1


   1              		.cpu cortex-m0
   2              		.fpu softvfp
   3              		.eabi_attribute 20, 1
   4              		.eabi_attribute 21, 1
   5              		.eabi_attribute 23, 3
   6              		.eabi_attribute 24, 1
   7              		.eabi_attribute 25, 1
   8              		.eabi_attribute 26, 1
   9              		.eabi_attribute 30, 6
  10              		.eabi_attribute 34, 0
  11              		.eabi_attribute 18, 4
  12              		.code	16
  13              		.file	"driver.c"
  14              		.text
  15              	.Ltext0:
  16              		.cfi_sections	.debug_frame
  17              		.global	g_pCB
  18              		.bss
  19              		.align	2
  20              		.type	g_pCB, %object
  21              		.size	g_pCB, 4
  22              	g_pCB:
  23 0000 00000000 		.space	4
  24              		.global	pPingCallBackFunc
  25              		.align	2
  26              		.type	pPingCallBackFunc, %object
  27              		.size	pPingCallBackFunc, 4
  28              	pPingCallBackFunc:
  29 0004 00000000 		.space	4
  30              		.global	g_H2NSyncPattern
  31              		.section	.rodata
  32              		.align	2
  33              		.type	g_H2NSyncPattern, %object
  34              		.size	g_H2NSyncPattern, 8
  35              	g_H2NSyncPattern:
  36 0000 FFEEDDBB 		.word	-1143083265
  37 0004 2143     		.short	17185
  38 0006 34       		.byte	52
  39 0007 12       		.byte	18
  40              		.global	g_H2NCnysPattern
  41              		.align	2
  42              		.type	g_H2NCnysPattern, %object
  43              		.size	g_H2NCnysPattern, 8
  44              	g_H2NCnysPattern:
  45 0008 FFEEDDBB 		.word	-1143083265
  46 000c 6587     		.short	-30875
  47 000e 78       		.byte	120
  48 000f 56       		.byte	86
  49              		.global	_SlActionLookupTable
  50              		.align	2
  51              		.type	_SlActionLookupTable, %object
  52              		.size	_SlActionLookupTable, 56
  53              	_SlActionLookupTable:
  54 0010 08       		.byte	8
  55 0011 00       		.space	1
  56 0012 0310     		.short	4099
  57 0014 00000000 		.word	_sl_HandleAsync_Accept
ARM GAS  C:\Users\X0217454\AppData\Local\Temp\cc7UAvFx.s 			page 2


  58 0018 09       		.byte	9
  59 0019 00       		.space	1
  60 001a 0610     		.short	4102
  61 001c 00000000 		.word	_sl_HandleAsync_Connect
  62 0020 0A       		.byte	10
  63 0021 00       		.space	1
  64 0022 0710     		.short	4103
  65 0024 00000000 		.word	_sl_HandleAsync_Select
  66 0028 0B       		.byte	11
  67 0029 00       		.space	1
  68 002a 2018     		.short	6176
  69 002c 00000000 		.word	_sl_HandleAsync_DnsGetHostByName
  70 0030 0C       		.byte	12
  71 0031 00       		.space	1
  72 0032 3518     		.short	6197
  73 0034 00000000 		.word	_sl_HandleAsync_DnsGetHostByService
  74 0038 0D       		.byte	13
  75 0039 00       		.space	1
  76 003a 2218     		.short	6178
  77 003c 00000000 		.word	_sl_HandleAsync_PingResponse
  78 0040 0E       		.byte	14
  79 0041 00       		.space	1
  80 0042 7300     		.short	115
  81 0044 00000000 		.word	_sl_HandleAsync_Stop
  82              		.comm	g_StatMem,356,4
  83              		.section	.text._SlDrvDriverCBInit,"ax",%progbits
  84              		.align	2
  85              		.global	_SlDrvDriverCBInit
  86              		.code	16
  87              		.thumb_func
  88              		.type	_SlDrvDriverCBInit, %function
  89              	_SlDrvDriverCBInit:
  90              	.LFB0:
  91              		.file 1 "..\\..\\..\\..\\..\\simplelink\\source\\driver.c"
   1:..\..\..\..\..\simplelink\source/driver.c **** /*
   2:..\..\..\..\..\simplelink\source/driver.c ****  * driver.c - CC31xx/CC32xx Host Driver Implementation
   3:..\..\..\..\..\simplelink\source/driver.c ****  *
   4:..\..\..\..\..\simplelink\source/driver.c ****  * Copyright (C) 2014 Texas Instruments Incorporated - http://www.ti.com/ 
   5:..\..\..\..\..\simplelink\source/driver.c ****  * 
   6:..\..\..\..\..\simplelink\source/driver.c ****  * 
   7:..\..\..\..\..\simplelink\source/driver.c ****  *  Redistribution and use in source and binary forms, with or without 
   8:..\..\..\..\..\simplelink\source/driver.c ****  *  modification, are permitted provided that the following conditions 
   9:..\..\..\..\..\simplelink\source/driver.c ****  *  are met:
  10:..\..\..\..\..\simplelink\source/driver.c ****  *
  11:..\..\..\..\..\simplelink\source/driver.c ****  *    Redistributions of source code must retain the above copyright 
  12:..\..\..\..\..\simplelink\source/driver.c ****  *    notice, this list of conditions and the following disclaimer.
  13:..\..\..\..\..\simplelink\source/driver.c ****  *
  14:..\..\..\..\..\simplelink\source/driver.c ****  *    Redistributions in binary form must reproduce the above copyright
  15:..\..\..\..\..\simplelink\source/driver.c ****  *    notice, this list of conditions and the following disclaimer in the 
  16:..\..\..\..\..\simplelink\source/driver.c ****  *    documentation and/or other materials provided with the   
  17:..\..\..\..\..\simplelink\source/driver.c ****  *    distribution.
  18:..\..\..\..\..\simplelink\source/driver.c ****  *
  19:..\..\..\..\..\simplelink\source/driver.c ****  *    Neither the name of Texas Instruments Incorporated nor the names of
  20:..\..\..\..\..\simplelink\source/driver.c ****  *    its contributors may be used to endorse or promote products derived
  21:..\..\..\..\..\simplelink\source/driver.c ****  *    from this software without specific prior written permission.
  22:..\..\..\..\..\simplelink\source/driver.c ****  *
  23:..\..\..\..\..\simplelink\source/driver.c ****  *  THIS SOFTWARE IS PROVIDED BY THE COPYRIGHT HOLDERS AND CONTRIBUTORS 
ARM GAS  C:\Users\X0217454\AppData\Local\Temp\cc7UAvFx.s 			page 3


  24:..\..\..\..\..\simplelink\source/driver.c ****  *  "AS IS" AND ANY EXPRESS OR IMPLIED WARRANTIES, INCLUDING, BUT NOT 
  25:..\..\..\..\..\simplelink\source/driver.c ****  *  LIMITED TO, THE IMPLIED WARRANTIES OF MERCHANTABILITY AND FITNESS FOR
  26:..\..\..\..\..\simplelink\source/driver.c ****  *  A PARTICULAR PURPOSE ARE DISCLAIMED. IN NO EVENT SHALL THE COPYRIGHT 
  27:..\..\..\..\..\simplelink\source/driver.c ****  *  OWNER OR CONTRIBUTORS BE LIABLE FOR ANY DIRECT, INDIRECT, INCIDENTAL, 
  28:..\..\..\..\..\simplelink\source/driver.c ****  *  SPECIAL, EXEMPLARY, OR CONSEQUENTIAL DAMAGES (INCLUDING, BUT NOT 
  29:..\..\..\..\..\simplelink\source/driver.c ****  *  LIMITED TO, PROCUREMENT OF SUBSTITUTE GOODS OR SERVICES; LOSS OF USE,
  30:..\..\..\..\..\simplelink\source/driver.c ****  *  DATA, OR PROFITS; OR BUSINESS INTERRUPTION) HOWEVER CAUSED AND ON ANY
  31:..\..\..\..\..\simplelink\source/driver.c ****  *  THEORY OF LIABILITY, WHETHER IN CONTRACT, STRICT LIABILITY, OR TORT 
  32:..\..\..\..\..\simplelink\source/driver.c ****  *  (INCLUDING NEGLIGENCE OR OTHERWISE) ARISING IN ANY WAY OUT OF THE USE 
  33:..\..\..\..\..\simplelink\source/driver.c ****  *  OF THIS SOFTWARE, EVEN IF ADVISED OF THE POSSIBILITY OF SUCH DAMAGE.
  34:..\..\..\..\..\simplelink\source/driver.c ****  *
  35:..\..\..\..\..\simplelink\source/driver.c **** */
  36:..\..\..\..\..\simplelink\source/driver.c **** 
  37:..\..\..\..\..\simplelink\source/driver.c **** #include "datatypes.h"
  38:..\..\..\..\..\simplelink\source/driver.c **** #include "simplelink.h"
  39:..\..\..\..\..\simplelink\source/driver.c **** #include "protocol.h"
  40:..\..\..\..\..\simplelink\source/driver.c **** #include "driver.h"
  41:..\..\..\..\..\simplelink\source/driver.c **** #include "flowcont.h"
  42:..\..\..\..\..\simplelink\source/driver.c **** 
  43:..\..\..\..\..\simplelink\source/driver.c **** #define          _SL_PENDING_RX_MSG(pDriverCB)   ((pDriverCB)->RxIrqCnt != (pDriverCB)->RxDoneCnt)
  44:..\..\..\..\..\simplelink\source/driver.c **** _SlReturnVal_t   _SlDrvMsgRead(void);
  45:..\..\..\..\..\simplelink\source/driver.c **** _SlReturnVal_t   _SlDrvMsgWrite(void);
  46:..\..\..\..\..\simplelink\source/driver.c **** _SlReturnVal_t   _SlDrvMsgReadCmdCtx(void);
  47:..\..\..\..\..\simplelink\source/driver.c **** _SlReturnVal_t   _SlDrvMsgReadSpawnCtx(void *pValue);
  48:..\..\..\..\..\simplelink\source/driver.c **** void             _SlDrvClassifyRxMsg(_SlOpcode_t Opcode );
  49:..\..\..\..\..\simplelink\source/driver.c **** _SlReturnVal_t   _SlDrvRxHdrRead(UINT8 *pBuf, UINT8 *pAlignSize);
  50:..\..\..\..\..\simplelink\source/driver.c **** void             _SlDrvShiftDWord(UINT8 *pBuf);
  51:..\..\..\..\..\simplelink\source/driver.c **** void             _SlDrvDriverCBInit(void);
  52:..\..\..\..\..\simplelink\source/driver.c **** void             _SlAsyncEventGenericHandler(void);
  53:..\..\..\..\..\simplelink\source/driver.c **** int				 _SlDrvWaitForPoolObj(UINT32 ActionID, UINT8 SocketID);
  54:..\..\..\..\..\simplelink\source/driver.c **** void			 _SlDrvReleasePoolObj(UINT8 pObj);
  55:..\..\..\..\..\simplelink\source/driver.c **** void			 _SlDrvObjInit(void);
  56:..\..\..\..\..\simplelink\source/driver.c **** void			 _SlDrvObjDeInit(void);
  57:..\..\..\..\..\simplelink\source/driver.c **** void			 _SlRemoveFromList(UINT8* ListIndex, UINT8 ItemIndex);
  58:..\..\..\..\..\simplelink\source/driver.c **** _SlReturnVal_t	 _SlFindAndSetActiveObj(_SlOpcode_t  Opcode, UINT8 Sd);
  59:..\..\..\..\..\simplelink\source/driver.c **** _SlDriverCb_t* g_pCB = NULL;
  60:..\..\..\..\..\simplelink\source/driver.c **** P_SL_DEV_PING_CALLBACK  pPingCallBackFunc = NULL;
  61:..\..\..\..\..\simplelink\source/driver.c **** 
  62:..\..\..\..\..\simplelink\source/driver.c **** const _SlSyncPattern_t g_H2NSyncPattern = H2N_SYNC_PATTERN;
  63:..\..\..\..\..\simplelink\source/driver.c **** const _SlSyncPattern_t g_H2NCnysPattern = H2N_CNYS_PATTERN;
  64:..\..\..\..\..\simplelink\source/driver.c **** const _SlActionLookup_t _SlActionLookupTable[7] = 
  65:..\..\..\..\..\simplelink\source/driver.c **** {
  66:..\..\..\..\..\simplelink\source/driver.c ****     {ACCEPT_ID, SL_OPCODE_SOCKET_ACCEPTASYNCRESPONSE, (_SlSpawnEntryFunc_t)_sl_HandleAsync_Accept},
  67:..\..\..\..\..\simplelink\source/driver.c ****     {CONNECT_ID, SL_OPCODE_SOCKET_CONNECTASYNCRESPONSE,(_SlSpawnEntryFunc_t)_sl_HandleAsync_Connect
  68:..\..\..\..\..\simplelink\source/driver.c **** 	{SELECT_ID, SL_OPCODE_SOCKET_SELECTASYNCRESPONSE,(_SlSpawnEntryFunc_t)_sl_HandleAsync_Select},
  69:..\..\..\..\..\simplelink\source/driver.c **** 	{GETHOSYBYNAME_ID, SL_OPCODE_NETAPP_DNSGETHOSTBYNAMEASYNCRESPONSE,(_SlSpawnEntryFunc_t)_sl_HandleA
  70:..\..\..\..\..\simplelink\source/driver.c **** 	{GETHOSYBYSERVICE_ID, SL_OPCODE_NETAPP_MDNSGETHOSTBYSERVICEASYNCRESPONSE,(_SlSpawnEntryFunc_t)_sl_
  71:..\..\..\..\..\simplelink\source/driver.c ****     {PING_ID, SL_OPCODE_NETAPP_PINGREPORTREQUESTRESPONSE, (_SlSpawnEntryFunc_t)_sl_HandleAsync_Ping
  72:..\..\..\..\..\simplelink\source/driver.c **** 	{START_STOP_ID, SL_OPCODE_DEVICE_STOP_ASYNC_RESPONSE,(_SlSpawnEntryFunc_t)_sl_HandleAsync_Stop}
  73:..\..\..\..\..\simplelink\source/driver.c ****     
  74:..\..\..\..\..\simplelink\source/driver.c **** };
  75:..\..\..\..\..\simplelink\source/driver.c **** 
  76:..\..\..\..\..\simplelink\source/driver.c **** 
  77:..\..\..\..\..\simplelink\source/driver.c **** 
  78:..\..\..\..\..\simplelink\source/driver.c **** /*  2 LSB of the N2H_SYNC_PATTERN are for sequence number 
  79:..\..\..\..\..\simplelink\source/driver.c ****     only in SPI interface
  80:..\..\..\..\..\simplelink\source/driver.c ****     support backward sync pattern */
ARM GAS  C:\Users\X0217454\AppData\Local\Temp\cc7UAvFx.s 			page 4


  81:..\..\..\..\..\simplelink\source/driver.c **** #define N2H_SYNC_PATTERN_SEQ_NUM_BITS            ((UINT32)0x00000003) /* Bits 0..1    - use the 2 L
  82:..\..\..\..\..\simplelink\source/driver.c **** #define N2H_SYNC_PATTERN_SEQ_NUM_EXISTS          ((UINT32)0x00000004) /* Bit  2       - sign that s
  83:..\..\..\..\..\simplelink\source/driver.c **** #define N2H_SYNC_PATTERN_MASK                    ((UINT32)0xFFFFFFF8) /* Bits 3..31   - constant SY
  84:..\..\..\..\..\simplelink\source/driver.c **** #define N2H_SYNC_SPI_BUGS_MASK                   ((UINT32)0x7FFF7F7F) /* Bits 7,15,31 - ignore the 
  85:..\..\..\..\..\simplelink\source/driver.c **** #define BUF_SYNC_SPIM(pBuf)                      ((*(UINT32 *)(pBuf)) & N2H_SYNC_SPI_BUGS_MASK)
  86:..\..\..\..\..\simplelink\source/driver.c **** #define N2H_SYNC_SPIM                            (N2H_SYNC_PATTERN    & N2H_SYNC_SPI_BUGS_MASK)
  87:..\..\..\..\..\simplelink\source/driver.c **** #define N2H_SYNC_SPIM_WITH_SEQ(TxSeqNum)         ((N2H_SYNC_SPIM & N2H_SYNC_PATTERN_MASK) | N2H_SYN
  88:..\..\..\..\..\simplelink\source/driver.c **** #define MATCH_WOUT_SEQ_NUM(pBuf)                 ( BUF_SYNC_SPIM(pBuf) ==  N2H_SYNC_SPIM )
  89:..\..\..\..\..\simplelink\source/driver.c **** #define MATCH_WITH_SEQ_NUM(pBuf, TxSeqNum)       ( BUF_SYNC_SPIM(pBuf) == (N2H_SYNC_SPIM_WITH_SEQ(T
  90:..\..\..\..\..\simplelink\source/driver.c **** #define N2H_SYNC_PATTERN_MATCH(pBuf, TxSeqNum) \
  91:..\..\..\..\..\simplelink\source/driver.c ****             ( \
  92:..\..\..\..\..\simplelink\source/driver.c ****                  (  (*((UINT32 *)pBuf) & N2H_SYNC_PATTERN_SEQ_NUM_EXISTS) && ( MATCH_WITH_SEQ_NUM(p
  93:..\..\..\..\..\simplelink\source/driver.c ****                  ( !(*((UINT32 *)pBuf) & N2H_SYNC_PATTERN_SEQ_NUM_EXISTS) && ( MATCH_WOUT_SEQ_NUM(p
  94:..\..\..\..\..\simplelink\source/driver.c ****             )
  95:..\..\..\..\..\simplelink\source/driver.c **** 
  96:..\..\..\..\..\simplelink\source/driver.c **** #if (SL_MEMORY_MGMT == SL_MEMORY_MGMT_STATIC)
  97:..\..\..\..\..\simplelink\source/driver.c **** typedef struct
  98:..\..\..\..\..\simplelink\source/driver.c **** {
  99:..\..\..\..\..\simplelink\source/driver.c **** 	UINT32 Align;
 100:..\..\..\..\..\simplelink\source/driver.c ****     _SlDriverCb_t DriverCB;
 101:..\..\..\..\..\simplelink\source/driver.c ****     UINT8 AsyncRespBuf[SL_ASYNC_MAX_MSG_LEN];
 102:..\..\..\..\..\simplelink\source/driver.c **** }_SlStatMem_t;
 103:..\..\..\..\..\simplelink\source/driver.c **** 
 104:..\..\..\..\..\simplelink\source/driver.c **** _SlStatMem_t g_StatMem;
 105:..\..\..\..\..\simplelink\source/driver.c **** #endif
 106:..\..\..\..\..\simplelink\source/driver.c **** 
 107:..\..\..\..\..\simplelink\source/driver.c **** /*****************************************************************************
 108:..\..\..\..\..\simplelink\source/driver.c ****  _SlDrvDriverCBInit
 109:..\..\..\..\..\simplelink\source/driver.c **** *****************************************************************************/
 110:..\..\..\..\..\simplelink\source/driver.c **** 
 111:..\..\..\..\..\simplelink\source/driver.c **** void _SlDrvDriverCBInit(void)
 112:..\..\..\..\..\simplelink\source/driver.c **** {
  92              		.loc 1 112 0
  93              		.cfi_startproc
  94 0000 80B5     		push	{r7, lr}
  95              	.LCFI0:
  96              		.cfi_def_cfa_offset 8
  97              		.cfi_offset 7, -8
  98              		.cfi_offset 14, -4
  99 0002 86B0     		sub	sp, sp, #24
 100              	.LCFI1:
 101              		.cfi_def_cfa_offset 32
 102 0004 00AF     		add	r7, sp, #0
 103              	.LCFI2:
 104              		.cfi_def_cfa_register 7
 113:..\..\..\..\..\simplelink\source/driver.c ****     UINT8          Idx;
 114:..\..\..\..\..\simplelink\source/driver.c **** 
 115:..\..\..\..\..\simplelink\source/driver.c **** #if (SL_MEMORY_MGMT == SL_MEMORY_MGMT_STATIC)
 116:..\..\..\..\..\simplelink\source/driver.c ****     g_pCB = &(g_StatMem.DriverCB);
 105              		.loc 1 116 0
 106 0006 3E4B     		ldr	r3, .L14
 107 0008 3E4A     		ldr	r2, .L14+4
 108 000a 1A60     		str	r2, [r3]
 117:..\..\..\..\..\simplelink\source/driver.c **** #else
 118:..\..\..\..\..\simplelink\source/driver.c ****     g_pCB = sl_Malloc(sizeof(_SlDriverCb_t));
 119:..\..\..\..\..\simplelink\source/driver.c **** #endif
 120:..\..\..\..\..\simplelink\source/driver.c ****     MALLOC_OK_CHECK(g_pCB);
ARM GAS  C:\Users\X0217454\AppData\Local\Temp\cc7UAvFx.s 			page 5


 109              		.loc 1 120 0
 110 000c 3C4B     		ldr	r3, .L14
 111 000e 1B68     		ldr	r3, [r3]
 112 0010 002B     		cmp	r3, #0
 113 0012 00D1     		bne	.L2
 114              	.L3:
 115              		.loc 1 120 0 is_stmt 0 discriminator 1
 116 0014 FEE7     		b	.L3
 117              	.L2:
 121:..\..\..\..\..\simplelink\source/driver.c **** 
 122:..\..\..\..\..\simplelink\source/driver.c ****     sl_Memset((g_pCB), 0, sizeof(_SlDriverCb_t));
 118              		.loc 1 122 0 is_stmt 1
 119 0016 3A4B     		ldr	r3, .L14
 120 0018 1B68     		ldr	r3, [r3]
 121 001a 181C     		mov	r0, r3
 122 001c 0021     		mov	r1, #0
 123 001e B822     		mov	r2, #184
 124 0020 FFF7FEFF 		bl	memset
 125              	.LBB2:
 123:..\..\..\..\..\simplelink\source/driver.c **** 
 124:..\..\..\..\..\simplelink\source/driver.c ****     OSI_RET_OK_CHECK( sl_SyncObjCreate(&g_pCB->CmdSyncObj, "CmdSyncObj") );
 126              		.loc 1 124 0
 127 0024 364B     		ldr	r3, .L14
 128 0026 1B68     		ldr	r3, [r3]
 129 0028 9133     		add	r3, r3, #145
 130 002a 181C     		mov	r0, r3
 131 002c 1121     		mov	r1, #17
 132 002e FFF7FEFF 		bl	_SlNonOsSemSet
 133 0032 031C     		mov	r3, r0
 134 0034 3B61     		str	r3, [r7, #16]
 135 0036 3B69     		ldr	r3, [r7, #16]
 136 0038 002B     		cmp	r3, #0
 137 003a 00D0     		beq	.L4
 138              	.L5:
 139              		.loc 1 124 0 is_stmt 0 discriminator 1
 140 003c FEE7     		b	.L5
 141              	.L4:
 142              	.LBE2:
 125:..\..\..\..\..\simplelink\source/driver.c ****     sl_SyncObjClear(&g_pCB->CmdSyncObj);
 143              		.loc 1 125 0 is_stmt 1
 144 003e 304B     		ldr	r3, .L14
 145 0040 1B68     		ldr	r3, [r3]
 146 0042 9133     		add	r3, r3, #145
 147 0044 181C     		mov	r0, r3
 148 0046 2221     		mov	r1, #34
 149 0048 1122     		mov	r2, #17
 150 004a 0123     		mov	r3, #1
 151 004c FFF7FEFF 		bl	_SlNonOsSemGet
 152              	.LBB3:
 126:..\..\..\..\..\simplelink\source/driver.c ****     
 127:..\..\..\..\..\simplelink\source/driver.c ****     OSI_RET_OK_CHECK( sl_LockObjCreate(&g_pCB->GlobalLockObj, "GlobalLockObj") );
 153              		.loc 1 127 0
 154 0050 2B4B     		ldr	r3, .L14
 155 0052 1B68     		ldr	r3, [r3]
 156 0054 0433     		add	r3, r3, #4
 157 0056 181C     		mov	r0, r3
 158 0058 3321     		mov	r1, #51
ARM GAS  C:\Users\X0217454\AppData\Local\Temp\cc7UAvFx.s 			page 6


 159 005a FFF7FEFF 		bl	_SlNonOsSemSet
 160 005e 031C     		mov	r3, r0
 161 0060 FB60     		str	r3, [r7, #12]
 162 0062 FB68     		ldr	r3, [r7, #12]
 163 0064 002B     		cmp	r3, #0
 164 0066 00D0     		beq	.L6
 165              	.L7:
 166              		.loc 1 127 0 is_stmt 0 discriminator 1
 167 0068 FEE7     		b	.L7
 168              	.L6:
 169              	.LBE3:
 170              	.LBB4:
 128:..\..\..\..\..\simplelink\source/driver.c **** 
 129:..\..\..\..\..\simplelink\source/driver.c **** 	OSI_RET_OK_CHECK( sl_LockObjCreate(&g_pCB->ProtectionLockObj, "ProtectionLockObj") );
 171              		.loc 1 129 0 is_stmt 1
 172 006a 254B     		ldr	r3, .L14
 173 006c 1B68     		ldr	r3, [r3]
 174 006e 9033     		add	r3, r3, #144
 175 0070 181C     		mov	r0, r3
 176 0072 3321     		mov	r1, #51
 177 0074 FFF7FEFF 		bl	_SlNonOsSemSet
 178 0078 031C     		mov	r3, r0
 179 007a BB60     		str	r3, [r7, #8]
 180 007c BB68     		ldr	r3, [r7, #8]
 181 007e 002B     		cmp	r3, #0
 182 0080 00D0     		beq	.L8
 183              	.L9:
 184              		.loc 1 129 0 is_stmt 0 discriminator 1
 185 0082 FEE7     		b	.L9
 186              	.L8:
 187              	.LBE4:
 130:..\..\..\..\..\simplelink\source/driver.c **** 	
 131:..\..\..\..\..\simplelink\source/driver.c **** 	_SlDrvObjInit();
 188              		.loc 1 131 0 is_stmt 1
 189 0084 FFF7FEFF 		bl	_SlDrvObjInit
 132:..\..\..\..\..\simplelink\source/driver.c **** 
 133:..\..\..\..\..\simplelink\source/driver.c ****     for (Idx = 0; Idx < MAX_CONCURRENT_ACTIONS; Idx++)
 190              		.loc 1 133 0
 191 0088 3B1C     		mov	r3, r7
 192 008a 1733     		add	r3, r3, #23
 193 008c 0022     		mov	r2, #0
 194 008e 1A70     		strb	r2, [r3]
 195 0090 2CE0     		b	.L10
 196              	.L13:
 197              	.LBB5:
 134:..\..\..\..\..\simplelink\source/driver.c ****     {
 135:..\..\..\..\..\simplelink\source/driver.c **** 		OSI_RET_OK_CHECK( sl_SyncObjCreate(&g_pCB->ObjPool[Idx].SyncObj, "SyncObj") );  
 198              		.loc 1 135 0
 199 0092 1B4B     		ldr	r3, .L14
 200 0094 1968     		ldr	r1, [r3]
 201 0096 3B1C     		mov	r3, r7
 202 0098 1733     		add	r3, r3, #23
 203 009a 1A78     		ldrb	r2, [r3]
 204 009c 131C     		mov	r3, r2
 205 009e 5B00     		lsl	r3, r3, #1
 206 00a0 9B18     		add	r3, r3, r2
 207 00a2 9B00     		lsl	r3, r3, #2
ARM GAS  C:\Users\X0217454\AppData\Local\Temp\cc7UAvFx.s 			page 7


 208 00a4 1033     		add	r3, r3, #16
 209 00a6 CB18     		add	r3, r1, r3
 210 00a8 181C     		mov	r0, r3
 211 00aa 1121     		mov	r1, #17
 212 00ac FFF7FEFF 		bl	_SlNonOsSemSet
 213 00b0 031C     		mov	r3, r0
 214 00b2 7B60     		str	r3, [r7, #4]
 215 00b4 7B68     		ldr	r3, [r7, #4]
 216 00b6 002B     		cmp	r3, #0
 217 00b8 00D0     		beq	.L11
 218              	.L12:
 219              		.loc 1 135 0 is_stmt 0 discriminator 1
 220 00ba FEE7     		b	.L12
 221              	.L11:
 222              	.LBE5:
 136:..\..\..\..\..\simplelink\source/driver.c ****         sl_SyncObjClear(&g_pCB->ObjPool[Idx].SyncObj);     
 223              		.loc 1 136 0 is_stmt 1
 224 00bc 104B     		ldr	r3, .L14
 225 00be 1968     		ldr	r1, [r3]
 226 00c0 3B1C     		mov	r3, r7
 227 00c2 1733     		add	r3, r3, #23
 228 00c4 1A78     		ldrb	r2, [r3]
 229 00c6 131C     		mov	r3, r2
 230 00c8 5B00     		lsl	r3, r3, #1
 231 00ca 9B18     		add	r3, r3, r2
 232 00cc 9B00     		lsl	r3, r3, #2
 233 00ce 1033     		add	r3, r3, #16
 234 00d0 CB18     		add	r3, r1, r3
 235 00d2 181C     		mov	r0, r3
 236 00d4 2221     		mov	r1, #34
 237 00d6 1122     		mov	r2, #17
 238 00d8 0123     		mov	r3, #1
 239 00da FFF7FEFF 		bl	_SlNonOsSemGet
 133:..\..\..\..\..\simplelink\source/driver.c ****     for (Idx = 0; Idx < MAX_CONCURRENT_ACTIONS; Idx++)
 240              		.loc 1 133 0
 241 00de 3B1C     		mov	r3, r7
 242 00e0 1733     		add	r3, r3, #23
 243 00e2 3A1C     		mov	r2, r7
 244 00e4 1732     		add	r2, r2, #23
 245 00e6 1278     		ldrb	r2, [r2]
 246 00e8 0132     		add	r2, r2, #1
 247 00ea 1A70     		strb	r2, [r3]
 248              	.L10:
 133:..\..\..\..\..\simplelink\source/driver.c ****     for (Idx = 0; Idx < MAX_CONCURRENT_ACTIONS; Idx++)
 249              		.loc 1 133 0 is_stmt 0 discriminator 1
 250 00ec 3B1C     		mov	r3, r7
 251 00ee 1733     		add	r3, r3, #23
 252 00f0 1B78     		ldrb	r3, [r3]
 253 00f2 092B     		cmp	r3, #9
 254 00f4 CDD9     		bls	.L13
 137:..\..\..\..\..\simplelink\source/driver.c ****     }
 138:..\..\..\..\..\simplelink\source/driver.c ****     _SlDrvFlowContInit();
 255              		.loc 1 138 0 is_stmt 1
 256 00f6 FFF7FEFF 		bl	_SlDrvFlowContInit
 139:..\..\..\..\..\simplelink\source/driver.c **** }
 257              		.loc 1 139 0
 258 00fa BD46     		mov	sp, r7
ARM GAS  C:\Users\X0217454\AppData\Local\Temp\cc7UAvFx.s 			page 8


 259 00fc 06B0     		add	sp, sp, #24
 260              		@ sp needed for prologue
 261 00fe 80BD     		pop	{r7, pc}
 262              	.L15:
 263              		.align	2
 264              	.L14:
 265 0100 00000000 		.word	g_pCB
 266 0104 04000000 		.word	g_StatMem+4
 267              		.cfi_endproc
 268              	.LFE0:
 269              		.size	_SlDrvDriverCBInit, .-_SlDrvDriverCBInit
 270              		.section	.text._SlDrvDriverCBDeinit,"ax",%progbits
 271              		.align	2
 272              		.global	_SlDrvDriverCBDeinit
 273              		.code	16
 274              		.thumb_func
 275              		.type	_SlDrvDriverCBDeinit, %function
 276              	_SlDrvDriverCBDeinit:
 277              	.LFB1:
 140:..\..\..\..\..\simplelink\source/driver.c **** 
 141:..\..\..\..\..\simplelink\source/driver.c **** /*****************************************************************************
 142:..\..\..\..\..\simplelink\source/driver.c ****  _SlDrvDriverCBDeinit
 143:..\..\..\..\..\simplelink\source/driver.c **** *****************************************************************************/
 144:..\..\..\..\..\simplelink\source/driver.c **** void _SlDrvDriverCBDeinit()
 145:..\..\..\..\..\simplelink\source/driver.c **** {
 278              		.loc 1 145 0
 279              		.cfi_startproc
 280 0000 80B5     		push	{r7, lr}
 281              	.LCFI3:
 282              		.cfi_def_cfa_offset 8
 283              		.cfi_offset 7, -8
 284              		.cfi_offset 14, -4
 285 0002 86B0     		sub	sp, sp, #24
 286              	.LCFI4:
 287              		.cfi_def_cfa_offset 32
 288 0004 00AF     		add	r7, sp, #0
 289              	.LCFI5:
 290              		.cfi_def_cfa_register 7
 146:..\..\..\..\..\simplelink\source/driver.c **** 	UINT8        Idx;
 147:..\..\..\..\..\simplelink\source/driver.c **** 
 148:..\..\..\..\..\simplelink\source/driver.c ****     _SlDrvFlowContDeinit();
 291              		.loc 1 148 0
 292 0006 FFF7FEFF 		bl	_SlDrvFlowContDeinit
 293              	.LBB6:
 149:..\..\..\..\..\simplelink\source/driver.c **** 
 150:..\..\..\..\..\simplelink\source/driver.c ****     OSI_RET_OK_CHECK( sl_SyncObjDelete(&g_pCB->CmdSyncObj) );
 294              		.loc 1 150 0
 295 000a 2C4B     		ldr	r3, .L27
 296 000c 1B68     		ldr	r3, [r3]
 297 000e 9133     		add	r3, r3, #145
 298 0010 181C     		mov	r0, r3
 299 0012 0021     		mov	r1, #0
 300 0014 FFF7FEFF 		bl	_SlNonOsSemSet
 301 0018 031C     		mov	r3, r0
 302 001a 3B61     		str	r3, [r7, #16]
 303 001c 3B69     		ldr	r3, [r7, #16]
 304 001e 002B     		cmp	r3, #0
ARM GAS  C:\Users\X0217454\AppData\Local\Temp\cc7UAvFx.s 			page 9


 305 0020 00D0     		beq	.L17
 306              	.L18:
 307              		.loc 1 150 0 is_stmt 0 discriminator 1
 308 0022 FEE7     		b	.L18
 309              	.L17:
 310              	.LBE6:
 311              	.LBB7:
 151:..\..\..\..\..\simplelink\source/driver.c **** 
 152:..\..\..\..\..\simplelink\source/driver.c ****     OSI_RET_OK_CHECK( sl_LockObjDelete(&g_pCB->GlobalLockObj) );
 312              		.loc 1 152 0 is_stmt 1
 313 0024 254B     		ldr	r3, .L27
 314 0026 1B68     		ldr	r3, [r3]
 315 0028 0433     		add	r3, r3, #4
 316 002a 181C     		mov	r0, r3
 317 002c 0021     		mov	r1, #0
 318 002e FFF7FEFF 		bl	_SlNonOsSemSet
 319 0032 031C     		mov	r3, r0
 320 0034 FB60     		str	r3, [r7, #12]
 321 0036 FB68     		ldr	r3, [r7, #12]
 322 0038 002B     		cmp	r3, #0
 323 003a 00D0     		beq	.L19
 324              	.L20:
 325              		.loc 1 152 0 is_stmt 0 discriminator 1
 326 003c FEE7     		b	.L20
 327              	.L19:
 328              	.LBE7:
 329              	.LBB8:
 153:..\..\..\..\..\simplelink\source/driver.c **** 
 154:..\..\..\..\..\simplelink\source/driver.c **** 	OSI_RET_OK_CHECK( sl_LockObjDelete(&g_pCB->ProtectionLockObj) );
 330              		.loc 1 154 0 is_stmt 1
 331 003e 1F4B     		ldr	r3, .L27
 332 0040 1B68     		ldr	r3, [r3]
 333 0042 9033     		add	r3, r3, #144
 334 0044 181C     		mov	r0, r3
 335 0046 0021     		mov	r1, #0
 336 0048 FFF7FEFF 		bl	_SlNonOsSemSet
 337 004c 031C     		mov	r3, r0
 338 004e BB60     		str	r3, [r7, #8]
 339 0050 BB68     		ldr	r3, [r7, #8]
 340 0052 002B     		cmp	r3, #0
 341 0054 00D0     		beq	.L21
 342              	.L22:
 343              		.loc 1 154 0 is_stmt 0 discriminator 1
 344 0056 FEE7     		b	.L22
 345              	.L21:
 346              	.LBE8:
 155:..\..\..\..\..\simplelink\source/driver.c ****     for (Idx = 0; Idx < MAX_CONCURRENT_ACTIONS; Idx++)
 347              		.loc 1 155 0 is_stmt 1
 348 0058 3B1C     		mov	r3, r7
 349 005a 1733     		add	r3, r3, #23
 350 005c 0022     		mov	r2, #0
 351 005e 1A70     		strb	r2, [r3]
 352 0060 1BE0     		b	.L23
 353              	.L26:
 354              	.LBB9:
 156:..\..\..\..\..\simplelink\source/driver.c ****     {
 157:..\..\..\..\..\simplelink\source/driver.c **** 		OSI_RET_OK_CHECK( sl_SyncObjDelete(&g_pCB->ObjPool[Idx].SyncObj) );   
ARM GAS  C:\Users\X0217454\AppData\Local\Temp\cc7UAvFx.s 			page 10


 355              		.loc 1 157 0
 356 0062 164B     		ldr	r3, .L27
 357 0064 1968     		ldr	r1, [r3]
 358 0066 3B1C     		mov	r3, r7
 359 0068 1733     		add	r3, r3, #23
 360 006a 1A78     		ldrb	r2, [r3]
 361 006c 131C     		mov	r3, r2
 362 006e 5B00     		lsl	r3, r3, #1
 363 0070 9B18     		add	r3, r3, r2
 364 0072 9B00     		lsl	r3, r3, #2
 365 0074 1033     		add	r3, r3, #16
 366 0076 CB18     		add	r3, r1, r3
 367 0078 181C     		mov	r0, r3
 368 007a 0021     		mov	r1, #0
 369 007c FFF7FEFF 		bl	_SlNonOsSemSet
 370 0080 031C     		mov	r3, r0
 371 0082 7B60     		str	r3, [r7, #4]
 372 0084 7B68     		ldr	r3, [r7, #4]
 373 0086 002B     		cmp	r3, #0
 374 0088 00D0     		beq	.L24
 375              	.L25:
 376              		.loc 1 157 0 is_stmt 0 discriminator 1
 377 008a FEE7     		b	.L25
 378              	.L24:
 379              	.LBE9:
 155:..\..\..\..\..\simplelink\source/driver.c ****     for (Idx = 0; Idx < MAX_CONCURRENT_ACTIONS; Idx++)
 380              		.loc 1 155 0 is_stmt 1
 381 008c 3B1C     		mov	r3, r7
 382 008e 1733     		add	r3, r3, #23
 383 0090 3A1C     		mov	r2, r7
 384 0092 1732     		add	r2, r2, #23
 385 0094 1278     		ldrb	r2, [r2]
 386 0096 0132     		add	r2, r2, #1
 387 0098 1A70     		strb	r2, [r3]
 388              	.L23:
 155:..\..\..\..\..\simplelink\source/driver.c ****     for (Idx = 0; Idx < MAX_CONCURRENT_ACTIONS; Idx++)
 389              		.loc 1 155 0 is_stmt 0 discriminator 1
 390 009a 3B1C     		mov	r3, r7
 391 009c 1733     		add	r3, r3, #23
 392 009e 1B78     		ldrb	r3, [r3]
 393 00a0 092B     		cmp	r3, #9
 394 00a2 DED9     		bls	.L26
 158:..\..\..\..\..\simplelink\source/driver.c ****     }
 159:..\..\..\..\..\simplelink\source/driver.c **** 
 160:..\..\..\..\..\simplelink\source/driver.c **** 	_SlDrvObjDeInit();
 395              		.loc 1 160 0 is_stmt 1
 396 00a4 FFF7FEFF 		bl	_SlDrvObjDeInit
 161:..\..\..\..\..\simplelink\source/driver.c **** 
 162:..\..\..\..\..\simplelink\source/driver.c **** #if (SL_MEMORY_MGMT == SL_MEMORY_MGMT_STATIC)
 163:..\..\..\..\..\simplelink\source/driver.c ****     g_pCB = NULL;
 397              		.loc 1 163 0
 398 00a8 044B     		ldr	r3, .L27
 399 00aa 0022     		mov	r2, #0
 400 00ac 1A60     		str	r2, [r3]
 164:..\..\..\..\..\simplelink\source/driver.c **** #else
 165:..\..\..\..\..\simplelink\source/driver.c ****     sl_Free(g_pCB);
 166:..\..\..\..\..\simplelink\source/driver.c **** #endif
ARM GAS  C:\Users\X0217454\AppData\Local\Temp\cc7UAvFx.s 			page 11


 167:..\..\..\..\..\simplelink\source/driver.c ****     
 168:..\..\..\..\..\simplelink\source/driver.c ****     g_pCB = NULL;
 401              		.loc 1 168 0
 402 00ae 034B     		ldr	r3, .L27
 403 00b0 0022     		mov	r2, #0
 404 00b2 1A60     		str	r2, [r3]
 169:..\..\..\..\..\simplelink\source/driver.c **** }
 405              		.loc 1 169 0
 406 00b4 BD46     		mov	sp, r7
 407 00b6 06B0     		add	sp, sp, #24
 408              		@ sp needed for prologue
 409 00b8 80BD     		pop	{r7, pc}
 410              	.L28:
 411 00ba C046     		.align	2
 412              	.L27:
 413 00bc 00000000 		.word	g_pCB
 414              		.cfi_endproc
 415              	.LFE1:
 416              		.size	_SlDrvDriverCBDeinit, .-_SlDrvDriverCBDeinit
 417              		.section	.text._SlDrvRxIrqHandler,"ax",%progbits
 418              		.align	2
 419              		.global	_SlDrvRxIrqHandler
 420              		.code	16
 421              		.thumb_func
 422              		.type	_SlDrvRxIrqHandler, %function
 423              	_SlDrvRxIrqHandler:
 424              	.LFB2:
 170:..\..\..\..\..\simplelink\source/driver.c **** 
 171:..\..\..\..\..\simplelink\source/driver.c **** /*****************************************************************************
 172:..\..\..\..\..\simplelink\source/driver.c ****  _SlDrvRxIrqHandler
 173:..\..\..\..\..\simplelink\source/driver.c **** *****************************************************************************/
 174:..\..\..\..\..\simplelink\source/driver.c **** void _SlDrvRxIrqHandler(void *pValue)
 175:..\..\..\..\..\simplelink\source/driver.c **** {
 425              		.loc 1 175 0
 426              		.cfi_startproc
 427 0000 80B5     		push	{r7, lr}
 428              	.LCFI6:
 429              		.cfi_def_cfa_offset 8
 430              		.cfi_offset 7, -8
 431              		.cfi_offset 14, -4
 432 0002 84B0     		sub	sp, sp, #16
 433              	.LCFI7:
 434              		.cfi_def_cfa_offset 24
 435 0004 00AF     		add	r7, sp, #0
 436              	.LCFI8:
 437              		.cfi_def_cfa_register 7
 438 0006 7860     		str	r0, [r7, #4]
 176:..\..\..\..\..\simplelink\source/driver.c ****     sl_IfMaskIntHdlr();
 439              		.loc 1 176 0
 440 0008 FFF7FEFF 		bl	MaskIntHdlr
 177:..\..\..\..\..\simplelink\source/driver.c ****     g_pCB->RxIrqCnt++;
 441              		.loc 1 177 0
 442 000c 114B     		ldr	r3, .L33
 443 000e 1B68     		ldr	r3, [r3]
 444 0010 9722     		mov	r2, #151
 445 0012 9A5C     		ldrb	r2, [r3, r2]
 446 0014 0132     		add	r2, r2, #1
ARM GAS  C:\Users\X0217454\AppData\Local\Temp\cc7UAvFx.s 			page 12


 447 0016 D1B2     		uxtb	r1, r2
 448 0018 9722     		mov	r2, #151
 449 001a 9954     		strb	r1, [r3, r2]
 178:..\..\..\..\..\simplelink\source/driver.c **** 
 179:..\..\..\..\..\simplelink\source/driver.c ****     if (TRUE == g_pCB->IsCmdRespWaited)
 450              		.loc 1 179 0
 451 001c 0D4B     		ldr	r3, .L33
 452 001e 1A68     		ldr	r2, [r3]
 453 0020 9223     		mov	r3, #146
 454 0022 D35C     		ldrb	r3, [r2, r3]
 455 0024 012B     		cmp	r3, #1
 456 0026 0CD1     		bne	.L30
 457              	.LBB10:
 180:..\..\..\..\..\simplelink\source/driver.c ****     {
 181:..\..\..\..\..\simplelink\source/driver.c ****         OSI_RET_OK_CHECK( sl_SyncObjSignalFromIRQ(&g_pCB->CmdSyncObj) );
 458              		.loc 1 181 0
 459 0028 0A4B     		ldr	r3, .L33
 460 002a 1B68     		ldr	r3, [r3]
 461 002c 9133     		add	r3, r3, #145
 462 002e 181C     		mov	r0, r3
 463 0030 2221     		mov	r1, #34
 464 0032 FFF7FEFF 		bl	_SlNonOsSemSet
 465 0036 031C     		mov	r3, r0
 466 0038 FB60     		str	r3, [r7, #12]
 467 003a FB68     		ldr	r3, [r7, #12]
 468 003c 002B     		cmp	r3, #0
 469 003e 06D0     		beq	.L29
 470              	.L32:
 471              		.loc 1 181 0 is_stmt 0 discriminator 1
 472 0040 FEE7     		b	.L32
 473              	.L30:
 474              	.LBE10:
 182:..\..\..\..\..\simplelink\source/driver.c ****     }
 183:..\..\..\..\..\simplelink\source/driver.c ****     else
 184:..\..\..\..\..\simplelink\source/driver.c ****     {
 185:..\..\..\..\..\simplelink\source/driver.c ****         sl_Spawn((_SlSpawnEntryFunc_t)_SlDrvMsgReadSpawnCtx, NULL, 0);
 475              		.loc 1 185 0 is_stmt 1
 476 0042 054B     		ldr	r3, .L33+4
 477 0044 181C     		mov	r0, r3
 478 0046 0021     		mov	r1, #0
 479 0048 0022     		mov	r2, #0
 480 004a FFF7FEFF 		bl	_SlNonOsSpawn
 481              	.L29:
 186:..\..\..\..\..\simplelink\source/driver.c ****     }
 187:..\..\..\..\..\simplelink\source/driver.c **** }
 482              		.loc 1 187 0
 483 004e BD46     		mov	sp, r7
 484 0050 04B0     		add	sp, sp, #16
 485              		@ sp needed for prologue
 486 0052 80BD     		pop	{r7, pc}
 487              	.L34:
 488              		.align	2
 489              	.L33:
 490 0054 00000000 		.word	g_pCB
 491 0058 00000000 		.word	_SlDrvMsgReadSpawnCtx
 492              		.cfi_endproc
 493              	.LFE2:
ARM GAS  C:\Users\X0217454\AppData\Local\Temp\cc7UAvFx.s 			page 13


 494              		.size	_SlDrvRxIrqHandler, .-_SlDrvRxIrqHandler
 495              		.section	.text._SlDrvCmdOp,"ax",%progbits
 496              		.align	2
 497              		.global	_SlDrvCmdOp
 498              		.code	16
 499              		.thumb_func
 500              		.type	_SlDrvCmdOp, %function
 501              	_SlDrvCmdOp:
 502              	.LFB3:
 188:..\..\..\..\..\simplelink\source/driver.c **** 
 189:..\..\..\..\..\simplelink\source/driver.c **** /*****************************************************************************
 190:..\..\..\..\..\simplelink\source/driver.c ****   _SlDrvCmdOp
 191:..\..\..\..\..\simplelink\source/driver.c **** *****************************************************************************/
 192:..\..\..\..\..\simplelink\source/driver.c **** _SlReturnVal_t _SlDrvCmdOp(
 193:..\..\..\..\..\simplelink\source/driver.c ****     _SlCmdCtrl_t  *pCmdCtrl ,
 194:..\..\..\..\..\simplelink\source/driver.c ****     void          *pTxRxDescBuff ,
 195:..\..\..\..\..\simplelink\source/driver.c ****     _SlCmdExt_t   *pCmdExt)
 196:..\..\..\..\..\simplelink\source/driver.c **** {
 503              		.loc 1 196 0
 504              		.cfi_startproc
 505 0000 80B5     		push	{r7, lr}
 506              	.LCFI9:
 507              		.cfi_def_cfa_offset 8
 508              		.cfi_offset 7, -8
 509              		.cfi_offset 14, -4
 510 0002 88B0     		sub	sp, sp, #32
 511              	.LCFI10:
 512              		.cfi_def_cfa_offset 40
 513 0004 00AF     		add	r7, sp, #0
 514              	.LCFI11:
 515              		.cfi_def_cfa_register 7
 516 0006 F860     		str	r0, [r7, #12]
 517 0008 B960     		str	r1, [r7, #8]
 518 000a 7A60     		str	r2, [r7, #4]
 519              	.LBB11:
 197:..\..\..\..\..\simplelink\source/driver.c ****     _SlReturnVal_t RetVal;
 198:..\..\..\..\..\simplelink\source/driver.c ****     
 199:..\..\..\..\..\simplelink\source/driver.c ****     OSI_RET_OK_CHECK(sl_LockObjLock(&g_pCB->GlobalLockObj, SL_OS_WAIT_FOREVER));
 520              		.loc 1 199 0
 521 000c 204B     		ldr	r3, .L42
 522 000e 1B68     		ldr	r3, [r3]
 523 0010 0433     		add	r3, r3, #4
 524 0012 181C     		mov	r0, r3
 525 0014 3321     		mov	r1, #51
 526 0016 4422     		mov	r2, #68
 527 0018 FF23     		mov	r3, #255
 528 001a FFF7FEFF 		bl	_SlNonOsSemGet
 529 001e 031C     		mov	r3, r0
 530 0020 BB61     		str	r3, [r7, #24]
 531 0022 BB69     		ldr	r3, [r7, #24]
 532 0024 002B     		cmp	r3, #0
 533 0026 00D0     		beq	.L36
 534              	.L37:
 535              		.loc 1 199 0 is_stmt 0 discriminator 1
 536 0028 FEE7     		b	.L37
 537              	.L36:
 538              	.LBE11:
ARM GAS  C:\Users\X0217454\AppData\Local\Temp\cc7UAvFx.s 			page 14


 200:..\..\..\..\..\simplelink\source/driver.c ****     g_pCB->IsCmdRespWaited = TRUE;
 539              		.loc 1 200 0 is_stmt 1
 540 002a 194B     		ldr	r3, .L42
 541 002c 1A68     		ldr	r2, [r3]
 542 002e 9223     		mov	r3, #146
 543 0030 0121     		mov	r1, #1
 544 0032 D154     		strb	r1, [r2, r3]
 201:..\..\..\..\..\simplelink\source/driver.c ****   
 202:..\..\..\..\..\simplelink\source/driver.c ****     SL_TRACE0(DBG_MSG, MSG_312, "_SlDrvCmdOp: call _SlDrvMsgWrite");
 203:..\..\..\..\..\simplelink\source/driver.c ****     /* send the message */
 204:..\..\..\..\..\simplelink\source/driver.c ****     g_pCB->FunctionParams.pCmdCtrl = pCmdCtrl;
 545              		.loc 1 204 0
 546 0034 164B     		ldr	r3, .L42
 547 0036 1A68     		ldr	r2, [r3]
 548 0038 9C23     		mov	r3, #156
 549 003a F968     		ldr	r1, [r7, #12]
 550 003c D150     		str	r1, [r2, r3]
 205:..\..\..\..\..\simplelink\source/driver.c ****     g_pCB->FunctionParams.pTxRxDescBuff = pTxRxDescBuff;
 551              		.loc 1 205 0
 552 003e 144B     		ldr	r3, .L42
 553 0040 1A68     		ldr	r2, [r3]
 554 0042 A023     		mov	r3, #160
 555 0044 B968     		ldr	r1, [r7, #8]
 556 0046 D150     		str	r1, [r2, r3]
 206:..\..\..\..\..\simplelink\source/driver.c ****     g_pCB->FunctionParams.pCmdExt = pCmdExt;
 557              		.loc 1 206 0
 558 0048 114B     		ldr	r3, .L42
 559 004a 1A68     		ldr	r2, [r3]
 560 004c A423     		mov	r3, #164
 561 004e 7968     		ldr	r1, [r7, #4]
 562 0050 D150     		str	r1, [r2, r3]
 207:..\..\..\..\..\simplelink\source/driver.c **** 
 208:..\..\..\..\..\simplelink\source/driver.c ****     RetVal = _SlDrvMsgWrite();
 563              		.loc 1 208 0
 564 0052 FFF7FEFF 		bl	_SlDrvMsgWrite
 565 0056 031C     		mov	r3, r0
 566 0058 FB61     		str	r3, [r7, #28]
 209:..\..\..\..\..\simplelink\source/driver.c **** 
 210:..\..\..\..\..\simplelink\source/driver.c ****     if(SL_OS_RET_CODE_OK == RetVal)
 567              		.loc 1 210 0
 568 005a FB69     		ldr	r3, [r7, #28]
 569 005c 002B     		cmp	r3, #0
 570 005e 04D1     		bne	.L38
 211:..\..\..\..\..\simplelink\source/driver.c ****     {
 212:..\..\..\..\..\simplelink\source/driver.c ****         /* wait for respond */
 213:..\..\..\..\..\simplelink\source/driver.c ****         RetVal = _SlDrvMsgReadCmdCtx(); /* will free global lock */
 571              		.loc 1 213 0
 572 0060 FFF7FEFF 		bl	_SlDrvMsgReadCmdCtx
 573 0064 031C     		mov	r3, r0
 574 0066 FB61     		str	r3, [r7, #28]
 575 0068 0CE0     		b	.L39
 576              	.L38:
 577              	.LBB12:
 214:..\..\..\..\..\simplelink\source/driver.c ****         SL_TRACE0(DBG_MSG, MSG_314, "_SlDrvCmdOp: exited _SlDrvMsgReadCmdCtx");
 215:..\..\..\..\..\simplelink\source/driver.c ****         
 216:..\..\..\..\..\simplelink\source/driver.c ****     }
 217:..\..\..\..\..\simplelink\source/driver.c ****     else
ARM GAS  C:\Users\X0217454\AppData\Local\Temp\cc7UAvFx.s 			page 15


 218:..\..\..\..\..\simplelink\source/driver.c ****     {
 219:..\..\..\..\..\simplelink\source/driver.c ****         OSI_RET_OK_CHECK(sl_LockObjUnlock(&g_pCB->GlobalLockObj));
 578              		.loc 1 219 0
 579 006a 094B     		ldr	r3, .L42
 580 006c 1B68     		ldr	r3, [r3]
 581 006e 0433     		add	r3, r3, #4
 582 0070 181C     		mov	r0, r3
 583 0072 3321     		mov	r1, #51
 584 0074 FFF7FEFF 		bl	_SlNonOsSemSet
 585 0078 031C     		mov	r3, r0
 586 007a 7B61     		str	r3, [r7, #20]
 587 007c 7B69     		ldr	r3, [r7, #20]
 588 007e 002B     		cmp	r3, #0
 589 0080 00D0     		beq	.L39
 590              	.L40:
 591              		.loc 1 219 0 is_stmt 0 discriminator 1
 592 0082 FEE7     		b	.L40
 593              	.L39:
 594              	.LBE12:
 220:..\..\..\..\..\simplelink\source/driver.c ****     }
 221:..\..\..\..\..\simplelink\source/driver.c ****     
 222:..\..\..\..\..\simplelink\source/driver.c ****     return RetVal;
 595              		.loc 1 222 0 is_stmt 1
 596 0084 FB69     		ldr	r3, [r7, #28]
 223:..\..\..\..\..\simplelink\source/driver.c **** }
 597              		.loc 1 223 0
 598 0086 181C     		mov	r0, r3
 599 0088 BD46     		mov	sp, r7
 600 008a 08B0     		add	sp, sp, #32
 601              		@ sp needed for prologue
 602 008c 80BD     		pop	{r7, pc}
 603              	.L43:
 604 008e C046     		.align	2
 605              	.L42:
 606 0090 00000000 		.word	g_pCB
 607              		.cfi_endproc
 608              	.LFE3:
 609              		.size	_SlDrvCmdOp, .-_SlDrvCmdOp
 610              		.section	.text._SlDrvCmdSend,"ax",%progbits
 611              		.align	2
 612              		.global	_SlDrvCmdSend
 613              		.code	16
 614              		.thumb_func
 615              		.type	_SlDrvCmdSend, %function
 616              	_SlDrvCmdSend:
 617              	.LFB4:
 224:..\..\..\..\..\simplelink\source/driver.c **** 
 225:..\..\..\..\..\simplelink\source/driver.c **** /*****************************************************************************
 226:..\..\..\..\..\simplelink\source/driver.c ****   _SlDrvCmdSend 
 227:..\..\..\..\..\simplelink\source/driver.c ****   Send SL command without waiting for command response - This function is unprotected and the calle
 228:..\..\..\..\..\simplelink\source/driver.c **** *****************************************************************************/
 229:..\..\..\..\..\simplelink\source/driver.c **** _SlReturnVal_t _SlDrvCmdSend(
 230:..\..\..\..\..\simplelink\source/driver.c ****     _SlCmdCtrl_t  *pCmdCtrl ,
 231:..\..\..\..\..\simplelink\source/driver.c ****     void          *pTxRxDescBuff ,
 232:..\..\..\..\..\simplelink\source/driver.c ****     _SlCmdExt_t   *pCmdExt)
 233:..\..\..\..\..\simplelink\source/driver.c **** {
 618              		.loc 1 233 0
ARM GAS  C:\Users\X0217454\AppData\Local\Temp\cc7UAvFx.s 			page 16


 619              		.cfi_startproc
 620 0000 80B5     		push	{r7, lr}
 621              	.LCFI12:
 622              		.cfi_def_cfa_offset 8
 623              		.cfi_offset 7, -8
 624              		.cfi_offset 14, -4
 625 0002 86B0     		sub	sp, sp, #24
 626              	.LCFI13:
 627              		.cfi_def_cfa_offset 32
 628 0004 00AF     		add	r7, sp, #0
 629              	.LCFI14:
 630              		.cfi_def_cfa_register 7
 631 0006 F860     		str	r0, [r7, #12]
 632 0008 B960     		str	r1, [r7, #8]
 633 000a 7A60     		str	r2, [r7, #4]
 234:..\..\..\..\..\simplelink\source/driver.c ****     _SlReturnVal_t RetVal;
 235:..\..\..\..\..\simplelink\source/driver.c **** 
 236:..\..\..\..\..\simplelink\source/driver.c ****     g_pCB->IsCmdRespWaited = FALSE;
 634              		.loc 1 236 0
 635 000c 0E4B     		ldr	r3, .L46
 636 000e 1A68     		ldr	r2, [r3]
 637 0010 9223     		mov	r3, #146
 638 0012 0021     		mov	r1, #0
 639 0014 D154     		strb	r1, [r2, r3]
 237:..\..\..\..\..\simplelink\source/driver.c ****   
 238:..\..\..\..\..\simplelink\source/driver.c ****     SL_TRACE0(DBG_MSG, MSG_312, "_SlDrvCmdSend: call _SlDrvMsgWrite");
 239:..\..\..\..\..\simplelink\source/driver.c ****     /*  send the message */
 240:..\..\..\..\..\simplelink\source/driver.c ****     g_pCB->FunctionParams.pCmdCtrl = pCmdCtrl;
 640              		.loc 1 240 0
 641 0016 0C4B     		ldr	r3, .L46
 642 0018 1A68     		ldr	r2, [r3]
 643 001a 9C23     		mov	r3, #156
 644 001c F968     		ldr	r1, [r7, #12]
 645 001e D150     		str	r1, [r2, r3]
 241:..\..\..\..\..\simplelink\source/driver.c ****     g_pCB->FunctionParams.pTxRxDescBuff = pTxRxDescBuff;
 646              		.loc 1 241 0
 647 0020 094B     		ldr	r3, .L46
 648 0022 1A68     		ldr	r2, [r3]
 649 0024 A023     		mov	r3, #160
 650 0026 B968     		ldr	r1, [r7, #8]
 651 0028 D150     		str	r1, [r2, r3]
 242:..\..\..\..\..\simplelink\source/driver.c ****     g_pCB->FunctionParams.pCmdExt = pCmdExt;
 652              		.loc 1 242 0
 653 002a 074B     		ldr	r3, .L46
 654 002c 1A68     		ldr	r2, [r3]
 655 002e A423     		mov	r3, #164
 656 0030 7968     		ldr	r1, [r7, #4]
 657 0032 D150     		str	r1, [r2, r3]
 243:..\..\..\..\..\simplelink\source/driver.c **** 
 244:..\..\..\..\..\simplelink\source/driver.c ****     RetVal = _SlDrvMsgWrite();
 658              		.loc 1 244 0
 659 0034 FFF7FEFF 		bl	_SlDrvMsgWrite
 660 0038 031C     		mov	r3, r0
 661 003a 7B61     		str	r3, [r7, #20]
 245:..\..\..\..\..\simplelink\source/driver.c ****     
 246:..\..\..\..\..\simplelink\source/driver.c ****     return RetVal;
 662              		.loc 1 246 0
ARM GAS  C:\Users\X0217454\AppData\Local\Temp\cc7UAvFx.s 			page 17


 663 003c 7B69     		ldr	r3, [r7, #20]
 247:..\..\..\..\..\simplelink\source/driver.c **** }
 664              		.loc 1 247 0
 665 003e 181C     		mov	r0, r3
 666 0040 BD46     		mov	sp, r7
 667 0042 06B0     		add	sp, sp, #24
 668              		@ sp needed for prologue
 669 0044 80BD     		pop	{r7, pc}
 670              	.L47:
 671 0046 C046     		.align	2
 672              	.L46:
 673 0048 00000000 		.word	g_pCB
 674              		.cfi_endproc
 675              	.LFE4:
 676              		.size	_SlDrvCmdSend, .-_SlDrvCmdSend
 677              		.section	.text._SlDrvDataReadOp,"ax",%progbits
 678              		.align	2
 679              		.global	_SlDrvDataReadOp
 680              		.code	16
 681              		.thumb_func
 682              		.type	_SlDrvDataReadOp, %function
 683              	_SlDrvDataReadOp:
 684              	.LFB5:
 248:..\..\..\..\..\simplelink\source/driver.c **** 
 249:..\..\..\..\..\simplelink\source/driver.c **** /*****************************************************************************
 250:..\..\..\..\..\simplelink\source/driver.c ****   _SlDrvDataReadOp
 251:..\..\..\..\..\simplelink\source/driver.c **** *****************************************************************************/
 252:..\..\..\..\..\simplelink\source/driver.c **** _SlReturnVal_t _SlDrvDataReadOp(
 253:..\..\..\..\..\simplelink\source/driver.c ****     _SlSd_t             Sd,
 254:..\..\..\..\..\simplelink\source/driver.c ****     _SlCmdCtrl_t        *pCmdCtrl ,
 255:..\..\..\..\..\simplelink\source/driver.c ****     void                *pTxRxDescBuff ,
 256:..\..\..\..\..\simplelink\source/driver.c ****     _SlCmdExt_t         *pCmdExt)
 257:..\..\..\..\..\simplelink\source/driver.c **** {
 685              		.loc 1 257 0
 686              		.cfi_startproc
 687 0000 80B5     		push	{r7, lr}
 688              	.LCFI15:
 689              		.cfi_def_cfa_offset 8
 690              		.cfi_offset 7, -8
 691              		.cfi_offset 14, -4
 692 0002 90B0     		sub	sp, sp, #64
 693              	.LCFI16:
 694              		.cfi_def_cfa_offset 72
 695 0004 00AF     		add	r7, sp, #0
 696              	.LCFI17:
 697              		.cfi_def_cfa_register 7
 698 0006 B960     		str	r1, [r7, #8]
 699 0008 7A60     		str	r2, [r7, #4]
 700 000a 3B60     		str	r3, [r7]
 701 000c 3B1C     		mov	r3, r7
 702 000e 0F33     		add	r3, r3, #15
 703 0010 021C     		add	r2, r0, #0
 704 0012 1A70     		strb	r2, [r3]
 258:..\..\..\..\..\simplelink\source/driver.c ****     _SlReturnVal_t RetVal;
 259:..\..\..\..\..\simplelink\source/driver.c **** 	UINT8 pObjIdx = MAX_CONCURRENT_ACTIONS;
 705              		.loc 1 259 0
 706 0014 3B1C     		mov	r3, r7
ARM GAS  C:\Users\X0217454\AppData\Local\Temp\cc7UAvFx.s 			page 18


 707 0016 3F33     		add	r3, r3, #63
 708 0018 0A22     		mov	r2, #10
 709 001a 1A70     		strb	r2, [r3]
 260:..\..\..\..\..\simplelink\source/driver.c **** 	_SlArgsData_t pArgsData;
 261:..\..\..\..\..\simplelink\source/driver.c ****     
 262:..\..\..\..\..\simplelink\source/driver.c ****     /* Validate input arguments */
 263:..\..\..\..\..\simplelink\source/driver.c ****     VERIFY_PROTOCOL(NULL != pCmdExt->pRxPayload);
 710              		.loc 1 263 0
 711 001c 3B68     		ldr	r3, [r7]
 712 001e DB68     		ldr	r3, [r3, #12]
 713 0020 002B     		cmp	r3, #0
 714 0022 00D1     		bne	.L49
 715              	.L50:
 716              		.loc 1 263 0 is_stmt 0 discriminator 1
 717 0024 FEE7     		b	.L50
 718              	.L49:
 264:..\..\..\..\..\simplelink\source/driver.c **** 
 265:..\..\..\..\..\simplelink\source/driver.c ****     /* If zero bytes is requested, return error. */
 266:..\..\..\..\..\simplelink\source/driver.c ****     /*  This allows us not to fill remote socket's IP address in return arguments */
 267:..\..\..\..\..\simplelink\source/driver.c ****     VERIFY_PROTOCOL(0 != pCmdExt->RxPayloadLen);
 719              		.loc 1 267 0 is_stmt 1
 720 0026 3B68     		ldr	r3, [r7]
 721 0028 5B88     		ldrh	r3, [r3, #2]
 722 002a 002B     		cmp	r3, #0
 723 002c 00D1     		bne	.L51
 724              	.L52:
 725              		.loc 1 267 0 is_stmt 0 discriminator 1
 726 002e FEE7     		b	.L52
 727              	.L51:
 268:..\..\..\..\..\simplelink\source/driver.c **** 
 269:..\..\..\..\..\simplelink\source/driver.c **** 	/*Use Obj to issue the command, if not available try later*/
 270:..\..\..\..\..\simplelink\source/driver.c **** 	pObjIdx = _SlDrvWaitForPoolObj(RECV_ID, Sd & BSD_SOCKET_ID_MASK);
 728              		.loc 1 270 0 is_stmt 1
 729 0030 3B1C     		mov	r3, r7
 730 0032 0F33     		add	r3, r3, #15
 731 0034 1A78     		ldrb	r2, [r3]
 732 0036 0F23     		mov	r3, #15
 733 0038 1340     		and	r3, r2
 734 003a DBB2     		uxtb	r3, r3
 735 003c 0F20     		mov	r0, #15
 736 003e 191C     		mov	r1, r3
 737 0040 FFF7FEFF 		bl	_SlDrvWaitForPoolObj
 738 0044 021C     		mov	r2, r0
 739 0046 3B1C     		mov	r3, r7
 740 0048 3F33     		add	r3, r3, #63
 741 004a 1A70     		strb	r2, [r3]
 271:..\..\..\..\..\simplelink\source/driver.c **** 
 272:..\..\..\..\..\simplelink\source/driver.c **** 	if (MAX_CONCURRENT_ACTIONS == pObjIdx)
 742              		.loc 1 272 0
 743 004c 3B1C     		mov	r3, r7
 744 004e 3F33     		add	r3, r3, #63
 745 0050 1B78     		ldrb	r3, [r3]
 746 0052 0A2B     		cmp	r3, #10
 747 0054 01D1     		bne	.L53
 273:..\..\..\..\..\simplelink\source/driver.c **** 	{
 274:..\..\..\..\..\simplelink\source/driver.c **** 		return SL_POOL_IS_EMPTY;
 748              		.loc 1 274 0
ARM GAS  C:\Users\X0217454\AppData\Local\Temp\cc7UAvFx.s 			page 19


 749 0056 7A4B     		ldr	r3, .L76
 750 0058 EEE0     		b	.L75
 751              	.L53:
 752              	.LBB13:
 275:..\..\..\..\..\simplelink\source/driver.c **** 	}
 276:..\..\..\..\..\simplelink\source/driver.c **** 
 277:..\..\..\..\..\simplelink\source/driver.c ****     OSI_RET_OK_CHECK(sl_LockObjLock(&g_pCB->ProtectionLockObj, SL_OS_WAIT_FOREVER));
 753              		.loc 1 277 0
 754 005a 7A4B     		ldr	r3, .L76+4
 755 005c 1B68     		ldr	r3, [r3]
 756 005e 9033     		add	r3, r3, #144
 757 0060 181C     		mov	r0, r3
 758 0062 3321     		mov	r1, #51
 759 0064 4422     		mov	r2, #68
 760 0066 FF23     		mov	r3, #255
 761 0068 FFF7FEFF 		bl	_SlNonOsSemGet
 762 006c 031C     		mov	r3, r0
 763 006e BB63     		str	r3, [r7, #56]
 764 0070 BB6B     		ldr	r3, [r7, #56]
 765 0072 002B     		cmp	r3, #0
 766 0074 00D0     		beq	.L55
 767              	.L56:
 768              		.loc 1 277 0 is_stmt 0 discriminator 1
 769 0076 FEE7     		b	.L56
 770              	.L55:
 771              	.LBE13:
 278:..\..\..\..\..\simplelink\source/driver.c **** 
 279:..\..\..\..\..\simplelink\source/driver.c **** 	pArgsData.pData = pCmdExt->pRxPayload;
 772              		.loc 1 279 0 is_stmt 1
 773 0078 3B68     		ldr	r3, [r7]
 774 007a DA68     		ldr	r2, [r3, #12]
 775 007c 3B1C     		mov	r3, r7
 776 007e 1033     		add	r3, r3, #16
 777 0080 5A60     		str	r2, [r3, #4]
 280:..\..\..\..\..\simplelink\source/driver.c **** 	pArgsData.pArgs =  (UINT8 *)pTxRxDescBuff;
 778              		.loc 1 280 0
 779 0082 3B1C     		mov	r3, r7
 780 0084 1033     		add	r3, r3, #16
 781 0086 7A68     		ldr	r2, [r7, #4]
 782 0088 1A60     		str	r2, [r3]
 281:..\..\..\..\..\simplelink\source/driver.c **** 	g_pCB->ObjPool[pObjIdx].pRespArgs =  (UINT8 *)&pArgsData;
 783              		.loc 1 281 0
 784 008a 6E4B     		ldr	r3, .L76+4
 785 008c 1968     		ldr	r1, [r3]
 786 008e 3B1C     		mov	r3, r7
 787 0090 3F33     		add	r3, r3, #63
 788 0092 1A78     		ldrb	r2, [r3]
 789 0094 131C     		mov	r3, r2
 790 0096 5B00     		lsl	r3, r3, #1
 791 0098 9B18     		add	r3, r3, r2
 792 009a 9B00     		lsl	r3, r3, #2
 793 009c CB18     		add	r3, r1, r3
 794 009e 1433     		add	r3, r3, #20
 795 00a0 3A1C     		mov	r2, r7
 796 00a2 1032     		add	r2, r2, #16
 797 00a4 1A60     		str	r2, [r3]
 798              	.LBB14:
ARM GAS  C:\Users\X0217454\AppData\Local\Temp\cc7UAvFx.s 			page 20


 282:..\..\..\..\..\simplelink\source/driver.c ****     OSI_RET_OK_CHECK(sl_LockObjUnlock(&g_pCB->ProtectionLockObj));
 799              		.loc 1 282 0
 800 00a6 674B     		ldr	r3, .L76+4
 801 00a8 1B68     		ldr	r3, [r3]
 802 00aa 9033     		add	r3, r3, #144
 803 00ac 181C     		mov	r0, r3
 804 00ae 3321     		mov	r1, #51
 805 00b0 FFF7FEFF 		bl	_SlNonOsSemSet
 806 00b4 031C     		mov	r3, r0
 807 00b6 7B63     		str	r3, [r7, #52]
 808 00b8 7B6B     		ldr	r3, [r7, #52]
 809 00ba 002B     		cmp	r3, #0
 810 00bc 00D0     		beq	.L57
 811              	.L58:
 812              		.loc 1 282 0 is_stmt 0 discriminator 1
 813 00be FEE7     		b	.L58
 814              	.L57:
 815              	.LBE14:
 816              	.LBB15:
 283:..\..\..\..\..\simplelink\source/driver.c **** 
 284:..\..\..\..\..\simplelink\source/driver.c **** 
 285:..\..\..\..\..\simplelink\source/driver.c ****     /* Do Flow Control check/update for DataWrite operation */
 286:..\..\..\..\..\simplelink\source/driver.c ****     OSI_RET_OK_CHECK( sl_LockObjLock(&g_pCB->FlowContCB.TxLockObj, SL_OS_WAIT_FOREVER) );
 817              		.loc 1 286 0 is_stmt 1
 818 00c0 604B     		ldr	r3, .L76+4
 819 00c2 1B68     		ldr	r3, [r3]
 820 00c4 9433     		add	r3, r3, #148
 821 00c6 181C     		mov	r0, r3
 822 00c8 3321     		mov	r1, #51
 823 00ca 4422     		mov	r2, #68
 824 00cc FF23     		mov	r3, #255
 825 00ce FFF7FEFF 		bl	_SlNonOsSemGet
 826 00d2 031C     		mov	r3, r0
 827 00d4 3B63     		str	r3, [r7, #48]
 828 00d6 3B6B     		ldr	r3, [r7, #48]
 829 00d8 002B     		cmp	r3, #0
 830 00da 00D0     		beq	.L59
 831              	.L60:
 832              		.loc 1 286 0 is_stmt 0 discriminator 1
 833 00dc FEE7     		b	.L60
 834              	.L59:
 835              	.LBE15:
 287:..\..\..\..\..\simplelink\source/driver.c **** 
 288:..\..\..\..\..\simplelink\source/driver.c ****     /* Clear SyncObj for the case it was signaled before TxPoolCnt */
 289:..\..\..\..\..\simplelink\source/driver.c ****     /* dropped below '1' (last Data buffer was taken)  */
 290:..\..\..\..\..\simplelink\source/driver.c **** 	/* OSI_RET_OK_CHECK( sl_SyncObjClear(&g_pCB->FlowContCB.TxSyncObj) ); */
 291:..\..\..\..\..\simplelink\source/driver.c **** 	sl_SyncObjClear(&g_pCB->FlowContCB.TxSyncObj);
 836              		.loc 1 291 0 is_stmt 1
 837 00de 594B     		ldr	r3, .L76+4
 838 00e0 1B68     		ldr	r3, [r3]
 839 00e2 9533     		add	r3, r3, #149
 840 00e4 181C     		mov	r0, r3
 841 00e6 2221     		mov	r1, #34
 842 00e8 1122     		mov	r2, #17
 843 00ea 0123     		mov	r3, #1
 844 00ec FFF7FEFF 		bl	_SlNonOsSemGet
 292:..\..\..\..\..\simplelink\source/driver.c **** 
ARM GAS  C:\Users\X0217454\AppData\Local\Temp\cc7UAvFx.s 			page 21


 293:..\..\..\..\..\simplelink\source/driver.c ****     if(g_pCB->FlowContCB.TxPoolCnt <= FLOW_CONT_MIN)
 845              		.loc 1 293 0
 846 00f0 544B     		ldr	r3, .L76+4
 847 00f2 1A68     		ldr	r2, [r3]
 848 00f4 9323     		mov	r3, #147
 849 00f6 D35C     		ldrb	r3, [r2, r3]
 850 00f8 012B     		cmp	r3, #1
 851 00fa 0ED8     		bhi	.L61
 852              	.LBB16:
 294:..\..\..\..\..\simplelink\source/driver.c ****     {
 295:..\..\..\..\..\simplelink\source/driver.c **** 
 296:..\..\..\..\..\simplelink\source/driver.c ****         /* If TxPoolCnt was increased by other thread at this moment,
 297:..\..\..\..\..\simplelink\source/driver.c ****            TxSyncObj won't wait here */
 298:..\..\..\..\..\simplelink\source/driver.c ****     	OSI_RET_OK_CHECK( sl_SyncObjWait(&g_pCB->FlowContCB.TxSyncObj, SL_OS_WAIT_FOREVER) );
 853              		.loc 1 298 0
 854 00fc 514B     		ldr	r3, .L76+4
 855 00fe 1B68     		ldr	r3, [r3]
 856 0100 9533     		add	r3, r3, #149
 857 0102 181C     		mov	r0, r3
 858 0104 2221     		mov	r1, #34
 859 0106 1122     		mov	r2, #17
 860 0108 FF23     		mov	r3, #255
 861 010a FFF7FEFF 		bl	_SlNonOsSemGet
 862 010e 031C     		mov	r3, r0
 863 0110 FB62     		str	r3, [r7, #44]
 864 0112 FB6A     		ldr	r3, [r7, #44]
 865 0114 002B     		cmp	r3, #0
 866 0116 00D0     		beq	.L61
 867              	.L62:
 868              		.loc 1 298 0 is_stmt 0 discriminator 1
 869 0118 FEE7     		b	.L62
 870              	.L61:
 871              	.LBE16:
 872              	.LBB17:
 299:..\..\..\..\..\simplelink\source/driver.c ****     }
 300:..\..\..\..\..\simplelink\source/driver.c **** 
 301:..\..\..\..\..\simplelink\source/driver.c ****     OSI_RET_OK_CHECK(sl_LockObjLock(&g_pCB->GlobalLockObj, SL_OS_WAIT_FOREVER));
 873              		.loc 1 301 0 is_stmt 1
 874 011a 4A4B     		ldr	r3, .L76+4
 875 011c 1B68     		ldr	r3, [r3]
 876 011e 0433     		add	r3, r3, #4
 877 0120 181C     		mov	r0, r3
 878 0122 3321     		mov	r1, #51
 879 0124 4422     		mov	r2, #68
 880 0126 FF23     		mov	r3, #255
 881 0128 FFF7FEFF 		bl	_SlNonOsSemGet
 882 012c 031C     		mov	r3, r0
 883 012e BB62     		str	r3, [r7, #40]
 884 0130 BB6A     		ldr	r3, [r7, #40]
 885 0132 002B     		cmp	r3, #0
 886 0134 00D0     		beq	.L63
 887              	.L64:
 888              		.loc 1 301 0 is_stmt 0 discriminator 1
 889 0136 FEE7     		b	.L64
 890              	.L63:
 891              	.LBE17:
 302:..\..\..\..\..\simplelink\source/driver.c **** 
ARM GAS  C:\Users\X0217454\AppData\Local\Temp\cc7UAvFx.s 			page 22


 303:..\..\..\..\..\simplelink\source/driver.c ****     VERIFY_PROTOCOL(g_pCB->FlowContCB.TxPoolCnt > FLOW_CONT_MIN);
 892              		.loc 1 303 0 is_stmt 1
 893 0138 424B     		ldr	r3, .L76+4
 894 013a 1A68     		ldr	r2, [r3]
 895 013c 9323     		mov	r3, #147
 896 013e D35C     		ldrb	r3, [r2, r3]
 897 0140 012B     		cmp	r3, #1
 898 0142 00D8     		bhi	.L65
 899              	.L66:
 900              		.loc 1 303 0 is_stmt 0 discriminator 1
 901 0144 FEE7     		b	.L66
 902              	.L65:
 304:..\..\..\..\..\simplelink\source/driver.c ****     g_pCB->FlowContCB.TxPoolCnt--;
 903              		.loc 1 304 0 is_stmt 1
 904 0146 3F4B     		ldr	r3, .L76+4
 905 0148 1B68     		ldr	r3, [r3]
 906 014a 9322     		mov	r2, #147
 907 014c 9A5C     		ldrb	r2, [r3, r2]
 908 014e 013A     		sub	r2, r2, #1
 909 0150 D1B2     		uxtb	r1, r2
 910 0152 9322     		mov	r2, #147
 911 0154 9954     		strb	r1, [r3, r2]
 912              	.LBB18:
 305:..\..\..\..\..\simplelink\source/driver.c **** 
 306:..\..\..\..\..\simplelink\source/driver.c ****     OSI_RET_OK_CHECK( sl_LockObjUnlock(&g_pCB->FlowContCB.TxLockObj) );
 913              		.loc 1 306 0
 914 0156 3B4B     		ldr	r3, .L76+4
 915 0158 1B68     		ldr	r3, [r3]
 916 015a 9433     		add	r3, r3, #148
 917 015c 181C     		mov	r0, r3
 918 015e 3321     		mov	r1, #51
 919 0160 FFF7FEFF 		bl	_SlNonOsSemSet
 920 0164 031C     		mov	r3, r0
 921 0166 7B62     		str	r3, [r7, #36]
 922 0168 7B6A     		ldr	r3, [r7, #36]
 923 016a 002B     		cmp	r3, #0
 924 016c 00D0     		beq	.L67
 925              	.L68:
 926              		.loc 1 306 0 is_stmt 0 discriminator 1
 927 016e FEE7     		b	.L68
 928              	.L67:
 929              	.LBE18:
 307:..\..\..\..\..\simplelink\source/driver.c **** 
 308:..\..\..\..\..\simplelink\source/driver.c ****     /* send the message */
 309:..\..\..\..\..\simplelink\source/driver.c ****     g_pCB->TempProtocolHeader.Opcode 	= pCmdCtrl->Opcode;
 930              		.loc 1 309 0 is_stmt 1
 931 0170 344B     		ldr	r3, .L76+4
 932 0172 1B68     		ldr	r3, [r3]
 933 0174 BA68     		ldr	r2, [r7, #8]
 934 0176 1288     		ldrh	r2, [r2]
 935 0178 DA80     		strh	r2, [r3, #6]
 310:..\..\..\..\..\simplelink\source/driver.c ****     g_pCB->TempProtocolHeader.Len	= _SL_PROTOCOL_CALC_LEN(pCmdCtrl,pCmdExt);
 936              		.loc 1 310 0
 937 017a 324B     		ldr	r3, .L76+4
 938 017c 1A68     		ldr	r2, [r3]
 939 017e 3B68     		ldr	r3, [r7]
 940 0180 002B     		cmp	r3, #0
ARM GAS  C:\Users\X0217454\AppData\Local\Temp\cc7UAvFx.s 			page 23


 941 0182 10D0     		beq	.L69
 942              		.loc 1 310 0 is_stmt 0 discriminator 1
 943 0184 BB68     		ldr	r3, [r7, #8]
 944 0186 9B78     		ldrb	r3, [r3, #2]
 945 0188 0333     		add	r3, r3, #3
 946 018a 9BB2     		uxth	r3, r3
 947 018c 0321     		mov	r1, #3
 948 018e 8B43     		bic	r3, r1
 949 0190 99B2     		uxth	r1, r3
 950 0192 3B68     		ldr	r3, [r7]
 951 0194 1B88     		ldrh	r3, [r3]
 952 0196 0333     		add	r3, r3, #3
 953 0198 9BB2     		uxth	r3, r3
 954 019a 0320     		mov	r0, #3
 955 019c 8343     		bic	r3, r0
 956 019e 9BB2     		uxth	r3, r3
 957 01a0 CB18     		add	r3, r1, r3
 958 01a2 9BB2     		uxth	r3, r3
 959 01a4 06E0     		b	.L70
 960              	.L69:
 961              		.loc 1 310 0 discriminator 2
 962 01a6 BB68     		ldr	r3, [r7, #8]
 963 01a8 9B78     		ldrb	r3, [r3, #2]
 964 01aa 0333     		add	r3, r3, #3
 965 01ac 9BB2     		uxth	r3, r3
 966 01ae 0321     		mov	r1, #3
 967 01b0 8B43     		bic	r3, r1
 968 01b2 9BB2     		uxth	r3, r3
 969              	.L70:
 970              		.loc 1 310 0 discriminator 3
 971 01b4 1381     		strh	r3, [r2, #8]
 311:..\..\..\..\..\simplelink\source/driver.c ****     g_pCB->FunctionParams.pCmdCtrl      = pCmdCtrl;
 972              		.loc 1 311 0 is_stmt 1 discriminator 3
 973 01b6 234B     		ldr	r3, .L76+4
 974 01b8 1A68     		ldr	r2, [r3]
 975 01ba 9C23     		mov	r3, #156
 976 01bc B968     		ldr	r1, [r7, #8]
 977 01be D150     		str	r1, [r2, r3]
 312:..\..\..\..\..\simplelink\source/driver.c ****     g_pCB->FunctionParams.pTxRxDescBuff = (UINT8 *)pTxRxDescBuff;
 978              		.loc 1 312 0 discriminator 3
 979 01c0 204B     		ldr	r3, .L76+4
 980 01c2 1A68     		ldr	r2, [r3]
 981 01c4 A023     		mov	r3, #160
 982 01c6 7968     		ldr	r1, [r7, #4]
 983 01c8 D150     		str	r1, [r2, r3]
 313:..\..\..\..\..\simplelink\source/driver.c ****     g_pCB->FunctionParams.pCmdExt       = pCmdExt;
 984              		.loc 1 313 0 discriminator 3
 985 01ca 1E4B     		ldr	r3, .L76+4
 986 01cc 1A68     		ldr	r2, [r3]
 987 01ce A423     		mov	r3, #164
 988 01d0 3968     		ldr	r1, [r7]
 989 01d2 D150     		str	r1, [r2, r3]
 314:..\..\..\..\..\simplelink\source/driver.c ****     RetVal =  _SlDrvMsgWrite();
 990              		.loc 1 314 0 discriminator 3
 991 01d4 FFF7FEFF 		bl	_SlDrvMsgWrite
 992 01d8 031C     		mov	r3, r0
 993 01da 3B62     		str	r3, [r7, #32]
ARM GAS  C:\Users\X0217454\AppData\Local\Temp\cc7UAvFx.s 			page 24


 994              	.LBB19:
 315:..\..\..\..\..\simplelink\source/driver.c **** 
 316:..\..\..\..\..\simplelink\source/driver.c ****     OSI_RET_OK_CHECK(sl_LockObjUnlock(&g_pCB->GlobalLockObj));
 995              		.loc 1 316 0 discriminator 3
 996 01dc 194B     		ldr	r3, .L76+4
 997 01de 1B68     		ldr	r3, [r3]
 998 01e0 0433     		add	r3, r3, #4
 999 01e2 181C     		mov	r0, r3
 1000 01e4 3321     		mov	r1, #51
 1001 01e6 FFF7FEFF 		bl	_SlNonOsSemSet
 1002 01ea 031C     		mov	r3, r0
 1003 01ec FB61     		str	r3, [r7, #28]
 1004 01ee FB69     		ldr	r3, [r7, #28]
 1005 01f0 002B     		cmp	r3, #0
 1006 01f2 00D0     		beq	.L71
 1007              	.L72:
 1008              		.loc 1 316 0 is_stmt 0 discriminator 1
 1009 01f4 FEE7     		b	.L72
 1010              	.L71:
 1011              	.LBE19:
 317:..\..\..\..\..\simplelink\source/driver.c **** 
 318:..\..\..\..\..\simplelink\source/driver.c ****     if(SL_OS_RET_CODE_OK == RetVal)
 1012              		.loc 1 318 0 is_stmt 1
 1013 01f6 3B6A     		ldr	r3, [r7, #32]
 1014 01f8 002B     		cmp	r3, #0
 1015 01fa 16D1     		bne	.L73
 1016              	.LBB20:
 319:..\..\..\..\..\simplelink\source/driver.c ****     {
 320:..\..\..\..\..\simplelink\source/driver.c ****         /* Wait for response message. Will be signaled by _SlDrvMsgRead. */
 321:..\..\..\..\..\simplelink\source/driver.c **** 		OSI_RET_OK_CHECK(sl_SyncObjWait(&g_pCB->ObjPool[pObjIdx].SyncObj, SL_OS_WAIT_FOREVER));
 1017              		.loc 1 321 0
 1018 01fc 114B     		ldr	r3, .L76+4
 1019 01fe 1968     		ldr	r1, [r3]
 1020 0200 3B1C     		mov	r3, r7
 1021 0202 3F33     		add	r3, r3, #63
 1022 0204 1A78     		ldrb	r2, [r3]
 1023 0206 131C     		mov	r3, r2
 1024 0208 5B00     		lsl	r3, r3, #1
 1025 020a 9B18     		add	r3, r3, r2
 1026 020c 9B00     		lsl	r3, r3, #2
 1027 020e 1033     		add	r3, r3, #16
 1028 0210 CB18     		add	r3, r1, r3
 1029 0212 181C     		mov	r0, r3
 1030 0214 2221     		mov	r1, #34
 1031 0216 1122     		mov	r2, #17
 1032 0218 FF23     		mov	r3, #255
 1033 021a FFF7FEFF 		bl	_SlNonOsSemGet
 1034 021e 031C     		mov	r3, r0
 1035 0220 BB61     		str	r3, [r7, #24]
 1036 0222 BB69     		ldr	r3, [r7, #24]
 1037 0224 002B     		cmp	r3, #0
 1038 0226 00D0     		beq	.L73
 1039              	.L74:
 1040              		.loc 1 321 0 is_stmt 0 discriminator 1
 1041 0228 FEE7     		b	.L74
 1042              	.L73:
 1043              	.LBE20:
ARM GAS  C:\Users\X0217454\AppData\Local\Temp\cc7UAvFx.s 			page 25


 322:..\..\..\..\..\simplelink\source/driver.c ****     }
 323:..\..\..\..\..\simplelink\source/driver.c **** 
 324:..\..\..\..\..\simplelink\source/driver.c ****     _SlDrvReleasePoolObj(pObjIdx);
 1044              		.loc 1 324 0 is_stmt 1
 1045 022a 3B1C     		mov	r3, r7
 1046 022c 3F33     		add	r3, r3, #63
 1047 022e 1B78     		ldrb	r3, [r3]
 1048 0230 181C     		mov	r0, r3
 1049 0232 FFF7FEFF 		bl	_SlDrvReleasePoolObj
 325:..\..\..\..\..\simplelink\source/driver.c ****     return (int)RetVal;
 1050              		.loc 1 325 0
 1051 0236 3B6A     		ldr	r3, [r7, #32]
 1052              	.L75:
 326:..\..\..\..\..\simplelink\source/driver.c **** }
 1053              		.loc 1 326 0
 1054 0238 181C     		mov	r0, r3
 1055 023a BD46     		mov	sp, r7
 1056 023c 10B0     		add	sp, sp, #64
 1057              		@ sp needed for prologue
 1058 023e 80BD     		pop	{r7, pc}
 1059              	.L77:
 1060              		.align	2
 1061              	.L76:
 1062 0240 30F8FFFF 		.word	-2000
 1063 0244 00000000 		.word	g_pCB
 1064              		.cfi_endproc
 1065              	.LFE5:
 1066              		.size	_SlDrvDataReadOp, .-_SlDrvDataReadOp
 1067              		.section	.text._SlDrvDataWriteOp,"ax",%progbits
 1068              		.align	2
 1069              		.global	_SlDrvDataWriteOp
 1070              		.code	16
 1071              		.thumb_func
 1072              		.type	_SlDrvDataWriteOp, %function
 1073              	_SlDrvDataWriteOp:
 1074              	.LFB6:
 327:..\..\..\..\..\simplelink\source/driver.c **** 
 328:..\..\..\..\..\simplelink\source/driver.c **** /* ******************************************************************************/
 329:..\..\..\..\..\simplelink\source/driver.c **** /*   _SlDrvDataWriteOp                                                          */
 330:..\..\..\..\..\simplelink\source/driver.c **** /* ******************************************************************************/
 331:..\..\..\..\..\simplelink\source/driver.c **** _SlReturnVal_t _SlDrvDataWriteOp(
 332:..\..\..\..\..\simplelink\source/driver.c ****     _SlSd_t             Sd,
 333:..\..\..\..\..\simplelink\source/driver.c ****     _SlCmdCtrl_t  *pCmdCtrl ,
 334:..\..\..\..\..\simplelink\source/driver.c ****     void                *pTxRxDescBuff ,
 335:..\..\..\..\..\simplelink\source/driver.c ****     _SlCmdExt_t         *pCmdExt)
 336:..\..\..\..\..\simplelink\source/driver.c **** {
 1075              		.loc 1 336 0
 1076              		.cfi_startproc
 1077 0000 80B5     		push	{r7, lr}
 1078              	.LCFI18:
 1079              		.cfi_def_cfa_offset 8
 1080              		.cfi_offset 7, -8
 1081              		.cfi_offset 14, -4
 1082 0002 8EB0     		sub	sp, sp, #56
 1083              	.LCFI19:
 1084              		.cfi_def_cfa_offset 64
 1085 0004 00AF     		add	r7, sp, #0
ARM GAS  C:\Users\X0217454\AppData\Local\Temp\cc7UAvFx.s 			page 26


 1086              	.LCFI20:
 1087              		.cfi_def_cfa_register 7
 1088 0006 B960     		str	r1, [r7, #8]
 1089 0008 7A60     		str	r2, [r7, #4]
 1090 000a 3B60     		str	r3, [r7]
 1091 000c 3B1C     		mov	r3, r7
 1092 000e 0F33     		add	r3, r3, #15
 1093 0010 021C     		add	r2, r0, #0
 1094 0012 1A70     		strb	r2, [r3]
 337:..\..\..\..\..\simplelink\source/driver.c ****     _SlReturnVal_t  RetVal = SL_EAGAIN; /*  initiated as SL_EAGAIN for the non blocking mode */
 1095              		.loc 1 337 0
 1096 0014 0B23     		mov	r3, #11
 1097 0016 5B42     		neg	r3, r3
 1098 0018 7B63     		str	r3, [r7, #52]
 1099 001a 00E0     		b	.L94
 1100              	.L107:
 338:..\..\..\..\..\simplelink\source/driver.c **** 	while( 1 )
 339:..\..\..\..\..\simplelink\source/driver.c **** 	{
 340:..\..\..\..\..\simplelink\source/driver.c ****     /*  Do Flow Control check/update for DataWrite operation */
 341:..\..\..\..\..\simplelink\source/driver.c ****     OSI_RET_OK_CHECK( sl_LockObjLock(&g_pCB->FlowContCB.TxLockObj, SL_OS_WAIT_FOREVER) );
 342:..\..\..\..\..\simplelink\source/driver.c **** 
 343:..\..\..\..\..\simplelink\source/driver.c ****     /*  Clear SyncObj for the case it was signaled before TxPoolCnt */
 344:..\..\..\..\..\simplelink\source/driver.c ****     /*  dropped below '1' (last Data buffer was taken) */
 345:..\..\..\..\..\simplelink\source/driver.c **** 	/* OSI_RET_OK_CHECK( sl_SyncObjClear(&g_pCB->FlowContCB.TxSyncObj) ); */
 346:..\..\..\..\..\simplelink\source/driver.c **** 	sl_SyncObjClear(&g_pCB->FlowContCB.TxSyncObj);
 347:..\..\..\..\..\simplelink\source/driver.c **** 
 348:..\..\..\..\..\simplelink\source/driver.c **** 	/*  we have indication that the last send has failed - socket is no longer valid for operations  *
 349:..\..\..\..\..\simplelink\source/driver.c **** 	if(g_pCB->SocketTXFailure & (1<<(Sd & BSD_SOCKET_ID_MASK)))
 350:..\..\..\..\..\simplelink\source/driver.c **** 	{
 351:..\..\..\..\..\simplelink\source/driver.c **** 		OSI_RET_OK_CHECK( sl_LockObjUnlock(&g_pCB->FlowContCB.TxLockObj) );
 352:..\..\..\..\..\simplelink\source/driver.c ****         return SL_SOC_ERROR;
 353:..\..\..\..\..\simplelink\source/driver.c **** 	}
 354:..\..\..\..\..\simplelink\source/driver.c **** 		if(g_pCB->FlowContCB.TxPoolCnt <= FLOW_CONT_MIN + 1)
 355:..\..\..\..\..\simplelink\source/driver.c ****     {
 356:..\..\..\..\..\simplelink\source/driver.c ****         /*  we have indication that this socket is set as blocking and we try to  */
 357:..\..\..\..\..\simplelink\source/driver.c ****         /*  unblock it - return an error */
 358:..\..\..\..\..\simplelink\source/driver.c ****         if( g_pCB->SocketNonBlocking >> (Sd & BSD_SOCKET_ID_MASK) )
 359:..\..\..\..\..\simplelink\source/driver.c ****         {
 360:..\..\..\..\..\simplelink\source/driver.c ****             OSI_RET_OK_CHECK( sl_LockObjUnlock(&g_pCB->FlowContCB.TxLockObj) );
 361:..\..\..\..\..\simplelink\source/driver.c ****             return RetVal;
 362:..\..\..\..\..\simplelink\source/driver.c ****         }
 363:..\..\..\..\..\simplelink\source/driver.c ****         /*  If TxPoolCnt was increased by other thread at this moment, */
 364:..\..\..\..\..\simplelink\source/driver.c ****         /*  TxSyncObj won't wait here */
 365:..\..\..\..\..\simplelink\source/driver.c ****     	OSI_RET_OK_CHECK( sl_SyncObjWait(&g_pCB->FlowContCB.TxSyncObj, SL_OS_WAIT_FOREVER) );
 366:..\..\..\..\..\simplelink\source/driver.c ****     }
 367:..\..\..\..\..\simplelink\source/driver.c **** 		if(g_pCB->FlowContCB.TxPoolCnt > FLOW_CONT_MIN + 1 )
 368:..\..\..\..\..\simplelink\source/driver.c **** 		{
 369:..\..\..\..\..\simplelink\source/driver.c **** 			break;
 370:..\..\..\..\..\simplelink\source/driver.c **** 		}
 371:..\..\..\..\..\simplelink\source/driver.c **** 		else
 372:..\..\..\..\..\simplelink\source/driver.c **** 		{
 373:..\..\..\..\..\simplelink\source/driver.c **** 			OSI_RET_OK_CHECK( sl_LockObjUnlock(&g_pCB->FlowContCB.TxLockObj) );
 374:..\..\..\..\..\simplelink\source/driver.c **** 		}
 375:..\..\..\..\..\simplelink\source/driver.c **** 	}
 1101              		.loc 1 375 0
 1102 001c C046     		mov	r8, r8
 1103              	.L94:
ARM GAS  C:\Users\X0217454\AppData\Local\Temp\cc7UAvFx.s 			page 27


 1104              	.LBB21:
 341:..\..\..\..\..\simplelink\source/driver.c ****     OSI_RET_OK_CHECK( sl_LockObjLock(&g_pCB->FlowContCB.TxLockObj, SL_OS_WAIT_FOREVER) );
 1105              		.loc 1 341 0
 1106 001e 784B     		ldr	r3, .L108
 1107 0020 1B68     		ldr	r3, [r3]
 1108 0022 9433     		add	r3, r3, #148
 1109 0024 181C     		mov	r0, r3
 1110 0026 3321     		mov	r1, #51
 1111 0028 4422     		mov	r2, #68
 1112 002a FF23     		mov	r3, #255
 1113 002c FFF7FEFF 		bl	_SlNonOsSemGet
 1114 0030 031C     		mov	r3, r0
 1115 0032 3B63     		str	r3, [r7, #48]
 1116 0034 3B6B     		ldr	r3, [r7, #48]
 1117 0036 002B     		cmp	r3, #0
 1118 0038 00D0     		beq	.L79
 1119              	.L80:
 341:..\..\..\..\..\simplelink\source/driver.c ****     OSI_RET_OK_CHECK( sl_LockObjLock(&g_pCB->FlowContCB.TxLockObj, SL_OS_WAIT_FOREVER) );
 1120              		.loc 1 341 0 is_stmt 0 discriminator 1
 1121 003a FEE7     		b	.L80
 1122              	.L79:
 1123              	.LBE21:
 346:..\..\..\..\..\simplelink\source/driver.c **** 	sl_SyncObjClear(&g_pCB->FlowContCB.TxSyncObj);
 1124              		.loc 1 346 0 is_stmt 1
 1125 003c 704B     		ldr	r3, .L108
 1126 003e 1B68     		ldr	r3, [r3]
 1127 0040 9533     		add	r3, r3, #149
 1128 0042 181C     		mov	r0, r3
 1129 0044 2221     		mov	r1, #34
 1130 0046 1122     		mov	r2, #17
 1131 0048 0123     		mov	r3, #1
 1132 004a FFF7FEFF 		bl	_SlNonOsSemGet
 349:..\..\..\..\..\simplelink\source/driver.c **** 	if(g_pCB->SocketTXFailure & (1<<(Sd & BSD_SOCKET_ID_MASK)))
 1133              		.loc 1 349 0
 1134 004e 6C4B     		ldr	r3, .L108
 1135 0050 1A68     		ldr	r2, [r3]
 1136 0052 9A23     		mov	r3, #154
 1137 0054 D35C     		ldrb	r3, [r2, r3]
 1138 0056 1A1C     		mov	r2, r3
 1139 0058 3B1C     		mov	r3, r7
 1140 005a 0F33     		add	r3, r3, #15
 1141 005c 1978     		ldrb	r1, [r3]
 1142 005e 0F23     		mov	r3, #15
 1143 0060 0B40     		and	r3, r1
 1144 0062 1A41     		asr	r2, r2, r3
 1145 0064 0123     		mov	r3, #1
 1146 0066 1340     		and	r3, r2
 1147 0068 0FD0     		beq	.L81
 1148              	.LBB22:
 351:..\..\..\..\..\simplelink\source/driver.c **** 		OSI_RET_OK_CHECK( sl_LockObjUnlock(&g_pCB->FlowContCB.TxLockObj) );
 1149              		.loc 1 351 0
 1150 006a 654B     		ldr	r3, .L108
 1151 006c 1B68     		ldr	r3, [r3]
 1152 006e 9433     		add	r3, r3, #148
 1153 0070 181C     		mov	r0, r3
 1154 0072 3321     		mov	r1, #51
 1155 0074 FFF7FEFF 		bl	_SlNonOsSemSet
ARM GAS  C:\Users\X0217454\AppData\Local\Temp\cc7UAvFx.s 			page 28


 1156 0078 031C     		mov	r3, r0
 1157 007a FB62     		str	r3, [r7, #44]
 1158 007c FB6A     		ldr	r3, [r7, #44]
 1159 007e 002B     		cmp	r3, #0
 1160 0080 00D0     		beq	.L82
 1161              	.L83:
 351:..\..\..\..\..\simplelink\source/driver.c **** 		OSI_RET_OK_CHECK( sl_LockObjUnlock(&g_pCB->FlowContCB.TxLockObj) );
 1162              		.loc 1 351 0 is_stmt 0 discriminator 1
 1163 0082 FEE7     		b	.L83
 1164              	.L82:
 1165              	.LBE22:
 352:..\..\..\..\..\simplelink\source/driver.c ****         return SL_SOC_ERROR;
 1166              		.loc 1 352 0 is_stmt 1
 1167 0084 0123     		mov	r3, #1
 1168 0086 5B42     		neg	r3, r3
 1169 0088 B5E0     		b	.L84
 1170              	.L81:
 354:..\..\..\..\..\simplelink\source/driver.c **** 		if(g_pCB->FlowContCB.TxPoolCnt <= FLOW_CONT_MIN + 1)
 1171              		.loc 1 354 0
 1172 008a 5D4B     		ldr	r3, .L108
 1173 008c 1A68     		ldr	r2, [r3]
 1174 008e 9323     		mov	r3, #147
 1175 0090 D35C     		ldrb	r3, [r2, r3]
 1176 0092 022B     		cmp	r3, #2
 1177 0094 2CD8     		bhi	.L85
 358:..\..\..\..\..\simplelink\source/driver.c ****         if( g_pCB->SocketNonBlocking >> (Sd & BSD_SOCKET_ID_MASK) )
 1178              		.loc 1 358 0
 1179 0096 5A4B     		ldr	r3, .L108
 1180 0098 1A68     		ldr	r2, [r3]
 1181 009a 9923     		mov	r3, #153
 1182 009c D35C     		ldrb	r3, [r2, r3]
 1183 009e 1A1C     		mov	r2, r3
 1184 00a0 3B1C     		mov	r3, r7
 1185 00a2 0F33     		add	r3, r3, #15
 1186 00a4 1978     		ldrb	r1, [r3]
 1187 00a6 0F23     		mov	r3, #15
 1188 00a8 0B40     		and	r3, r1
 1189 00aa 111C     		mov	r1, r2
 1190 00ac 1941     		asr	r1, r1, r3
 1191 00ae 0B1C     		mov	r3, r1
 1192 00b0 002B     		cmp	r3, #0
 1193 00b2 0ED0     		beq	.L86
 1194              	.LBB23:
 360:..\..\..\..\..\simplelink\source/driver.c ****             OSI_RET_OK_CHECK( sl_LockObjUnlock(&g_pCB->FlowContCB.TxLockObj) );
 1195              		.loc 1 360 0
 1196 00b4 524B     		ldr	r3, .L108
 1197 00b6 1B68     		ldr	r3, [r3]
 1198 00b8 9433     		add	r3, r3, #148
 1199 00ba 181C     		mov	r0, r3
 1200 00bc 3321     		mov	r1, #51
 1201 00be FFF7FEFF 		bl	_SlNonOsSemSet
 1202 00c2 031C     		mov	r3, r0
 1203 00c4 BB62     		str	r3, [r7, #40]
 1204 00c6 BB6A     		ldr	r3, [r7, #40]
 1205 00c8 002B     		cmp	r3, #0
 1206 00ca 00D0     		beq	.L87
 1207              	.L88:
ARM GAS  C:\Users\X0217454\AppData\Local\Temp\cc7UAvFx.s 			page 29


 360:..\..\..\..\..\simplelink\source/driver.c ****             OSI_RET_OK_CHECK( sl_LockObjUnlock(&g_pCB->FlowContCB.TxLockObj) );
 1208              		.loc 1 360 0 is_stmt 0 discriminator 1
 1209 00cc FEE7     		b	.L88
 1210              	.L87:
 1211              	.LBE23:
 361:..\..\..\..\..\simplelink\source/driver.c ****             return RetVal;
 1212              		.loc 1 361 0 is_stmt 1
 1213 00ce 7B6B     		ldr	r3, [r7, #52]
 1214 00d0 91E0     		b	.L84
 1215              	.L86:
 1216              	.LBB24:
 365:..\..\..\..\..\simplelink\source/driver.c ****     	OSI_RET_OK_CHECK( sl_SyncObjWait(&g_pCB->FlowContCB.TxSyncObj, SL_OS_WAIT_FOREVER) );
 1217              		.loc 1 365 0
 1218 00d2 4B4B     		ldr	r3, .L108
 1219 00d4 1B68     		ldr	r3, [r3]
 1220 00d6 9533     		add	r3, r3, #149
 1221 00d8 181C     		mov	r0, r3
 1222 00da 2221     		mov	r1, #34
 1223 00dc 1122     		mov	r2, #17
 1224 00de FF23     		mov	r3, #255
 1225 00e0 FFF7FEFF 		bl	_SlNonOsSemGet
 1226 00e4 031C     		mov	r3, r0
 1227 00e6 7B62     		str	r3, [r7, #36]
 1228 00e8 7B6A     		ldr	r3, [r7, #36]
 1229 00ea 002B     		cmp	r3, #0
 1230 00ec 00D0     		beq	.L85
 1231              	.L89:
 365:..\..\..\..\..\simplelink\source/driver.c ****     	OSI_RET_OK_CHECK( sl_SyncObjWait(&g_pCB->FlowContCB.TxSyncObj, SL_OS_WAIT_FOREVER) );
 1232              		.loc 1 365 0 is_stmt 0 discriminator 1
 1233 00ee FEE7     		b	.L89
 1234              	.L85:
 1235              	.LBE24:
 367:..\..\..\..\..\simplelink\source/driver.c **** 		if(g_pCB->FlowContCB.TxPoolCnt > FLOW_CONT_MIN + 1 )
 1236              		.loc 1 367 0 is_stmt 1
 1237 00f0 434B     		ldr	r3, .L108
 1238 00f2 1A68     		ldr	r2, [r3]
 1239 00f4 9323     		mov	r3, #147
 1240 00f6 D35C     		ldrb	r3, [r2, r3]
 1241 00f8 022B     		cmp	r3, #2
 1242 00fa 0CD8     		bhi	.L106
 1243              	.L90:
 1244              	.LBB25:
 373:..\..\..\..\..\simplelink\source/driver.c **** 			OSI_RET_OK_CHECK( sl_LockObjUnlock(&g_pCB->FlowContCB.TxLockObj) );
 1245              		.loc 1 373 0
 1246 00fc 404B     		ldr	r3, .L108
 1247 00fe 1B68     		ldr	r3, [r3]
 1248 0100 9433     		add	r3, r3, #148
 1249 0102 181C     		mov	r0, r3
 1250 0104 3321     		mov	r1, #51
 1251 0106 FFF7FEFF 		bl	_SlNonOsSemSet
 1252 010a 031C     		mov	r3, r0
 1253 010c 7B61     		str	r3, [r7, #20]
 1254 010e 7B69     		ldr	r3, [r7, #20]
 1255 0110 002B     		cmp	r3, #0
 1256 0112 83D0     		beq	.L107
 1257              	.L93:
 373:..\..\..\..\..\simplelink\source/driver.c **** 			OSI_RET_OK_CHECK( sl_LockObjUnlock(&g_pCB->FlowContCB.TxLockObj) );
ARM GAS  C:\Users\X0217454\AppData\Local\Temp\cc7UAvFx.s 			page 30


 1258              		.loc 1 373 0 is_stmt 0 discriminator 1
 1259 0114 FEE7     		b	.L93
 1260              	.L106:
 1261              	.LBE25:
 369:..\..\..\..\..\simplelink\source/driver.c **** 			break;
 1262              		.loc 1 369 0 is_stmt 1
 1263 0116 C046     		mov	r8, r8
 1264              	.L105:
 1265              	.LBB26:
 376:..\..\..\..\..\simplelink\source/driver.c ****     OSI_RET_OK_CHECK( sl_LockObjLock(&g_pCB->GlobalLockObj, SL_OS_WAIT_FOREVER) );
 1266              		.loc 1 376 0
 1267 0118 394B     		ldr	r3, .L108
 1268 011a 1B68     		ldr	r3, [r3]
 1269 011c 0433     		add	r3, r3, #4
 1270 011e 181C     		mov	r0, r3
 1271 0120 3321     		mov	r1, #51
 1272 0122 4422     		mov	r2, #68
 1273 0124 FF23     		mov	r3, #255
 1274 0126 FFF7FEFF 		bl	_SlNonOsSemGet
 1275 012a 031C     		mov	r3, r0
 1276 012c 3B62     		str	r3, [r7, #32]
 1277 012e 3B6A     		ldr	r3, [r7, #32]
 1278 0130 002B     		cmp	r3, #0
 1279 0132 00D0     		beq	.L95
 1280              	.L96:
 1281              		.loc 1 376 0 is_stmt 0 discriminator 1
 1282 0134 FEE7     		b	.L96
 1283              	.L95:
 1284              	.LBE26:
 377:..\..\..\..\..\simplelink\source/driver.c **** 
 378:..\..\..\..\..\simplelink\source/driver.c ****     VERIFY_PROTOCOL(g_pCB->FlowContCB.TxPoolCnt > FLOW_CONT_MIN + 1 );
 1285              		.loc 1 378 0 is_stmt 1
 1286 0136 324B     		ldr	r3, .L108
 1287 0138 1A68     		ldr	r2, [r3]
 1288 013a 9323     		mov	r3, #147
 1289 013c D35C     		ldrb	r3, [r2, r3]
 1290 013e 022B     		cmp	r3, #2
 1291 0140 00D8     		bhi	.L97
 1292              	.L98:
 1293              		.loc 1 378 0 is_stmt 0 discriminator 1
 1294 0142 FEE7     		b	.L98
 1295              	.L97:
 379:..\..\..\..\..\simplelink\source/driver.c ****     g_pCB->FlowContCB.TxPoolCnt--;
 1296              		.loc 1 379 0 is_stmt 1
 1297 0144 2E4B     		ldr	r3, .L108
 1298 0146 1B68     		ldr	r3, [r3]
 1299 0148 9322     		mov	r2, #147
 1300 014a 9A5C     		ldrb	r2, [r3, r2]
 1301 014c 013A     		sub	r2, r2, #1
 1302 014e D1B2     		uxtb	r1, r2
 1303 0150 9322     		mov	r2, #147
 1304 0152 9954     		strb	r1, [r3, r2]
 1305              	.LBB27:
 380:..\..\..\..\..\simplelink\source/driver.c **** 
 381:..\..\..\..\..\simplelink\source/driver.c ****     OSI_RET_OK_CHECK( sl_LockObjUnlock(&g_pCB->FlowContCB.TxLockObj) );
 1306              		.loc 1 381 0
 1307 0154 2A4B     		ldr	r3, .L108
ARM GAS  C:\Users\X0217454\AppData\Local\Temp\cc7UAvFx.s 			page 31


 1308 0156 1B68     		ldr	r3, [r3]
 1309 0158 9433     		add	r3, r3, #148
 1310 015a 181C     		mov	r0, r3
 1311 015c 3321     		mov	r1, #51
 1312 015e FFF7FEFF 		bl	_SlNonOsSemSet
 1313 0162 031C     		mov	r3, r0
 1314 0164 FB61     		str	r3, [r7, #28]
 1315 0166 FB69     		ldr	r3, [r7, #28]
 1316 0168 002B     		cmp	r3, #0
 1317 016a 00D0     		beq	.L99
 1318              	.L100:
 1319              		.loc 1 381 0 is_stmt 0 discriminator 1
 1320 016c FEE7     		b	.L100
 1321              	.L99:
 1322              	.LBE27:
 382:..\..\..\..\..\simplelink\source/driver.c **** 
 383:..\..\..\..\..\simplelink\source/driver.c ****     /*  send the message */
 384:..\..\..\..\..\simplelink\source/driver.c ****     g_pCB->TempProtocolHeader.Opcode 	= pCmdCtrl->Opcode;
 1323              		.loc 1 384 0 is_stmt 1
 1324 016e 244B     		ldr	r3, .L108
 1325 0170 1B68     		ldr	r3, [r3]
 1326 0172 BA68     		ldr	r2, [r7, #8]
 1327 0174 1288     		ldrh	r2, [r2]
 1328 0176 DA80     		strh	r2, [r3, #6]
 385:..\..\..\..\..\simplelink\source/driver.c ****     g_pCB->TempProtocolHeader.Len	= _SL_PROTOCOL_CALC_LEN(pCmdCtrl,pCmdExt);
 1329              		.loc 1 385 0
 1330 0178 214B     		ldr	r3, .L108
 1331 017a 1A68     		ldr	r2, [r3]
 1332 017c 3B68     		ldr	r3, [r7]
 1333 017e 002B     		cmp	r3, #0
 1334 0180 10D0     		beq	.L101
 1335              		.loc 1 385 0 is_stmt 0 discriminator 1
 1336 0182 BB68     		ldr	r3, [r7, #8]
 1337 0184 9B78     		ldrb	r3, [r3, #2]
 1338 0186 0333     		add	r3, r3, #3
 1339 0188 9BB2     		uxth	r3, r3
 1340 018a 0321     		mov	r1, #3
 1341 018c 8B43     		bic	r3, r1
 1342 018e 99B2     		uxth	r1, r3
 1343 0190 3B68     		ldr	r3, [r7]
 1344 0192 1B88     		ldrh	r3, [r3]
 1345 0194 0333     		add	r3, r3, #3
 1346 0196 9BB2     		uxth	r3, r3
 1347 0198 0320     		mov	r0, #3
 1348 019a 8343     		bic	r3, r0
 1349 019c 9BB2     		uxth	r3, r3
 1350 019e CB18     		add	r3, r1, r3
 1351 01a0 9BB2     		uxth	r3, r3
 1352 01a2 06E0     		b	.L102
 1353              	.L101:
 1354              		.loc 1 385 0 discriminator 2
 1355 01a4 BB68     		ldr	r3, [r7, #8]
 1356 01a6 9B78     		ldrb	r3, [r3, #2]
 1357 01a8 0333     		add	r3, r3, #3
 1358 01aa 9BB2     		uxth	r3, r3
 1359 01ac 0321     		mov	r1, #3
 1360 01ae 8B43     		bic	r3, r1
ARM GAS  C:\Users\X0217454\AppData\Local\Temp\cc7UAvFx.s 			page 32


 1361 01b0 9BB2     		uxth	r3, r3
 1362              	.L102:
 1363              		.loc 1 385 0 discriminator 3
 1364 01b2 1381     		strh	r3, [r2, #8]
 386:..\..\..\..\..\simplelink\source/driver.c **** 
 387:..\..\..\..\..\simplelink\source/driver.c ****     g_pCB->FunctionParams.pCmdCtrl = pCmdCtrl;
 1365              		.loc 1 387 0 is_stmt 1 discriminator 3
 1366 01b4 124B     		ldr	r3, .L108
 1367 01b6 1A68     		ldr	r2, [r3]
 1368 01b8 9C23     		mov	r3, #156
 1369 01ba B968     		ldr	r1, [r7, #8]
 1370 01bc D150     		str	r1, [r2, r3]
 388:..\..\..\..\..\simplelink\source/driver.c ****     g_pCB->FunctionParams.pTxRxDescBuff = pTxRxDescBuff;
 1371              		.loc 1 388 0 discriminator 3
 1372 01be 104B     		ldr	r3, .L108
 1373 01c0 1A68     		ldr	r2, [r3]
 1374 01c2 A023     		mov	r3, #160
 1375 01c4 7968     		ldr	r1, [r7, #4]
 1376 01c6 D150     		str	r1, [r2, r3]
 389:..\..\..\..\..\simplelink\source/driver.c ****     g_pCB->FunctionParams.pCmdExt = pCmdExt;
 1377              		.loc 1 389 0 discriminator 3
 1378 01c8 0D4B     		ldr	r3, .L108
 1379 01ca 1A68     		ldr	r2, [r3]
 1380 01cc A423     		mov	r3, #164
 1381 01ce 3968     		ldr	r1, [r7]
 1382 01d0 D150     		str	r1, [r2, r3]
 390:..\..\..\..\..\simplelink\source/driver.c ****     RetVal =  _SlDrvMsgWrite();
 1383              		.loc 1 390 0 discriminator 3
 1384 01d2 FFF7FEFF 		bl	_SlDrvMsgWrite
 1385 01d6 031C     		mov	r3, r0
 1386 01d8 7B63     		str	r3, [r7, #52]
 1387              	.LBB28:
 391:..\..\..\..\..\simplelink\source/driver.c **** 
 392:..\..\..\..\..\simplelink\source/driver.c ****     OSI_RET_OK_CHECK( sl_LockObjUnlock(&g_pCB->GlobalLockObj) );
 1388              		.loc 1 392 0 discriminator 3
 1389 01da 094B     		ldr	r3, .L108
 1390 01dc 1B68     		ldr	r3, [r3]
 1391 01de 0433     		add	r3, r3, #4
 1392 01e0 181C     		mov	r0, r3
 1393 01e2 3321     		mov	r1, #51
 1394 01e4 FFF7FEFF 		bl	_SlNonOsSemSet
 1395 01e8 031C     		mov	r3, r0
 1396 01ea BB61     		str	r3, [r7, #24]
 1397 01ec BB69     		ldr	r3, [r7, #24]
 1398 01ee 002B     		cmp	r3, #0
 1399 01f0 00D0     		beq	.L103
 1400              	.L104:
 1401              		.loc 1 392 0 is_stmt 0 discriminator 1
 1402 01f2 FEE7     		b	.L104
 1403              	.L103:
 1404              	.LBE28:
 393:..\..\..\..\..\simplelink\source/driver.c **** 
 394:..\..\..\..\..\simplelink\source/driver.c ****     return(RetVal);
 1405              		.loc 1 394 0 is_stmt 1
 1406 01f4 7B6B     		ldr	r3, [r7, #52]
 1407              	.L84:
 395:..\..\..\..\..\simplelink\source/driver.c **** }
ARM GAS  C:\Users\X0217454\AppData\Local\Temp\cc7UAvFx.s 			page 33


 1408              		.loc 1 395 0
 1409 01f6 181C     		mov	r0, r3
 1410 01f8 BD46     		mov	sp, r7
 1411 01fa 0EB0     		add	sp, sp, #56
 1412              		@ sp needed for prologue
 1413 01fc 80BD     		pop	{r7, pc}
 1414              	.L109:
 1415 01fe C046     		.align	2
 1416              	.L108:
 1417 0200 00000000 		.word	g_pCB
 1418              		.cfi_endproc
 1419              	.LFE6:
 1420              		.size	_SlDrvDataWriteOp, .-_SlDrvDataWriteOp
 1421              		.section	.text._SlDrvMsgWrite,"ax",%progbits
 1422              		.align	2
 1423              		.global	_SlDrvMsgWrite
 1424              		.code	16
 1425              		.thumb_func
 1426              		.type	_SlDrvMsgWrite, %function
 1427              	_SlDrvMsgWrite:
 1428              	.LFB7:
 396:..\..\..\..\..\simplelink\source/driver.c **** 
 397:..\..\..\..\..\simplelink\source/driver.c **** /* ******************************************************************************/
 398:..\..\..\..\..\simplelink\source/driver.c **** /*  _SlDrvMsgWrite */
 399:..\..\..\..\..\simplelink\source/driver.c **** /* ******************************************************************************/
 400:..\..\..\..\..\simplelink\source/driver.c **** _SlReturnVal_t _SlDrvMsgWrite(void)
 401:..\..\..\..\..\simplelink\source/driver.c **** {
 1429              		.loc 1 401 0
 1430              		.cfi_startproc
 1431 0000 80B5     		push	{r7, lr}
 1432              	.LCFI21:
 1433              		.cfi_def_cfa_offset 8
 1434              		.cfi_offset 7, -8
 1435              		.cfi_offset 14, -4
 1436 0002 8AB0     		sub	sp, sp, #40
 1437              	.LCFI22:
 1438              		.cfi_def_cfa_offset 48
 1439 0004 00AF     		add	r7, sp, #0
 1440              	.LCFI23:
 1441              		.cfi_def_cfa_register 7
 402:..\..\..\..\..\simplelink\source/driver.c ****     VERIFY_PROTOCOL(NULL != g_pCB->FunctionParams.pCmdCtrl);
 1442              		.loc 1 402 0
 1443 0006 834B     		ldr	r3, .L129
 1444 0008 1A68     		ldr	r2, [r3]
 1445 000a 9C23     		mov	r3, #156
 1446 000c D358     		ldr	r3, [r2, r3]
 1447 000e 002B     		cmp	r3, #0
 1448 0010 00D1     		bne	.L111
 1449              	.L112:
 1450              		.loc 1 402 0 is_stmt 0 discriminator 1
 1451 0012 FEE7     		b	.L112
 1452              	.L111:
 403:..\..\..\..\..\simplelink\source/driver.c **** 
 404:..\..\..\..\..\simplelink\source/driver.c ****     g_pCB->TempProtocolHeader.Opcode 	= g_pCB->FunctionParams.pCmdCtrl->Opcode;
 1453              		.loc 1 404 0 is_stmt 1
 1454 0014 7F4B     		ldr	r3, .L129
 1455 0016 1A68     		ldr	r2, [r3]
ARM GAS  C:\Users\X0217454\AppData\Local\Temp\cc7UAvFx.s 			page 34


 1456 0018 7E4B     		ldr	r3, .L129
 1457 001a 1968     		ldr	r1, [r3]
 1458 001c 9C23     		mov	r3, #156
 1459 001e CB58     		ldr	r3, [r1, r3]
 1460 0020 1B88     		ldrh	r3, [r3]
 1461 0022 D380     		strh	r3, [r2, #6]
 405:..\..\..\..\..\simplelink\source/driver.c ****     g_pCB->TempProtocolHeader.Len	= _SL_PROTOCOL_CALC_LEN(g_pCB->FunctionParams.pCmdCtrl,
 1462              		.loc 1 405 0
 1463 0024 7B4B     		ldr	r3, .L129
 1464 0026 1A68     		ldr	r2, [r3]
 1465 0028 7A4B     		ldr	r3, .L129
 1466 002a 1968     		ldr	r1, [r3]
 1467 002c A423     		mov	r3, #164
 1468 002e CB58     		ldr	r3, [r1, r3]
 1469 0030 002B     		cmp	r3, #0
 1470 0032 16D0     		beq	.L113
 1471              		.loc 1 405 0 is_stmt 0 discriminator 1
 1472 0034 774B     		ldr	r3, .L129
 1473 0036 1968     		ldr	r1, [r3]
 1474 0038 9C23     		mov	r3, #156
 1475 003a CB58     		ldr	r3, [r1, r3]
 1476 003c 9B78     		ldrb	r3, [r3, #2]
 1477 003e 0333     		add	r3, r3, #3
 1478 0040 9BB2     		uxth	r3, r3
 1479 0042 0321     		mov	r1, #3
 1480 0044 8B43     		bic	r3, r1
 1481 0046 99B2     		uxth	r1, r3
 1482 0048 724B     		ldr	r3, .L129
 1483 004a 1868     		ldr	r0, [r3]
 1484 004c A423     		mov	r3, #164
 1485 004e C358     		ldr	r3, [r0, r3]
 1486 0050 1B88     		ldrh	r3, [r3]
 1487 0052 0333     		add	r3, r3, #3
 1488 0054 9BB2     		uxth	r3, r3
 1489 0056 0320     		mov	r0, #3
 1490 0058 8343     		bic	r3, r0
 1491 005a 9BB2     		uxth	r3, r3
 1492 005c CB18     		add	r3, r1, r3
 1493 005e 9BB2     		uxth	r3, r3
 1494 0060 09E0     		b	.L114
 1495              	.L113:
 1496              		.loc 1 405 0 discriminator 2
 1497 0062 6C4B     		ldr	r3, .L129
 1498 0064 1968     		ldr	r1, [r3]
 1499 0066 9C23     		mov	r3, #156
 1500 0068 CB58     		ldr	r3, [r1, r3]
 1501 006a 9B78     		ldrb	r3, [r3, #2]
 1502 006c 0333     		add	r3, r3, #3
 1503 006e 9BB2     		uxth	r3, r3
 1504 0070 0321     		mov	r1, #3
 1505 0072 8B43     		bic	r3, r1
 1506 0074 9BB2     		uxth	r3, r3
 1507              	.L114:
 1508              		.loc 1 405 0 discriminator 3
 1509 0076 1381     		strh	r3, [r2, #8]
 406:..\..\..\..\..\simplelink\source/driver.c ****                                                                 g_pCB->FunctionParams.pCmdExt);
 407:..\..\..\..\..\simplelink\source/driver.c ****     /*  */
ARM GAS  C:\Users\X0217454\AppData\Local\Temp\cc7UAvFx.s 			page 35


 408:..\..\..\..\..\simplelink\source/driver.c **** 	if (g_pCB->RelayFlagsViaRxPayload == TRUE)
 1510              		.loc 1 408 0 is_stmt 1 discriminator 3
 1511 0078 664B     		ldr	r3, .L129
 1512 007a 1A68     		ldr	r2, [r3]
 1513 007c 9B23     		mov	r3, #155
 1514 007e D35C     		ldrb	r3, [r2, r3]
 1515 0080 012B     		cmp	r3, #1
 1516 0082 0CD1     		bne	.L115
 409:..\..\..\..\..\simplelink\source/driver.c **** 	{
 410:..\..\..\..\..\simplelink\source/driver.c **** 		g_pCB->TempProtocolHeader.Len = g_pCB->TempProtocolHeader.Len + g_pCB->FunctionParams.pCmdExt->Rx
 1517              		.loc 1 410 0
 1518 0084 634B     		ldr	r3, .L129
 1519 0086 1A68     		ldr	r2, [r3]
 1520 0088 624B     		ldr	r3, .L129
 1521 008a 1B68     		ldr	r3, [r3]
 1522 008c 1989     		ldrh	r1, [r3, #8]
 1523 008e 614B     		ldr	r3, .L129
 1524 0090 1868     		ldr	r0, [r3]
 1525 0092 A423     		mov	r3, #164
 1526 0094 C358     		ldr	r3, [r0, r3]
 1527 0096 5B88     		ldrh	r3, [r3, #2]
 1528 0098 CB18     		add	r3, r1, r3
 1529 009a 9BB2     		uxth	r3, r3
 1530 009c 1381     		strh	r3, [r2, #8]
 1531              	.L115:
 1532              	.LBB29:
 411:..\..\..\..\..\simplelink\source/driver.c ****     }
 412:..\..\..\..\..\simplelink\source/driver.c **** 
 413:..\..\..\..\..\simplelink\source/driver.c **** #ifdef SL_START_WRITE_STAT
 414:..\..\..\..\..\simplelink\source/driver.c ****     sl_IfStartWriteSequence(g_pCB->FD);
 415:..\..\..\..\..\simplelink\source/driver.c **** #endif
 416:..\..\..\..\..\simplelink\source/driver.c **** 	
 417:..\..\..\..\..\simplelink\source/driver.c **** #ifdef SL_IF_TYPE_UART
 418:..\..\..\..\..\simplelink\source/driver.c **** 	/*  Write long sync pattern */
 419:..\..\..\..\..\simplelink\source/driver.c ****     NWP_IF_WRITE_CHECK(g_pCB->FD, (unsigned char *)&g_H2NSyncPattern.Long, 2*SYNC_PATTERN_LEN);
 1533              		.loc 1 419 0
 1534 009e 0823     		mov	r3, #8
 1535 00a0 7B62     		str	r3, [r7, #36]
 1536 00a2 5C4B     		ldr	r3, .L129
 1537 00a4 1B68     		ldr	r3, [r3]
 1538 00a6 1B68     		ldr	r3, [r3]
 1539 00a8 191C     		mov	r1, r3
 1540 00aa 5B4A     		ldr	r2, .L129+4
 1541 00ac 7B6A     		ldr	r3, [r7, #36]
 1542 00ae 081C     		mov	r0, r1
 1543 00b0 111C     		mov	r1, r2
 1544 00b2 1A1C     		mov	r2, r3
 1545 00b4 FFF7FEFF 		bl	uart_Write
 1546 00b8 031C     		mov	r3, r0
 1547 00ba 3B62     		str	r3, [r7, #32]
 1548 00bc 7A6A     		ldr	r2, [r7, #36]
 1549 00be 3B6A     		ldr	r3, [r7, #32]
 1550 00c0 9A42     		cmp	r2, r3
 1551 00c2 00D0     		beq	.L116
 1552              	.L117:
 1553              		.loc 1 419 0 is_stmt 0 discriminator 1
 1554 00c4 FEE7     		b	.L117
ARM GAS  C:\Users\X0217454\AppData\Local\Temp\cc7UAvFx.s 			page 36


 1555              	.L116:
 1556              	.LBE29:
 1557              	.LBB30:
 420:..\..\..\..\..\simplelink\source/driver.c **** #else
 421:..\..\..\..\..\simplelink\source/driver.c **** 	/*  Write short sync pattern */
 422:..\..\..\..\..\simplelink\source/driver.c **** 	NWP_IF_WRITE_CHECK(g_pCB->FD, (unsigned char *)&g_H2NSyncPattern.Short, SYNC_PATTERN_LEN);
 423:..\..\..\..\..\simplelink\source/driver.c **** #endif
 424:..\..\..\..\..\simplelink\source/driver.c **** 
 425:..\..\..\..\..\simplelink\source/driver.c ****     /*  Header */
 426:..\..\..\..\..\simplelink\source/driver.c ****     NWP_IF_WRITE_CHECK(g_pCB->FD, (unsigned char *)&g_pCB->TempProtocolHeader, _SL_CMD_HDR_SIZE);
 1558              		.loc 1 426 0 is_stmt 1
 1559 00c6 0423     		mov	r3, #4
 1560 00c8 FB61     		str	r3, [r7, #28]
 1561 00ca 524B     		ldr	r3, .L129
 1562 00cc 1B68     		ldr	r3, [r3]
 1563 00ce 1B68     		ldr	r3, [r3]
 1564 00d0 191C     		mov	r1, r3
 1565 00d2 504B     		ldr	r3, .L129
 1566 00d4 1B68     		ldr	r3, [r3]
 1567 00d6 9A1D     		add	r2, r3, #6
 1568 00d8 FB69     		ldr	r3, [r7, #28]
 1569 00da 081C     		mov	r0, r1
 1570 00dc 111C     		mov	r1, r2
 1571 00de 1A1C     		mov	r2, r3
 1572 00e0 FFF7FEFF 		bl	uart_Write
 1573 00e4 031C     		mov	r3, r0
 1574 00e6 BB61     		str	r3, [r7, #24]
 1575 00e8 FA69     		ldr	r2, [r7, #28]
 1576 00ea BB69     		ldr	r3, [r7, #24]
 1577 00ec 9A42     		cmp	r2, r3
 1578 00ee 00D0     		beq	.L118
 1579              	.L119:
 1580              		.loc 1 426 0 is_stmt 0 discriminator 1
 1581 00f0 FEE7     		b	.L119
 1582              	.L118:
 1583              	.LBE30:
 427:..\..\..\..\..\simplelink\source/driver.c **** 
 428:..\..\..\..\..\simplelink\source/driver.c ****     /*  Descriptors */
 429:..\..\..\..\..\simplelink\source/driver.c ****     if (g_pCB->FunctionParams.pTxRxDescBuff && g_pCB->FunctionParams.pCmdCtrl->TxDescLen > 0)
 1584              		.loc 1 429 0 is_stmt 1
 1585 00f2 484B     		ldr	r3, .L129
 1586 00f4 1A68     		ldr	r2, [r3]
 1587 00f6 A023     		mov	r3, #160
 1588 00f8 D358     		ldr	r3, [r2, r3]
 1589 00fa 002B     		cmp	r3, #0
 1590 00fc 24D0     		beq	.L120
 1591              		.loc 1 429 0 is_stmt 0 discriminator 1
 1592 00fe 454B     		ldr	r3, .L129
 1593 0100 1A68     		ldr	r2, [r3]
 1594 0102 9C23     		mov	r3, #156
 1595 0104 D358     		ldr	r3, [r2, r3]
 1596 0106 9B78     		ldrb	r3, [r3, #2]
 1597 0108 002B     		cmp	r3, #0
 1598 010a 1DD0     		beq	.L120
 1599              	.LBB31:
 430:..\..\..\..\..\simplelink\source/driver.c ****     {
 431:..\..\..\..\..\simplelink\source/driver.c ****     	NWP_IF_WRITE_CHECK(g_pCB->FD, g_pCB->FunctionParams.pTxRxDescBuff, 
ARM GAS  C:\Users\X0217454\AppData\Local\Temp\cc7UAvFx.s 			page 37


 1600              		.loc 1 431 0 is_stmt 1
 1601 010c 414B     		ldr	r3, .L129
 1602 010e 1A68     		ldr	r2, [r3]
 1603 0110 9C23     		mov	r3, #156
 1604 0112 D358     		ldr	r3, [r2, r3]
 1605 0114 9B78     		ldrb	r3, [r3, #2]
 1606 0116 0333     		add	r3, r3, #3
 1607 0118 0322     		mov	r2, #3
 1608 011a 9343     		bic	r3, r2
 1609 011c 7B61     		str	r3, [r7, #20]
 1610 011e 3D4B     		ldr	r3, .L129
 1611 0120 1B68     		ldr	r3, [r3]
 1612 0122 1B68     		ldr	r3, [r3]
 1613 0124 191C     		mov	r1, r3
 1614 0126 3B4B     		ldr	r3, .L129
 1615 0128 1A68     		ldr	r2, [r3]
 1616 012a A023     		mov	r3, #160
 1617 012c D258     		ldr	r2, [r2, r3]
 1618 012e 7B69     		ldr	r3, [r7, #20]
 1619 0130 081C     		mov	r0, r1
 1620 0132 111C     		mov	r1, r2
 1621 0134 1A1C     		mov	r2, r3
 1622 0136 FFF7FEFF 		bl	uart_Write
 1623 013a 031C     		mov	r3, r0
 1624 013c 3B61     		str	r3, [r7, #16]
 1625 013e 7A69     		ldr	r2, [r7, #20]
 1626 0140 3B69     		ldr	r3, [r7, #16]
 1627 0142 9A42     		cmp	r2, r3
 1628 0144 00D0     		beq	.L120
 1629              	.L121:
 1630              		.loc 1 431 0 is_stmt 0 discriminator 1
 1631 0146 FEE7     		b	.L121
 1632              	.L120:
 1633              	.LBE31:
 432:..\..\..\..\..\simplelink\source/driver.c ****                            _SL_PROTOCOL_ALIGN_SIZE(g_pCB->FunctionParams.pCmdCtrl->TxDescLen));
 433:..\..\..\..\..\simplelink\source/driver.c ****     }
 434:..\..\..\..\..\simplelink\source/driver.c **** 
 435:..\..\..\..\..\simplelink\source/driver.c **** 	/*  A special mode where Rx payload and Rx length are used as Tx as well */
 436:..\..\..\..\..\simplelink\source/driver.c **** 	/*  This mode requires no Rx payload on the response and currently used by fs_Close and sl_Send on
 437:..\..\..\..\..\simplelink\source/driver.c **** 	/*  tranceiver mode */
 438:..\..\..\..\..\simplelink\source/driver.c ****     if (g_pCB->RelayFlagsViaRxPayload == TRUE )
 1634              		.loc 1 438 0 is_stmt 1
 1635 0148 324B     		ldr	r3, .L129
 1636 014a 1A68     		ldr	r2, [r3]
 1637 014c 9B23     		mov	r3, #155
 1638 014e D35C     		ldrb	r3, [r2, r3]
 1639 0150 012B     		cmp	r3, #1
 1640 0152 23D1     		bne	.L122
 439:..\..\..\..\..\simplelink\source/driver.c ****     {
 440:..\..\..\..\..\simplelink\source/driver.c ****         g_pCB->RelayFlagsViaRxPayload = FALSE;
 1641              		.loc 1 440 0
 1642 0154 2F4B     		ldr	r3, .L129
 1643 0156 1A68     		ldr	r2, [r3]
 1644 0158 9B23     		mov	r3, #155
 1645 015a 0021     		mov	r1, #0
 1646 015c D154     		strb	r1, [r2, r3]
 1647              	.LBB32:
ARM GAS  C:\Users\X0217454\AppData\Local\Temp\cc7UAvFx.s 			page 38


 441:..\..\..\..\..\simplelink\source/driver.c ****      	NWP_IF_WRITE_CHECK(g_pCB->FD, g_pCB->FunctionParams.pCmdExt->pRxPayload, 
 1648              		.loc 1 441 0
 1649 015e 2D4B     		ldr	r3, .L129
 1650 0160 1A68     		ldr	r2, [r3]
 1651 0162 A423     		mov	r3, #164
 1652 0164 D358     		ldr	r3, [r2, r3]
 1653 0166 5B88     		ldrh	r3, [r3, #2]
 1654 0168 0333     		add	r3, r3, #3
 1655 016a 0322     		mov	r2, #3
 1656 016c 9343     		bic	r3, r2
 1657 016e FB60     		str	r3, [r7, #12]
 1658 0170 284B     		ldr	r3, .L129
 1659 0172 1B68     		ldr	r3, [r3]
 1660 0174 1B68     		ldr	r3, [r3]
 1661 0176 191C     		mov	r1, r3
 1662 0178 264B     		ldr	r3, .L129
 1663 017a 1A68     		ldr	r2, [r3]
 1664 017c A423     		mov	r3, #164
 1665 017e D358     		ldr	r3, [r2, r3]
 1666 0180 DA68     		ldr	r2, [r3, #12]
 1667 0182 FB68     		ldr	r3, [r7, #12]
 1668 0184 081C     		mov	r0, r1
 1669 0186 111C     		mov	r1, r2
 1670 0188 1A1C     		mov	r2, r3
 1671 018a FFF7FEFF 		bl	uart_Write
 1672 018e 031C     		mov	r3, r0
 1673 0190 BB60     		str	r3, [r7, #8]
 1674 0192 FA68     		ldr	r2, [r7, #12]
 1675 0194 BB68     		ldr	r3, [r7, #8]
 1676 0196 9A42     		cmp	r2, r3
 1677 0198 00D0     		beq	.L122
 1678              	.L123:
 1679              		.loc 1 441 0 is_stmt 0 discriminator 1
 1680 019a FEE7     		b	.L123
 1681              	.L122:
 1682              	.LBE32:
 442:..\..\..\..\..\simplelink\source/driver.c ****                            _SL_PROTOCOL_ALIGN_SIZE(g_pCB->FunctionParams.pCmdExt->RxPayloadLen));
 443:..\..\..\..\..\simplelink\source/driver.c ****     }
 444:..\..\..\..\..\simplelink\source/driver.c **** 	
 445:..\..\..\..\..\simplelink\source/driver.c ****     /*  Payload */
 446:..\..\..\..\..\simplelink\source/driver.c ****     if (g_pCB->FunctionParams.pCmdExt && g_pCB->FunctionParams.pCmdExt->TxPayloadLen > 0)
 1683              		.loc 1 446 0 is_stmt 1
 1684 019c 1D4B     		ldr	r3, .L129
 1685 019e 1A68     		ldr	r2, [r3]
 1686 01a0 A423     		mov	r3, #164
 1687 01a2 D358     		ldr	r3, [r2, r3]
 1688 01a4 002B     		cmp	r3, #0
 1689 01a6 2FD0     		beq	.L124
 1690              		.loc 1 446 0 is_stmt 0 discriminator 1
 1691 01a8 1A4B     		ldr	r3, .L129
 1692 01aa 1A68     		ldr	r2, [r3]
 1693 01ac A423     		mov	r3, #164
 1694 01ae D358     		ldr	r3, [r2, r3]
 1695 01b0 1B88     		ldrh	r3, [r3]
 1696 01b2 002B     		cmp	r3, #0
 1697 01b4 28D0     		beq	.L124
 447:..\..\..\..\..\simplelink\source/driver.c ****     {
ARM GAS  C:\Users\X0217454\AppData\Local\Temp\cc7UAvFx.s 			page 39


 448:..\..\..\..\..\simplelink\source/driver.c ****         /*  If the message has payload, it is mandatory that the message's arguments are protocol a
 449:..\..\..\..\..\simplelink\source/driver.c ****         /*  Otherwise the alignning of arguments will create a gap between argumants and payload. *
 450:..\..\..\..\..\simplelink\source/driver.c ****         VERIFY_PROTOCOL(_SL_IS_PROTOCOL_ALIGNED_SIZE(g_pCB->FunctionParams.pCmdCtrl->TxDescLen));
 1698              		.loc 1 450 0 is_stmt 1
 1699 01b6 174B     		ldr	r3, .L129
 1700 01b8 1A68     		ldr	r2, [r3]
 1701 01ba 9C23     		mov	r3, #156
 1702 01bc D358     		ldr	r3, [r2, r3]
 1703 01be 9B78     		ldrb	r3, [r3, #2]
 1704 01c0 1A1C     		mov	r2, r3
 1705 01c2 0323     		mov	r3, #3
 1706 01c4 1340     		and	r3, r2
 1707 01c6 00D0     		beq	.L125
 1708              	.L126:
 1709              		.loc 1 450 0 is_stmt 0 discriminator 1
 1710 01c8 FEE7     		b	.L126
 1711              	.L125:
 1712              	.LBB33:
 451:..\..\..\..\..\simplelink\source/driver.c **** 
 452:..\..\..\..\..\simplelink\source/driver.c ****     	NWP_IF_WRITE_CHECK(g_pCB->FD, g_pCB->FunctionParams.pCmdExt->pTxPayload, 
 1713              		.loc 1 452 0 is_stmt 1
 1714 01ca 124B     		ldr	r3, .L129
 1715 01cc 1A68     		ldr	r2, [r3]
 1716 01ce A423     		mov	r3, #164
 1717 01d0 D358     		ldr	r3, [r2, r3]
 1718 01d2 1B88     		ldrh	r3, [r3]
 1719 01d4 0333     		add	r3, r3, #3
 1720 01d6 0322     		mov	r2, #3
 1721 01d8 9343     		bic	r3, r2
 1722 01da 7B60     		str	r3, [r7, #4]
 1723 01dc 0D4B     		ldr	r3, .L129
 1724 01de 1B68     		ldr	r3, [r3]
 1725 01e0 1B68     		ldr	r3, [r3]
 1726 01e2 191C     		mov	r1, r3
 1727 01e4 0B4B     		ldr	r3, .L129
 1728 01e6 1A68     		ldr	r2, [r3]
 1729 01e8 A423     		mov	r3, #164
 1730 01ea D358     		ldr	r3, [r2, r3]
 1731 01ec 9A68     		ldr	r2, [r3, #8]
 1732 01ee 7B68     		ldr	r3, [r7, #4]
 1733 01f0 081C     		mov	r0, r1
 1734 01f2 111C     		mov	r1, r2
 1735 01f4 1A1C     		mov	r2, r3
 1736 01f6 FFF7FEFF 		bl	uart_Write
 1737 01fa 031C     		mov	r3, r0
 1738 01fc 3B60     		str	r3, [r7]
 1739 01fe 7A68     		ldr	r2, [r7, #4]
 1740 0200 3B68     		ldr	r3, [r7]
 1741 0202 9A42     		cmp	r2, r3
 1742 0204 00D0     		beq	.L124
 1743              	.L127:
 1744              		.loc 1 452 0 is_stmt 0 discriminator 1
 1745 0206 FEE7     		b	.L127
 1746              	.L124:
 1747              	.LBE33:
 453:..\..\..\..\..\simplelink\source/driver.c ****                            _SL_PROTOCOL_ALIGN_SIZE(g_pCB->FunctionParams.pCmdExt->TxPayloadLen));
 454:..\..\..\..\..\simplelink\source/driver.c ****     }
ARM GAS  C:\Users\X0217454\AppData\Local\Temp\cc7UAvFx.s 			page 40


 455:..\..\..\..\..\simplelink\source/driver.c **** 
 456:..\..\..\..\..\simplelink\source/driver.c **** 
 457:..\..\..\..\..\simplelink\source/driver.c ****     _SL_DBG_CNT_INC(MsgCnt.Write);
 458:..\..\..\..\..\simplelink\source/driver.c **** 
 459:..\..\..\..\..\simplelink\source/driver.c **** #ifdef SL_START_WRITE_STAT
 460:..\..\..\..\..\simplelink\source/driver.c ****     sl_IfEndWriteSequence(g_pCB->FD);
 461:..\..\..\..\..\simplelink\source/driver.c **** #endif
 462:..\..\..\..\..\simplelink\source/driver.c **** 
 463:..\..\..\..\..\simplelink\source/driver.c ****     return SL_OS_RET_CODE_OK;
 1748              		.loc 1 463 0 is_stmt 1
 1749 0208 0023     		mov	r3, #0
 464:..\..\..\..\..\simplelink\source/driver.c **** }
 1750              		.loc 1 464 0
 1751 020a 181C     		mov	r0, r3
 1752 020c BD46     		mov	sp, r7
 1753 020e 0AB0     		add	sp, sp, #40
 1754              		@ sp needed for prologue
 1755 0210 80BD     		pop	{r7, pc}
 1756              	.L130:
 1757 0212 C046     		.align	2
 1758              	.L129:
 1759 0214 00000000 		.word	g_pCB
 1760 0218 00000000 		.word	g_H2NSyncPattern
 1761              		.cfi_endproc
 1762              	.LFE7:
 1763              		.size	_SlDrvMsgWrite, .-_SlDrvMsgWrite
 1764              		.section	.text._SlDrvMsgRead,"ax",%progbits
 1765              		.align	2
 1766              		.global	_SlDrvMsgRead
 1767              		.code	16
 1768              		.thumb_func
 1769              		.type	_SlDrvMsgRead, %function
 1770              	_SlDrvMsgRead:
 1771              	.LFB8:
 465:..\..\..\..\..\simplelink\source/driver.c **** 
 466:..\..\..\..\..\simplelink\source/driver.c **** /* ******************************************************************************/
 467:..\..\..\..\..\simplelink\source/driver.c **** /*  _SlDrvMsgRead  */
 468:..\..\..\..\..\simplelink\source/driver.c **** /* ******************************************************************************/
 469:..\..\..\..\..\simplelink\source/driver.c **** #define OPCODE(_ptr)          (((_SlResponseHeader_t *)(_ptr))->GenHeader.Opcode)         
 470:..\..\..\..\..\simplelink\source/driver.c **** #define RSP_PAYLOAD_LEN(_ptr) (((_SlResponseHeader_t *)(_ptr))->GenHeader.Len - _SL_RESP_SPEC_HDR_S
 471:..\..\..\..\..\simplelink\source/driver.c **** #define SD(_ptr)              (((_SocketAddrResponse_u *)(_ptr))->IpV4.sd)
 472:..\..\..\..\..\simplelink\source/driver.c **** /*  Actual size of Recv/Recvfrom response data  */
 473:..\..\..\..\..\simplelink\source/driver.c **** #define ACT_DATA_SIZE(_ptr)   (((_SocketAddrResponse_u *)(_ptr))->IpV4.statusOrLen)
 474:..\..\..\..\..\simplelink\source/driver.c **** 
 475:..\..\..\..\..\simplelink\source/driver.c **** _SlReturnVal_t _SlDrvMsgRead(void)
 476:..\..\..\..\..\simplelink\source/driver.c **** {
 1772              		.loc 1 476 0
 1773              		.cfi_startproc
 1774 0000 80B5     		push	{r7, lr}
 1775              	.LCFI24:
 1776              		.cfi_def_cfa_offset 8
 1777              		.cfi_offset 7, -8
 1778              		.cfi_offset 14, -4
 1779 0002 A4B0     		sub	sp, sp, #144
 1780              	.LCFI25:
 1781              		.cfi_def_cfa_offset 152
 1782 0004 00AF     		add	r7, sp, #0
ARM GAS  C:\Users\X0217454\AppData\Local\Temp\cc7UAvFx.s 			page 41


 1783              	.LCFI26:
 1784              		.cfi_def_cfa_register 7
 1785              	.LBB34:
 477:..\..\..\..\..\simplelink\source/driver.c ****     /*  aligment for small memory models */
 478:..\..\..\..\..\simplelink\source/driver.c ****     union
 479:..\..\..\..\..\simplelink\source/driver.c ****     {      
 480:..\..\..\..\..\simplelink\source/driver.c ****       UINT8                TempBuf[_SL_RESP_HDR_SIZE];
 481:..\..\..\..\..\simplelink\source/driver.c ****       UINT32               DummyBuf[2];
 482:..\..\..\..\..\simplelink\source/driver.c ****     } uBuf;
 483:..\..\..\..\..\simplelink\source/driver.c ****     UINT8                TailBuffer[4];
 484:..\..\..\..\..\simplelink\source/driver.c ****     UINT16               LengthToCopy;
 485:..\..\..\..\..\simplelink\source/driver.c ****     UINT16               AlignedLengthRecv;
 486:..\..\..\..\..\simplelink\source/driver.c ****     UINT8                AlignSize;
 487:..\..\..\..\..\simplelink\source/driver.c **** 
 488:..\..\..\..\..\simplelink\source/driver.c ****     VERIFY_RET_OK(_SlDrvRxHdrRead((UINT8*)(uBuf.TempBuf), &AlignSize));
 1786              		.loc 1 488 0
 1787 0006 3A1C     		mov	r2, r7
 1788 0008 0832     		add	r2, r2, #8
 1789 000a FB1C     		add	r3, r7, #3
 1790 000c 101C     		mov	r0, r2
 1791 000e 191C     		mov	r1, r3
 1792 0010 FFF7FEFF 		bl	_SlDrvRxHdrRead
 1793 0014 031C     		mov	r3, r0
 1794 0016 8421     		mov	r1, #132
 1795 0018 C919     		add	r1, r1, r7
 1796 001a 0B60     		str	r3, [r1]
 1797 001c 8422     		mov	r2, #132
 1798 001e D219     		add	r2, r2, r7
 1799 0020 1368     		ldr	r3, [r2]
 1800 0022 002B     		cmp	r3, #0
 1801 0024 00D0     		beq	.L132
 1802              	.L133:
 1803              		.loc 1 488 0 is_stmt 0 discriminator 1
 1804 0026 FEE7     		b	.L133
 1805              	.L132:
 1806              	.LBE34:
 489:..\..\..\..\..\simplelink\source/driver.c **** 
 490:..\..\..\..\..\simplelink\source/driver.c ****     /* 'Init Compelete' message bears no valid FlowControl info */
 491:..\..\..\..\..\simplelink\source/driver.c ****     if(SL_OPCODE_DEVICE_INITCOMPLETE != OPCODE(uBuf.TempBuf))
 1807              		.loc 1 491 0 is_stmt 1
 1808 0028 3B1C     		mov	r3, r7
 1809 002a 0833     		add	r3, r3, #8
 1810 002c 1B88     		ldrh	r3, [r3]
 1811 002e 082B     		cmp	r3, #8
 1812 0030 2BD0     		beq	.L134
 492:..\..\..\..\..\simplelink\source/driver.c ****     {
 493:..\..\..\..\..\simplelink\source/driver.c ****         g_pCB->FlowContCB.TxPoolCnt = ((_SlResponseHeader_t *)uBuf.TempBuf)->TxPoolCnt;
 1813              		.loc 1 493 0
 1814 0032 B74B     		ldr	r3, .L207
 1815 0034 1A68     		ldr	r2, [r3]
 1816 0036 3B1C     		mov	r3, r7
 1817 0038 0833     		add	r3, r3, #8
 1818 003a 1979     		ldrb	r1, [r3, #4]
 1819 003c 9323     		mov	r3, #147
 1820 003e D154     		strb	r1, [r2, r3]
 494:..\..\..\..\..\simplelink\source/driver.c ****         g_pCB->SocketNonBlocking = ((_SlResponseHeader_t *)uBuf.TempBuf)->SocketNonBlocking;
 1821              		.loc 1 494 0
ARM GAS  C:\Users\X0217454\AppData\Local\Temp\cc7UAvFx.s 			page 42


 1822 0040 B34B     		ldr	r3, .L207
 1823 0042 1A68     		ldr	r2, [r3]
 1824 0044 3B1C     		mov	r3, r7
 1825 0046 0833     		add	r3, r3, #8
 1826 0048 D979     		ldrb	r1, [r3, #7]
 1827 004a 9923     		mov	r3, #153
 1828 004c D154     		strb	r1, [r2, r3]
 495:..\..\..\..\..\simplelink\source/driver.c **** 		g_pCB->SocketTXFailure = ((_SlResponseHeader_t *)uBuf.TempBuf)->SocketTXFailure;
 1829              		.loc 1 495 0
 1830 004e B04B     		ldr	r3, .L207
 1831 0050 1A68     		ldr	r2, [r3]
 1832 0052 3B1C     		mov	r3, r7
 1833 0054 0833     		add	r3, r3, #8
 1834 0056 9979     		ldrb	r1, [r3, #6]
 1835 0058 9A23     		mov	r3, #154
 1836 005a D154     		strb	r1, [r2, r3]
 496:..\..\..\..\..\simplelink\source/driver.c ****    
 497:..\..\..\..\..\simplelink\source/driver.c ****         if(g_pCB->FlowContCB.TxPoolCnt > FLOW_CONT_MIN)
 1837              		.loc 1 497 0
 1838 005c AC4B     		ldr	r3, .L207
 1839 005e 1A68     		ldr	r2, [r3]
 1840 0060 9323     		mov	r3, #147
 1841 0062 D35C     		ldrb	r3, [r2, r3]
 1842 0064 012B     		cmp	r3, #1
 1843 0066 10D9     		bls	.L134
 1844              	.LBB35:
 498:..\..\..\..\..\simplelink\source/driver.c ****         {
 499:..\..\..\..\..\simplelink\source/driver.c ****             OSI_RET_OK_CHECK(sl_SyncObjSignal(&g_pCB->FlowContCB.TxSyncObj));
 1845              		.loc 1 499 0
 1846 0068 A94B     		ldr	r3, .L207
 1847 006a 1B68     		ldr	r3, [r3]
 1848 006c 9533     		add	r3, r3, #149
 1849 006e 181C     		mov	r0, r3
 1850 0070 2221     		mov	r1, #34
 1851 0072 FFF7FEFF 		bl	_SlNonOsSemSet
 1852 0076 031C     		mov	r3, r0
 1853 0078 8021     		mov	r1, #128
 1854 007a C919     		add	r1, r1, r7
 1855 007c 0B60     		str	r3, [r1]
 1856 007e 8022     		mov	r2, #128
 1857 0080 D219     		add	r2, r2, r7
 1858 0082 1368     		ldr	r3, [r2]
 1859 0084 002B     		cmp	r3, #0
 1860 0086 00D0     		beq	.L134
 1861              	.L135:
 1862              		.loc 1 499 0 is_stmt 0 discriminator 1
 1863 0088 FEE7     		b	.L135
 1864              	.L134:
 1865              	.LBE35:
 500:..\..\..\..\..\simplelink\source/driver.c ****         }
 501:..\..\..\..\..\simplelink\source/driver.c ****     }
 502:..\..\..\..\..\simplelink\source/driver.c **** 
 503:..\..\..\..\..\simplelink\source/driver.c ****     _SlDrvClassifyRxMsg(OPCODE(uBuf.TempBuf));
 1866              		.loc 1 503 0 is_stmt 1
 1867 008a 3B1C     		mov	r3, r7
 1868 008c 0833     		add	r3, r3, #8
 1869 008e 1B88     		ldrh	r3, [r3]
ARM GAS  C:\Users\X0217454\AppData\Local\Temp\cc7UAvFx.s 			page 43


 1870 0090 181C     		mov	r0, r3
 1871 0092 FFF7FEFF 		bl	_SlDrvClassifyRxMsg
 504:..\..\..\..\..\simplelink\source/driver.c **** 
 505:..\..\..\..\..\simplelink\source/driver.c ****     switch(g_pCB->FunctionParams.AsyncExt.RxMsgClass)
 1872              		.loc 1 505 0
 1873 0096 9E4B     		ldr	r3, .L207
 1874 0098 1A68     		ldr	r2, [r3]
 1875 009a B423     		mov	r3, #180
 1876 009c D35C     		ldrb	r3, [r2, r3]
 1877 009e 012B     		cmp	r3, #1
 1878 00a0 00D1     		bne	.LCB1704
 1879 00a2 24E2     		b	.L138	@long jump
 1880              	.LCB1704:
 1881 00a4 022B     		cmp	r3, #2
 1882 00a6 03D0     		beq	.L139
 1883 00a8 002B     		cmp	r3, #0
 1884 00aa 00D1     		bne	.LCB1708
 1885 00ac D4E0     		b	.L137	@long jump
 1886              	.LCB1708:
 1887 00ae 2FE3     		b	.L202
 1888              	.L139:
 506:..\..\..\..\..\simplelink\source/driver.c ****     {
 507:..\..\..\..\..\simplelink\source/driver.c ****         case ASYNC_EVT_CLASS:
 508:..\..\..\..\..\simplelink\source/driver.c **** 
 509:..\..\..\..\..\simplelink\source/driver.c ****             VERIFY_PROTOCOL(NULL == g_pCB->FunctionParams.AsyncExt.pAsyncBuf);
 1889              		.loc 1 509 0
 1890 00b0 974B     		ldr	r3, .L207
 1891 00b2 1A68     		ldr	r2, [r3]
 1892 00b4 A823     		mov	r3, #168
 1893 00b6 D358     		ldr	r3, [r2, r3]
 1894 00b8 002B     		cmp	r3, #0
 1895 00ba 00D0     		beq	.L140
 1896              	.L141:
 1897              		.loc 1 509 0 is_stmt 0 discriminator 1
 1898 00bc FEE7     		b	.L141
 1899              	.L140:
 510:..\..\..\..\..\simplelink\source/driver.c **** 
 511:..\..\..\..\..\simplelink\source/driver.c **** #if (SL_MEMORY_MGMT == SL_MEMORY_MGMT_STATIC)
 512:..\..\..\..\..\simplelink\source/driver.c ****             g_pCB->FunctionParams.AsyncExt.pAsyncBuf = g_StatMem.AsyncRespBuf;
 1900              		.loc 1 512 0 is_stmt 1
 1901 00be 944B     		ldr	r3, .L207
 1902 00c0 1A68     		ldr	r2, [r3]
 1903 00c2 A823     		mov	r3, #168
 1904 00c4 9349     		ldr	r1, .L207+4
 1905 00c6 D150     		str	r1, [r2, r3]
 513:..\..\..\..\..\simplelink\source/driver.c **** #else
 514:..\..\..\..\..\simplelink\source/driver.c ****             g_pCB->FunctionParams.AsyncExt.pAsyncBuf = sl_Malloc(SL_ASYNC_MAX_MSG_LEN);
 515:..\..\..\..\..\simplelink\source/driver.c **** #endif
 516:..\..\..\..\..\simplelink\source/driver.c ****             MALLOC_OK_CHECK(g_pCB->FunctionParams.AsyncExt.pAsyncBuf);
 1906              		.loc 1 516 0
 1907 00c8 914B     		ldr	r3, .L207
 1908 00ca 1A68     		ldr	r2, [r3]
 1909 00cc A823     		mov	r3, #168
 1910 00ce D358     		ldr	r3, [r2, r3]
 1911 00d0 002B     		cmp	r3, #0
 1912 00d2 00D1     		bne	.L142
 1913              	.L143:
ARM GAS  C:\Users\X0217454\AppData\Local\Temp\cc7UAvFx.s 			page 44


 1914              		.loc 1 516 0 is_stmt 0 discriminator 1
 1915 00d4 FEE7     		b	.L143
 1916              	.L142:
 517:..\..\..\..\..\simplelink\source/driver.c **** 
 518:..\..\..\..\..\simplelink\source/driver.c ****             sl_Memcpy(g_pCB->FunctionParams.AsyncExt.pAsyncBuf, uBuf.TempBuf, _SL_RESP_HDR_SIZE);
 1917              		.loc 1 518 0 is_stmt 1
 1918 00d6 8E4B     		ldr	r3, .L207
 1919 00d8 1A68     		ldr	r2, [r3]
 1920 00da A823     		mov	r3, #168
 1921 00dc D258     		ldr	r2, [r2, r3]
 1922 00de 3B1C     		mov	r3, r7
 1923 00e0 0833     		add	r3, r3, #8
 1924 00e2 111C     		mov	r1, r2
 1925 00e4 1A1C     		mov	r2, r3
 1926 00e6 0823     		mov	r3, #8
 1927 00e8 081C     		mov	r0, r1
 1928 00ea 111C     		mov	r1, r2
 1929 00ec 1A1C     		mov	r2, r3
 1930 00ee FFF7FEFF 		bl	memcpy
 519:..\..\..\..\..\simplelink\source/driver.c **** 
 520:..\..\..\..\..\simplelink\source/driver.c ****             /*  This is an Async message. Read the rest of it. */
 521:..\..\..\..\..\simplelink\source/driver.c **** 			if (_SL_PROTOCOL_ALIGN_SIZE(RSP_PAYLOAD_LEN(uBuf.TempBuf)) <= SL_ASYNC_MAX_PAYLOAD_LEN)
 1931              		.loc 1 521 0
 1932 00f2 3B1C     		mov	r3, r7
 1933 00f4 0833     		add	r3, r3, #8
 1934 00f6 5B88     		ldrh	r3, [r3, #2]
 1935 00f8 013B     		sub	r3, r3, #1
 1936 00fa 0322     		mov	r2, #3
 1937 00fc 9343     		bic	r3, r2
 1938 00fe A02B     		cmp	r3, #160
 1939 0100 0AD8     		bhi	.L144
 522:..\..\..\..\..\simplelink\source/driver.c **** 			{
 523:..\..\..\..\..\simplelink\source/driver.c **** 				AlignedLengthRecv = _SL_PROTOCOL_ALIGN_SIZE(RSP_PAYLOAD_LEN(uBuf.TempBuf));
 1940              		.loc 1 523 0
 1941 0102 3B1C     		mov	r3, r7
 1942 0104 0833     		add	r3, r3, #8
 1943 0106 5B88     		ldrh	r3, [r3, #2]
 1944 0108 013B     		sub	r3, r3, #1
 1945 010a 9AB2     		uxth	r2, r3
 1946 010c 3B1C     		mov	r3, r7
 1947 010e 8C33     		add	r3, r3, #140
 1948 0110 0321     		mov	r1, #3
 1949 0112 8A43     		bic	r2, r1
 1950 0114 1A80     		strh	r2, [r3]
 1951 0116 03E0     		b	.L145
 1952              	.L144:
 524:..\..\..\..\..\simplelink\source/driver.c **** 			}
 525:..\..\..\..\..\simplelink\source/driver.c **** 			else
 526:..\..\..\..\..\simplelink\source/driver.c **** 			{
 527:..\..\..\..\..\simplelink\source/driver.c **** 				AlignedLengthRecv = _SL_PROTOCOL_ALIGN_SIZE(SL_ASYNC_MAX_PAYLOAD_LEN);
 1953              		.loc 1 527 0
 1954 0118 3B1C     		mov	r3, r7
 1955 011a 8C33     		add	r3, r3, #140
 1956 011c A022     		mov	r2, #160
 1957 011e 1A80     		strh	r2, [r3]
 1958              	.L145:
 528:..\..\..\..\..\simplelink\source/driver.c **** 			}
ARM GAS  C:\Users\X0217454\AppData\Local\Temp\cc7UAvFx.s 			page 45


 529:..\..\..\..\..\simplelink\source/driver.c **** 
 530:..\..\..\..\..\simplelink\source/driver.c ****             if (RSP_PAYLOAD_LEN(uBuf.TempBuf) > 0)
 1959              		.loc 1 530 0
 1960 0120 3B1C     		mov	r3, r7
 1961 0122 0833     		add	r3, r3, #8
 1962 0124 5B88     		ldrh	r3, [r3, #2]
 1963 0126 042B     		cmp	r3, #4
 1964 0128 1AD0     		beq	.L146
 1965              	.LBB36:
 531:..\..\..\..\..\simplelink\source/driver.c ****             {
 532:..\..\..\..\..\simplelink\source/driver.c ****                 NWP_IF_READ_CHECK(g_pCB->FD,
 1966              		.loc 1 532 0
 1967 012a 3B1C     		mov	r3, r7
 1968 012c 8C33     		add	r3, r3, #140
 1969 012e 1B88     		ldrh	r3, [r3]
 1970 0130 FB67     		str	r3, [r7, #124]
 1971 0132 774B     		ldr	r3, .L207
 1972 0134 1B68     		ldr	r3, [r3]
 1973 0136 1B68     		ldr	r3, [r3]
 1974 0138 191C     		mov	r1, r3
 1975 013a 754B     		ldr	r3, .L207
 1976 013c 1A68     		ldr	r2, [r3]
 1977 013e A823     		mov	r3, #168
 1978 0140 D358     		ldr	r3, [r2, r3]
 1979 0142 1A1C     		mov	r2, r3
 1980 0144 0832     		add	r2, r2, #8
 1981 0146 FB6F     		ldr	r3, [r7, #124]
 1982 0148 081C     		mov	r0, r1
 1983 014a 111C     		mov	r1, r2
 1984 014c 1A1C     		mov	r2, r3
 1985 014e FFF7FEFF 		bl	uart_Read
 1986 0152 031C     		mov	r3, r0
 1987 0154 BB67     		str	r3, [r7, #120]
 1988 0156 FA6F     		ldr	r2, [r7, #124]
 1989 0158 BB6F     		ldr	r3, [r7, #120]
 1990 015a 9A42     		cmp	r2, r3
 1991 015c 00D0     		beq	.L146
 1992              	.L147:
 1993              		.loc 1 532 0 is_stmt 0 discriminator 1
 1994 015e FEE7     		b	.L147
 1995              	.L146:
 1996              	.LBE36:
 533:..\..\..\..\..\simplelink\source/driver.c ****                                    g_pCB->FunctionParams.AsyncExt.pAsyncBuf + _SL_RESP_HDR_SIZE,
 534:..\..\..\..\..\simplelink\source/driver.c ****                                    AlignedLengthRecv);
 535:..\..\..\..\..\simplelink\source/driver.c ****             }
 536:..\..\..\..\..\simplelink\source/driver.c **** 			/* In case ASYNC RX buffer length is smaller then the received data length, dump the rest */
 537:..\..\..\..\..\simplelink\source/driver.c **** 			if ((_SL_PROTOCOL_ALIGN_SIZE(RSP_PAYLOAD_LEN(uBuf.TempBuf)) > SL_ASYNC_MAX_PAYLOAD_LEN))
 1997              		.loc 1 537 0 is_stmt 1
 1998 0160 3B1C     		mov	r3, r7
 1999 0162 0833     		add	r3, r3, #8
 2000 0164 5B88     		ldrh	r3, [r3, #2]
 2001 0166 013B     		sub	r3, r3, #1
 2002 0168 0322     		mov	r2, #3
 2003 016a 9343     		bic	r3, r2
 2004 016c A02B     		cmp	r3, #160
 2005 016e 2CD9     		bls	.L148
 538:..\..\..\..\..\simplelink\source/driver.c **** 			{
ARM GAS  C:\Users\X0217454\AppData\Local\Temp\cc7UAvFx.s 			page 46


 539:..\..\..\..\..\simplelink\source/driver.c **** 				AlignedLengthRecv = _SL_PROTOCOL_ALIGN_SIZE(RSP_PAYLOAD_LEN(uBuf.TempBuf)) - SL_ASYNC_MAX_PAYLO
 2006              		.loc 1 539 0
 2007 0170 3B1C     		mov	r3, r7
 2008 0172 0833     		add	r3, r3, #8
 2009 0174 5B88     		ldrh	r3, [r3, #2]
 2010 0176 013B     		sub	r3, r3, #1
 2011 0178 9BB2     		uxth	r3, r3
 2012 017a 0322     		mov	r2, #3
 2013 017c 9343     		bic	r3, r2
 2014 017e 9AB2     		uxth	r2, r3
 2015 0180 3B1C     		mov	r3, r7
 2016 0182 8C33     		add	r3, r3, #140
 2017 0184 A03A     		sub	r2, r2, #160
 2018 0186 1A80     		strh	r2, [r3]
 540:..\..\..\..\..\simplelink\source/driver.c **** 				while (AlignedLengthRecv > 0)
 2019              		.loc 1 540 0
 2020 0188 1AE0     		b	.L149
 2021              	.L152:
 2022              	.LBB37:
 541:..\..\..\..\..\simplelink\source/driver.c **** 				{
 542:..\..\..\..\..\simplelink\source/driver.c **** 					NWP_IF_READ_CHECK(g_pCB->FD,TailBuffer,4);
 2023              		.loc 1 542 0
 2024 018a 0423     		mov	r3, #4
 2025 018c 7B67     		str	r3, [r7, #116]
 2026 018e 604B     		ldr	r3, .L207
 2027 0190 1B68     		ldr	r3, [r3]
 2028 0192 1B68     		ldr	r3, [r3]
 2029 0194 191C     		mov	r1, r3
 2030 0196 3A1D     		add	r2, r7, #4
 2031 0198 7B6F     		ldr	r3, [r7, #116]
 2032 019a 081C     		mov	r0, r1
 2033 019c 111C     		mov	r1, r2
 2034 019e 1A1C     		mov	r2, r3
 2035 01a0 FFF7FEFF 		bl	uart_Read
 2036 01a4 031C     		mov	r3, r0
 2037 01a6 3B67     		str	r3, [r7, #112]
 2038 01a8 7A6F     		ldr	r2, [r7, #116]
 2039 01aa 3B6F     		ldr	r3, [r7, #112]
 2040 01ac 9A42     		cmp	r2, r3
 2041 01ae 00D0     		beq	.L150
 2042              	.L151:
 2043              		.loc 1 542 0 is_stmt 0 discriminator 1
 2044 01b0 FEE7     		b	.L151
 2045              	.L150:
 2046              	.LBE37:
 543:..\..\..\..\..\simplelink\source/driver.c **** 					AlignedLengthRecv = AlignedLengthRecv - 4;
 2047              		.loc 1 543 0 is_stmt 1
 2048 01b2 3B1C     		mov	r3, r7
 2049 01b4 8C33     		add	r3, r3, #140
 2050 01b6 3A1C     		mov	r2, r7
 2051 01b8 8C32     		add	r2, r2, #140
 2052 01ba 1288     		ldrh	r2, [r2]
 2053 01bc 043A     		sub	r2, r2, #4
 2054 01be 1A80     		strh	r2, [r3]
 2055              	.L149:
 540:..\..\..\..\..\simplelink\source/driver.c **** 				while (AlignedLengthRecv > 0)
 2056              		.loc 1 540 0 discriminator 1
ARM GAS  C:\Users\X0217454\AppData\Local\Temp\cc7UAvFx.s 			page 47


 2057 01c0 3B1C     		mov	r3, r7
 2058 01c2 8C33     		add	r3, r3, #140
 2059 01c4 1B88     		ldrh	r3, [r3]
 2060 01c6 002B     		cmp	r3, #0
 2061 01c8 DFD1     		bne	.L152
 2062              	.L148:
 2063              	.LBB38:
 544:..\..\..\..\..\simplelink\source/driver.c **** 				}
 545:..\..\..\..\..\simplelink\source/driver.c **** 			}
 546:..\..\..\..\..\simplelink\source/driver.c ****             OSI_RET_OK_CHECK(sl_LockObjLock(&g_pCB->ProtectionLockObj, SL_OS_WAIT_FOREVER)); 
 2064              		.loc 1 546 0
 2065 01ca 514B     		ldr	r3, .L207
 2066 01cc 1B68     		ldr	r3, [r3]
 2067 01ce 9033     		add	r3, r3, #144
 2068 01d0 181C     		mov	r0, r3
 2069 01d2 3321     		mov	r1, #51
 2070 01d4 4422     		mov	r2, #68
 2071 01d6 FF23     		mov	r3, #255
 2072 01d8 FFF7FEFF 		bl	_SlNonOsSemGet
 2073 01dc 031C     		mov	r3, r0
 2074 01de FB66     		str	r3, [r7, #108]
 2075 01e0 FB6E     		ldr	r3, [r7, #108]
 2076 01e2 002B     		cmp	r3, #0
 2077 01e4 00D0     		beq	.L153
 2078              	.L154:
 2079              		.loc 1 546 0 is_stmt 0 discriminator 1
 2080 01e6 FEE7     		b	.L154
 2081              	.L153:
 2082              	.LBE38:
 547:..\..\..\..\..\simplelink\source/driver.c **** 
 548:..\..\..\..\..\simplelink\source/driver.c **** 			if ((SL_OPCODE_SOCKET_ACCEPTASYNCRESPONSE == OPCODE(uBuf.TempBuf)) || (SL_OPCODE_SOCKET_ACCEPTAS
 2083              		.loc 1 548 0 is_stmt 1
 2084 01e8 3B1C     		mov	r3, r7
 2085 01ea 0833     		add	r3, r3, #8
 2086 01ec 1A88     		ldrh	r2, [r3]
 2087 01ee 4A4B     		ldr	r3, .L207+8
 2088 01f0 9A42     		cmp	r2, r3
 2089 01f2 0BD0     		beq	.L155
 2090              		.loc 1 548 0 is_stmt 0 discriminator 1
 2091 01f4 3B1C     		mov	r3, r7
 2092 01f6 0833     		add	r3, r3, #8
 2093 01f8 1A88     		ldrh	r2, [r3]
 2094 01fa 484B     		ldr	r3, .L207+12
 2095 01fc 9A42     		cmp	r2, r3
 2096 01fe 05D0     		beq	.L155
 2097 0200 3B1C     		mov	r3, r7
 2098 0202 0833     		add	r3, r3, #8
 2099 0204 1A88     		ldrh	r2, [r3]
 2100 0206 464B     		ldr	r3, .L207+16
 2101 0208 9A42     		cmp	r2, r3
 2102 020a 10D1     		bne	.L156
 2103              	.L155:
 549:..\..\..\..\..\simplelink\source/driver.c **** 			{
 550:..\..\..\..\..\simplelink\source/driver.c **** 				/* go over the active list if exist to find obj waiting for this Async event */
 551:..\..\..\..\..\simplelink\source/driver.c **** 				_SlFindAndSetActiveObj(OPCODE(uBuf.TempBuf),(((_SocketResponse_t *)(g_pCB->FunctionParams.Async
 2104              		.loc 1 551 0 is_stmt 1
 2105 020c 3B1C     		mov	r3, r7
ARM GAS  C:\Users\X0217454\AppData\Local\Temp\cc7UAvFx.s 			page 48


 2106 020e 0833     		add	r3, r3, #8
 2107 0210 1A88     		ldrh	r2, [r3]
 2108 0212 3F4B     		ldr	r3, .L207
 2109 0214 1968     		ldr	r1, [r3]
 2110 0216 A823     		mov	r3, #168
 2111 0218 CB58     		ldr	r3, [r1, r3]
 2112 021a 0833     		add	r3, r3, #8
 2113 021c 9978     		ldrb	r1, [r3, #2]
 2114 021e 0F23     		mov	r3, #15
 2115 0220 0B40     		and	r3, r1
 2116 0222 DBB2     		uxtb	r3, r3
 2117 0224 101C     		mov	r0, r2
 2118 0226 191C     		mov	r1, r3
 2119 0228 FFF7FEFF 		bl	_SlFindAndSetActiveObj
 2120 022c 06E0     		b	.L157
 2121              	.L156:
 552:..\..\..\..\..\simplelink\source/driver.c **** 			}
 553:..\..\..\..\..\simplelink\source/driver.c **** 			else
 554:..\..\..\..\..\simplelink\source/driver.c **** 			{
 555:..\..\..\..\..\simplelink\source/driver.c **** 				_SlFindAndSetActiveObj(OPCODE(uBuf.TempBuf),SL_MAX_SOCKETS);
 2122              		.loc 1 555 0
 2123 022e 3B1C     		mov	r3, r7
 2124 0230 0833     		add	r3, r3, #8
 2125 0232 1B88     		ldrh	r3, [r3]
 2126 0234 181C     		mov	r0, r3
 2127 0236 0821     		mov	r1, #8
 2128 0238 FFF7FEFF 		bl	_SlFindAndSetActiveObj
 2129              	.L157:
 2130              	.LBB39:
 556:..\..\..\..\..\simplelink\source/driver.c **** 			}
 557:..\..\..\..\..\simplelink\source/driver.c ****             OSI_RET_OK_CHECK(sl_LockObjUnlock(&g_pCB->ProtectionLockObj));
 2131              		.loc 1 557 0
 2132 023c 344B     		ldr	r3, .L207
 2133 023e 1B68     		ldr	r3, [r3]
 2134 0240 9033     		add	r3, r3, #144
 2135 0242 181C     		mov	r0, r3
 2136 0244 3321     		mov	r1, #51
 2137 0246 FFF7FEFF 		bl	_SlNonOsSemSet
 2138 024a 031C     		mov	r3, r0
 2139 024c BB66     		str	r3, [r7, #104]
 2140 024e BB6E     		ldr	r3, [r7, #104]
 2141 0250 002B     		cmp	r3, #0
 2142 0252 00D1     		bne	.LCB1959
 2143 0254 5DE2     		b	.L204	@long jump
 2144              	.LCB1959:
 2145              	.L159:
 2146              		.loc 1 557 0 is_stmt 0 discriminator 1
 2147 0256 FEE7     		b	.L159
 2148              	.L137:
 2149              	.LBE39:
 2150              	.LBB40:
 558:..\..\..\..\..\simplelink\source/driver.c **** 
 559:..\..\..\..\..\simplelink\source/driver.c ****             break;
 560:..\..\..\..\..\simplelink\source/driver.c **** 
 561:..\..\..\..\..\simplelink\source/driver.c ****         case RECV_RESP_CLASS:
 562:..\..\..\..\..\simplelink\source/driver.c ****             {
 563:..\..\..\..\..\simplelink\source/driver.c ****                 UINT8   ExpArgSize; /*  Expected size of Recv/Recvfrom arguments */
ARM GAS  C:\Users\X0217454\AppData\Local\Temp\cc7UAvFx.s 			page 49


 564:..\..\..\..\..\simplelink\source/driver.c **** 
 565:..\..\..\..\..\simplelink\source/driver.c ****                 switch(OPCODE(uBuf.TempBuf))
 2151              		.loc 1 565 0 is_stmt 1
 2152 0258 3B1C     		mov	r3, r7
 2153 025a 0833     		add	r3, r3, #8
 2154 025c 1B88     		ldrh	r3, [r3]
 2155 025e 314A     		ldr	r2, .L207+20
 2156 0260 9342     		cmp	r3, r2
 2157 0262 03D0     		beq	.L162
 2158 0264 304A     		ldr	r2, .L207+24
 2159 0266 9342     		cmp	r3, r2
 2160 0268 05D0     		beq	.L163
 2161 026a 09E0     		b	.L203
 2162              	.L162:
 566:..\..\..\..\..\simplelink\source/driver.c ****                 {
 567:..\..\..\..\..\simplelink\source/driver.c ****                     case SL_OPCODE_SOCKET_RECVFROMASYNCRESPONSE:
 568:..\..\..\..\..\simplelink\source/driver.c ****                         ExpArgSize = RECVFROM_IPV4_ARGS_SIZE;
 2163              		.loc 1 568 0
 2164 026c 3B1C     		mov	r3, r7
 2165 026e 8B33     		add	r3, r3, #139
 2166 0270 0C22     		mov	r2, #12
 2167 0272 1A70     		strb	r2, [r3]
 569:..\..\..\..\..\simplelink\source/driver.c ****                         break;
 2168              		.loc 1 569 0
 2169 0274 08E0     		b	.L164
 2170              	.L163:
 570:..\..\..\..\..\simplelink\source/driver.c ****                     case SL_OPCODE_SOCKET_RECVFROMASYNCRESPONSE_V6:
 571:..\..\..\..\..\simplelink\source/driver.c ****                         ExpArgSize = RECVFROM_IPV6_ARGS_SIZE;
 2171              		.loc 1 571 0
 2172 0276 3B1C     		mov	r3, r7
 2173 0278 8B33     		add	r3, r3, #139
 2174 027a 1822     		mov	r2, #24
 2175 027c 1A70     		strb	r2, [r3]
 572:..\..\..\..\..\simplelink\source/driver.c ****                         break;
 2176              		.loc 1 572 0
 2177 027e 03E0     		b	.L164
 2178              	.L203:
 573:..\..\..\..\..\simplelink\source/driver.c ****                     default:
 574:..\..\..\..\..\simplelink\source/driver.c ****                         /* SL_OPCODE_SOCKET_RECVASYNCRESPONSE: */
 575:..\..\..\..\..\simplelink\source/driver.c ****                         ExpArgSize = RECV_ARGS_SIZE;
 2179              		.loc 1 575 0
 2180 0280 3B1C     		mov	r3, r7
 2181 0282 8B33     		add	r3, r3, #139
 2182 0284 0422     		mov	r2, #4
 2183 0286 1A70     		strb	r2, [r3]
 2184              	.L164:
 2185              	.LBB41:
 576:..\..\..\..\..\simplelink\source/driver.c ****                 }              
 577:..\..\..\..\..\simplelink\source/driver.c ****                 
 578:..\..\..\..\..\simplelink\source/driver.c ****                 /*  Read first 4 bytes of Recv/Recvfrom response to get SocketId and actual  */
 579:..\..\..\..\..\simplelink\source/driver.c ****                 /*  response data length */
 580:..\..\..\..\..\simplelink\source/driver.c ****                 NWP_IF_READ_CHECK(g_pCB->FD, &uBuf.TempBuf[4], RECV_ARGS_SIZE);
 2186              		.loc 1 580 0
 2187 0288 0423     		mov	r3, #4
 2188 028a 7B66     		str	r3, [r7, #100]
 2189 028c 204B     		ldr	r3, .L207
 2190 028e 1B68     		ldr	r3, [r3]
ARM GAS  C:\Users\X0217454\AppData\Local\Temp\cc7UAvFx.s 			page 50


 2191 0290 1B68     		ldr	r3, [r3]
 2192 0292 191C     		mov	r1, r3
 2193 0294 3B1C     		mov	r3, r7
 2194 0296 0833     		add	r3, r3, #8
 2195 0298 1A1D     		add	r2, r3, #4
 2196 029a 7B6E     		ldr	r3, [r7, #100]
 2197 029c 081C     		mov	r0, r1
 2198 029e 111C     		mov	r1, r2
 2199 02a0 1A1C     		mov	r2, r3
 2200 02a2 FFF7FEFF 		bl	uart_Read
 2201 02a6 031C     		mov	r3, r0
 2202 02a8 3B66     		str	r3, [r7, #96]
 2203 02aa 7A6E     		ldr	r2, [r7, #100]
 2204 02ac 3B6E     		ldr	r3, [r7, #96]
 2205 02ae 9A42     		cmp	r2, r3
 2206 02b0 00D0     		beq	.L165
 2207              	.L166:
 2208              		.loc 1 580 0 is_stmt 0 discriminator 1
 2209 02b2 FEE7     		b	.L166
 2210              	.L165:
 2211              	.LBE41:
 581:..\..\..\..\..\simplelink\source/driver.c **** 
 582:..\..\..\..\..\simplelink\source/driver.c ****                 /*  Validate Socket ID and Received Length value.  */
 583:..\..\..\..\..\simplelink\source/driver.c ****                 VERIFY_PROTOCOL((SD(&uBuf.TempBuf[4])& BSD_SOCKET_ID_MASK) < SL_MAX_SOCKETS);
 2212              		.loc 1 583 0 is_stmt 1
 2213 02b4 3B1C     		mov	r3, r7
 2214 02b6 0833     		add	r3, r3, #8
 2215 02b8 0433     		add	r3, r3, #4
 2216 02ba 9B78     		ldrb	r3, [r3, #2]
 2217 02bc 1A1C     		mov	r2, r3
 2218 02be 0F23     		mov	r3, #15
 2219 02c0 1340     		and	r3, r2
 2220 02c2 072B     		cmp	r3, #7
 2221 02c4 00DD     		ble	.L167
 2222              	.L168:
 2223              		.loc 1 583 0 is_stmt 0 discriminator 1
 2224 02c6 FEE7     		b	.L168
 2225              	.L167:
 2226              	.LBB42:
 584:..\..\..\..\..\simplelink\source/driver.c **** 
 585:..\..\..\..\..\simplelink\source/driver.c ****                  OSI_RET_OK_CHECK(sl_LockObjLock(&g_pCB->ProtectionLockObj, SL_OS_WAIT_FOREVER)); 
 2227              		.loc 1 585 0 is_stmt 1
 2228 02c8 114B     		ldr	r3, .L207
 2229 02ca 1B68     		ldr	r3, [r3]
 2230 02cc 9033     		add	r3, r3, #144
 2231 02ce 181C     		mov	r0, r3
 2232 02d0 3321     		mov	r1, #51
 2233 02d2 4422     		mov	r2, #68
 2234 02d4 FF23     		mov	r3, #255
 2235 02d6 FFF7FEFF 		bl	_SlNonOsSemGet
 2236 02da 031C     		mov	r3, r0
 2237 02dc FB65     		str	r3, [r7, #92]
 2238 02de FB6D     		ldr	r3, [r7, #92]
 2239 02e0 002B     		cmp	r3, #0
 2240 02e2 00D0     		beq	.L169
 2241              	.L170:
 2242              		.loc 1 585 0 is_stmt 0 discriminator 1
ARM GAS  C:\Users\X0217454\AppData\Local\Temp\cc7UAvFx.s 			page 51


 2243 02e4 FEE7     		b	.L170
 2244              	.L169:
 2245              	.LBE42:
 2246              	.LBB43:
 586:..\..\..\..\..\simplelink\source/driver.c **** 
 587:..\..\..\..\..\simplelink\source/driver.c **** 				/* go over the active list if exist to find obj waiting for this Async event */
 588:..\..\..\..\..\simplelink\source/driver.c **** 				VERIFY_RET_OK(_SlFindAndSetActiveObj(OPCODE(uBuf.TempBuf),SD(&uBuf.TempBuf[4]) & BSD_SOCKET_ID_
 2247              		.loc 1 588 0 is_stmt 1
 2248 02e6 3B1C     		mov	r3, r7
 2249 02e8 0833     		add	r3, r3, #8
 2250 02ea 1A88     		ldrh	r2, [r3]
 2251 02ec 3B1C     		mov	r3, r7
 2252 02ee 0833     		add	r3, r3, #8
 2253 02f0 0433     		add	r3, r3, #4
 2254 02f2 9978     		ldrb	r1, [r3, #2]
 2255 02f4 0F23     		mov	r3, #15
 2256 02f6 0B40     		and	r3, r1
 2257 02f8 DBB2     		uxtb	r3, r3
 2258 02fa 101C     		mov	r0, r2
 2259 02fc 191C     		mov	r1, r3
 2260 02fe FFF7FEFF 		bl	_SlFindAndSetActiveObj
 2261 0302 031C     		mov	r3, r0
 2262 0304 BB65     		str	r3, [r7, #88]
 2263 0306 BB6D     		ldr	r3, [r7, #88]
 2264 0308 002B     		cmp	r3, #0
 2265 030a 0FD0     		beq	.L171
 2266              	.L172:
 2267              		.loc 1 588 0 is_stmt 0 discriminator 1
 2268 030c FEE7     		b	.L172
 2269              	.L208:
 2270 030e C046     		.align	2
 2271              	.L207:
 2272 0310 00000000 		.word	g_pCB
 2273 0314 BC000000 		.word	g_StatMem+188
 2274 0318 03100000 		.word	4099
 2275 031c 03120000 		.word	4611
 2276 0320 06100000 		.word	4102
 2277 0324 0B100000 		.word	4107
 2278 0328 0B120000 		.word	4619
 2279              	.L171:
 2280              	.LBE43:
 589:..\..\..\..\..\simplelink\source/driver.c **** 
 590:..\..\..\..\..\simplelink\source/driver.c ****                 /*  Verify data is waited on this socket. The pArgs should have been set by _SlDrvD
 591:..\..\..\..\..\simplelink\source/driver.c **** 				VERIFY_SOCKET_CB(NULL !=  ((_SlArgsData_t *)(g_pCB->ObjPool[g_pCB->FunctionParams.AsyncExt.Acti
 592:..\..\..\..\..\simplelink\source/driver.c **** 
 593:..\..\..\..\..\simplelink\source/driver.c **** 				sl_Memcpy( ((_SlArgsData_t *)(g_pCB->ObjPool[g_pCB->FunctionParams.AsyncExt.ActionIndex].pRespA
 2281              		.loc 1 593 0 is_stmt 1
 2282 032c CC4B     		ldr	r3, .L209
 2283 032e 1968     		ldr	r1, [r3]
 2284 0330 CB4B     		ldr	r3, .L209
 2285 0332 1A68     		ldr	r2, [r3]
 2286 0334 AC23     		mov	r3, #172
 2287 0336 D35C     		ldrb	r3, [r2, r3]
 2288 0338 1A1C     		mov	r2, r3
 2289 033a 131C     		mov	r3, r2
 2290 033c 5B00     		lsl	r3, r3, #1
 2291 033e 9B18     		add	r3, r3, r2
ARM GAS  C:\Users\X0217454\AppData\Local\Temp\cc7UAvFx.s 			page 52


 2292 0340 9B00     		lsl	r3, r3, #2
 2293 0342 CB18     		add	r3, r1, r3
 2294 0344 1433     		add	r3, r3, #20
 2295 0346 1B68     		ldr	r3, [r3]
 2296 0348 1A68     		ldr	r2, [r3]
 2297 034a 3B1C     		mov	r3, r7
 2298 034c 0833     		add	r3, r3, #8
 2299 034e 0433     		add	r3, r3, #4
 2300 0350 101C     		mov	r0, r2
 2301 0352 191C     		mov	r1, r3
 2302 0354 0422     		mov	r2, #4
 2303 0356 FFF7FEFF 		bl	memcpy
 594:..\..\..\..\..\simplelink\source/driver.c **** 
 595:..\..\..\..\..\simplelink\source/driver.c ****               if(ExpArgSize > RECV_ARGS_SIZE)
 2304              		.loc 1 595 0
 2305 035a 3B1C     		mov	r3, r7
 2306 035c 8B33     		add	r3, r3, #139
 2307 035e 1B78     		ldrb	r3, [r3]
 2308 0360 042B     		cmp	r3, #4
 2309 0362 25D9     		bls	.L173
 2310              	.LBB44:
 596:..\..\..\..\..\simplelink\source/driver.c ****                 {
 597:..\..\..\..\..\simplelink\source/driver.c ****                     NWP_IF_READ_CHECK(g_pCB->FD,
 2311              		.loc 1 597 0
 2312 0364 3B1C     		mov	r3, r7
 2313 0366 8B33     		add	r3, r3, #139
 2314 0368 1B78     		ldrb	r3, [r3]
 2315 036a 043B     		sub	r3, r3, #4
 2316 036c 7B65     		str	r3, [r7, #84]
 2317 036e BC4B     		ldr	r3, .L209
 2318 0370 1B68     		ldr	r3, [r3]
 2319 0372 1B68     		ldr	r3, [r3]
 2320 0374 191C     		mov	r1, r3
 2321 0376 BA4B     		ldr	r3, .L209
 2322 0378 1868     		ldr	r0, [r3]
 2323 037a B94B     		ldr	r3, .L209
 2324 037c 1A68     		ldr	r2, [r3]
 2325 037e AC23     		mov	r3, #172
 2326 0380 D35C     		ldrb	r3, [r2, r3]
 2327 0382 1A1C     		mov	r2, r3
 2328 0384 131C     		mov	r3, r2
 2329 0386 5B00     		lsl	r3, r3, #1
 2330 0388 9B18     		add	r3, r3, r2
 2331 038a 9B00     		lsl	r3, r3, #2
 2332 038c C318     		add	r3, r0, r3
 2333 038e 1433     		add	r3, r3, #20
 2334 0390 1B68     		ldr	r3, [r3]
 2335 0392 1B68     		ldr	r3, [r3]
 2336 0394 1A1D     		add	r2, r3, #4
 2337 0396 7B6D     		ldr	r3, [r7, #84]
 2338 0398 081C     		mov	r0, r1
 2339 039a 111C     		mov	r1, r2
 2340 039c 1A1C     		mov	r2, r3
 2341 039e FFF7FEFF 		bl	uart_Read
 2342 03a2 031C     		mov	r3, r0
 2343 03a4 3B65     		str	r3, [r7, #80]
 2344 03a6 7A6D     		ldr	r2, [r7, #84]
ARM GAS  C:\Users\X0217454\AppData\Local\Temp\cc7UAvFx.s 			page 53


 2345 03a8 3B6D     		ldr	r3, [r7, #80]
 2346 03aa 9A42     		cmp	r2, r3
 2347 03ac 00D0     		beq	.L173
 2348              	.L174:
 2349              		.loc 1 597 0 is_stmt 0 discriminator 1
 2350 03ae FEE7     		b	.L174
 2351              	.L173:
 2352              	.LBE44:
 598:..\..\..\..\..\simplelink\source/driver.c ****                                         ((_SlArgsData_t *)(g_pCB->ObjPool[g_pCB->FunctionParams.Asy
 599:..\..\..\..\..\simplelink\source/driver.c ****                                        ExpArgSize - RECV_ARGS_SIZE);
 600:..\..\..\..\..\simplelink\source/driver.c ****                 }
 601:..\..\..\..\..\simplelink\source/driver.c **** 
 602:..\..\..\..\..\simplelink\source/driver.c **** 
 603:..\..\..\..\..\simplelink\source/driver.c ****                 /*  Here g_pCB->ObjPool[g_pCB->FunctionParams.AsyncExt.ActionIndex].pData contains 
 604:..\..\..\..\..\simplelink\source/driver.c ****                 /*  Overwrite requested DataSize with actual one. */
 605:..\..\..\..\..\simplelink\source/driver.c ****                 /*  If error is received, this information will be read from arguments. */
 606:..\..\..\..\..\simplelink\source/driver.c ****                 if(ACT_DATA_SIZE(&uBuf.TempBuf[4]) > 0)
 2353              		.loc 1 606 0 is_stmt 1
 2354 03b0 3B1C     		mov	r3, r7
 2355 03b2 0833     		add	r3, r3, #8
 2356 03b4 0433     		add	r3, r3, #4
 2357 03b6 1B88     		ldrh	r3, [r3]
 2358 03b8 1BB2     		sxth	r3, r3
 2359 03ba 002B     		cmp	r3, #0
 2360 03bc 00DC     		bgt	.LCB2176
 2361 03be 71E0     		b	.L175	@long jump
 2362              	.LCB2176:
 607:..\..\..\..\..\simplelink\source/driver.c ****                 {       
 608:..\..\..\..\..\simplelink\source/driver.c **** 					VERIFY_SOCKET_CB(NULL != ((_SlArgsData_t *)(g_pCB->ObjPool[g_pCB->FunctionParams.AsyncExt.Acti
 609:..\..\..\..\..\simplelink\source/driver.c ****                     
 610:..\..\..\..\..\simplelink\source/driver.c ****                     /*  Read 4 bytes aligned from interface */
 611:..\..\..\..\..\simplelink\source/driver.c ****                     /*  therefore check the requested length and read only  */
 612:..\..\..\..\..\simplelink\source/driver.c ****                     /*  4 bytes aligned data. The rest unaligned (if any) will be read */
 613:..\..\..\..\..\simplelink\source/driver.c ****                     /*  and copied to a TailBuffer  */
 614:..\..\..\..\..\simplelink\source/driver.c ****                     LengthToCopy = ACT_DATA_SIZE(&uBuf.TempBuf[4]) & (3);
 2363              		.loc 1 614 0
 2364 03c0 3B1C     		mov	r3, r7
 2365 03c2 0833     		add	r3, r3, #8
 2366 03c4 0433     		add	r3, r3, #4
 2367 03c6 1B88     		ldrh	r3, [r3]
 2368 03c8 99B2     		uxth	r1, r3
 2369 03ca 3B1C     		mov	r3, r7
 2370 03cc 8E33     		add	r3, r3, #142
 2371 03ce 0322     		mov	r2, #3
 2372 03d0 0A40     		and	r2, r1
 2373 03d2 1A80     		strh	r2, [r3]
 615:..\..\..\..\..\simplelink\source/driver.c ****                     AlignedLengthRecv = ACT_DATA_SIZE(&uBuf.TempBuf[4]) & (~3);
 2374              		.loc 1 615 0
 2375 03d4 3B1C     		mov	r3, r7
 2376 03d6 0833     		add	r3, r3, #8
 2377 03d8 0433     		add	r3, r3, #4
 2378 03da 1B88     		ldrh	r3, [r3]
 2379 03dc 9AB2     		uxth	r2, r3
 2380 03de 3B1C     		mov	r3, r7
 2381 03e0 8C33     		add	r3, r3, #140
 2382 03e2 0321     		mov	r1, #3
 2383 03e4 8A43     		bic	r2, r1
ARM GAS  C:\Users\X0217454\AppData\Local\Temp\cc7UAvFx.s 			page 54


 2384 03e6 1A80     		strh	r2, [r3]
 616:..\..\..\..\..\simplelink\source/driver.c ****                     if( AlignedLengthRecv >= 4)
 2385              		.loc 1 616 0
 2386 03e8 3B1C     		mov	r3, r7
 2387 03ea 8C33     		add	r3, r3, #140
 2388 03ec 1B88     		ldrh	r3, [r3]
 2389 03ee 032B     		cmp	r3, #3
 2390 03f0 23D9     		bls	.L176
 2391              	.LBB45:
 617:..\..\..\..\..\simplelink\source/driver.c ****                     {
 618:..\..\..\..\..\simplelink\source/driver.c ****                     NWP_IF_READ_CHECK(g_pCB->FD,((_SlArgsData_t *)(g_pCB->ObjPool[g_pCB->FunctionPa
 2392              		.loc 1 618 0
 2393 03f2 3B1C     		mov	r3, r7
 2394 03f4 8C33     		add	r3, r3, #140
 2395 03f6 1B88     		ldrh	r3, [r3]
 2396 03f8 FB64     		str	r3, [r7, #76]
 2397 03fa 994B     		ldr	r3, .L209
 2398 03fc 1B68     		ldr	r3, [r3]
 2399 03fe 1B68     		ldr	r3, [r3]
 2400 0400 191C     		mov	r1, r3
 2401 0402 974B     		ldr	r3, .L209
 2402 0404 1868     		ldr	r0, [r3]
 2403 0406 964B     		ldr	r3, .L209
 2404 0408 1A68     		ldr	r2, [r3]
 2405 040a AC23     		mov	r3, #172
 2406 040c D35C     		ldrb	r3, [r2, r3]
 2407 040e 1A1C     		mov	r2, r3
 2408 0410 131C     		mov	r3, r2
 2409 0412 5B00     		lsl	r3, r3, #1
 2410 0414 9B18     		add	r3, r3, r2
 2411 0416 9B00     		lsl	r3, r3, #2
 2412 0418 C318     		add	r3, r0, r3
 2413 041a 1433     		add	r3, r3, #20
 2414 041c 1B68     		ldr	r3, [r3]
 2415 041e 5A68     		ldr	r2, [r3, #4]
 2416 0420 FB6C     		ldr	r3, [r7, #76]
 2417 0422 081C     		mov	r0, r1
 2418 0424 111C     		mov	r1, r2
 2419 0426 1A1C     		mov	r2, r3
 2420 0428 FFF7FEFF 		bl	uart_Read
 2421 042c 031C     		mov	r3, r0
 2422 042e BB64     		str	r3, [r7, #72]
 2423 0430 FA6C     		ldr	r2, [r7, #76]
 2424 0432 BB6C     		ldr	r3, [r7, #72]
 2425 0434 9A42     		cmp	r2, r3
 2426 0436 00D0     		beq	.L176
 2427              	.L177:
 2428              		.loc 1 618 0 is_stmt 0 discriminator 1
 2429 0438 FEE7     		b	.L177
 2430              	.L176:
 2431              	.LBE45:
 619:..\..\..\..\..\simplelink\source/driver.c ****                     }
 620:..\..\..\..\..\simplelink\source/driver.c ****                     /*  copy the unaligned part, if any */
 621:..\..\..\..\..\simplelink\source/driver.c ****                     if( LengthToCopy > 0) 
 2432              		.loc 1 621 0 is_stmt 1
 2433 043a 3B1C     		mov	r3, r7
 2434 043c 8E33     		add	r3, r3, #142
ARM GAS  C:\Users\X0217454\AppData\Local\Temp\cc7UAvFx.s 			page 55


 2435 043e 1B88     		ldrh	r3, [r3]
 2436 0440 002B     		cmp	r3, #0
 2437 0442 2FD0     		beq	.L175
 2438              	.LBB46:
 622:..\..\..\..\..\simplelink\source/driver.c ****                     {
 623:..\..\..\..\..\simplelink\source/driver.c ****                        NWP_IF_READ_CHECK(g_pCB->FD,TailBuffer,4);
 2439              		.loc 1 623 0
 2440 0444 0423     		mov	r3, #4
 2441 0446 7B64     		str	r3, [r7, #68]
 2442 0448 854B     		ldr	r3, .L209
 2443 044a 1B68     		ldr	r3, [r3]
 2444 044c 1B68     		ldr	r3, [r3]
 2445 044e 191C     		mov	r1, r3
 2446 0450 3A1D     		add	r2, r7, #4
 2447 0452 7B6C     		ldr	r3, [r7, #68]
 2448 0454 081C     		mov	r0, r1
 2449 0456 111C     		mov	r1, r2
 2450 0458 1A1C     		mov	r2, r3
 2451 045a FFF7FEFF 		bl	uart_Read
 2452 045e 031C     		mov	r3, r0
 2453 0460 3B64     		str	r3, [r7, #64]
 2454 0462 7A6C     		ldr	r2, [r7, #68]
 2455 0464 3B6C     		ldr	r3, [r7, #64]
 2456 0466 9A42     		cmp	r2, r3
 2457 0468 00D0     		beq	.L178
 2458              	.L179:
 2459              		.loc 1 623 0 is_stmt 0 discriminator 1
 2460 046a FEE7     		b	.L179
 2461              	.L178:
 2462              	.LBE46:
 624:..\..\..\..\..\simplelink\source/driver.c ****                        /*  copy TailBuffer unaligned part (1/2/3 bytes) */
 625:..\..\..\..\..\simplelink\source/driver.c ****                        memcpy(((_SlArgsData_t *)(g_pCB->ObjPool[g_pCB->FunctionParams.AsyncExt.Acti
 2463              		.loc 1 625 0 is_stmt 1
 2464 046c 7C4B     		ldr	r3, .L209
 2465 046e 1968     		ldr	r1, [r3]
 2466 0470 7B4B     		ldr	r3, .L209
 2467 0472 1A68     		ldr	r2, [r3]
 2468 0474 AC23     		mov	r3, #172
 2469 0476 D35C     		ldrb	r3, [r2, r3]
 2470 0478 1A1C     		mov	r2, r3
 2471 047a 131C     		mov	r3, r2
 2472 047c 5B00     		lsl	r3, r3, #1
 2473 047e 9B18     		add	r3, r3, r2
 2474 0480 9B00     		lsl	r3, r3, #2
 2475 0482 CB18     		add	r3, r1, r3
 2476 0484 1433     		add	r3, r3, #20
 2477 0486 1B68     		ldr	r3, [r3]
 2478 0488 5A68     		ldr	r2, [r3, #4]
 2479 048a 3B1C     		mov	r3, r7
 2480 048c 8C33     		add	r3, r3, #140
 2481 048e 1B88     		ldrh	r3, [r3]
 2482 0490 D118     		add	r1, r2, r3
 2483 0492 3B1C     		mov	r3, r7
 2484 0494 8E33     		add	r3, r3, #142
 2485 0496 1B88     		ldrh	r3, [r3]
 2486 0498 3A1D     		add	r2, r7, #4
 2487 049a 081C     		mov	r0, r1
ARM GAS  C:\Users\X0217454\AppData\Local\Temp\cc7UAvFx.s 			page 56


 2488 049c 111C     		mov	r1, r2
 2489 049e 1A1C     		mov	r2, r3
 2490 04a0 FFF7FEFF 		bl	memcpy
 2491              	.L175:
 2492              	.LBB47:
 626:..\..\..\..\..\simplelink\source/driver.c ****                 }
 627:..\..\..\..\..\simplelink\source/driver.c ****                  OSI_RET_OK_CHECK(sl_SyncObjSignal(&(g_pCB->ObjPool[g_pCB->FunctionParams.AsyncExt.
 2493              		.loc 1 627 0
 2494 04a4 6E4B     		ldr	r3, .L209
 2495 04a6 1968     		ldr	r1, [r3]
 2496 04a8 6D4B     		ldr	r3, .L209
 2497 04aa 1A68     		ldr	r2, [r3]
 2498 04ac AC23     		mov	r3, #172
 2499 04ae D35C     		ldrb	r3, [r2, r3]
 2500 04b0 1A1C     		mov	r2, r3
 2501 04b2 131C     		mov	r3, r2
 2502 04b4 5B00     		lsl	r3, r3, #1
 2503 04b6 9B18     		add	r3, r3, r2
 2504 04b8 9B00     		lsl	r3, r3, #2
 2505 04ba 1033     		add	r3, r3, #16
 2506 04bc CB18     		add	r3, r1, r3
 2507 04be 181C     		mov	r0, r3
 2508 04c0 2221     		mov	r1, #34
 2509 04c2 FFF7FEFF 		bl	_SlNonOsSemSet
 2510 04c6 031C     		mov	r3, r0
 2511 04c8 FB63     		str	r3, [r7, #60]
 2512 04ca FB6B     		ldr	r3, [r7, #60]
 2513 04cc 002B     		cmp	r3, #0
 2514 04ce 00D0     		beq	.L180
 2515              	.L181:
 2516              		.loc 1 627 0 is_stmt 0 discriminator 1
 2517 04d0 FEE7     		b	.L181
 2518              	.L180:
 2519              	.LBE47:
 2520              	.LBB48:
 628:..\..\..\..\..\simplelink\source/driver.c ****                  OSI_RET_OK_CHECK(sl_LockObjUnlock(&g_pCB->ProtectionLockObj)); 
 2521              		.loc 1 628 0 is_stmt 1
 2522 04d2 634B     		ldr	r3, .L209
 2523 04d4 1B68     		ldr	r3, [r3]
 2524 04d6 9033     		add	r3, r3, #144
 2525 04d8 181C     		mov	r0, r3
 2526 04da 3321     		mov	r1, #51
 2527 04dc FFF7FEFF 		bl	_SlNonOsSemSet
 2528 04e0 031C     		mov	r3, r0
 2529 04e2 BB63     		str	r3, [r7, #56]
 2530 04e4 BB6B     		ldr	r3, [r7, #56]
 2531 04e6 002B     		cmp	r3, #0
 2532 04e8 00D1     		bne	.LCB2341
 2533 04ea 14E1     		b	.L205	@long jump
 2534              	.LCB2341:
 2535              	.L183:
 2536              		.loc 1 628 0 is_stmt 0 discriminator 1
 2537 04ec FEE7     		b	.L183
 2538              	.L138:
 2539              	.LBE48:
 2540              	.LBE40:
 2541              	.LBB49:
ARM GAS  C:\Users\X0217454\AppData\Local\Temp\cc7UAvFx.s 			page 57


 629:..\..\..\..\..\simplelink\source/driver.c ****             }
 630:..\..\..\..\..\simplelink\source/driver.c ****             break;
 631:..\..\..\..\..\simplelink\source/driver.c **** 
 632:..\..\..\..\..\simplelink\source/driver.c ****         case CMD_RESP_CLASS:
 633:..\..\..\..\..\simplelink\source/driver.c **** 
 634:..\..\..\..\..\simplelink\source/driver.c ****             /*  Some commands pass a maximum arguments size. */
 635:..\..\..\..\..\simplelink\source/driver.c ****             /*  In this case Driver will send extra dummy patterns to NWP if */
 636:..\..\..\..\..\simplelink\source/driver.c ****             /*  the response message is smaller than maximum. */
 637:..\..\..\..\..\simplelink\source/driver.c ****             /*  When RxDescLen is not exact, using RxPayloadLen is forbidden! */
 638:..\..\..\..\..\simplelink\source/driver.c ****             /*  If such case cannot be avoided - parse message here to detect */
 639:..\..\..\..\..\simplelink\source/driver.c ****             /*  arguments/payload border. */
 640:..\..\..\..\..\simplelink\source/driver.c ****             NWP_IF_READ_CHECK(g_pCB->FD,
 2542              		.loc 1 640 0 is_stmt 1
 2543 04ee 5C4B     		ldr	r3, .L209
 2544 04f0 1A68     		ldr	r2, [r3]
 2545 04f2 9C23     		mov	r3, #156
 2546 04f4 D358     		ldr	r3, [r2, r3]
 2547 04f6 DB78     		ldrb	r3, [r3, #3]
 2548 04f8 0333     		add	r3, r3, #3
 2549 04fa 0322     		mov	r2, #3
 2550 04fc 9343     		bic	r3, r2
 2551 04fe 7B63     		str	r3, [r7, #52]
 2552 0500 574B     		ldr	r3, .L209
 2553 0502 1B68     		ldr	r3, [r3]
 2554 0504 1B68     		ldr	r3, [r3]
 2555 0506 191C     		mov	r1, r3
 2556 0508 554B     		ldr	r3, .L209
 2557 050a 1A68     		ldr	r2, [r3]
 2558 050c A023     		mov	r3, #160
 2559 050e D258     		ldr	r2, [r2, r3]
 2560 0510 7B6B     		ldr	r3, [r7, #52]
 2561 0512 081C     		mov	r0, r1
 2562 0514 111C     		mov	r1, r2
 2563 0516 1A1C     		mov	r2, r3
 2564 0518 FFF7FEFF 		bl	uart_Read
 2565 051c 031C     		mov	r3, r0
 2566 051e 3B63     		str	r3, [r7, #48]
 2567 0520 7A6B     		ldr	r2, [r7, #52]
 2568 0522 3B6B     		ldr	r3, [r7, #48]
 2569 0524 9A42     		cmp	r2, r3
 2570 0526 00D0     		beq	.L184
 2571              	.L185:
 2572              		.loc 1 640 0 is_stmt 0 discriminator 1
 2573 0528 FEE7     		b	.L185
 2574              	.L184:
 2575              	.LBE49:
 641:..\..\..\..\..\simplelink\source/driver.c ****             g_pCB->FunctionParams.pTxRxDescBuff,
 642:..\..\..\..\..\simplelink\source/driver.c ****             _SL_PROTOCOL_ALIGN_SIZE(g_pCB->FunctionParams.pCmdCtrl->RxDescLen));
 643:..\..\..\..\..\simplelink\source/driver.c **** 
 644:..\..\..\..\..\simplelink\source/driver.c ****             if((NULL != g_pCB->FunctionParams.pCmdExt) && (0 != g_pCB->FunctionParams.pCmdExt->RxPa
 2576              		.loc 1 644 0 is_stmt 1
 2577 052a 4D4B     		ldr	r3, .L209
 2578 052c 1A68     		ldr	r2, [r3]
 2579 052e A423     		mov	r3, #164
 2580 0530 D358     		ldr	r3, [r2, r3]
 2581 0532 002B     		cmp	r3, #0
 2582 0534 00D1     		bne	.LCB2389
ARM GAS  C:\Users\X0217454\AppData\Local\Temp\cc7UAvFx.s 			page 58


 2583 0536 F0E0     		b	.L206	@long jump
 2584              	.LCB2389:
 2585              		.loc 1 644 0 is_stmt 0 discriminator 1
 2586 0538 494B     		ldr	r3, .L209
 2587 053a 1A68     		ldr	r2, [r3]
 2588 053c A423     		mov	r3, #164
 2589 053e D358     		ldr	r3, [r2, r3]
 2590 0540 5B88     		ldrh	r3, [r3, #2]
 2591 0542 002B     		cmp	r3, #0
 2592 0544 00D1     		bne	.LCB2396
 2593 0546 E8E0     		b	.L206	@long jump
 2594              	.LCB2396:
 2595              	.LBB50:
 645:..\..\..\..\..\simplelink\source/driver.c ****             {
 646:..\..\..\..\..\simplelink\source/driver.c ****                 /*  Actual size of command's response payload: <msg_payload_len> - <rsp_args_len> *
 647:..\..\..\..\..\simplelink\source/driver.c ****                 INT16    ActDataSize = RSP_PAYLOAD_LEN(uBuf.TempBuf) - g_pCB->FunctionParams.pCmdCt
 2596              		.loc 1 647 0 is_stmt 1
 2597 0548 3B1C     		mov	r3, r7
 2598 054a 0833     		add	r3, r3, #8
 2599 054c 5A88     		ldrh	r2, [r3, #2]
 2600 054e 444B     		ldr	r3, .L209
 2601 0550 1968     		ldr	r1, [r3]
 2602 0552 9C23     		mov	r3, #156
 2603 0554 CB58     		ldr	r3, [r1, r3]
 2604 0556 DB78     		ldrb	r3, [r3, #3]
 2605 0558 D31A     		sub	r3, r2, r3
 2606 055a 9BB2     		uxth	r3, r3
 2607 055c 043B     		sub	r3, r3, #4
 2608 055e 9AB2     		uxth	r2, r3
 2609 0560 3B1C     		mov	r3, r7
 2610 0562 8833     		add	r3, r3, #136
 2611 0564 1A80     		strh	r2, [r3]
 648:..\..\..\..\..\simplelink\source/driver.c **** 
 649:..\..\..\..\..\simplelink\source/driver.c ****                 g_pCB->FunctionParams.pCmdExt->ActualRxPayloadLen = ActDataSize;
 2612              		.loc 1 649 0
 2613 0566 3E4B     		ldr	r3, .L209
 2614 0568 1A68     		ldr	r2, [r3]
 2615 056a A423     		mov	r3, #164
 2616 056c D358     		ldr	r3, [r2, r3]
 2617 056e 3A1C     		mov	r2, r7
 2618 0570 8832     		add	r2, r2, #136
 2619 0572 1288     		ldrh	r2, [r2]
 2620 0574 9A80     		strh	r2, [r3, #4]
 650:..\..\..\..\..\simplelink\source/driver.c **** 
 651:..\..\..\..\..\simplelink\source/driver.c ****                 /* Check that the space prepared by user for the response data is sufficient. */
 652:..\..\..\..\..\simplelink\source/driver.c ****                 if(ActDataSize <= 0)
 2621              		.loc 1 652 0
 2622 0576 3B1C     		mov	r3, r7
 2623 0578 8833     		add	r3, r3, #136
 2624 057a 0021     		mov	r1, #0
 2625 057c 5B5E     		ldrsh	r3, [r3, r1]
 2626 057e 002B     		cmp	r3, #0
 2627 0580 06DC     		bgt	.L187
 653:..\..\..\..\..\simplelink\source/driver.c ****                 {
 654:..\..\..\..\..\simplelink\source/driver.c ****                     g_pCB->FunctionParams.pCmdExt->RxPayloadLen = 0;
 2628              		.loc 1 654 0
 2629 0582 374B     		ldr	r3, .L209
ARM GAS  C:\Users\X0217454\AppData\Local\Temp\cc7UAvFx.s 			page 59


 2630 0584 1A68     		ldr	r2, [r3]
 2631 0586 A423     		mov	r3, #164
 2632 0588 D358     		ldr	r3, [r2, r3]
 2633 058a 0022     		mov	r2, #0
 2634 058c 5A80     		strh	r2, [r3, #2]
 2635              	.LBE50:
 655:..\..\..\..\..\simplelink\source/driver.c ****                 }
 656:..\..\..\..\..\simplelink\source/driver.c ****                 else
 657:..\..\..\..\..\simplelink\source/driver.c ****                 {
 658:..\..\..\..\..\simplelink\source/driver.c **** 					/* In case the user supplied Rx buffer length which is smaller then the received data length, 
 659:..\..\..\..\..\simplelink\source/driver.c **** 					if (ActDataSize > g_pCB->FunctionParams.pCmdExt->RxPayloadLen)
 660:..\..\..\..\..\simplelink\source/driver.c **** 					{
 661:..\..\..\..\..\simplelink\source/driver.c **** 						LengthToCopy = g_pCB->FunctionParams.pCmdExt->RxPayloadLen & (3);
 662:..\..\..\..\..\simplelink\source/driver.c **** 						AlignedLengthRecv = g_pCB->FunctionParams.pCmdExt->RxPayloadLen & (~3);
 663:..\..\..\..\..\simplelink\source/driver.c **** 					}
 664:..\..\..\..\..\simplelink\source/driver.c **** 					else
 665:..\..\..\..\..\simplelink\source/driver.c **** 					{
 666:..\..\..\..\..\simplelink\source/driver.c **** 						LengthToCopy = ActDataSize & (3);
 667:..\..\..\..\..\simplelink\source/driver.c **** 						AlignedLengthRecv = ActDataSize & (~3);
 668:..\..\..\..\..\simplelink\source/driver.c **** 					}
 669:..\..\..\..\..\simplelink\source/driver.c ****                     /*  Read 4 bytes aligned from interface */
 670:..\..\..\..\..\simplelink\source/driver.c ****                     /*  therefore check the requested length and read only  */
 671:..\..\..\..\..\simplelink\source/driver.c ****                     /*  4 bytes aligned data. The rest unaligned (if any) will be read */
 672:..\..\..\..\..\simplelink\source/driver.c ****                     /*  and copied to a TailBuffer  */
 673:..\..\..\..\..\simplelink\source/driver.c **** 
 674:..\..\..\..\..\simplelink\source/driver.c ****                     if( AlignedLengthRecv >= 4)
 675:..\..\..\..\..\simplelink\source/driver.c ****                     {
 676:..\..\..\..\..\simplelink\source/driver.c ****                     NWP_IF_READ_CHECK(g_pCB->FD,
 677:..\..\..\..\..\simplelink\source/driver.c ****                                        g_pCB->FunctionParams.pCmdExt->pRxPayload,
 678:..\..\..\..\..\simplelink\source/driver.c ****                                         AlignedLengthRecv );
 679:..\..\..\..\..\simplelink\source/driver.c **** 
 680:..\..\..\..\..\simplelink\source/driver.c ****                     }
 681:..\..\..\..\..\simplelink\source/driver.c ****                     /*  copy the unaligned part, if any */
 682:..\..\..\..\..\simplelink\source/driver.c ****                     if( LengthToCopy > 0) 
 683:..\..\..\..\..\simplelink\source/driver.c ****                     {
 684:..\..\..\..\..\simplelink\source/driver.c ****                        NWP_IF_READ_CHECK(g_pCB->FD,TailBuffer,4);
 685:..\..\..\..\..\simplelink\source/driver.c ****                        /*  copy TailBuffer unaligned part (1/2/3 bytes) */
 686:..\..\..\..\..\simplelink\source/driver.c ****                        memcpy(g_pCB->FunctionParams.pCmdExt->pRxPayload + AlignedLengthRecv,
 687:..\..\..\..\..\simplelink\source/driver.c ****                               TailBuffer,
 688:..\..\..\..\..\simplelink\source/driver.c ****                               LengthToCopy);
 689:..\..\..\..\..\simplelink\source/driver.c ****                        ActDataSize = ActDataSize-4;
 690:..\..\..\..\..\simplelink\source/driver.c ****                     }
 691:..\..\..\..\..\simplelink\source/driver.c **** 					/* In case the user supplied Rx buffer length which is smaller then the received data length, 
 692:..\..\..\..\..\simplelink\source/driver.c **** 					if (ActDataSize > g_pCB->FunctionParams.pCmdExt->RxPayloadLen)
 693:..\..\..\..\..\simplelink\source/driver.c **** 					{
 694:..\..\..\..\..\simplelink\source/driver.c **** 						/* calculate the rest of the data size to dump */
 695:..\..\..\..\..\simplelink\source/driver.c **** 						AlignedLengthRecv = ActDataSize - (g_pCB->FunctionParams.pCmdExt->RxPayloadLen & (~3));
 696:..\..\..\..\..\simplelink\source/driver.c **** 						while( AlignedLengthRecv > 0)
 697:..\..\..\..\..\simplelink\source/driver.c **** 						{
 698:..\..\..\..\..\simplelink\source/driver.c **** 							 NWP_IF_READ_CHECK(g_pCB->FD,TailBuffer, 4 );
 699:..\..\..\..\..\simplelink\source/driver.c **** 							 AlignedLengthRecv = AlignedLengthRecv - 4;
 700:..\..\..\..\..\simplelink\source/driver.c **** 						}
 701:..\..\..\..\..\simplelink\source/driver.c ****                     }
 702:..\..\..\..\..\simplelink\source/driver.c **** 
 703:..\..\..\..\..\simplelink\source/driver.c **** 					
 704:..\..\..\..\..\simplelink\source/driver.c **** 					
 705:..\..\..\..\..\simplelink\source/driver.c ****                 }
ARM GAS  C:\Users\X0217454\AppData\Local\Temp\cc7UAvFx.s 			page 60


 706:..\..\..\..\..\simplelink\source/driver.c ****             }
 707:..\..\..\..\..\simplelink\source/driver.c ****             break;
 2636              		.loc 1 707 0
 2637 058e C4E0     		b	.L206
 2638              	.L187:
 2639              	.LBB54:
 659:..\..\..\..\..\simplelink\source/driver.c **** 					if (ActDataSize > g_pCB->FunctionParams.pCmdExt->RxPayloadLen)
 2640              		.loc 1 659 0
 2641 0590 3B1C     		mov	r3, r7
 2642 0592 8833     		add	r3, r3, #136
 2643 0594 0021     		mov	r1, #0
 2644 0596 5A5E     		ldrsh	r2, [r3, r1]
 2645 0598 314B     		ldr	r3, .L209
 2646 059a 1968     		ldr	r1, [r3]
 2647 059c A423     		mov	r3, #164
 2648 059e CB58     		ldr	r3, [r1, r3]
 2649 05a0 5B88     		ldrh	r3, [r3, #2]
 2650 05a2 9A42     		cmp	r2, r3
 2651 05a4 14DD     		ble	.L188
 661:..\..\..\..\..\simplelink\source/driver.c **** 						LengthToCopy = g_pCB->FunctionParams.pCmdExt->RxPayloadLen & (3);
 2652              		.loc 1 661 0
 2653 05a6 2E4B     		ldr	r3, .L209
 2654 05a8 1A68     		ldr	r2, [r3]
 2655 05aa A423     		mov	r3, #164
 2656 05ac D358     		ldr	r3, [r2, r3]
 2657 05ae 5988     		ldrh	r1, [r3, #2]
 2658 05b0 3B1C     		mov	r3, r7
 2659 05b2 8E33     		add	r3, r3, #142
 2660 05b4 0322     		mov	r2, #3
 2661 05b6 0A40     		and	r2, r1
 2662 05b8 1A80     		strh	r2, [r3]
 662:..\..\..\..\..\simplelink\source/driver.c **** 						AlignedLengthRecv = g_pCB->FunctionParams.pCmdExt->RxPayloadLen & (~3);
 2663              		.loc 1 662 0
 2664 05ba 294B     		ldr	r3, .L209
 2665 05bc 1A68     		ldr	r2, [r3]
 2666 05be A423     		mov	r3, #164
 2667 05c0 D358     		ldr	r3, [r2, r3]
 2668 05c2 5A88     		ldrh	r2, [r3, #2]
 2669 05c4 3B1C     		mov	r3, r7
 2670 05c6 8C33     		add	r3, r3, #140
 2671 05c8 0321     		mov	r1, #3
 2672 05ca 8A43     		bic	r2, r1
 2673 05cc 1A80     		strh	r2, [r3]
 2674 05ce 0FE0     		b	.L189
 2675              	.L188:
 666:..\..\..\..\..\simplelink\source/driver.c **** 						LengthToCopy = ActDataSize & (3);
 2676              		.loc 1 666 0
 2677 05d0 3B1C     		mov	r3, r7
 2678 05d2 8833     		add	r3, r3, #136
 2679 05d4 1988     		ldrh	r1, [r3]
 2680 05d6 3B1C     		mov	r3, r7
 2681 05d8 8E33     		add	r3, r3, #142
 2682 05da 0322     		mov	r2, #3
 2683 05dc 0A40     		and	r2, r1
 2684 05de 1A80     		strh	r2, [r3]
 667:..\..\..\..\..\simplelink\source/driver.c **** 						AlignedLengthRecv = ActDataSize & (~3);
 2685              		.loc 1 667 0
ARM GAS  C:\Users\X0217454\AppData\Local\Temp\cc7UAvFx.s 			page 61


 2686 05e0 3B1C     		mov	r3, r7
 2687 05e2 8833     		add	r3, r3, #136
 2688 05e4 1A88     		ldrh	r2, [r3]
 2689 05e6 3B1C     		mov	r3, r7
 2690 05e8 8C33     		add	r3, r3, #140
 2691 05ea 0321     		mov	r1, #3
 2692 05ec 8A43     		bic	r2, r1
 2693 05ee 1A80     		strh	r2, [r3]
 2694              	.L189:
 674:..\..\..\..\..\simplelink\source/driver.c ****                     if( AlignedLengthRecv >= 4)
 2695              		.loc 1 674 0
 2696 05f0 3B1C     		mov	r3, r7
 2697 05f2 8C33     		add	r3, r3, #140
 2698 05f4 1B88     		ldrh	r3, [r3]
 2699 05f6 032B     		cmp	r3, #3
 2700 05f8 19D9     		bls	.L190
 2701              	.LBB51:
 676:..\..\..\..\..\simplelink\source/driver.c ****                     NWP_IF_READ_CHECK(g_pCB->FD,
 2702              		.loc 1 676 0
 2703 05fa 3B1C     		mov	r3, r7
 2704 05fc 8C33     		add	r3, r3, #140
 2705 05fe 1B88     		ldrh	r3, [r3]
 2706 0600 FB62     		str	r3, [r7, #44]
 2707 0602 174B     		ldr	r3, .L209
 2708 0604 1B68     		ldr	r3, [r3]
 2709 0606 1B68     		ldr	r3, [r3]
 2710 0608 191C     		mov	r1, r3
 2711 060a 154B     		ldr	r3, .L209
 2712 060c 1A68     		ldr	r2, [r3]
 2713 060e A423     		mov	r3, #164
 2714 0610 D358     		ldr	r3, [r2, r3]
 2715 0612 DA68     		ldr	r2, [r3, #12]
 2716 0614 FB6A     		ldr	r3, [r7, #44]
 2717 0616 081C     		mov	r0, r1
 2718 0618 111C     		mov	r1, r2
 2719 061a 1A1C     		mov	r2, r3
 2720 061c FFF7FEFF 		bl	uart_Read
 2721 0620 031C     		mov	r3, r0
 2722 0622 BB62     		str	r3, [r7, #40]
 2723 0624 FA6A     		ldr	r2, [r7, #44]
 2724 0626 BB6A     		ldr	r3, [r7, #40]
 2725 0628 9A42     		cmp	r2, r3
 2726 062a 00D0     		beq	.L190
 2727              	.L191:
 676:..\..\..\..\..\simplelink\source/driver.c ****                     NWP_IF_READ_CHECK(g_pCB->FD,
 2728              		.loc 1 676 0 is_stmt 0 discriminator 1
 2729 062c FEE7     		b	.L191
 2730              	.L190:
 2731              	.LBE51:
 682:..\..\..\..\..\simplelink\source/driver.c ****                     if( LengthToCopy > 0) 
 2732              		.loc 1 682 0 is_stmt 1
 2733 062e 3B1C     		mov	r3, r7
 2734 0630 8E33     		add	r3, r3, #142
 2735 0632 1B88     		ldrh	r3, [r3]
 2736 0634 002B     		cmp	r3, #0
 2737 0636 2FD0     		beq	.L192
 2738              	.LBB52:
ARM GAS  C:\Users\X0217454\AppData\Local\Temp\cc7UAvFx.s 			page 62


 684:..\..\..\..\..\simplelink\source/driver.c ****                        NWP_IF_READ_CHECK(g_pCB->FD,TailBuffer,4);
 2739              		.loc 1 684 0
 2740 0638 0423     		mov	r3, #4
 2741 063a 7B62     		str	r3, [r7, #36]
 2742 063c 084B     		ldr	r3, .L209
 2743 063e 1B68     		ldr	r3, [r3]
 2744 0640 1B68     		ldr	r3, [r3]
 2745 0642 191C     		mov	r1, r3
 2746 0644 3A1D     		add	r2, r7, #4
 2747 0646 7B6A     		ldr	r3, [r7, #36]
 2748 0648 081C     		mov	r0, r1
 2749 064a 111C     		mov	r1, r2
 2750 064c 1A1C     		mov	r2, r3
 2751 064e FFF7FEFF 		bl	uart_Read
 2752 0652 031C     		mov	r3, r0
 2753 0654 3B62     		str	r3, [r7, #32]
 2754 0656 7A6A     		ldr	r2, [r7, #36]
 2755 0658 3B6A     		ldr	r3, [r7, #32]
 2756 065a 9A42     		cmp	r2, r3
 2757 065c 02D0     		beq	.L193
 2758              	.L194:
 684:..\..\..\..\..\simplelink\source/driver.c ****                        NWP_IF_READ_CHECK(g_pCB->FD,TailBuffer,4);
 2759              		.loc 1 684 0 is_stmt 0 discriminator 1
 2760 065e FEE7     		b	.L194
 2761              	.L210:
 2762              		.align	2
 2763              	.L209:
 2764 0660 00000000 		.word	g_pCB
 2765              	.L193:
 2766              	.LBE52:
 686:..\..\..\..\..\simplelink\source/driver.c ****                        memcpy(g_pCB->FunctionParams.pCmdExt->pRxPayload + AlignedLengthRecv,
 2767              		.loc 1 686 0 is_stmt 1
 2768 0664 3E4B     		ldr	r3, .L211
 2769 0666 1A68     		ldr	r2, [r3]
 2770 0668 A423     		mov	r3, #164
 2771 066a D358     		ldr	r3, [r2, r3]
 2772 066c DA68     		ldr	r2, [r3, #12]
 2773 066e 3B1C     		mov	r3, r7
 2774 0670 8C33     		add	r3, r3, #140
 2775 0672 1B88     		ldrh	r3, [r3]
 2776 0674 D118     		add	r1, r2, r3
 2777 0676 3B1C     		mov	r3, r7
 2778 0678 8E33     		add	r3, r3, #142
 2779 067a 1B88     		ldrh	r3, [r3]
 687:..\..\..\..\..\simplelink\source/driver.c ****                               TailBuffer,
 2780              		.loc 1 687 0
 2781 067c 3A1D     		add	r2, r7, #4
 686:..\..\..\..\..\simplelink\source/driver.c ****                        memcpy(g_pCB->FunctionParams.pCmdExt->pRxPayload + AlignedLengthRecv,
 2782              		.loc 1 686 0
 2783 067e 081C     		mov	r0, r1
 2784 0680 111C     		mov	r1, r2
 2785 0682 1A1C     		mov	r2, r3
 2786 0684 FFF7FEFF 		bl	memcpy
 689:..\..\..\..\..\simplelink\source/driver.c ****                        ActDataSize = ActDataSize-4;
 2787              		.loc 1 689 0
 2788 0688 3B1C     		mov	r3, r7
 2789 068a 8833     		add	r3, r3, #136
ARM GAS  C:\Users\X0217454\AppData\Local\Temp\cc7UAvFx.s 			page 63


 2790 068c 1B88     		ldrh	r3, [r3]
 2791 068e 043B     		sub	r3, r3, #4
 2792 0690 9AB2     		uxth	r2, r3
 2793 0692 3B1C     		mov	r3, r7
 2794 0694 8833     		add	r3, r3, #136
 2795 0696 1A80     		strh	r2, [r3]
 2796              	.L192:
 692:..\..\..\..\..\simplelink\source/driver.c **** 					if (ActDataSize > g_pCB->FunctionParams.pCmdExt->RxPayloadLen)
 2797              		.loc 1 692 0
 2798 0698 3B1C     		mov	r3, r7
 2799 069a 8833     		add	r3, r3, #136
 2800 069c 0021     		mov	r1, #0
 2801 069e 5A5E     		ldrsh	r2, [r3, r1]
 2802 06a0 2F4B     		ldr	r3, .L211
 2803 06a2 1968     		ldr	r1, [r3]
 2804 06a4 A423     		mov	r3, #164
 2805 06a6 CB58     		ldr	r3, [r1, r3]
 2806 06a8 5B88     		ldrh	r3, [r3, #2]
 2807 06aa 9A42     		cmp	r2, r3
 2808 06ac 35DD     		ble	.L206
 695:..\..\..\..\..\simplelink\source/driver.c **** 						AlignedLengthRecv = ActDataSize - (g_pCB->FunctionParams.pCmdExt->RxPayloadLen & (~3));
 2809              		.loc 1 695 0
 2810 06ae 3B1C     		mov	r3, r7
 2811 06b0 8833     		add	r3, r3, #136
 2812 06b2 1988     		ldrh	r1, [r3]
 2813 06b4 2A4B     		ldr	r3, .L211
 2814 06b6 1A68     		ldr	r2, [r3]
 2815 06b8 A423     		mov	r3, #164
 2816 06ba D358     		ldr	r3, [r2, r3]
 2817 06bc 5B88     		ldrh	r3, [r3, #2]
 2818 06be 0322     		mov	r2, #3
 2819 06c0 9343     		bic	r3, r2
 2820 06c2 9AB2     		uxth	r2, r3
 2821 06c4 3B1C     		mov	r3, r7
 2822 06c6 8C33     		add	r3, r3, #140
 2823 06c8 8A1A     		sub	r2, r1, r2
 2824 06ca 1A80     		strh	r2, [r3]
 696:..\..\..\..\..\simplelink\source/driver.c **** 						while( AlignedLengthRecv > 0)
 2825              		.loc 1 696 0
 2826 06cc 1AE0     		b	.L195
 2827              	.L198:
 2828              	.LBB53:
 698:..\..\..\..\..\simplelink\source/driver.c **** 							 NWP_IF_READ_CHECK(g_pCB->FD,TailBuffer, 4 );
 2829              		.loc 1 698 0
 2830 06ce 0423     		mov	r3, #4
 2831 06d0 FB61     		str	r3, [r7, #28]
 2832 06d2 234B     		ldr	r3, .L211
 2833 06d4 1B68     		ldr	r3, [r3]
 2834 06d6 1B68     		ldr	r3, [r3]
 2835 06d8 191C     		mov	r1, r3
 2836 06da 3A1D     		add	r2, r7, #4
 2837 06dc FB69     		ldr	r3, [r7, #28]
 2838 06de 081C     		mov	r0, r1
 2839 06e0 111C     		mov	r1, r2
 2840 06e2 1A1C     		mov	r2, r3
 2841 06e4 FFF7FEFF 		bl	uart_Read
 2842 06e8 031C     		mov	r3, r0
ARM GAS  C:\Users\X0217454\AppData\Local\Temp\cc7UAvFx.s 			page 64


 2843 06ea BB61     		str	r3, [r7, #24]
 2844 06ec FA69     		ldr	r2, [r7, #28]
 2845 06ee BB69     		ldr	r3, [r7, #24]
 2846 06f0 9A42     		cmp	r2, r3
 2847 06f2 00D0     		beq	.L196
 2848              	.L197:
 698:..\..\..\..\..\simplelink\source/driver.c **** 							 NWP_IF_READ_CHECK(g_pCB->FD,TailBuffer, 4 );
 2849              		.loc 1 698 0 is_stmt 0 discriminator 1
 2850 06f4 FEE7     		b	.L197
 2851              	.L196:
 2852              	.LBE53:
 699:..\..\..\..\..\simplelink\source/driver.c **** 							 AlignedLengthRecv = AlignedLengthRecv - 4;
 2853              		.loc 1 699 0 is_stmt 1
 2854 06f6 3B1C     		mov	r3, r7
 2855 06f8 8C33     		add	r3, r3, #140
 2856 06fa 3A1C     		mov	r2, r7
 2857 06fc 8C32     		add	r2, r2, #140
 2858 06fe 1288     		ldrh	r2, [r2]
 2859 0700 043A     		sub	r2, r2, #4
 2860 0702 1A80     		strh	r2, [r3]
 2861              	.L195:
 696:..\..\..\..\..\simplelink\source/driver.c **** 						while( AlignedLengthRecv > 0)
 2862              		.loc 1 696 0 discriminator 1
 2863 0704 3B1C     		mov	r3, r7
 2864 0706 8C33     		add	r3, r3, #140
 2865 0708 1B88     		ldrh	r3, [r3]
 2866 070a 002B     		cmp	r3, #0
 2867 070c DFD1     		bne	.L198
 2868              	.LBE54:
 2869              		.loc 1 707 0
 2870 070e 04E0     		b	.L206
 2871              	.L202:
 708:..\..\..\..\..\simplelink\source/driver.c **** 
 709:..\..\..\..\..\simplelink\source/driver.c ****         default:
 710:..\..\..\..\..\simplelink\source/driver.c ****             /*  DUMMY_MSG_CLASS: Flow control message has no payload. */
 711:..\..\..\..\..\simplelink\source/driver.c ****             break;
 2872              		.loc 1 711 0
 2873 0710 04E0     		b	.L160
 2874              	.L204:
 559:..\..\..\..\..\simplelink\source/driver.c ****             break;
 2875              		.loc 1 559 0
 2876 0712 C046     		mov	r8, r8
 2877 0714 02E0     		b	.L160
 2878              	.L205:
 630:..\..\..\..\..\simplelink\source/driver.c ****             break;
 2879              		.loc 1 630 0
 2880 0716 C046     		mov	r8, r8
 2881 0718 00E0     		b	.L160
 2882              	.L206:
 707:..\..\..\..\..\simplelink\source/driver.c ****             break;
 2883              		.loc 1 707 0
 2884 071a C046     		mov	r8, r8
 2885              	.L160:
 712:..\..\..\..\..\simplelink\source/driver.c ****     }
 713:..\..\..\..\..\simplelink\source/driver.c **** 
 714:..\..\..\..\..\simplelink\source/driver.c ****     if(AlignSize > 0)
 2886              		.loc 1 714 0
ARM GAS  C:\Users\X0217454\AppData\Local\Temp\cc7UAvFx.s 			page 65


 2887 071c FB1C     		add	r3, r7, #3
 2888 071e 1B78     		ldrb	r3, [r3]
 2889 0720 002B     		cmp	r3, #0
 2890 0722 15D0     		beq	.L199
 2891              	.LBB55:
 715:..\..\..\..\..\simplelink\source/driver.c ****     {
 716:..\..\..\..\..\simplelink\source/driver.c ****         NWP_IF_READ_CHECK(g_pCB->FD, uBuf.TempBuf, AlignSize);
 2892              		.loc 1 716 0
 2893 0724 FB1C     		add	r3, r7, #3
 2894 0726 1B78     		ldrb	r3, [r3]
 2895 0728 7B61     		str	r3, [r7, #20]
 2896 072a 0D4B     		ldr	r3, .L211
 2897 072c 1B68     		ldr	r3, [r3]
 2898 072e 1B68     		ldr	r3, [r3]
 2899 0730 191C     		mov	r1, r3
 2900 0732 3A1C     		mov	r2, r7
 2901 0734 0832     		add	r2, r2, #8
 2902 0736 7B69     		ldr	r3, [r7, #20]
 2903 0738 081C     		mov	r0, r1
 2904 073a 111C     		mov	r1, r2
 2905 073c 1A1C     		mov	r2, r3
 2906 073e FFF7FEFF 		bl	uart_Read
 2907 0742 031C     		mov	r3, r0
 2908 0744 3B61     		str	r3, [r7, #16]
 2909 0746 7A69     		ldr	r2, [r7, #20]
 2910 0748 3B69     		ldr	r3, [r7, #16]
 2911 074a 9A42     		cmp	r2, r3
 2912 074c 00D0     		beq	.L199
 2913              	.L200:
 2914              		.loc 1 716 0 is_stmt 0 discriminator 1
 2915 074e FEE7     		b	.L200
 2916              	.L199:
 2917              	.LBE55:
 717:..\..\..\..\..\simplelink\source/driver.c ****     }
 718:..\..\..\..\..\simplelink\source/driver.c **** 
 719:..\..\..\..\..\simplelink\source/driver.c ****     _SL_DBG_CNT_INC(MsgCnt.Read);
 720:..\..\..\..\..\simplelink\source/driver.c ****     
 721:..\..\..\..\..\simplelink\source/driver.c ****     /*  Unmask Interrupt call */
 722:..\..\..\..\..\simplelink\source/driver.c ****     sl_IfUnMaskIntHdlr();
 2918              		.loc 1 722 0 is_stmt 1
 2919 0750 FFF7FEFF 		bl	UnMaskIntHdlr
 723:..\..\..\..\..\simplelink\source/driver.c **** 
 724:..\..\..\..\..\simplelink\source/driver.c ****     return SL_OS_RET_CODE_OK;
 2920              		.loc 1 724 0
 2921 0754 0023     		mov	r3, #0
 725:..\..\..\..\..\simplelink\source/driver.c **** }
 2922              		.loc 1 725 0
 2923 0756 181C     		mov	r0, r3
 2924 0758 BD46     		mov	sp, r7
 2925 075a 24B0     		add	sp, sp, #144
 2926              		@ sp needed for prologue
 2927 075c 80BD     		pop	{r7, pc}
 2928              	.L212:
 2929 075e C046     		.align	2
 2930              	.L211:
 2931 0760 00000000 		.word	g_pCB
 2932              		.cfi_endproc
ARM GAS  C:\Users\X0217454\AppData\Local\Temp\cc7UAvFx.s 			page 66


 2933              	.LFE8:
 2934              		.size	_SlDrvMsgRead, .-_SlDrvMsgRead
 2935              		.section	.text._SlAsyncEventGenericHandler,"ax",%progbits
 2936              		.align	2
 2937              		.global	_SlAsyncEventGenericHandler
 2938              		.code	16
 2939              		.thumb_func
 2940              		.type	_SlAsyncEventGenericHandler, %function
 2941              	_SlAsyncEventGenericHandler:
 2942              	.LFB9:
 726:..\..\..\..\..\simplelink\source/driver.c **** 
 727:..\..\..\..\..\simplelink\source/driver.c **** /* ******************************************************************************/
 728:..\..\..\..\..\simplelink\source/driver.c **** /*  _SlAsyncEventGenericHandler */
 729:..\..\..\..\..\simplelink\source/driver.c **** /* ******************************************************************************/
 730:..\..\..\..\..\simplelink\source/driver.c **** void _SlAsyncEventGenericHandler(void)
 731:..\..\..\..\..\simplelink\source/driver.c **** {
 2943              		.loc 1 731 0
 2944              		.cfi_startproc
 2945 0000 80B5     		push	{r7, lr}
 2946              	.LCFI27:
 2947              		.cfi_def_cfa_offset 8
 2948              		.cfi_offset 7, -8
 2949              		.cfi_offset 14, -4
 2950 0002 B4B0     		sub	sp, sp, #208
 2951              	.LCFI28:
 2952              		.cfi_def_cfa_offset 216
 2953 0004 00AF     		add	r7, sp, #0
 2954              	.LCFI29:
 2955              		.cfi_def_cfa_register 7
 732:..\..\..\..\..\simplelink\source/driver.c ****    _SlResponseHeader_t      *pHdr       = (_SlResponseHeader_t *)g_pCB->FunctionParams.AsyncExt.pAs
 2956              		.loc 1 732 0
 2957 0006 E64B     		ldr	r3, .L235
 2958 0008 1A68     		ldr	r2, [r3]
 2959 000a A823     		mov	r3, #168
 2960 000c D358     		ldr	r3, [r2, r3]
 2961 000e CC21     		mov	r1, #204
 2962 0010 C919     		add	r1, r1, r7
 2963 0012 0B60     		str	r3, [r1]
 733:..\..\..\..\..\simplelink\source/driver.c ****    SlWlanEvent_t            wlanEvent;
 734:..\..\..\..\..\simplelink\source/driver.c ****    SlNetAppEvent_t          netAppEvent;
 735:..\..\..\..\..\simplelink\source/driver.c ****    SlSockEvent_t            sockAppEvent;
 736:..\..\..\..\..\simplelink\source/driver.c **** 
 737:..\..\..\..\..\simplelink\source/driver.c ****    if (NULL != g_pCB->FunctionParams.AsyncExt.AsyncEvtHandler)
 2964              		.loc 1 737 0
 2965 0014 E24B     		ldr	r3, .L235
 2966 0016 1A68     		ldr	r2, [r3]
 2967 0018 B023     		mov	r3, #176
 2968 001a D358     		ldr	r3, [r2, r3]
 2969 001c 002B     		cmp	r3, #0
 2970 001e 01D1     		bne	.LCB2756
 2971 0020 00F0DDFB 		bl	.L213	@far jump
 2972              	.LCB2756:
 738:..\..\..\..\..\simplelink\source/driver.c ****    {
 739:..\..\..\..\..\simplelink\source/driver.c ****       switch(pHdr->GenHeader.Opcode)
 2973              		.loc 1 739 0
 2974 0024 CC22     		mov	r2, #204
 2975 0026 D219     		add	r2, r2, r7
ARM GAS  C:\Users\X0217454\AppData\Local\Temp\cc7UAvFx.s 			page 67


 2976 0028 1368     		ldr	r3, [r2]
 2977 002a 1B88     		ldrh	r3, [r3]
 2978 002c DD4A     		ldr	r2, .L235+4
 2979 002e 9342     		cmp	r3, r2
 2980 0030 00D1     		bne	.LCB2763
 2981 0032 9CE2     		b	.L223	@long jump
 2982              	.LCB2763:
 2983 0034 DB4A     		ldr	r2, .L235+4
 2984 0036 9342     		cmp	r3, r2
 2985 0038 1FDC     		bgt	.L231
 2986 003a DB4A     		ldr	r2, .L235+8
 2987 003c 9342     		cmp	r3, r2
 2988 003e 00D1     		bne	.LCB2769
 2989 0040 BFE0     		b	.L219	@long jump
 2990              	.LCB2769:
 2991 0042 D94A     		ldr	r2, .L235+8
 2992 0044 9342     		cmp	r3, r2
 2993 0046 0BDC     		bgt	.L232
 2994 0048 D84A     		ldr	r2, .L235+12
 2995 004a 9342     		cmp	r3, r2
 2996 004c 00D1     		bne	.LCB2775
 2997 004e 6CE3     		b	.L217	@long jump
 2998              	.LCB2775:
 2999 0050 D64A     		ldr	r2, .L235+12
 3000 0052 9342     		cmp	r3, r2
 3001 0054 32DC     		bgt	.L218
 3002 0056 D64A     		ldr	r2, .L235+16
 3003 0058 9342     		cmp	r3, r2
 3004 005a 00D1     		bne	.LCB2781
 3005 005c 05E3     		b	.L216	@long jump
 3006              	.LCB2781:
 3007 005e B3E3     		b	.L215
 3008              	.L232:
 3009 0060 8822     		mov	r2, #136
 3010 0062 1201     		lsl	r2, r2, #4
 3011 0064 9342     		cmp	r3, r2
 3012 0066 00D1     		bne	.LCB2789
 3013 0068 C7E0     		b	.L221	@long jump
 3014              	.LCB2789:
 3015 006a D24A     		ldr	r2, .L235+20
 3016 006c 9342     		cmp	r3, r2
 3017 006e 00D1     		bne	.LCB2792
 3018 0070 28E1     		b	.L222	@long jump
 3019              	.LCB2792:
 3020 0072 D14A     		ldr	r2, .L235+24
 3021 0074 9342     		cmp	r3, r2
 3022 0076 5ED0     		beq	.L220
 3023 0078 A6E3     		b	.L215
 3024              	.L231:
 3025 007a D04A     		ldr	r2, .L235+28
 3026 007c 9342     		cmp	r3, r2
 3027 007e 00D1     		bne	.LCB2802
 3028 0080 AAE1     		b	.L227	@long jump
 3029              	.LCB2802:
 3030 0082 CE4A     		ldr	r2, .L235+28
 3031 0084 9342     		cmp	r3, r2
 3032 0086 0CDC     		bgt	.L233
ARM GAS  C:\Users\X0217454\AppData\Local\Temp\cc7UAvFx.s 			page 68


 3033 0088 CD4A     		ldr	r2, .L235+32
 3034 008a 9342     		cmp	r3, r2
 3035 008c 00D1     		bne	.LCB2808
 3036 008e 51E2     		b	.L225	@long jump
 3037              	.LCB2808:
 3038 0090 CC4A     		ldr	r2, .L235+36
 3039 0092 9342     		cmp	r3, r2
 3040 0094 00D1     		bne	.LCB2811
 3041 0096 8FE3     		b	.L226	@long jump
 3042              	.LCB2811:
 3043 0098 CB4A     		ldr	r2, .L235+40
 3044 009a 9342     		cmp	r3, r2
 3045 009c 00D1     		bne	.LCB2814
 3046 009e C8E2     		b	.L224	@long jump
 3047              	.LCB2814:
 3048 00a0 92E3     		b	.L215
 3049              	.L233:
 3050 00a2 CA4A     		ldr	r2, .L235+44
 3051 00a4 9342     		cmp	r3, r2
 3052 00a6 00D1     		bne	.LCB2821
 3053 00a8 13E2     		b	.L229	@long jump
 3054              	.LCB2821:
 3055 00aa C94A     		ldr	r2, .L235+48
 3056 00ac 9342     		cmp	r3, r2
 3057 00ae 00D1     		bne	.LCB2824
 3058 00b0 BCE1     		b	.L230	@long jump
 3059              	.LCB2824:
 3060 00b2 C84A     		ldr	r2, .L235+52
 3061 00b4 9342     		cmp	r3, r2
 3062 00b6 00D1     		bne	.LCB2827
 3063 00b8 D9E1     		b	.L228	@long jump
 3064              	.LCB2827:
 3065 00ba 85E3     		b	.L215
 3066              	.L218:
 3067              	.LBB56:
 740:..\..\..\..\..\simplelink\source/driver.c ****       {
 741:..\..\..\..\..\simplelink\source/driver.c **** 		  case  SL_OPCODE_WLAN_P2P_DEV_FOUND:
 742:..\..\..\..\..\simplelink\source/driver.c **** 			  {
 743:..\..\..\..\..\simplelink\source/driver.c **** 				  slPeerInfoAsyncResponse_t* pResp = (slPeerInfoAsyncResponse_t*)_SL_RESP_ARGS_START(g_pCB->Fun
 3068              		.loc 1 743 0
 3069 00bc B84B     		ldr	r3, .L235
 3070 00be 1A68     		ldr	r2, [r3]
 3071 00c0 A823     		mov	r3, #168
 3072 00c2 D358     		ldr	r3, [r2, r3]
 3073 00c4 0833     		add	r3, r3, #8
 3074 00c6 C821     		mov	r1, #200
 3075 00c8 C919     		add	r1, r1, r7
 3076 00ca 0B60     		str	r3, [r1]
 744:..\..\..\..\..\simplelink\source/driver.c **** 				  wlanEvent.Event = SL_WLAN_P2P_DEV_FOUND_EVENT;
 3077              		.loc 1 744 0
 3078 00cc 3B1C     		mov	r3, r7
 3079 00ce 4433     		add	r3, r3, #68
 3080 00d0 0722     		mov	r2, #7
 3081 00d2 1A60     		str	r2, [r3]
 745:..\..\..\..\..\simplelink\source/driver.c **** 				  memcpy(wlanEvent.EventData.P2PModeDevFound.mac,pResp->mac, 6);
 3082              		.loc 1 745 0
 3083 00d4 3A1C     		mov	r2, r7
ARM GAS  C:\Users\X0217454\AppData\Local\Temp\cc7UAvFx.s 			page 69


 3084 00d6 4432     		add	r2, r2, #68
 3085 00d8 C821     		mov	r1, #200
 3086 00da C919     		add	r1, r1, r7
 3087 00dc 0B68     		ldr	r3, [r1]
 3088 00de 111C     		mov	r1, r2
 3089 00e0 2431     		add	r1, r1, #36
 3090 00e2 1A1C     		mov	r2, r3
 3091 00e4 2032     		add	r2, r2, #32
 3092 00e6 0623     		mov	r3, #6
 3093 00e8 081C     		mov	r0, r1
 3094 00ea 111C     		mov	r1, r2
 3095 00ec 1A1C     		mov	r2, r3
 3096 00ee FFF7FEFF 		bl	memcpy
 746:..\..\..\..\..\simplelink\source/driver.c **** 				  memcpy(wlanEvent.EventData.P2PModeDevFound.go_peer_device_name,pResp->go_peer_device_name,pRe
 3097              		.loc 1 746 0
 3098 00f2 C823     		mov	r3, #200
 3099 00f4 DB19     		add	r3, r3, r7
 3100 00f6 1A68     		ldr	r2, [r3]
 3101 00f8 C823     		mov	r3, #200
 3102 00fa DB19     		add	r3, r3, r7
 3103 00fc 1968     		ldr	r1, [r3]
 3104 00fe 2623     		mov	r3, #38
 3105 0100 CB5C     		ldrb	r3, [r1, r3]
 3106 0102 391C     		mov	r1, r7
 3107 0104 4431     		add	r1, r1, #68
 3108 0106 0431     		add	r1, r1, #4
 3109 0108 081C     		mov	r0, r1
 3110 010a 111C     		mov	r1, r2
 3111 010c 1A1C     		mov	r2, r3
 3112 010e FFF7FEFF 		bl	memcpy
 747:..\..\..\..\..\simplelink\source/driver.c **** 				  wlanEvent.EventData.P2PModeDevFound.go_peer_device_name_len = pResp->go_peer_device_name_len;
 3113              		.loc 1 747 0
 3114 0112 C821     		mov	r1, #200
 3115 0114 C919     		add	r1, r1, r7
 3116 0116 0A68     		ldr	r2, [r1]
 3117 0118 2623     		mov	r3, #38
 3118 011a D15C     		ldrb	r1, [r2, r3]
 3119 011c 3A1C     		mov	r2, r7
 3120 011e 4432     		add	r2, r2, #68
 3121 0120 2A23     		mov	r3, #42
 3122 0122 D154     		strb	r1, [r2, r3]
 748:..\..\..\..\..\simplelink\source/driver.c **** 				  g_pCB->FunctionParams.AsyncExt.AsyncEvtHandler(&wlanEvent);
 3123              		.loc 1 748 0
 3124 0124 9E4B     		ldr	r3, .L235
 3125 0126 1A68     		ldr	r2, [r3]
 3126 0128 B023     		mov	r3, #176
 3127 012a D358     		ldr	r3, [r2, r3]
 3128 012c 3A1C     		mov	r2, r7
 3129 012e 4432     		add	r2, r2, #68
 3130 0130 101C     		mov	r0, r2
 3131 0132 9847     		blx	r3
 749:..\..\..\..\..\simplelink\source/driver.c **** 				  break;
 3132              		.loc 1 749 0
 3133 0134 53E3     		b	.L213
 3134              	.L220:
 3135              	.LBE56:
 3136              	.LBB57:
ARM GAS  C:\Users\X0217454\AppData\Local\Temp\cc7UAvFx.s 			page 70


 750:..\..\..\..\..\simplelink\source/driver.c **** 			  }
 751:..\..\..\..\..\simplelink\source/driver.c **** 			  		
 752:..\..\..\..\..\simplelink\source/driver.c **** 		case SL_OPCODE_WLAN_P2P_NEG_REQ_RECEIVED:
 753:..\..\..\..\..\simplelink\source/driver.c **** 			{
 754:..\..\..\..\..\simplelink\source/driver.c **** 				  slPeerInfoAsyncResponse_t* pResp = (slPeerInfoAsyncResponse_t*)_SL_RESP_ARGS_START(g_pCB->Fun
 3137              		.loc 1 754 0
 3138 0136 9A4B     		ldr	r3, .L235
 3139 0138 1A68     		ldr	r2, [r3]
 3140 013a A823     		mov	r3, #168
 3141 013c D358     		ldr	r3, [r2, r3]
 3142 013e 0833     		add	r3, r3, #8
 3143 0140 C422     		mov	r2, #196
 3144 0142 D219     		add	r2, r2, r7
 3145 0144 1360     		str	r3, [r2]
 755:..\..\..\..\..\simplelink\source/driver.c **** 
 756:..\..\..\..\..\simplelink\source/driver.c **** 				  wlanEvent.Event = SL_WLAN_P2P_NEG_REQ_RECEIVED_EVENT;
 3146              		.loc 1 756 0
 3147 0146 3B1C     		mov	r3, r7
 3148 0148 4433     		add	r3, r3, #68
 3149 014a 0822     		mov	r2, #8
 3150 014c 1A60     		str	r2, [r3]
 757:..\..\..\..\..\simplelink\source/driver.c **** 				  memcpy(wlanEvent.EventData.P2PModeNegReqReceived.mac,pResp->mac, 6);
 3151              		.loc 1 757 0
 3152 014e 3A1C     		mov	r2, r7
 3153 0150 4432     		add	r2, r2, #68
 3154 0152 C421     		mov	r1, #196
 3155 0154 C919     		add	r1, r1, r7
 3156 0156 0B68     		ldr	r3, [r1]
 3157 0158 111C     		mov	r1, r2
 3158 015a 2431     		add	r1, r1, #36
 3159 015c 1A1C     		mov	r2, r3
 3160 015e 2032     		add	r2, r2, #32
 3161 0160 0623     		mov	r3, #6
 3162 0162 081C     		mov	r0, r1
 3163 0164 111C     		mov	r1, r2
 3164 0166 1A1C     		mov	r2, r3
 3165 0168 FFF7FEFF 		bl	memcpy
 758:..\..\..\..\..\simplelink\source/driver.c **** 				  memcpy(wlanEvent.EventData.P2PModeNegReqReceived.go_peer_device_name,pResp->go_peer_device_na
 3166              		.loc 1 758 0
 3167 016c C423     		mov	r3, #196
 3168 016e DB19     		add	r3, r3, r7
 3169 0170 1A68     		ldr	r2, [r3]
 3170 0172 C423     		mov	r3, #196
 3171 0174 DB19     		add	r3, r3, r7
 3172 0176 1968     		ldr	r1, [r3]
 3173 0178 2623     		mov	r3, #38
 3174 017a CB5C     		ldrb	r3, [r1, r3]
 3175 017c 391C     		mov	r1, r7
 3176 017e 4431     		add	r1, r1, #68
 3177 0180 0431     		add	r1, r1, #4
 3178 0182 081C     		mov	r0, r1
 3179 0184 111C     		mov	r1, r2
 3180 0186 1A1C     		mov	r2, r3
 3181 0188 FFF7FEFF 		bl	memcpy
 759:..\..\..\..\..\simplelink\source/driver.c **** 				  wlanEvent.EventData.P2PModeNegReqReceived.go_peer_device_name_len = pResp->go_peer_device_nam
 3182              		.loc 1 759 0
 3183 018c C421     		mov	r1, #196
ARM GAS  C:\Users\X0217454\AppData\Local\Temp\cc7UAvFx.s 			page 71


 3184 018e C919     		add	r1, r1, r7
 3185 0190 0A68     		ldr	r2, [r1]
 3186 0192 2623     		mov	r3, #38
 3187 0194 D15C     		ldrb	r1, [r2, r3]
 3188 0196 3A1C     		mov	r2, r7
 3189 0198 4432     		add	r2, r2, #68
 3190 019a 2A23     		mov	r3, #42
 3191 019c D154     		strb	r1, [r2, r3]
 760:..\..\..\..\..\simplelink\source/driver.c **** 				  wlanEvent.EventData.P2PModeNegReqReceived.wps_dev_password_id = pResp->wps_dev_password_id;
 3192              		.loc 1 760 0
 3193 019e C423     		mov	r3, #196
 3194 01a0 DB19     		add	r3, r3, r7
 3195 01a2 1A68     		ldr	r2, [r3]
 3196 01a4 2723     		mov	r3, #39
 3197 01a6 D15C     		ldrb	r1, [r2, r3]
 3198 01a8 3A1C     		mov	r2, r7
 3199 01aa 4432     		add	r2, r2, #68
 3200 01ac 2B23     		mov	r3, #43
 3201 01ae D154     		strb	r1, [r2, r3]
 761:..\..\..\..\..\simplelink\source/driver.c **** 				  g_pCB->FunctionParams.AsyncExt.AsyncEvtHandler(&wlanEvent);
 3202              		.loc 1 761 0
 3203 01b0 7B4B     		ldr	r3, .L235
 3204 01b2 1A68     		ldr	r2, [r3]
 3205 01b4 B023     		mov	r3, #176
 3206 01b6 D358     		ldr	r3, [r2, r3]
 3207 01b8 3A1C     		mov	r2, r7
 3208 01ba 4432     		add	r2, r2, #68
 3209 01bc 101C     		mov	r0, r2
 3210 01be 9847     		blx	r3
 762:..\..\..\..\..\simplelink\source/driver.c **** 				  break;
 3211              		.loc 1 762 0
 3212 01c0 0DE3     		b	.L213
 3213              	.L219:
 3214              	.LBE57:
 3215              	.LBB58:
 763:..\..\..\..\..\simplelink\source/driver.c **** 			  }
 764:..\..\..\..\..\simplelink\source/driver.c **** 		case SL_OPCODE_WLAN_CONNECTION_FAILED:
 765:..\..\..\..\..\simplelink\source/driver.c **** 			{
 766:..\..\..\..\..\simplelink\source/driver.c **** 				 slWlanConnFailureAsyncResponse_t	* pResp = (slWlanConnFailureAsyncResponse_t*)_SL_RESP_ARGS_ST
 3216              		.loc 1 766 0
 3217 01c2 774B     		ldr	r3, .L235
 3218 01c4 1A68     		ldr	r2, [r3]
 3219 01c6 A823     		mov	r3, #168
 3220 01c8 D358     		ldr	r3, [r2, r3]
 3221 01ca 0833     		add	r3, r3, #8
 3222 01cc C021     		mov	r1, #192
 3223 01ce C919     		add	r1, r1, r7
 3224 01d0 0B60     		str	r3, [r1]
 767:..\..\..\..\..\simplelink\source/driver.c **** 
 768:..\..\..\..\..\simplelink\source/driver.c **** 				  wlanEvent.Event = SL_WLAN_CONNECTION_FAILED_EVENT;
 3225              		.loc 1 768 0
 3226 01d2 3B1C     		mov	r3, r7
 3227 01d4 4433     		add	r3, r3, #68
 3228 01d6 0922     		mov	r2, #9
 3229 01d8 1A60     		str	r2, [r3]
 769:..\..\..\..\..\simplelink\source/driver.c **** 				  wlanEvent.EventData.P2PModewlanConnectionFailure.status = pResp->status;
 3230              		.loc 1 769 0
ARM GAS  C:\Users\X0217454\AppData\Local\Temp\cc7UAvFx.s 			page 72


 3231 01da C022     		mov	r2, #192
 3232 01dc D219     		add	r2, r2, r7
 3233 01de 1368     		ldr	r3, [r2]
 3234 01e0 1A88     		ldrh	r2, [r3]
 3235 01e2 3B1C     		mov	r3, r7
 3236 01e4 4433     		add	r3, r3, #68
 3237 01e6 9A80     		strh	r2, [r3, #4]
 770:..\..\..\..\..\simplelink\source/driver.c **** 
 771:..\..\..\..\..\simplelink\source/driver.c **** 				  g_pCB->FunctionParams.AsyncExt.AsyncEvtHandler(&wlanEvent);
 3238              		.loc 1 771 0
 3239 01e8 6D4B     		ldr	r3, .L235
 3240 01ea 1A68     		ldr	r2, [r3]
 3241 01ec B023     		mov	r3, #176
 3242 01ee D358     		ldr	r3, [r2, r3]
 3243 01f0 3A1C     		mov	r2, r7
 3244 01f2 4432     		add	r2, r2, #68
 3245 01f4 101C     		mov	r0, r2
 3246 01f6 9847     		blx	r3
 772:..\..\..\..\..\simplelink\source/driver.c **** 				  break;
 3247              		.loc 1 772 0
 3248 01f8 F1E2     		b	.L213
 3249              	.L221:
 3250              	.LBE58:
 3251              	.LBB59:
 773:..\..\..\..\..\simplelink\source/driver.c **** 			  }
 774:..\..\..\..\..\simplelink\source/driver.c **** 		
 775:..\..\..\..\..\simplelink\source/driver.c ****           case SL_OPCODE_WLAN_WLANASYNCCONNECTEDRESPONSE:
 776:..\..\..\..\..\simplelink\source/driver.c **** 			  {
 777:..\..\..\..\..\simplelink\source/driver.c **** 				 sl_protocol_wlanConnectAsyncResponse_t *pWlanResp = (sl_protocol_wlanConnectAsyncResponse_t*)_
 3252              		.loc 1 777 0
 3253 01fa 694B     		ldr	r3, .L235
 3254 01fc 1A68     		ldr	r2, [r3]
 3255 01fe A823     		mov	r3, #168
 3256 0200 D358     		ldr	r3, [r2, r3]
 3257 0202 0833     		add	r3, r3, #8
 3258 0204 BC21     		mov	r1, #188
 3259 0206 C919     		add	r1, r1, r7
 3260 0208 0B60     		str	r3, [r1]
 778:..\..\..\..\..\simplelink\source/driver.c **** 				 memset(&wlanEvent.EventData.STAandP2PModeWlanConnected,0,sizeof(sl_protocol_wlanConnectAsyncRe
 3261              		.loc 1 778 0
 3262 020a 3B1C     		mov	r3, r7
 3263 020c 4433     		add	r3, r3, #68
 3264 020e 0433     		add	r3, r3, #4
 3265 0210 181C     		mov	r0, r3
 3266 0212 0021     		mov	r1, #0
 3267 0214 4C22     		mov	r2, #76
 3268 0216 FFF7FEFF 		bl	memset
 779:..\..\..\..\..\simplelink\source/driver.c ****              wlanEvent.Event = SL_WLAN_CONNECT_EVENT;
 3269              		.loc 1 779 0
 3270 021a 3B1C     		mov	r3, r7
 3271 021c 4433     		add	r3, r3, #68
 3272 021e 0122     		mov	r2, #1
 3273 0220 1A60     		str	r2, [r3]
 780:..\..\..\..\..\simplelink\source/driver.c **** 				 wlanEvent.EventData.STAandP2PModeWlanConnected.connection_type = pWlanResp->connection_type;
 3274              		.loc 1 780 0
 3275 0222 BC22     		mov	r2, #188
 3276 0224 D219     		add	r2, r2, r7
ARM GAS  C:\Users\X0217454\AppData\Local\Temp\cc7UAvFx.s 			page 73


 3277 0226 1368     		ldr	r3, [r2]
 3278 0228 1A78     		ldrb	r2, [r3]
 3279 022a 3B1C     		mov	r3, r7
 3280 022c 4433     		add	r3, r3, #68
 3281 022e 1A71     		strb	r2, [r3, #4]
 781:..\..\..\..\..\simplelink\source/driver.c **** 				 memcpy(wlanEvent.EventData.STAandP2PModeWlanConnected.bssid, pWlanResp->bssid, 6);
 3282              		.loc 1 781 0
 3283 0230 381C     		mov	r0, r7
 3284 0232 4430     		add	r0, r0, #68
 3285 0234 4721     		mov	r1, #71
 3286 0236 BC23     		mov	r3, #188
 3287 0238 DB19     		add	r3, r3, r7
 3288 023a 1A68     		ldr	r2, [r3]
 3289 023c 4323     		mov	r3, #67
 3290 023e 4118     		add	r1, r0, r1
 3291 0240 D218     		add	r2, r2, r3
 3292 0242 0623     		mov	r3, #6
 3293 0244 081C     		mov	r0, r1
 3294 0246 111C     		mov	r1, r2
 3295 0248 1A1C     		mov	r2, r3
 3296 024a FFF7FEFF 		bl	memcpy
 782:..\..\..\..\..\simplelink\source/driver.c **** 				 memcpy(wlanEvent.EventData.STAandP2PModeWlanConnected.go_peer_device_name,pWlanResp->go_peer_d
 3297              		.loc 1 782 0
 3298 024e BC21     		mov	r1, #188
 3299 0250 C919     		add	r1, r1, r7
 3300 0252 0B68     		ldr	r3, [r1]
 3301 0254 1A1C     		mov	r2, r3
 3302 0256 2332     		add	r2, r2, #35
 3303 0258 BC23     		mov	r3, #188
 3304 025a DB19     		add	r3, r3, r7
 3305 025c 1968     		ldr	r1, [r3]
 3306 025e 2223     		mov	r3, #34
 3307 0260 CB5C     		ldrb	r3, [r1, r3]
 3308 0262 391C     		mov	r1, r7
 3309 0264 4431     		add	r1, r1, #68
 3310 0266 2731     		add	r1, r1, #39
 3311 0268 081C     		mov	r0, r1
 3312 026a 111C     		mov	r1, r2
 3313 026c 1A1C     		mov	r2, r3
 3314 026e FFF7FEFF 		bl	memcpy
 783:..\..\..\..\..\simplelink\source/driver.c **** 				 memcpy(wlanEvent.EventData.STAandP2PModeWlanConnected.ssid_name,		  pWlanResp->ssid_name,			 p
 3315              		.loc 1 783 0
 3316 0272 BC21     		mov	r1, #188
 3317 0274 C919     		add	r1, r1, r7
 3318 0276 0B68     		ldr	r3, [r1]
 3319 0278 9A1C     		add	r2, r3, #2
 3320 027a BC21     		mov	r1, #188
 3321 027c C919     		add	r1, r1, r7
 3322 027e 0B68     		ldr	r3, [r1]
 3323 0280 5B78     		ldrb	r3, [r3, #1]
 3324 0282 391C     		mov	r1, r7
 3325 0284 4431     		add	r1, r1, #68
 3326 0286 0631     		add	r1, r1, #6
 3327 0288 081C     		mov	r0, r1
 3328 028a 111C     		mov	r1, r2
 3329 028c 1A1C     		mov	r2, r3
 3330 028e FFF7FEFF 		bl	memcpy
ARM GAS  C:\Users\X0217454\AppData\Local\Temp\cc7UAvFx.s 			page 74


 784:..\..\..\..\..\simplelink\source/driver.c **** 				 wlanEvent.EventData.STAandP2PModeWlanConnected.ssid_len = pWlanResp->ssid_len;
 3331              		.loc 1 784 0
 3332 0292 BC22     		mov	r2, #188
 3333 0294 D219     		add	r2, r2, r7
 3334 0296 1368     		ldr	r3, [r2]
 3335 0298 5A78     		ldrb	r2, [r3, #1]
 3336 029a 3B1C     		mov	r3, r7
 3337 029c 4433     		add	r3, r3, #68
 3338 029e 5A71     		strb	r2, [r3, #5]
 785:..\..\..\..\..\simplelink\source/driver.c **** 				 wlanEvent.EventData.STAandP2PModeWlanConnected.go_peer_device_name_len = pWlanResp->go_peer_de
 3339              		.loc 1 785 0
 3340 02a0 BC23     		mov	r3, #188
 3341 02a2 DB19     		add	r3, r3, r7
 3342 02a4 1A68     		ldr	r2, [r3]
 3343 02a6 2223     		mov	r3, #34
 3344 02a8 D15C     		ldrb	r1, [r2, r3]
 3345 02aa 3A1C     		mov	r2, r7
 3346 02ac 4432     		add	r2, r2, #68
 3347 02ae 2623     		mov	r3, #38
 3348 02b0 D154     		strb	r1, [r2, r3]
 786:..\..\..\..\..\simplelink\source/driver.c **** 
 787:..\..\..\..\..\simplelink\source/driver.c ****              g_pCB->FunctionParams.AsyncExt.AsyncEvtHandler(&wlanEvent);
 3349              		.loc 1 787 0
 3350 02b2 3B4B     		ldr	r3, .L235
 3351 02b4 1A68     		ldr	r2, [r3]
 3352 02b6 B023     		mov	r3, #176
 3353 02b8 D358     		ldr	r3, [r2, r3]
 3354 02ba 3A1C     		mov	r2, r7
 3355 02bc 4432     		add	r2, r2, #68
 3356 02be 101C     		mov	r0, r2
 3357 02c0 9847     		blx	r3
 788:..\..\..\..\..\simplelink\source/driver.c ****              break;
 3358              		.loc 1 788 0
 3359 02c2 8CE2     		b	.L213
 3360              	.L222:
 3361              	.LBE59:
 3362              	.LBB60:
 789:..\..\..\..\..\simplelink\source/driver.c **** 			  }
 790:..\..\..\..\..\simplelink\source/driver.c ****           case SL_OPCODE_WLAN_WLANASYNCDISCONNECTEDRESPONSE:
 791:..\..\..\..\..\simplelink\source/driver.c **** 			  {
 792:..\..\..\..\..\simplelink\source/driver.c **** 				 sl_protocol_wlanConnectAsyncResponse_t *pWlanResp = (sl_protocol_wlanConnectAsyncResponse_t*)_
 3363              		.loc 1 792 0
 3364 02c4 364B     		ldr	r3, .L235
 3365 02c6 1A68     		ldr	r2, [r3]
 3366 02c8 A823     		mov	r3, #168
 3367 02ca D358     		ldr	r3, [r2, r3]
 3368 02cc 0833     		add	r3, r3, #8
 3369 02ce B821     		mov	r1, #184
 3370 02d0 C919     		add	r1, r1, r7
 3371 02d2 0B60     		str	r3, [r1]
 793:..\..\..\..\..\simplelink\source/driver.c **** 				 memset(&wlanEvent.EventData.STAandP2PModeDisconnected,0,sizeof(sl_protocol_wlanConnectAsyncRes
 3372              		.loc 1 793 0
 3373 02d4 3B1C     		mov	r3, r7
 3374 02d6 4433     		add	r3, r3, #68
 3375 02d8 0433     		add	r3, r3, #4
 3376 02da 181C     		mov	r0, r3
 3377 02dc 0021     		mov	r1, #0
ARM GAS  C:\Users\X0217454\AppData\Local\Temp\cc7UAvFx.s 			page 75


 3378 02de 4C22     		mov	r2, #76
 3379 02e0 FFF7FEFF 		bl	memset
 794:..\..\..\..\..\simplelink\source/driver.c ****              wlanEvent.Event = SL_WLAN_DISCONNECT_EVENT;
 3380              		.loc 1 794 0
 3381 02e4 3B1C     		mov	r3, r7
 3382 02e6 4433     		add	r3, r3, #68
 3383 02e8 0222     		mov	r2, #2
 3384 02ea 1A60     		str	r2, [r3]
 795:..\..\..\..\..\simplelink\source/driver.c **** 				 wlanEvent.EventData.STAandP2PModeDisconnected.connection_type = pWlanResp->connection_type;
 3385              		.loc 1 795 0
 3386 02ec B822     		mov	r2, #184
 3387 02ee D219     		add	r2, r2, r7
 3388 02f0 1368     		ldr	r3, [r2]
 3389 02f2 1A78     		ldrb	r2, [r3]
 3390 02f4 3B1C     		mov	r3, r7
 3391 02f6 4433     		add	r3, r3, #68
 3392 02f8 1A71     		strb	r2, [r3, #4]
 796:..\..\..\..\..\simplelink\source/driver.c **** 				 memcpy(wlanEvent.EventData.STAandP2PModeDisconnected.bssid, pWlanResp->bssid, 6);
 3393              		.loc 1 796 0
 3394 02fa 381C     		mov	r0, r7
 3395 02fc 4430     		add	r0, r0, #68
 3396 02fe 4721     		mov	r1, #71
 3397 0300 B823     		mov	r3, #184
 3398 0302 DB19     		add	r3, r3, r7
 3399 0304 1A68     		ldr	r2, [r3]
 3400 0306 4323     		mov	r3, #67
 3401 0308 4118     		add	r1, r0, r1
 3402 030a D218     		add	r2, r2, r3
 3403 030c 0623     		mov	r3, #6
 3404 030e 081C     		mov	r0, r1
 3405 0310 111C     		mov	r1, r2
 3406 0312 1A1C     		mov	r2, r3
 3407 0314 FFF7FEFF 		bl	memcpy
 797:..\..\..\..\..\simplelink\source/driver.c **** 				 memcpy(wlanEvent.EventData.STAandP2PModeDisconnected.go_peer_device_name,pWlanResp->go_peer_de
 3408              		.loc 1 797 0
 3409 0318 B821     		mov	r1, #184
 3410 031a C919     		add	r1, r1, r7
 3411 031c 0B68     		ldr	r3, [r1]
 3412 031e 1A1C     		mov	r2, r3
 3413 0320 2332     		add	r2, r2, #35
 3414 0322 B823     		mov	r3, #184
 3415 0324 DB19     		add	r3, r3, r7
 3416 0326 1968     		ldr	r1, [r3]
 3417 0328 2223     		mov	r3, #34
 3418 032a CB5C     		ldrb	r3, [r1, r3]
 3419 032c 391C     		mov	r1, r7
 3420 032e 4431     		add	r1, r1, #68
 3421 0330 2731     		add	r1, r1, #39
 3422 0332 081C     		mov	r0, r1
 3423 0334 111C     		mov	r1, r2
 3424 0336 1A1C     		mov	r2, r3
 3425 0338 FFF7FEFF 		bl	memcpy
 798:..\..\..\..\..\simplelink\source/driver.c **** 				 memcpy(wlanEvent.EventData.STAandP2PModeDisconnected.ssid_name,		  pWlanResp->ssid_name,			 pW
 3426              		.loc 1 798 0
 3427 033c B821     		mov	r1, #184
 3428 033e C919     		add	r1, r1, r7
 3429 0340 0B68     		ldr	r3, [r1]
ARM GAS  C:\Users\X0217454\AppData\Local\Temp\cc7UAvFx.s 			page 76


 3430 0342 9A1C     		add	r2, r3, #2
 3431 0344 B821     		mov	r1, #184
 3432 0346 C919     		add	r1, r1, r7
 3433 0348 0B68     		ldr	r3, [r1]
 3434 034a 5B78     		ldrb	r3, [r3, #1]
 3435 034c 391C     		mov	r1, r7
 3436 034e 4431     		add	r1, r1, #68
 3437 0350 0631     		add	r1, r1, #6
 3438 0352 081C     		mov	r0, r1
 3439 0354 111C     		mov	r1, r2
 3440 0356 1A1C     		mov	r2, r3
 3441 0358 FFF7FEFF 		bl	memcpy
 799:..\..\..\..\..\simplelink\source/driver.c **** 				 wlanEvent.EventData.STAandP2PModeDisconnected.ssid_len = pWlanResp->ssid_len;
 3442              		.loc 1 799 0
 3443 035c B822     		mov	r2, #184
 3444 035e D219     		add	r2, r2, r7
 3445 0360 1368     		ldr	r3, [r2]
 3446 0362 5A78     		ldrb	r2, [r3, #1]
 3447 0364 3B1C     		mov	r3, r7
 3448 0366 4433     		add	r3, r3, #68
 3449 0368 5A71     		strb	r2, [r3, #5]
 800:..\..\..\..\..\simplelink\source/driver.c **** 				 wlanEvent.EventData.STAandP2PModeDisconnected.reason_code = pWlanResp->reason_code;
 3450              		.loc 1 800 0
 3451 036a B823     		mov	r3, #184
 3452 036c DB19     		add	r3, r3, r7
 3453 036e 1A68     		ldr	r2, [r3]
 3454 0370 4923     		mov	r3, #73
 3455 0372 D15C     		ldrb	r1, [r2, r3]
 3456 0374 3A1C     		mov	r2, r7
 3457 0376 4432     		add	r2, r2, #68
 3458 0378 4D23     		mov	r3, #77
 3459 037a D154     		strb	r1, [r2, r3]
 801:..\..\..\..\..\simplelink\source/driver.c **** 				 wlanEvent.EventData.STAandP2PModeDisconnected.go_peer_device_name_len = pWlanResp->go_peer_dev
 3460              		.loc 1 801 0
 3461 037c B821     		mov	r1, #184
 3462 037e C919     		add	r1, r1, r7
 3463 0380 0A68     		ldr	r2, [r1]
 3464 0382 2223     		mov	r3, #34
 3465 0384 D15C     		ldrb	r1, [r2, r3]
 3466 0386 3A1C     		mov	r2, r7
 3467 0388 4432     		add	r2, r2, #68
 3468 038a 2623     		mov	r3, #38
 3469 038c D154     		strb	r1, [r2, r3]
 802:..\..\..\..\..\simplelink\source/driver.c ****              g_pCB->FunctionParams.AsyncExt.AsyncEvtHandler(&wlanEvent);
 3470              		.loc 1 802 0
 3471 038e 044B     		ldr	r3, .L235
 3472 0390 1A68     		ldr	r2, [r3]
 3473 0392 B023     		mov	r3, #176
 3474 0394 D358     		ldr	r3, [r2, r3]
 3475 0396 3A1C     		mov	r2, r7
 3476 0398 4432     		add	r2, r2, #68
 3477 039a 101C     		mov	r0, r2
 3478 039c 9847     		blx	r3
 803:..\..\..\..\..\simplelink\source/driver.c ****              break;             
 3479              		.loc 1 803 0
 3480 039e 1EE2     		b	.L213
 3481              	.L236:
ARM GAS  C:\Users\X0217454\AppData\Local\Temp\cc7UAvFx.s 			page 77


 3482              		.align	2
 3483              	.L235:
 3484 03a0 00000000 		.word	g_pCB
 3485 03a4 B2080000 		.word	2226
 3486 03a8 31080000 		.word	2097
 3487 03ac 2F080000 		.word	2095
 3488 03b0 2E080000 		.word	2094
 3489 03b4 81080000 		.word	2177
 3490 03b8 32080000 		.word	2098
 3491 03bc 25180000 		.word	6181
 3492 03c0 0E100000 		.word	4110
 3493 03c4 22180000 		.word	6178
 3494 03c8 B3080000 		.word	2227
 3495 03cc 2D180000 		.word	6189
 3496 03d0 251A0000 		.word	6693
 3497 03d4 2C180000 		.word	6188
 3498              	.L227:
 3499              	.LBE60:
 3500              	.LBB61:
 804:..\..\..\..\..\simplelink\source/driver.c **** 			  }
 805:..\..\..\..\..\simplelink\source/driver.c ****          case SL_OPCODE_NETAPP_IPACQUIRED:
 806:..\..\..\..\..\simplelink\source/driver.c **** 			{
 807:..\..\..\..\..\simplelink\source/driver.c ****              SlIpV4AcquiredAsync_t *pIpV4 = (SlIpV4AcquiredAsync_t*)_SL_RESP_ARGS_START(g_pCB->Func
 3501              		.loc 1 807 0
 3502 03d8 F64B     		ldr	r3, .L237
 3503 03da 1A68     		ldr	r2, [r3]
 3504 03dc A823     		mov	r3, #168
 3505 03de D358     		ldr	r3, [r2, r3]
 3506 03e0 0833     		add	r3, r3, #8
 3507 03e2 B422     		mov	r2, #180
 3508 03e4 D219     		add	r2, r2, r7
 3509 03e6 1360     		str	r3, [r2]
 808:..\..\..\..\..\simplelink\source/driver.c ****              netAppEvent.Event = SL_NETAPP_IPV4_ACQUIRED;
 3510              		.loc 1 808 0
 3511 03e8 3B1C     		mov	r3, r7
 3512 03ea 0C33     		add	r3, r3, #12
 3513 03ec 0122     		mov	r2, #1
 3514 03ee 1A60     		str	r2, [r3]
 809:..\..\..\..\..\simplelink\source/driver.c ****              netAppEvent.EventData.ipAcquiredV4.ip = pIpV4->ip;
 3515              		.loc 1 809 0
 3516 03f0 B421     		mov	r1, #180
 3517 03f2 C919     		add	r1, r1, r7
 3518 03f4 0B68     		ldr	r3, [r1]
 3519 03f6 1A68     		ldr	r2, [r3]
 3520 03f8 3B1C     		mov	r3, r7
 3521 03fa 0C33     		add	r3, r3, #12
 3522 03fc 5A60     		str	r2, [r3, #4]
 810:..\..\..\..\..\simplelink\source/driver.c ****              netAppEvent.EventData.ipAcquiredV4.gateway = pIpV4->gateway;
 3523              		.loc 1 810 0
 3524 03fe B422     		mov	r2, #180
 3525 0400 D219     		add	r2, r2, r7
 3526 0402 1368     		ldr	r3, [r2]
 3527 0404 5A68     		ldr	r2, [r3, #4]
 3528 0406 3B1C     		mov	r3, r7
 3529 0408 0C33     		add	r3, r3, #12
 3530 040a 9A60     		str	r2, [r3, #8]
 811:..\..\..\..\..\simplelink\source/driver.c ****              netAppEvent.EventData.ipAcquiredV4.dns = pIpV4->dns;
ARM GAS  C:\Users\X0217454\AppData\Local\Temp\cc7UAvFx.s 			page 78


 3531              		.loc 1 811 0
 3532 040c B421     		mov	r1, #180
 3533 040e C919     		add	r1, r1, r7
 3534 0410 0B68     		ldr	r3, [r1]
 3535 0412 9A68     		ldr	r2, [r3, #8]
 3536 0414 3B1C     		mov	r3, r7
 3537 0416 0C33     		add	r3, r3, #12
 3538 0418 DA60     		str	r2, [r3, #12]
 812:..\..\..\..\..\simplelink\source/driver.c ****              g_pCB->FunctionParams.AsyncExt.AsyncEvtHandler(&netAppEvent);
 3539              		.loc 1 812 0
 3540 041a E64B     		ldr	r3, .L237
 3541 041c 1A68     		ldr	r2, [r3]
 3542 041e B023     		mov	r3, #176
 3543 0420 D358     		ldr	r3, [r2, r3]
 3544 0422 3A1C     		mov	r2, r7
 3545 0424 0C32     		add	r2, r2, #12
 3546 0426 101C     		mov	r0, r2
 3547 0428 9847     		blx	r3
 3548              	.LBE61:
 813:..\..\..\..\..\simplelink\source/driver.c ****             }
 814:..\..\..\..\..\simplelink\source/driver.c ****             break;
 3549              		.loc 1 814 0
 3550 042a D8E1     		b	.L213
 3551              	.L230:
 3552              	.LBB62:
 815:..\..\..\..\..\simplelink\source/driver.c ****          case SL_OPCODE_NETAPP_IPACQUIRED_V6:
 816:..\..\..\..\..\simplelink\source/driver.c ****            {
 817:..\..\..\..\..\simplelink\source/driver.c ****             SlIpV6AcquiredAsync_t *pIpV6 = (SlIpV6AcquiredAsync_t*)_SL_RESP_ARGS_START(g_pCB->Funct
 3553              		.loc 1 817 0
 3554 042c E14B     		ldr	r3, .L237
 3555 042e 1A68     		ldr	r2, [r3]
 3556 0430 A823     		mov	r3, #168
 3557 0432 D358     		ldr	r3, [r2, r3]
 3558 0434 0833     		add	r3, r3, #8
 3559 0436 B022     		mov	r2, #176
 3560 0438 D219     		add	r2, r2, r7
 3561 043a 1360     		str	r3, [r2]
 818:..\..\..\..\..\simplelink\source/driver.c **** 			netAppEvent.Event =  SL_NETAPP_IPV6_ACQUIRED;
 3562              		.loc 1 818 0
 3563 043c 3B1C     		mov	r3, r7
 3564 043e 0C33     		add	r3, r3, #12
 3565 0440 0222     		mov	r2, #2
 3566 0442 1A60     		str	r2, [r3]
 819:..\..\..\..\..\simplelink\source/driver.c ****             memcpy((void *)&netAppEvent.EventData.ipAcquiredV6.ip[0],(void *)&pIpV6->ip[0],sizeof(p
 3567              		.loc 1 819 0
 3568 0444 B021     		mov	r1, #176
 3569 0446 C919     		add	r1, r1, r7
 3570 0448 0B68     		ldr	r3, [r1]
 3571 044a 0433     		add	r3, r3, #4
 3572 044c 3A1C     		mov	r2, r7
 3573 044e 0C32     		add	r2, r2, #12
 3574 0450 0832     		add	r2, r2, #8
 3575 0452 101C     		mov	r0, r2
 3576 0454 191C     		mov	r1, r3
 3577 0456 1022     		mov	r2, #16
 3578 0458 FFF7FEFF 		bl	memcpy
 820:..\..\..\..\..\simplelink\source/driver.c ****             g_pCB->FunctionParams.AsyncExt.AsyncEvtHandler(&netAppEvent);
ARM GAS  C:\Users\X0217454\AppData\Local\Temp\cc7UAvFx.s 			page 79


 3579              		.loc 1 820 0
 3580 045c D54B     		ldr	r3, .L237
 3581 045e 1A68     		ldr	r2, [r3]
 3582 0460 B023     		mov	r3, #176
 3583 0462 D358     		ldr	r3, [r2, r3]
 3584 0464 3A1C     		mov	r2, r7
 3585 0466 0C32     		add	r2, r2, #12
 3586 0468 101C     		mov	r0, r2
 3587 046a 9847     		blx	r3
 3588              	.LBE62:
 821:..\..\..\..\..\simplelink\source/driver.c ****            }
 822:..\..\..\..\..\simplelink\source/driver.c ****             break;
 3589              		.loc 1 822 0
 3590 046c B7E1     		b	.L213
 3591              	.L228:
 3592              	.LBB63:
 823:..\..\..\..\..\simplelink\source/driver.c **** 
 824:..\..\..\..\..\simplelink\source/driver.c ****             case SL_OPCODE_NETAPP_IP_LEASED:
 825:..\..\..\..\..\simplelink\source/driver.c **** 			{
 826:..\..\..\..\..\simplelink\source/driver.c ****              SlIpLeasedAsync_t *pIpV4 = (SlIpLeasedAsync_t*)_SL_RESP_ARGS_START(g_pCB->FunctionPara
 3593              		.loc 1 826 0
 3594 046e D14B     		ldr	r3, .L237
 3595 0470 1A68     		ldr	r2, [r3]
 3596 0472 A823     		mov	r3, #168
 3597 0474 D358     		ldr	r3, [r2, r3]
 3598 0476 0833     		add	r3, r3, #8
 3599 0478 AC22     		mov	r2, #172
 3600 047a D219     		add	r2, r2, r7
 3601 047c 1360     		str	r3, [r2]
 827:..\..\..\..\..\simplelink\source/driver.c **** 			 netAppEvent.Event = SL_NETAPP_IP_LEASED;
 3602              		.loc 1 827 0
 3603 047e 3B1C     		mov	r3, r7
 3604 0480 0C33     		add	r3, r3, #12
 3605 0482 0422     		mov	r2, #4
 3606 0484 1A60     		str	r2, [r3]
 828:..\..\..\..\..\simplelink\source/driver.c ****              netAppEvent.EventData.ipLeased.ip_address = pIpV4->ip_address;
 3607              		.loc 1 828 0
 3608 0486 AC21     		mov	r1, #172
 3609 0488 C919     		add	r1, r1, r7
 3610 048a 0B68     		ldr	r3, [r1]
 3611 048c 1A68     		ldr	r2, [r3]
 3612 048e 3B1C     		mov	r3, r7
 3613 0490 0C33     		add	r3, r3, #12
 3614 0492 5A60     		str	r2, [r3, #4]
 829:..\..\..\..\..\simplelink\source/driver.c ****              netAppEvent.EventData.ipLeased.lease_time = pIpV4->lease_time;
 3615              		.loc 1 829 0
 3616 0494 AC22     		mov	r2, #172
 3617 0496 D219     		add	r2, r2, r7
 3618 0498 1368     		ldr	r3, [r2]
 3619 049a 5A68     		ldr	r2, [r3, #4]
 3620 049c 3B1C     		mov	r3, r7
 3621 049e 0C33     		add	r3, r3, #12
 3622 04a0 9A60     		str	r2, [r3, #8]
 830:..\..\..\..\..\simplelink\source/driver.c ****              memcpy(netAppEvent.EventData.ipLeased.mac, pIpV4->mac, 6);
 3623              		.loc 1 830 0
 3624 04a2 3A1C     		mov	r2, r7
 3625 04a4 0C32     		add	r2, r2, #12
ARM GAS  C:\Users\X0217454\AppData\Local\Temp\cc7UAvFx.s 			page 80


 3626 04a6 AC21     		mov	r1, #172
 3627 04a8 C919     		add	r1, r1, r7
 3628 04aa 0B68     		ldr	r3, [r1]
 3629 04ac 111C     		mov	r1, r2
 3630 04ae 0C31     		add	r1, r1, #12
 3631 04b0 1A1C     		mov	r2, r3
 3632 04b2 0832     		add	r2, r2, #8
 3633 04b4 0623     		mov	r3, #6
 3634 04b6 081C     		mov	r0, r1
 3635 04b8 111C     		mov	r1, r2
 3636 04ba 1A1C     		mov	r2, r3
 3637 04bc FFF7FEFF 		bl	memcpy
 831:..\..\..\..\..\simplelink\source/driver.c **** 
 832:..\..\..\..\..\simplelink\source/driver.c ****              g_pCB->FunctionParams.AsyncExt.AsyncEvtHandler(&netAppEvent);
 3638              		.loc 1 832 0
 3639 04c0 BC4B     		ldr	r3, .L237
 3640 04c2 1A68     		ldr	r2, [r3]
 3641 04c4 B023     		mov	r3, #176
 3642 04c6 D358     		ldr	r3, [r2, r3]
 3643 04c8 3A1C     		mov	r2, r7
 3644 04ca 0C32     		add	r2, r2, #12
 3645 04cc 101C     		mov	r0, r2
 3646 04ce 9847     		blx	r3
 3647              	.LBE63:
 833:..\..\..\..\..\simplelink\source/driver.c ****             }
 834:..\..\..\..\..\simplelink\source/driver.c ****             break;
 3648              		.loc 1 834 0
 3649 04d0 85E1     		b	.L213
 3650              	.L229:
 3651              	.LBB64:
 835:..\..\..\..\..\simplelink\source/driver.c **** 
 836:..\..\..\..\..\simplelink\source/driver.c ****             case SL_OPCODE_NETAPP_IP_RELEASED:
 837:..\..\..\..\..\simplelink\source/driver.c **** 			{
 838:..\..\..\..\..\simplelink\source/driver.c ****              SlIpReleasedAsync_t *pIpV4 = (SlIpReleasedAsync_t *)_SL_RESP_ARGS_START(g_pCB->Functio
 3652              		.loc 1 838 0
 3653 04d2 B84B     		ldr	r3, .L237
 3654 04d4 1A68     		ldr	r2, [r3]
 3655 04d6 A823     		mov	r3, #168
 3656 04d8 D358     		ldr	r3, [r2, r3]
 3657 04da 0833     		add	r3, r3, #8
 3658 04dc A822     		mov	r2, #168
 3659 04de D219     		add	r2, r2, r7
 3660 04e0 1360     		str	r3, [r2]
 839:..\..\..\..\..\simplelink\source/driver.c **** 			 netAppEvent.Event = SL_NETAPP_IP_RELEASED;
 3661              		.loc 1 839 0
 3662 04e2 3B1C     		mov	r3, r7
 3663 04e4 0C33     		add	r3, r3, #12
 3664 04e6 0522     		mov	r2, #5
 3665 04e8 1A60     		str	r2, [r3]
 840:..\..\..\..\..\simplelink\source/driver.c ****              netAppEvent.EventData.ipReleased.ip_address = pIpV4->ip_address;
 3666              		.loc 1 840 0
 3667 04ea A821     		mov	r1, #168
 3668 04ec C919     		add	r1, r1, r7
 3669 04ee 0B68     		ldr	r3, [r1]
 3670 04f0 1A68     		ldr	r2, [r3]
 3671 04f2 3B1C     		mov	r3, r7
 3672 04f4 0C33     		add	r3, r3, #12
ARM GAS  C:\Users\X0217454\AppData\Local\Temp\cc7UAvFx.s 			page 81


 3673 04f6 5A60     		str	r2, [r3, #4]
 841:..\..\..\..\..\simplelink\source/driver.c ****              netAppEvent.EventData.ipReleased.reason = pIpV4->reason;
 3674              		.loc 1 841 0
 3675 04f8 A822     		mov	r2, #168
 3676 04fa D219     		add	r2, r2, r7
 3677 04fc 1368     		ldr	r3, [r2]
 3678 04fe 5A89     		ldrh	r2, [r3, #10]
 3679 0500 3B1C     		mov	r3, r7
 3680 0502 0C33     		add	r3, r3, #12
 3681 0504 DA81     		strh	r2, [r3, #14]
 842:..\..\..\..\..\simplelink\source/driver.c ****              memcpy(netAppEvent.EventData.ipReleased.mac, pIpV4->mac, 6);
 3682              		.loc 1 842 0
 3683 0506 3A1C     		mov	r2, r7
 3684 0508 0C32     		add	r2, r2, #12
 3685 050a A821     		mov	r1, #168
 3686 050c C919     		add	r1, r1, r7
 3687 050e 0B68     		ldr	r3, [r1]
 3688 0510 111C     		mov	r1, r2
 3689 0512 0831     		add	r1, r1, #8
 3690 0514 1A1D     		add	r2, r3, #4
 3691 0516 0623     		mov	r3, #6
 3692 0518 081C     		mov	r0, r1
 3693 051a 111C     		mov	r1, r2
 3694 051c 1A1C     		mov	r2, r3
 3695 051e FFF7FEFF 		bl	memcpy
 843:..\..\..\..\..\simplelink\source/driver.c **** 
 844:..\..\..\..\..\simplelink\source/driver.c ****              g_pCB->FunctionParams.AsyncExt.AsyncEvtHandler(&netAppEvent);
 3696              		.loc 1 844 0
 3697 0522 A44B     		ldr	r3, .L237
 3698 0524 1A68     		ldr	r2, [r3]
 3699 0526 B023     		mov	r3, #176
 3700 0528 D358     		ldr	r3, [r2, r3]
 3701 052a 3A1C     		mov	r2, r7
 3702 052c 0C32     		add	r2, r2, #12
 3703 052e 101C     		mov	r0, r2
 3704 0530 9847     		blx	r3
 3705              	.LBE64:
 845:..\..\..\..\..\simplelink\source/driver.c ****             }
 846:..\..\..\..\..\simplelink\source/driver.c ****             break;
 3706              		.loc 1 846 0
 3707 0532 54E1     		b	.L213
 3708              	.L225:
 3709              	.LBB65:
 847:..\..\..\..\..\simplelink\source/driver.c **** 
 848:..\..\..\..\..\simplelink\source/driver.c ****          case SL_OPCODE_SOCKET_TXFAILEDASYNCRESPONSE:
 849:..\..\..\..\..\simplelink\source/driver.c **** 			{
 850:..\..\..\..\..\simplelink\source/driver.c **** 				SlSockEventData_t *txfailparams = (SlSockEventData_t*)_SL_RESP_ARGS_START(g_pCB->FunctionParams
 3710              		.loc 1 850 0
 3711 0534 9F4B     		ldr	r3, .L237
 3712 0536 1A68     		ldr	r2, [r3]
 3713 0538 A823     		mov	r3, #168
 3714 053a D358     		ldr	r3, [r2, r3]
 3715 053c 0833     		add	r3, r3, #8
 3716 053e A422     		mov	r2, #164
 3717 0540 D219     		add	r2, r2, r7
 3718 0542 1360     		str	r3, [r2]
 851:..\..\..\..\..\simplelink\source/driver.c **** 				sockAppEvent.Event =  SL_NETAPP_SOCKET_TX_FAILED;
ARM GAS  C:\Users\X0217454\AppData\Local\Temp\cc7UAvFx.s 			page 82


 3719              		.loc 1 851 0
 3720 0544 3B1D     		add	r3, r7, #4
 3721 0546 0322     		mov	r2, #3
 3722 0548 1A60     		str	r2, [r3]
 852:..\..\..\..\..\simplelink\source/driver.c **** 				memcpy((void *)&sockAppEvent.EventData,(void *)txfailparams,sizeof(SlSockEventData_t)); 
 3723              		.loc 1 852 0
 3724 054a 3B1D     		add	r3, r7, #4
 3725 054c 1A1D     		add	r2, r3, #4
 3726 054e A421     		mov	r1, #164
 3727 0550 C919     		add	r1, r1, r7
 3728 0552 0B68     		ldr	r3, [r1]
 3729 0554 101C     		mov	r0, r2
 3730 0556 191C     		mov	r1, r3
 3731 0558 0422     		mov	r2, #4
 3732 055a FFF7FEFF 		bl	memcpy
 853:..\..\..\..\..\simplelink\source/driver.c ****             	g_pCB->FunctionParams.AsyncExt.AsyncEvtHandler(&sockAppEvent);
 3733              		.loc 1 853 0
 3734 055e 954B     		ldr	r3, .L237
 3735 0560 1A68     		ldr	r2, [r3]
 3736 0562 B023     		mov	r3, #176
 3737 0564 D358     		ldr	r3, [r2, r3]
 3738 0566 3A1D     		add	r2, r7, #4
 3739 0568 101C     		mov	r0, r2
 3740 056a 9847     		blx	r3
 3741              	.LBE65:
 854:..\..\..\..\..\simplelink\source/driver.c **** 			}
 855:..\..\..\..\..\simplelink\source/driver.c ****             break; 
 3742              		.loc 1 855 0
 3743 056c 37E1     		b	.L213
 3744              	.L223:
 3745              	.LBB66:
 856:..\..\..\..\..\simplelink\source/driver.c **** 
 857:..\..\..\..\..\simplelink\source/driver.c ****           case SL_OPCODE_WLAN_SMART_CONFIG_START_ASYNC_RESPONSE:
 858:..\..\..\..\..\simplelink\source/driver.c ****           {
 859:..\..\..\..\..\simplelink\source/driver.c ****                 slSmartConfigStartAsyncResponse_t *pResp = (slSmartConfigStartAsyncResponse_t*)_SL_
 3746              		.loc 1 859 0
 3747 056e 914B     		ldr	r3, .L237
 3748 0570 1A68     		ldr	r2, [r3]
 3749 0572 A823     		mov	r3, #168
 3750 0574 D358     		ldr	r3, [r2, r3]
 3751 0576 0833     		add	r3, r3, #8
 3752 0578 A022     		mov	r2, #160
 3753 057a D219     		add	r2, r2, r7
 3754 057c 1360     		str	r3, [r2]
 860:..\..\..\..\..\simplelink\source/driver.c **** 
 861:..\..\..\..\..\simplelink\source/driver.c ****                 wlanEvent.Event = SL_WLAN_SMART_CONFIG_START_EVENT;
 3755              		.loc 1 861 0
 3756 057e 3B1C     		mov	r3, r7
 3757 0580 4433     		add	r3, r3, #68
 3758 0582 0322     		mov	r2, #3
 3759 0584 1A60     		str	r2, [r3]
 862:..\..\..\..\..\simplelink\source/driver.c ****                 wlanEvent.EventData.smartConfigStartResponse.status = pResp->status;
 3760              		.loc 1 862 0
 3761 0586 A021     		mov	r1, #160
 3762 0588 C919     		add	r1, r1, r7
 3763 058a 0B68     		ldr	r3, [r1]
 3764 058c 1A68     		ldr	r2, [r3]
ARM GAS  C:\Users\X0217454\AppData\Local\Temp\cc7UAvFx.s 			page 83


 3765 058e 3B1C     		mov	r3, r7
 3766 0590 4433     		add	r3, r3, #68
 3767 0592 5A60     		str	r2, [r3, #4]
 863:..\..\..\..\..\simplelink\source/driver.c ****                 wlanEvent.EventData.smartConfigStartResponse.ssid_len = pResp->ssid_len;
 3768              		.loc 1 863 0
 3769 0594 A022     		mov	r2, #160
 3770 0596 D219     		add	r2, r2, r7
 3771 0598 1368     		ldr	r3, [r2]
 3772 059a 5A68     		ldr	r2, [r3, #4]
 3773 059c 3B1C     		mov	r3, r7
 3774 059e 4433     		add	r3, r3, #68
 3775 05a0 9A60     		str	r2, [r3, #8]
 864:..\..\..\..\..\simplelink\source/driver.c ****                 wlanEvent.EventData.smartConfigStartResponse.private_token_len = pResp->private_tok
 3776              		.loc 1 864 0
 3777 05a2 A021     		mov	r1, #160
 3778 05a4 C919     		add	r1, r1, r7
 3779 05a6 0B68     		ldr	r3, [r1]
 3780 05a8 9A6A     		ldr	r2, [r3, #40]
 3781 05aa 3B1C     		mov	r3, r7
 3782 05ac 4433     		add	r3, r3, #68
 3783 05ae DA62     		str	r2, [r3, #44]
 865:..\..\..\..\..\simplelink\source/driver.c **** 
 866:..\..\..\..\..\simplelink\source/driver.c ****                 memset(wlanEvent.EventData.smartConfigStartResponse.ssid, 0x00, sizeof(wlanEvent.Ev
 3784              		.loc 1 866 0
 3785 05b0 3B1C     		mov	r3, r7
 3786 05b2 4433     		add	r3, r3, #68
 3787 05b4 0C33     		add	r3, r3, #12
 3788 05b6 181C     		mov	r0, r3
 3789 05b8 0021     		mov	r1, #0
 3790 05ba 2022     		mov	r2, #32
 3791 05bc FFF7FEFF 		bl	memset
 867:..\..\..\..\..\simplelink\source/driver.c ****                 memcpy(wlanEvent.EventData.smartConfigStartResponse.ssid, pResp->ssid, pResp->ssid_
 3792              		.loc 1 867 0
 3793 05c0 A022     		mov	r2, #160
 3794 05c2 D219     		add	r2, r2, r7
 3795 05c4 1368     		ldr	r3, [r2]
 3796 05c6 1A1C     		mov	r2, r3
 3797 05c8 0832     		add	r2, r2, #8
 3798 05ca A021     		mov	r1, #160
 3799 05cc C919     		add	r1, r1, r7
 3800 05ce 0B68     		ldr	r3, [r1]
 3801 05d0 5B68     		ldr	r3, [r3, #4]
 3802 05d2 391C     		mov	r1, r7
 3803 05d4 4431     		add	r1, r1, #68
 3804 05d6 0C31     		add	r1, r1, #12
 3805 05d8 081C     		mov	r0, r1
 3806 05da 111C     		mov	r1, r2
 3807 05dc 1A1C     		mov	r2, r3
 3808 05de FFF7FEFF 		bl	memcpy
 868:..\..\..\..\..\simplelink\source/driver.c ****                 /* if private data exist */
 869:..\..\..\..\..\simplelink\source/driver.c ****                 if (pResp->private_token_len)
 3809              		.loc 1 869 0
 3810 05e2 A022     		mov	r2, #160
 3811 05e4 D219     		add	r2, r2, r7
 3812 05e6 1368     		ldr	r3, [r2]
 3813 05e8 9B6A     		ldr	r3, [r3, #40]
 3814 05ea 002B     		cmp	r3, #0
ARM GAS  C:\Users\X0217454\AppData\Local\Temp\cc7UAvFx.s 			page 84


 3815 05ec 18D0     		beq	.L234
 870:..\..\..\..\..\simplelink\source/driver.c ****                 {
 871:..\..\..\..\..\simplelink\source/driver.c ****                     memset(wlanEvent.EventData.smartConfigStartResponse.private_token, 0x00, sizeof
 3816              		.loc 1 871 0
 3817 05ee 3B1C     		mov	r3, r7
 3818 05f0 4433     		add	r3, r3, #68
 3819 05f2 3033     		add	r3, r3, #48
 3820 05f4 181C     		mov	r0, r3
 3821 05f6 0021     		mov	r1, #0
 3822 05f8 2022     		mov	r2, #32
 3823 05fa FFF7FEFF 		bl	memset
 872:..\..\..\..\..\simplelink\source/driver.c ****                     memcpy(wlanEvent.EventData.smartConfigStartResponse.private_token, pResp->priva
 3824              		.loc 1 872 0
 3825 05fe A021     		mov	r1, #160
 3826 0600 C919     		add	r1, r1, r7
 3827 0602 0B68     		ldr	r3, [r1]
 3828 0604 1A1C     		mov	r2, r3
 3829 0606 2C32     		add	r2, r2, #44
 3830 0608 A021     		mov	r1, #160
 3831 060a C919     		add	r1, r1, r7
 3832 060c 0B68     		ldr	r3, [r1]
 3833 060e 9B6A     		ldr	r3, [r3, #40]
 3834 0610 391C     		mov	r1, r7
 3835 0612 4431     		add	r1, r1, #68
 3836 0614 3031     		add	r1, r1, #48
 3837 0616 081C     		mov	r0, r1
 3838 0618 111C     		mov	r1, r2
 3839 061a 1A1C     		mov	r2, r3
 3840 061c FFF7FEFF 		bl	memcpy
 3841              	.L234:
 873:..\..\..\..\..\simplelink\source/driver.c ****                 }
 874:..\..\..\..\..\simplelink\source/driver.c **** 
 875:..\..\..\..\..\simplelink\source/driver.c ****                 g_pCB->FunctionParams.AsyncExt.AsyncEvtHandler(&wlanEvent);
 3842              		.loc 1 875 0
 3843 0620 644B     		ldr	r3, .L237
 3844 0622 1A68     		ldr	r2, [r3]
 3845 0624 B023     		mov	r3, #176
 3846 0626 D358     		ldr	r3, [r2, r3]
 3847 0628 3A1C     		mov	r2, r7
 3848 062a 4432     		add	r2, r2, #68
 3849 062c 101C     		mov	r0, r2
 3850 062e 9847     		blx	r3
 3851              	.LBE66:
 876:..\..\..\..\..\simplelink\source/driver.c ****           }
 877:..\..\..\..\..\simplelink\source/driver.c ****           break;
 3852              		.loc 1 877 0
 3853 0630 D5E0     		b	.L213
 3854              	.L224:
 3855              	.LBB67:
 878:..\..\..\..\..\simplelink\source/driver.c **** 
 879:..\..\..\..\..\simplelink\source/driver.c ****           case SL_OPCODE_WLAN_SMART_CONFIG_STOP_ASYNC_RESPONSE:
 880:..\..\..\..\..\simplelink\source/driver.c ****           {
 881:..\..\..\..\..\simplelink\source/driver.c ****                 slSmartConfigStopAsyncResponse_t *pResp = (slSmartConfigStopAsyncResponse_t*)_SL_RE
 3856              		.loc 1 881 0
 3857 0632 604B     		ldr	r3, .L237
 3858 0634 1A68     		ldr	r2, [r3]
 3859 0636 A823     		mov	r3, #168
ARM GAS  C:\Users\X0217454\AppData\Local\Temp\cc7UAvFx.s 			page 85


 3860 0638 D358     		ldr	r3, [r2, r3]
 3861 063a 0833     		add	r3, r3, #8
 3862 063c 9C22     		mov	r2, #156
 3863 063e D219     		add	r2, r2, r7
 3864 0640 1360     		str	r3, [r2]
 882:..\..\..\..\..\simplelink\source/driver.c **** 
 883:..\..\..\..\..\simplelink\source/driver.c ****                 wlanEvent.Event = SL_WLAN_SMART_CONFIG_STOP_EVENT;
 3865              		.loc 1 883 0
 3866 0642 3B1C     		mov	r3, r7
 3867 0644 4433     		add	r3, r3, #68
 3868 0646 0422     		mov	r2, #4
 3869 0648 1A60     		str	r2, [r3]
 884:..\..\..\..\..\simplelink\source/driver.c ****                 wlanEvent.EventData.smartConfigStopResponse.status = pResp->status;
 3870              		.loc 1 884 0
 3871 064a 9C21     		mov	r1, #156
 3872 064c C919     		add	r1, r1, r7
 3873 064e 0B68     		ldr	r3, [r1]
 3874 0650 1A88     		ldrh	r2, [r3]
 3875 0652 3B1C     		mov	r3, r7
 3876 0654 4433     		add	r3, r3, #68
 3877 0656 9A80     		strh	r2, [r3, #4]
 885:..\..\..\..\..\simplelink\source/driver.c **** 
 886:..\..\..\..\..\simplelink\source/driver.c ****                 g_pCB->FunctionParams.AsyncExt.AsyncEvtHandler(&wlanEvent);
 3878              		.loc 1 886 0
 3879 0658 564B     		ldr	r3, .L237
 3880 065a 1A68     		ldr	r2, [r3]
 3881 065c B023     		mov	r3, #176
 3882 065e D358     		ldr	r3, [r2, r3]
 3883 0660 3A1C     		mov	r2, r7
 3884 0662 4432     		add	r2, r2, #68
 3885 0664 101C     		mov	r0, r2
 3886 0666 9847     		blx	r3
 3887              	.LBE67:
 887:..\..\..\..\..\simplelink\source/driver.c ****           }
 888:..\..\..\..\..\simplelink\source/driver.c ****           break;
 3888              		.loc 1 888 0
 3889 0668 B9E0     		b	.L213
 3890              	.L216:
 3891              	.LBB68:
 889:..\..\..\..\..\simplelink\source/driver.c **** 
 890:..\..\..\..\..\simplelink\source/driver.c ****           case SL_OPCODE_WLAN_STA_CONNECTED:
 891:..\..\..\..\..\simplelink\source/driver.c ****           {
 892:..\..\..\..\..\simplelink\source/driver.c ****                 slPeerInfoAsyncResponse_t* pResp = (slPeerInfoAsyncResponse_t*)_SL_RESP_ARGS_START(
 3892              		.loc 1 892 0
 3893 066a 524B     		ldr	r3, .L237
 3894 066c 1A68     		ldr	r2, [r3]
 3895 066e A823     		mov	r3, #168
 3896 0670 D358     		ldr	r3, [r2, r3]
 3897 0672 0833     		add	r3, r3, #8
 3898 0674 9822     		mov	r2, #152
 3899 0676 D219     		add	r2, r2, r7
 3900 0678 1360     		str	r3, [r2]
 893:..\..\..\..\..\simplelink\source/driver.c **** 				memset(&wlanEvent.EventData.APModeStaConnected,0,sizeof(slPeerInfoAsyncResponse_t));
 3901              		.loc 1 893 0
 3902 067a 3B1C     		mov	r3, r7
 3903 067c 4433     		add	r3, r3, #68
 3904 067e 0433     		add	r3, r3, #4
ARM GAS  C:\Users\X0217454\AppData\Local\Temp\cc7UAvFx.s 			page 86


 3905 0680 181C     		mov	r0, r3
 3906 0682 0021     		mov	r1, #0
 3907 0684 4C22     		mov	r2, #76
 3908 0686 FFF7FEFF 		bl	memset
 894:..\..\..\..\..\simplelink\source/driver.c ****                 wlanEvent.Event = SL_WLAN_STA_CONNECTED_EVENT;
 3909              		.loc 1 894 0
 3910 068a 3B1C     		mov	r3, r7
 3911 068c 4433     		add	r3, r3, #68
 3912 068e 0522     		mov	r2, #5
 3913 0690 1A60     		str	r2, [r3]
 895:..\..\..\..\..\simplelink\source/driver.c ****                 memcpy(wlanEvent.EventData.APModeStaConnected.mac,pResp->mac, 6);
 3914              		.loc 1 895 0
 3915 0692 3A1C     		mov	r2, r7
 3916 0694 4432     		add	r2, r2, #68
 3917 0696 9821     		mov	r1, #152
 3918 0698 C919     		add	r1, r1, r7
 3919 069a 0B68     		ldr	r3, [r1]
 3920 069c 111C     		mov	r1, r2
 3921 069e 2431     		add	r1, r1, #36
 3922 06a0 1A1C     		mov	r2, r3
 3923 06a2 2032     		add	r2, r2, #32
 3924 06a4 0623     		mov	r3, #6
 3925 06a6 081C     		mov	r0, r1
 3926 06a8 111C     		mov	r1, r2
 3927 06aa 1A1C     		mov	r2, r3
 3928 06ac FFF7FEFF 		bl	memcpy
 896:..\..\..\..\..\simplelink\source/driver.c **** 				memcpy(wlanEvent.EventData.APModeStaConnected.go_peer_device_name,pResp->go_peer_device_name,pR
 3929              		.loc 1 896 0
 3930 06b0 9823     		mov	r3, #152
 3931 06b2 DB19     		add	r3, r3, r7
 3932 06b4 1A68     		ldr	r2, [r3]
 3933 06b6 9823     		mov	r3, #152
 3934 06b8 DB19     		add	r3, r3, r7
 3935 06ba 1968     		ldr	r1, [r3]
 3936 06bc 2623     		mov	r3, #38
 3937 06be CB5C     		ldrb	r3, [r1, r3]
 3938 06c0 391C     		mov	r1, r7
 3939 06c2 4431     		add	r1, r1, #68
 3940 06c4 0431     		add	r1, r1, #4
 3941 06c6 081C     		mov	r0, r1
 3942 06c8 111C     		mov	r1, r2
 3943 06ca 1A1C     		mov	r2, r3
 3944 06cc FFF7FEFF 		bl	memcpy
 897:..\..\..\..\..\simplelink\source/driver.c **** 				wlanEvent.EventData.APModeStaConnected.go_peer_device_name_len = pResp->go_peer_device_name_len
 3945              		.loc 1 897 0
 3946 06d0 9821     		mov	r1, #152
 3947 06d2 C919     		add	r1, r1, r7
 3948 06d4 0A68     		ldr	r2, [r1]
 3949 06d6 2623     		mov	r3, #38
 3950 06d8 D15C     		ldrb	r1, [r2, r3]
 3951 06da 3A1C     		mov	r2, r7
 3952 06dc 4432     		add	r2, r2, #68
 3953 06de 2A23     		mov	r3, #42
 3954 06e0 D154     		strb	r1, [r2, r3]
 898:..\..\..\..\..\simplelink\source/driver.c **** 
 899:..\..\..\..\..\simplelink\source/driver.c **** 				memcpy(wlanEvent.EventData.APModeStaConnected.own_ssid,pResp->own_ssid,pResp->own_ssid_len);
 3955              		.loc 1 899 0
ARM GAS  C:\Users\X0217454\AppData\Local\Temp\cc7UAvFx.s 			page 87


 3956 06e2 9822     		mov	r2, #152
 3957 06e4 D219     		add	r2, r2, r7
 3958 06e6 1368     		ldr	r3, [r2]
 3959 06e8 1A1C     		mov	r2, r3
 3960 06ea 2832     		add	r2, r2, #40
 3961 06ec 9823     		mov	r3, #152
 3962 06ee DB19     		add	r3, r3, r7
 3963 06f0 1968     		ldr	r1, [r3]
 3964 06f2 4823     		mov	r3, #72
 3965 06f4 CB5C     		ldrb	r3, [r1, r3]
 3966 06f6 391C     		mov	r1, r7
 3967 06f8 4431     		add	r1, r1, #68
 3968 06fa 2C31     		add	r1, r1, #44
 3969 06fc 081C     		mov	r0, r1
 3970 06fe 111C     		mov	r1, r2
 3971 0700 1A1C     		mov	r2, r3
 3972 0702 FFF7FEFF 		bl	memcpy
 900:..\..\..\..\..\simplelink\source/driver.c **** 				wlanEvent.EventData.APModeStaConnected.own_ssid_len = pResp->own_ssid_len;
 3973              		.loc 1 900 0
 3974 0706 9821     		mov	r1, #152
 3975 0708 C919     		add	r1, r1, r7
 3976 070a 0A68     		ldr	r2, [r1]
 3977 070c 4823     		mov	r3, #72
 3978 070e D15C     		ldrb	r1, [r2, r3]
 3979 0710 3A1C     		mov	r2, r7
 3980 0712 4432     		add	r2, r2, #68
 3981 0714 4C23     		mov	r3, #76
 3982 0716 D154     		strb	r1, [r2, r3]
 901:..\..\..\..\..\simplelink\source/driver.c ****                 g_pCB->FunctionParams.AsyncExt.AsyncEvtHandler(&wlanEvent);
 3983              		.loc 1 901 0
 3984 0718 264B     		ldr	r3, .L237
 3985 071a 1A68     		ldr	r2, [r3]
 3986 071c B023     		mov	r3, #176
 3987 071e D358     		ldr	r3, [r2, r3]
 3988 0720 3A1C     		mov	r2, r7
 3989 0722 4432     		add	r2, r2, #68
 3990 0724 101C     		mov	r0, r2
 3991 0726 9847     		blx	r3
 3992              	.LBE68:
 902:..\..\..\..\..\simplelink\source/driver.c ****           }
 903:..\..\..\..\..\simplelink\source/driver.c ****           break;
 3993              		.loc 1 903 0
 3994 0728 59E0     		b	.L213
 3995              	.L217:
 3996              	.LBB69:
 904:..\..\..\..\..\simplelink\source/driver.c **** 
 905:..\..\..\..\..\simplelink\source/driver.c ****           case SL_OPCODE_WLAN_STA_DISCONNECTED:
 906:..\..\..\..\..\simplelink\source/driver.c ****           {
 907:..\..\..\..\..\simplelink\source/driver.c ****                 slPeerInfoAsyncResponse_t* pResp = (slPeerInfoAsyncResponse_t*)_SL_RESP_ARGS_START(
 3997              		.loc 1 907 0
 3998 072a 224B     		ldr	r3, .L237
 3999 072c 1A68     		ldr	r2, [r3]
 4000 072e A823     		mov	r3, #168
 4001 0730 D358     		ldr	r3, [r2, r3]
 4002 0732 0833     		add	r3, r3, #8
 4003 0734 9422     		mov	r2, #148
 4004 0736 D219     		add	r2, r2, r7
ARM GAS  C:\Users\X0217454\AppData\Local\Temp\cc7UAvFx.s 			page 88


 4005 0738 1360     		str	r3, [r2]
 908:..\..\..\..\..\simplelink\source/driver.c **** 				memset(&wlanEvent.EventData.APModestaDisconnected,0,sizeof(slPeerInfoAsyncResponse_t));
 4006              		.loc 1 908 0
 4007 073a 3B1C     		mov	r3, r7
 4008 073c 4433     		add	r3, r3, #68
 4009 073e 0433     		add	r3, r3, #4
 4010 0740 181C     		mov	r0, r3
 4011 0742 0021     		mov	r1, #0
 4012 0744 4C22     		mov	r2, #76
 4013 0746 FFF7FEFF 		bl	memset
 909:..\..\..\..\..\simplelink\source/driver.c ****                 wlanEvent.Event = SL_WLAN_STA_DISCONNECTED_EVENT;
 4014              		.loc 1 909 0
 4015 074a 3B1C     		mov	r3, r7
 4016 074c 4433     		add	r3, r3, #68
 4017 074e 0622     		mov	r2, #6
 4018 0750 1A60     		str	r2, [r3]
 910:..\..\..\..\..\simplelink\source/driver.c ****                 memcpy(wlanEvent.EventData.APModestaDisconnected.mac,pResp->mac, 6);
 4019              		.loc 1 910 0
 4020 0752 3A1C     		mov	r2, r7
 4021 0754 4432     		add	r2, r2, #68
 4022 0756 9421     		mov	r1, #148
 4023 0758 C919     		add	r1, r1, r7
 4024 075a 0B68     		ldr	r3, [r1]
 4025 075c 111C     		mov	r1, r2
 4026 075e 2431     		add	r1, r1, #36
 4027 0760 1A1C     		mov	r2, r3
 4028 0762 2032     		add	r2, r2, #32
 4029 0764 0623     		mov	r3, #6
 4030 0766 081C     		mov	r0, r1
 4031 0768 111C     		mov	r1, r2
 4032 076a 1A1C     		mov	r2, r3
 4033 076c FFF7FEFF 		bl	memcpy
 911:..\..\..\..\..\simplelink\source/driver.c **** 				memcpy(wlanEvent.EventData.APModestaDisconnected.go_peer_device_name,pResp->go_peer_device_name
 4034              		.loc 1 911 0
 4035 0770 9423     		mov	r3, #148
 4036 0772 DB19     		add	r3, r3, r7
 4037 0774 1A68     		ldr	r2, [r3]
 4038 0776 9423     		mov	r3, #148
 4039 0778 DB19     		add	r3, r3, r7
 4040 077a 1968     		ldr	r1, [r3]
 4041 077c 2623     		mov	r3, #38
 4042 077e CB5C     		ldrb	r3, [r1, r3]
 4043 0780 391C     		mov	r1, r7
 4044 0782 4431     		add	r1, r1, #68
 4045 0784 0431     		add	r1, r1, #4
 4046 0786 081C     		mov	r0, r1
 4047 0788 111C     		mov	r1, r2
 4048 078a 1A1C     		mov	r2, r3
 4049 078c FFF7FEFF 		bl	memcpy
 912:..\..\..\..\..\simplelink\source/driver.c **** 				wlanEvent.EventData.APModestaDisconnected.go_peer_device_name_len = pResp->go_peer_device_name_
 4050              		.loc 1 912 0
 4051 0790 9421     		mov	r1, #148
 4052 0792 C919     		add	r1, r1, r7
 4053 0794 0A68     		ldr	r2, [r1]
 4054 0796 2623     		mov	r3, #38
 4055 0798 D15C     		ldrb	r1, [r2, r3]
 4056 079a 3A1C     		mov	r2, r7
ARM GAS  C:\Users\X0217454\AppData\Local\Temp\cc7UAvFx.s 			page 89


 4057 079c 4432     		add	r2, r2, #68
 4058 079e 2A23     		mov	r3, #42
 4059 07a0 D154     		strb	r1, [r2, r3]
 913:..\..\..\..\..\simplelink\source/driver.c ****                 g_pCB->FunctionParams.AsyncExt.AsyncEvtHandler(&wlanEvent);
 4060              		.loc 1 913 0
 4061 07a2 044B     		ldr	r3, .L237
 4062 07a4 1A68     		ldr	r2, [r3]
 4063 07a6 B023     		mov	r3, #176
 4064 07a8 D358     		ldr	r3, [r2, r3]
 4065 07aa 3A1C     		mov	r2, r7
 4066 07ac 4432     		add	r2, r2, #68
 4067 07ae 101C     		mov	r0, r2
 4068 07b0 9847     		blx	r3
 4069              	.LBE69:
 914:..\..\..\..\..\simplelink\source/driver.c ****           }
 915:..\..\..\..\..\simplelink\source/driver.c ****               break;
 4070              		.loc 1 915 0
 4071 07b2 14E0     		b	.L213
 4072              	.L238:
 4073              		.align	2
 4074              	.L237:
 4075 07b4 00000000 		.word	g_pCB
 4076              	.L226:
 916:..\..\..\..\..\simplelink\source/driver.c **** 
 917:..\..\..\..\..\simplelink\source/driver.c ****           case SL_OPCODE_NETAPP_PINGREPORTREQUESTRESPONSE:
 918:..\..\..\..\..\simplelink\source/driver.c ****           {
 919:..\..\..\..\..\simplelink\source/driver.c ****                 _sl_HandleAsync_PingResponse((void *)g_pCB->FunctionParams.AsyncExt.pAsyncBuf);
 4077              		.loc 1 919 0
 4078 07b8 0A4B     		ldr	r3, .L239
 4079 07ba 1A68     		ldr	r2, [r3]
 4080 07bc A823     		mov	r3, #168
 4081 07be D358     		ldr	r3, [r2, r3]
 4082 07c0 181C     		mov	r0, r3
 4083 07c2 FFF7FEFF 		bl	_sl_HandleAsync_PingResponse
 920:..\..\..\..\..\simplelink\source/driver.c ****           }
 921:..\..\..\..\..\simplelink\source/driver.c ****               break;     
 4084              		.loc 1 921 0
 4085 07c6 0AE0     		b	.L213
 4086              	.L215:
 922:..\..\..\..\..\simplelink\source/driver.c ****               
 923:..\..\..\..\..\simplelink\source/driver.c ****               
 924:..\..\..\..\..\simplelink\source/driver.c ****          default:
 925:..\..\..\..\..\simplelink\source/driver.c ****            g_pCB->FunctionParams.AsyncExt.AsyncEvtHandler(g_pCB->FunctionParams.AsyncExt.pAsyncBuf)
 4087              		.loc 1 925 0
 4088 07c8 064B     		ldr	r3, .L239
 4089 07ca 1A68     		ldr	r2, [r3]
 4090 07cc B023     		mov	r3, #176
 4091 07ce D258     		ldr	r2, [r2, r3]
 4092 07d0 044B     		ldr	r3, .L239
 4093 07d2 1968     		ldr	r1, [r3]
 4094 07d4 A823     		mov	r3, #168
 4095 07d6 CB58     		ldr	r3, [r1, r3]
 4096 07d8 181C     		mov	r0, r3
 4097 07da 9047     		blx	r2
 926:..\..\..\..\..\simplelink\source/driver.c ****            break;
 4098              		.loc 1 926 0
 4099 07dc C046     		mov	r8, r8
ARM GAS  C:\Users\X0217454\AppData\Local\Temp\cc7UAvFx.s 			page 90


 4100              	.L213:
 927:..\..\..\..\..\simplelink\source/driver.c ****       } 
 928:..\..\..\..\..\simplelink\source/driver.c ****    } 
 929:..\..\..\..\..\simplelink\source/driver.c **** }
 4101              		.loc 1 929 0
 4102 07de BD46     		mov	sp, r7
 4103 07e0 34B0     		add	sp, sp, #208
 4104              		@ sp needed for prologue
 4105 07e2 80BD     		pop	{r7, pc}
 4106              	.L240:
 4107              		.align	2
 4108              	.L239:
 4109 07e4 00000000 		.word	g_pCB
 4110              		.cfi_endproc
 4111              	.LFE9:
 4112              		.size	_SlAsyncEventGenericHandler, .-_SlAsyncEventGenericHandler
 4113              		.section	.text._SlDrvMsgReadCmdCtx,"ax",%progbits
 4114              		.align	2
 4115              		.global	_SlDrvMsgReadCmdCtx
 4116              		.code	16
 4117              		.thumb_func
 4118              		.type	_SlDrvMsgReadCmdCtx, %function
 4119              	_SlDrvMsgReadCmdCtx:
 4120              	.LFB10:
 930:..\..\..\..\..\simplelink\source/driver.c **** 
 931:..\..\..\..\..\simplelink\source/driver.c **** 
 932:..\..\..\..\..\simplelink\source/driver.c **** /* ******************************************************************************/
 933:..\..\..\..\..\simplelink\source/driver.c **** /*  _SlDrvMsgReadCmdCtx  */
 934:..\..\..\..\..\simplelink\source/driver.c **** /* ******************************************************************************/
 935:..\..\..\..\..\simplelink\source/driver.c **** _SlReturnVal_t _SlDrvMsgReadCmdCtx(void)
 936:..\..\..\..\..\simplelink\source/driver.c **** {
 4121              		.loc 1 936 0
 4122              		.cfi_startproc
 4123 0000 80B5     		push	{r7, lr}
 4124              	.LCFI30:
 4125              		.cfi_def_cfa_offset 8
 4126              		.cfi_offset 7, -8
 4127              		.cfi_offset 14, -4
 4128 0002 84B0     		sub	sp, sp, #16
 4129              	.LCFI31:
 4130              		.cfi_def_cfa_offset 24
 4131 0004 00AF     		add	r7, sp, #0
 4132              	.LCFI32:
 4133              		.cfi_def_cfa_register 7
 937:..\..\..\..\..\simplelink\source/driver.c **** 
 938:..\..\..\..\..\simplelink\source/driver.c ****     /*  after command response is received and isCmdRespWaited */
 939:..\..\..\..\..\simplelink\source/driver.c ****     /*  flag is set FALSE, it is necessary to read out all */
 940:..\..\..\..\..\simplelink\source/driver.c ****     /*  Async messages in Commands contex, because ssiDma_IsrHandleSignalFromSlave */
 941:..\..\..\..\..\simplelink\source/driver.c ****     /*  could have dispatched some Async messages to g_NwpIf.CmdSyncObj */
 942:..\..\..\..\..\simplelink\source/driver.c ****     /*  after command response but before this response has been processed */
 943:..\..\..\..\..\simplelink\source/driver.c ****     /*  by spi_singleRead and isCmdRespWaited was set FALSE. */
 944:..\..\..\..\..\simplelink\source/driver.c ****     while (TRUE == g_pCB->IsCmdRespWaited)
 4134              		.loc 1 944 0
 4135 0006 5AE0     		b	.L242
 4136              	.L248:
 945:..\..\..\..\..\simplelink\source/driver.c ****     {
 946:..\..\..\..\..\simplelink\source/driver.c ****         if(_SL_PENDING_RX_MSG(g_pCB))
ARM GAS  C:\Users\X0217454\AppData\Local\Temp\cc7UAvFx.s 			page 91


 4137              		.loc 1 946 0
 4138 0008 414B     		ldr	r3, .L253
 4139 000a 1A68     		ldr	r2, [r3]
 4140 000c 9723     		mov	r3, #151
 4141 000e D25C     		ldrb	r2, [r2, r3]
 4142 0010 3F4B     		ldr	r3, .L253
 4143 0012 1968     		ldr	r1, [r3]
 4144 0014 9823     		mov	r3, #152
 4145 0016 CB5C     		ldrb	r3, [r1, r3]
 4146 0018 9A42     		cmp	r2, r3
 4147 001a 41D0     		beq	.L243
 947:..\..\..\..\..\simplelink\source/driver.c ****         {
 948:..\..\..\..\..\simplelink\source/driver.c ****             g_pCB->FunctionParams.AsyncExt.pAsyncBuf      = NULL;/*  buffer must be allocated by _S
 4148              		.loc 1 948 0
 4149 001c 3C4B     		ldr	r3, .L253
 4150 001e 1A68     		ldr	r2, [r3]
 4151 0020 A823     		mov	r3, #168
 4152 0022 0021     		mov	r1, #0
 4153 0024 D150     		str	r1, [r2, r3]
 949:..\..\..\..\..\simplelink\source/driver.c ****             g_pCB->FunctionParams.AsyncExt.AsyncEvtHandler= NULL;
 4154              		.loc 1 949 0
 4155 0026 3A4B     		ldr	r3, .L253
 4156 0028 1A68     		ldr	r2, [r3]
 4157 002a B023     		mov	r3, #176
 4158 002c 0021     		mov	r1, #0
 4159 002e D150     		str	r1, [r2, r3]
 950:..\..\..\..\..\simplelink\source/driver.c ****             g_pCB->FunctionParams.AsyncExt.RxMsgClass     = (_SlRxMsgClass_e)(-1);/* init to illega
 4160              		.loc 1 950 0
 4161 0030 374B     		ldr	r3, .L253
 4162 0032 1A68     		ldr	r2, [r3]
 4163 0034 B423     		mov	r3, #180
 4164 0036 FF21     		mov	r1, #255
 4165 0038 D154     		strb	r1, [r2, r3]
 4166              	.LBB70:
 951:..\..\..\..\..\simplelink\source/driver.c **** 
 952:..\..\..\..\..\simplelink\source/driver.c ****             VERIFY_RET_OK(_SlDrvMsgRead());
 4167              		.loc 1 952 0
 4168 003a FFF7FEFF 		bl	_SlDrvMsgRead
 4169 003e 031C     		mov	r3, r0
 4170 0040 FB60     		str	r3, [r7, #12]
 4171 0042 FB68     		ldr	r3, [r7, #12]
 4172 0044 002B     		cmp	r3, #0
 4173 0046 00D0     		beq	.L244
 4174              	.L245:
 4175              		.loc 1 952 0 is_stmt 0 discriminator 1
 4176 0048 FEE7     		b	.L245
 4177              	.L244:
 4178              	.LBE70:
 953:..\..\..\..\..\simplelink\source/driver.c ****             g_pCB->RxDoneCnt++;
 4179              		.loc 1 953 0 is_stmt 1
 4180 004a 314B     		ldr	r3, .L253
 4181 004c 1B68     		ldr	r3, [r3]
 4182 004e 9822     		mov	r2, #152
 4183 0050 9A5C     		ldrb	r2, [r3, r2]
 4184 0052 0132     		add	r2, r2, #1
 4185 0054 D1B2     		uxtb	r1, r2
 4186 0056 9822     		mov	r2, #152
ARM GAS  C:\Users\X0217454\AppData\Local\Temp\cc7UAvFx.s 			page 92


 4187 0058 9954     		strb	r1, [r3, r2]
 954:..\..\..\..\..\simplelink\source/driver.c **** 
 955:..\..\..\..\..\simplelink\source/driver.c ****             if (CMD_RESP_CLASS == g_pCB->FunctionParams.AsyncExt.RxMsgClass)
 4188              		.loc 1 955 0
 4189 005a 2D4B     		ldr	r3, .L253
 4190 005c 1A68     		ldr	r2, [r3]
 4191 005e B423     		mov	r3, #180
 4192 0060 D35C     		ldrb	r3, [r2, r3]
 4193 0062 012B     		cmp	r3, #1
 4194 0064 0ED1     		bne	.L246
 956:..\..\..\..\..\simplelink\source/driver.c ****             {
 957:..\..\..\..\..\simplelink\source/driver.c ****                 g_pCB->IsCmdRespWaited = FALSE;
 4195              		.loc 1 957 0
 4196 0066 2A4B     		ldr	r3, .L253
 4197 0068 1A68     		ldr	r2, [r3]
 4198 006a 9223     		mov	r3, #146
 4199 006c 0021     		mov	r1, #0
 4200 006e D154     		strb	r1, [r2, r3]
 958:..\..\..\..\..\simplelink\source/driver.c **** 
 959:..\..\..\..\..\simplelink\source/driver.c ****                 /*  In case CmdResp has been read without  waiting on CmdSyncObj -  that */
 960:..\..\..\..\..\simplelink\source/driver.c ****                 /*  Sync object. That to prevent old signal to be processed. */
 961:..\..\..\..\..\simplelink\source/driver.c ****                 sl_SyncObjClear(&g_pCB->CmdSyncObj);
 4201              		.loc 1 961 0
 4202 0070 274B     		ldr	r3, .L253
 4203 0072 1B68     		ldr	r3, [r3]
 4204 0074 9133     		add	r3, r3, #145
 4205 0076 181C     		mov	r0, r3
 4206 0078 2221     		mov	r1, #34
 4207 007a 1122     		mov	r2, #17
 4208 007c 0123     		mov	r3, #1
 4209 007e FFF7FEFF 		bl	_SlNonOsSemGet
 4210 0082 1CE0     		b	.L242
 4211              	.L246:
 962:..\..\..\..\..\simplelink\source/driver.c ****             }
 963:..\..\..\..\..\simplelink\source/driver.c ****             else if (ASYNC_EVT_CLASS == g_pCB->FunctionParams.AsyncExt.RxMsgClass)
 4212              		.loc 1 963 0
 4213 0084 224B     		ldr	r3, .L253
 4214 0086 1A68     		ldr	r2, [r3]
 4215 0088 B423     		mov	r3, #180
 4216 008a D35C     		ldrb	r3, [r2, r3]
 4217 008c 022B     		cmp	r3, #2
 4218 008e 16D1     		bne	.L242
 964:..\..\..\..\..\simplelink\source/driver.c ****             {
 965:..\..\..\..\..\simplelink\source/driver.c ****                 /*  If Async event has been read in CmdResp context, check whether */
 966:..\..\..\..\..\simplelink\source/driver.c ****                 /*  there is a handler for this event. If there is, spawn specific */
 967:..\..\..\..\..\simplelink\source/driver.c ****                 /*  handler. Otherwise free the event's buffer. */
 968:..\..\..\..\..\simplelink\source/driver.c ****                 /*  This way there will be no "dry shots" from CmdResp context to */
 969:..\..\..\..\..\simplelink\source/driver.c ****                 /*  temporary context, i.e less waste of CPU and faster buffer */
 970:..\..\..\..\..\simplelink\source/driver.c ****                 /*  release. */
 971:..\..\..\..\..\simplelink\source/driver.c ****                _SlAsyncEventGenericHandler();
 4219              		.loc 1 971 0
 4220 0090 FFF7FEFF 		bl	_SlAsyncEventGenericHandler
 972:..\..\..\..\..\simplelink\source/driver.c **** 
 973:..\..\..\..\..\simplelink\source/driver.c **** #if (SL_MEMORY_MGMT == SL_MEMORY_MGMT_STATIC)
 974:..\..\..\..\..\simplelink\source/driver.c ****                 g_pCB->FunctionParams.AsyncExt.pAsyncBuf = NULL;
 4221              		.loc 1 974 0
 4222 0094 1E4B     		ldr	r3, .L253
ARM GAS  C:\Users\X0217454\AppData\Local\Temp\cc7UAvFx.s 			page 93


 4223 0096 1A68     		ldr	r2, [r3]
 4224 0098 A823     		mov	r3, #168
 4225 009a 0021     		mov	r1, #0
 4226 009c D150     		str	r1, [r2, r3]
 4227 009e 0EE0     		b	.L242
 4228              	.L243:
 4229              	.LBB71:
 975:..\..\..\..\..\simplelink\source/driver.c **** #else
 976:..\..\..\..\..\simplelink\source/driver.c ****                 sl_Free(g_pCB->FunctionParams.AsyncExt.pAsyncBuf);
 977:..\..\..\..\..\simplelink\source/driver.c **** #endif
 978:..\..\..\..\..\simplelink\source/driver.c ****             }
 979:..\..\..\..\..\simplelink\source/driver.c ****         }
 980:..\..\..\..\..\simplelink\source/driver.c ****         else
 981:..\..\..\..\..\simplelink\source/driver.c ****         {
 982:..\..\..\..\..\simplelink\source/driver.c ****             /* CmdSyncObj will be signaled by IRQ */
 983:..\..\..\..\..\simplelink\source/driver.c ****         	OSI_RET_OK_CHECK(sl_SyncObjWait(&g_pCB->CmdSyncObj, SL_OS_WAIT_FOREVER));
 4230              		.loc 1 983 0
 4231 00a0 1B4B     		ldr	r3, .L253
 4232 00a2 1B68     		ldr	r3, [r3]
 4233 00a4 9133     		add	r3, r3, #145
 4234 00a6 181C     		mov	r0, r3
 4235 00a8 2221     		mov	r1, #34
 4236 00aa 1122     		mov	r2, #17
 4237 00ac FF23     		mov	r3, #255
 4238 00ae FFF7FEFF 		bl	_SlNonOsSemGet
 4239 00b2 031C     		mov	r3, r0
 4240 00b4 BB60     		str	r3, [r7, #8]
 4241 00b6 BB68     		ldr	r3, [r7, #8]
 4242 00b8 002B     		cmp	r3, #0
 4243 00ba 00D0     		beq	.L242
 4244              	.L247:
 4245              		.loc 1 983 0 is_stmt 0 discriminator 1
 4246 00bc FEE7     		b	.L247
 4247              	.L242:
 4248              	.LBE71:
 944:..\..\..\..\..\simplelink\source/driver.c ****     while (TRUE == g_pCB->IsCmdRespWaited)
 4249              		.loc 1 944 0 is_stmt 1 discriminator 1
 4250 00be 144B     		ldr	r3, .L253
 4251 00c0 1A68     		ldr	r2, [r3]
 4252 00c2 9223     		mov	r3, #146
 4253 00c4 D35C     		ldrb	r3, [r2, r3]
 4254 00c6 012B     		cmp	r3, #1
 4255 00c8 9ED0     		beq	.L248
 4256              	.LBB72:
 984:..\..\..\..\..\simplelink\source/driver.c ****         }
 985:..\..\..\..\..\simplelink\source/driver.c ****     }
 986:..\..\..\..\..\simplelink\source/driver.c ****        
 987:..\..\..\..\..\simplelink\source/driver.c ****     /*  If there are more pending Rx Msgs after CmdResp is received, */
 988:..\..\..\..\..\simplelink\source/driver.c ****     /*  that means that these are Async, Dummy or Read Data Msgs. */
 989:..\..\..\..\..\simplelink\source/driver.c ****     /*  Spawn _SlDrvMsgReadSpawnCtx to trigger reading these messages from */
 990:..\..\..\..\..\simplelink\source/driver.c ****     /*  Temorary context. */
 991:..\..\..\..\..\simplelink\source/driver.c ****     /* sl_Spawn is activated, using a different context */
 992:..\..\..\..\..\simplelink\source/driver.c ****     OSI_RET_OK_CHECK(sl_LockObjUnlock(&g_pCB->GlobalLockObj));
 4257              		.loc 1 992 0
 4258 00ca 114B     		ldr	r3, .L253
 4259 00cc 1B68     		ldr	r3, [r3]
 4260 00ce 0433     		add	r3, r3, #4
ARM GAS  C:\Users\X0217454\AppData\Local\Temp\cc7UAvFx.s 			page 94


 4261 00d0 181C     		mov	r0, r3
 4262 00d2 3321     		mov	r1, #51
 4263 00d4 FFF7FEFF 		bl	_SlNonOsSemSet
 4264 00d8 031C     		mov	r3, r0
 4265 00da 7B60     		str	r3, [r7, #4]
 4266 00dc 7B68     		ldr	r3, [r7, #4]
 4267 00de 002B     		cmp	r3, #0
 4268 00e0 00D0     		beq	.L249
 4269              	.L250:
 4270              		.loc 1 992 0 is_stmt 0 discriminator 1
 4271 00e2 FEE7     		b	.L250
 4272              	.L249:
 4273              	.LBE72:
 993:..\..\..\..\..\simplelink\source/driver.c ****     if(_SL_PENDING_RX_MSG(g_pCB))
 4274              		.loc 1 993 0 is_stmt 1
 4275 00e4 0A4B     		ldr	r3, .L253
 4276 00e6 1A68     		ldr	r2, [r3]
 4277 00e8 9723     		mov	r3, #151
 4278 00ea D25C     		ldrb	r2, [r2, r3]
 4279 00ec 084B     		ldr	r3, .L253
 4280 00ee 1968     		ldr	r1, [r3]
 4281 00f0 9823     		mov	r3, #152
 4282 00f2 CB5C     		ldrb	r3, [r1, r3]
 4283 00f4 9A42     		cmp	r2, r3
 4284 00f6 05D0     		beq	.L251
 994:..\..\..\..\..\simplelink\source/driver.c ****     {
 995:..\..\..\..\..\simplelink\source/driver.c ****         sl_Spawn((_SlSpawnEntryFunc_t)_SlDrvMsgReadSpawnCtx, NULL, 0);
 4285              		.loc 1 995 0
 4286 00f8 064B     		ldr	r3, .L253+4
 4287 00fa 181C     		mov	r0, r3
 4288 00fc 0021     		mov	r1, #0
 4289 00fe 0022     		mov	r2, #0
 4290 0100 FFF7FEFF 		bl	_SlNonOsSpawn
 4291              	.L251:
 996:..\..\..\..\..\simplelink\source/driver.c ****     }
 997:..\..\..\..\..\simplelink\source/driver.c **** 
 998:..\..\..\..\..\simplelink\source/driver.c ****     return SL_OS_RET_CODE_OK;
 4292              		.loc 1 998 0
 4293 0104 0023     		mov	r3, #0
 999:..\..\..\..\..\simplelink\source/driver.c **** }
 4294              		.loc 1 999 0
 4295 0106 181C     		mov	r0, r3
 4296 0108 BD46     		mov	sp, r7
 4297 010a 04B0     		add	sp, sp, #16
 4298              		@ sp needed for prologue
 4299 010c 80BD     		pop	{r7, pc}
 4300              	.L254:
 4301 010e C046     		.align	2
 4302              	.L253:
 4303 0110 00000000 		.word	g_pCB
 4304 0114 00000000 		.word	_SlDrvMsgReadSpawnCtx
 4305              		.cfi_endproc
 4306              	.LFE10:
 4307              		.size	_SlDrvMsgReadCmdCtx, .-_SlDrvMsgReadCmdCtx
 4308              		.section	.text._SlDrvMsgReadSpawnCtx,"ax",%progbits
 4309              		.align	2
 4310              		.global	_SlDrvMsgReadSpawnCtx
ARM GAS  C:\Users\X0217454\AppData\Local\Temp\cc7UAvFx.s 			page 95


 4311              		.code	16
 4312              		.thumb_func
 4313              		.type	_SlDrvMsgReadSpawnCtx, %function
 4314              	_SlDrvMsgReadSpawnCtx:
 4315              	.LFB11:
1000:..\..\..\..\..\simplelink\source/driver.c **** 
1001:..\..\..\..\..\simplelink\source/driver.c **** /* ******************************************************************************/
1002:..\..\..\..\..\simplelink\source/driver.c **** /*  _SlDrvMsgReadSpawnCtx                                                       */
1003:..\..\..\..\..\simplelink\source/driver.c **** /* ******************************************************************************/
1004:..\..\..\..\..\simplelink\source/driver.c **** _SlReturnVal_t _SlDrvMsgReadSpawnCtx(void *pValue)
1005:..\..\..\..\..\simplelink\source/driver.c **** {
 4316              		.loc 1 1005 0
 4317              		.cfi_startproc
 4318 0000 80B5     		push	{r7, lr}
 4319              	.LCFI33:
 4320              		.cfi_def_cfa_offset 8
 4321              		.cfi_offset 7, -8
 4322              		.cfi_offset 14, -4
 4323 0002 86B0     		sub	sp, sp, #24
 4324              	.LCFI34:
 4325              		.cfi_def_cfa_offset 32
 4326 0004 00AF     		add	r7, sp, #0
 4327              	.LCFI35:
 4328              		.cfi_def_cfa_register 7
 4329 0006 7860     		str	r0, [r7, #4]
 4330              	.LBB73:
1006:..\..\..\..\..\simplelink\source/driver.c **** #ifdef SL_POLLING_MODE_USED
1007:..\..\..\..\..\simplelink\source/driver.c ****     int retCode = OSI_OK;
1008:..\..\..\..\..\simplelink\source/driver.c ****     /*  for polling based systems */
1009:..\..\..\..\..\simplelink\source/driver.c ****     do
1010:..\..\..\..\..\simplelink\source/driver.c ****     {
1011:..\..\..\..\..\simplelink\source/driver.c ****         retCode = sl_LockObjLock(&g_pCB->GlobalLockObj, 0);
1012:..\..\..\..\..\simplelink\source/driver.c ****         if ( OSI_OK != retCode )
1013:..\..\..\..\..\simplelink\source/driver.c ****         {
1014:..\..\..\..\..\simplelink\source/driver.c ****             if (TRUE == g_pCB->IsCmdRespWaited)
1015:..\..\..\..\..\simplelink\source/driver.c ****             {
1016:..\..\..\..\..\simplelink\source/driver.c ****                 OSI_RET_OK_CHECK( sl_SyncObjSignal(&g_pCB->CmdSyncObj) );
1017:..\..\..\..\..\simplelink\source/driver.c ****                 return SL_RET_CODE_OK;
1018:..\..\..\..\..\simplelink\source/driver.c ****             }
1019:..\..\..\..\..\simplelink\source/driver.c ****         }
1020:..\..\..\..\..\simplelink\source/driver.c **** 
1021:..\..\..\..\..\simplelink\source/driver.c ****     }
1022:..\..\..\..\..\simplelink\source/driver.c ****     while (OSI_OK != retCode);
1023:..\..\..\..\..\simplelink\source/driver.c **** 
1024:..\..\..\..\..\simplelink\source/driver.c **** #else
1025:..\..\..\..\..\simplelink\source/driver.c ****     OSI_RET_OK_CHECK(sl_LockObjLock(&g_pCB->GlobalLockObj, SL_OS_WAIT_FOREVER) );
 4331              		.loc 1 1025 0
 4332 0008 3A4B     		ldr	r3, .L273
 4333 000a 1B68     		ldr	r3, [r3]
 4334 000c 0433     		add	r3, r3, #4
 4335 000e 181C     		mov	r0, r3
 4336 0010 3321     		mov	r1, #51
 4337 0012 4422     		mov	r2, #68
 4338 0014 FF23     		mov	r3, #255
 4339 0016 FFF7FEFF 		bl	_SlNonOsSemGet
 4340 001a 031C     		mov	r3, r0
 4341 001c 7B61     		str	r3, [r7, #20]
ARM GAS  C:\Users\X0217454\AppData\Local\Temp\cc7UAvFx.s 			page 96


 4342 001e 7B69     		ldr	r3, [r7, #20]
 4343 0020 002B     		cmp	r3, #0
 4344 0022 00D0     		beq	.L256
 4345              	.L257:
 4346              		.loc 1 1025 0 is_stmt 0 discriminator 1
 4347 0024 FEE7     		b	.L257
 4348              	.L256:
 4349              	.LBE73:
1026:..\..\..\..\..\simplelink\source/driver.c **** #endif
1027:..\..\..\..\..\simplelink\source/driver.c **** 
1028:..\..\..\..\..\simplelink\source/driver.c ****     g_pCB->FunctionParams.AsyncExt.pAsyncBuf      = NULL;/*  buffer must be allocated by _SlDrvMsgR
 4350              		.loc 1 1028 0 is_stmt 1
 4351 0026 334B     		ldr	r3, .L273
 4352 0028 1A68     		ldr	r2, [r3]
 4353 002a A823     		mov	r3, #168
 4354 002c 0021     		mov	r1, #0
 4355 002e D150     		str	r1, [r2, r3]
1029:..\..\..\..\..\simplelink\source/driver.c ****     g_pCB->FunctionParams.AsyncExt.AsyncEvtHandler= NULL;
 4356              		.loc 1 1029 0
 4357 0030 304B     		ldr	r3, .L273
 4358 0032 1A68     		ldr	r2, [r3]
 4359 0034 B023     		mov	r3, #176
 4360 0036 0021     		mov	r1, #0
 4361 0038 D150     		str	r1, [r2, r3]
1030:..\..\..\..\..\simplelink\source/driver.c ****     g_pCB->FunctionParams.AsyncExt.RxMsgClass     = CMD_RESP_CLASS;/* init to illegal value and ver
 4362              		.loc 1 1030 0
 4363 003a 2E4B     		ldr	r3, .L273
 4364 003c 1A68     		ldr	r2, [r3]
 4365 003e B423     		mov	r3, #180
 4366 0040 0121     		mov	r1, #1
 4367 0042 D154     		strb	r1, [r2, r3]
1031:..\..\..\..\..\simplelink\source/driver.c **** 
1032:..\..\..\..\..\simplelink\source/driver.c ****     /*  Messages might have been read by CmdResp context. Therefore after */
1033:..\..\..\..\..\simplelink\source/driver.c ****     /*  getting LockObj, check again where the Pending Rx Msg is still present. */
1034:..\..\..\..\..\simplelink\source/driver.c ****     if(FALSE == (_SL_PENDING_RX_MSG(g_pCB)))
 4368              		.loc 1 1034 0
 4369 0044 2B4B     		ldr	r3, .L273
 4370 0046 1A68     		ldr	r2, [r3]
 4371 0048 9723     		mov	r3, #151
 4372 004a D25C     		ldrb	r2, [r2, r3]
 4373 004c 294B     		ldr	r3, .L273
 4374 004e 1968     		ldr	r1, [r3]
 4375 0050 9823     		mov	r3, #152
 4376 0052 CB5C     		ldrb	r3, [r1, r3]
 4377 0054 9A42     		cmp	r2, r3
 4378 0056 0ED1     		bne	.L258
 4379              	.LBB74:
1035:..\..\..\..\..\simplelink\source/driver.c ****     {
1036:..\..\..\..\..\simplelink\source/driver.c ****         OSI_RET_OK_CHECK(sl_LockObjUnlock(&g_pCB->GlobalLockObj));
 4380              		.loc 1 1036 0
 4381 0058 264B     		ldr	r3, .L273
 4382 005a 1B68     		ldr	r3, [r3]
 4383 005c 0433     		add	r3, r3, #4
 4384 005e 181C     		mov	r0, r3
 4385 0060 3321     		mov	r1, #51
 4386 0062 FFF7FEFF 		bl	_SlNonOsSemSet
 4387 0066 031C     		mov	r3, r0
ARM GAS  C:\Users\X0217454\AppData\Local\Temp\cc7UAvFx.s 			page 97


 4388 0068 3B61     		str	r3, [r7, #16]
 4389 006a 3B69     		ldr	r3, [r7, #16]
 4390 006c 002B     		cmp	r3, #0
 4391 006e 00D0     		beq	.L259
 4392              	.L260:
 4393              		.loc 1 1036 0 is_stmt 0 discriminator 1
 4394 0070 FEE7     		b	.L260
 4395              	.L259:
 4396              	.LBE74:
1037:..\..\..\..\..\simplelink\source/driver.c ****         return SL_RET_CODE_OK;
 4397              		.loc 1 1037 0 is_stmt 1
 4398 0072 0023     		mov	r3, #0
 4399 0074 39E0     		b	.L261
 4400              	.L258:
 4401              	.LBB75:
1038:..\..\..\..\..\simplelink\source/driver.c ****     }
1039:..\..\..\..\..\simplelink\source/driver.c **** 
1040:..\..\..\..\..\simplelink\source/driver.c ****     VERIFY_RET_OK(_SlDrvMsgRead());
 4402              		.loc 1 1040 0
 4403 0076 FFF7FEFF 		bl	_SlDrvMsgRead
 4404 007a 031C     		mov	r3, r0
 4405 007c FB60     		str	r3, [r7, #12]
 4406 007e FB68     		ldr	r3, [r7, #12]
 4407 0080 002B     		cmp	r3, #0
 4408 0082 00D0     		beq	.L262
 4409              	.L263:
 4410              		.loc 1 1040 0 is_stmt 0 discriminator 1
 4411 0084 FEE7     		b	.L263
 4412              	.L262:
 4413              	.LBE75:
1041:..\..\..\..\..\simplelink\source/driver.c **** 
1042:..\..\..\..\..\simplelink\source/driver.c ****     g_pCB->RxDoneCnt++;
 4414              		.loc 1 1042 0 is_stmt 1
 4415 0086 1B4B     		ldr	r3, .L273
 4416 0088 1B68     		ldr	r3, [r3]
 4417 008a 9822     		mov	r2, #152
 4418 008c 9A5C     		ldrb	r2, [r3, r2]
 4419 008e 0132     		add	r2, r2, #1
 4420 0090 D1B2     		uxtb	r1, r2
 4421 0092 9822     		mov	r2, #152
 4422 0094 9954     		strb	r1, [r3, r2]
1043:..\..\..\..\..\simplelink\source/driver.c **** 
1044:..\..\..\..\..\simplelink\source/driver.c ****     switch(g_pCB->FunctionParams.AsyncExt.RxMsgClass)
 4423              		.loc 1 1044 0
 4424 0096 174B     		ldr	r3, .L273
 4425 0098 1A68     		ldr	r2, [r3]
 4426 009a B423     		mov	r3, #180
 4427 009c D35C     		ldrb	r3, [r2, r3]
 4428 009e 022B     		cmp	r3, #2
 4429 00a0 04D0     		beq	.L266
 4430 00a2 032B     		cmp	r3, #3
 4431 00a4 12D0     		beq	.L272
 4432 00a6 002B     		cmp	r3, #0
 4433 00a8 10D0     		beq	.L272
 4434 00aa 0EE0     		b	.L264
 4435              	.L266:
1045:..\..\..\..\..\simplelink\source/driver.c ****     {
ARM GAS  C:\Users\X0217454\AppData\Local\Temp\cc7UAvFx.s 			page 98


1046:..\..\..\..\..\simplelink\source/driver.c ****     case ASYNC_EVT_CLASS:
1047:..\..\..\..\..\simplelink\source/driver.c ****         /*  If got here and protected by LockObj a message is waiting  */
1048:..\..\..\..\..\simplelink\source/driver.c ****         /*  to be read */
1049:..\..\..\..\..\simplelink\source/driver.c ****         VERIFY_PROTOCOL(NULL != g_pCB->FunctionParams.AsyncExt.pAsyncBuf);
 4436              		.loc 1 1049 0
 4437 00ac 114B     		ldr	r3, .L273
 4438 00ae 1A68     		ldr	r2, [r3]
 4439 00b0 A823     		mov	r3, #168
 4440 00b2 D358     		ldr	r3, [r2, r3]
 4441 00b4 002B     		cmp	r3, #0
 4442 00b6 00D1     		bne	.L267
 4443              	.L268:
 4444              		.loc 1 1049 0 is_stmt 0 discriminator 1
 4445 00b8 FEE7     		b	.L268
 4446              	.L267:
1050:..\..\..\..\..\simplelink\source/driver.c **** 
1051:..\..\..\..\..\simplelink\source/driver.c ****         _SlAsyncEventGenericHandler();
 4447              		.loc 1 1051 0 is_stmt 1
 4448 00ba FFF7FEFF 		bl	_SlAsyncEventGenericHandler
1052:..\..\..\..\..\simplelink\source/driver.c **** 
1053:..\..\..\..\..\simplelink\source/driver.c **** #if (SL_MEMORY_MGMT == SL_MEMORY_MGMT_STATIC)
1054:..\..\..\..\..\simplelink\source/driver.c ****         g_pCB->FunctionParams.AsyncExt.pAsyncBuf = NULL;
 4449              		.loc 1 1054 0
 4450 00be 0D4B     		ldr	r3, .L273
 4451 00c0 1A68     		ldr	r2, [r3]
 4452 00c2 A823     		mov	r3, #168
 4453 00c4 0021     		mov	r1, #0
 4454 00c6 D150     		str	r1, [r2, r3]
1055:..\..\..\..\..\simplelink\source/driver.c **** #else
1056:..\..\..\..\..\simplelink\source/driver.c ****         sl_Free(g_pCB->FunctionParams.AsyncExt.pAsyncBuf);
1057:..\..\..\..\..\simplelink\source/driver.c **** #endif
1058:..\..\..\..\..\simplelink\source/driver.c ****         break;
 4455              		.loc 1 1058 0
 4456 00c8 01E0     		b	.L269
 4457              	.L264:
1059:..\..\..\..\..\simplelink\source/driver.c ****     case DUMMY_MSG_CLASS:
1060:..\..\..\..\..\simplelink\source/driver.c ****     case RECV_RESP_CLASS:
1061:..\..\..\..\..\simplelink\source/driver.c ****         /* These types are legal in this context. Do nothing */
1062:..\..\..\..\..\simplelink\source/driver.c ****         break;
1063:..\..\..\..\..\simplelink\source/driver.c ****     case CMD_RESP_CLASS:
1064:..\..\..\..\..\simplelink\source/driver.c ****         /* Command response is illegal in this context. */
1065:..\..\..\..\..\simplelink\source/driver.c ****         /* No 'break' here: Assert! */
1066:..\..\..\..\..\simplelink\source/driver.c ****     default:
1067:..\..\..\..\..\simplelink\source/driver.c ****         VERIFY_PROTOCOL(0);
 4458              		.loc 1 1067 0 discriminator 1
 4459 00ca FEE7     		b	.L264
 4460              	.L272:
1062:..\..\..\..\..\simplelink\source/driver.c ****         break;
 4461              		.loc 1 1062 0
 4462 00cc C046     		mov	r8, r8
 4463              	.L269:
 4464              	.LBB76:
1068:..\..\..\..\..\simplelink\source/driver.c ****     }
1069:..\..\..\..\..\simplelink\source/driver.c **** 
1070:..\..\..\..\..\simplelink\source/driver.c ****     OSI_RET_OK_CHECK(sl_LockObjUnlock(&g_pCB->GlobalLockObj));
 4465              		.loc 1 1070 0
 4466 00ce 094B     		ldr	r3, .L273
ARM GAS  C:\Users\X0217454\AppData\Local\Temp\cc7UAvFx.s 			page 99


 4467 00d0 1B68     		ldr	r3, [r3]
 4468 00d2 0433     		add	r3, r3, #4
 4469 00d4 181C     		mov	r0, r3
 4470 00d6 3321     		mov	r1, #51
 4471 00d8 FFF7FEFF 		bl	_SlNonOsSemSet
 4472 00dc 031C     		mov	r3, r0
 4473 00de BB60     		str	r3, [r7, #8]
 4474 00e0 BB68     		ldr	r3, [r7, #8]
 4475 00e2 002B     		cmp	r3, #0
 4476 00e4 00D0     		beq	.L270
 4477              	.L271:
 4478              		.loc 1 1070 0 is_stmt 0 discriminator 1
 4479 00e6 FEE7     		b	.L271
 4480              	.L270:
 4481              	.LBE76:
1071:..\..\..\..\..\simplelink\source/driver.c **** 
1072:..\..\..\..\..\simplelink\source/driver.c ****     return(SL_RET_CODE_OK);
 4482              		.loc 1 1072 0 is_stmt 1
 4483 00e8 0023     		mov	r3, #0
 4484              	.L261:
1073:..\..\..\..\..\simplelink\source/driver.c **** }
 4485              		.loc 1 1073 0
 4486 00ea 181C     		mov	r0, r3
 4487 00ec BD46     		mov	sp, r7
 4488 00ee 06B0     		add	sp, sp, #24
 4489              		@ sp needed for prologue
 4490 00f0 80BD     		pop	{r7, pc}
 4491              	.L274:
 4492 00f2 C046     		.align	2
 4493              	.L273:
 4494 00f4 00000000 		.word	g_pCB
 4495              		.cfi_endproc
 4496              	.LFE11:
 4497              		.size	_SlDrvMsgReadSpawnCtx, .-_SlDrvMsgReadSpawnCtx
 4498              		.section	.text._SlDrvClassifyRxMsg,"ax",%progbits
 4499              		.align	2
 4500              		.global	_SlDrvClassifyRxMsg
 4501              		.code	16
 4502              		.thumb_func
 4503              		.type	_SlDrvClassifyRxMsg, %function
 4504              	_SlDrvClassifyRxMsg:
 4505              	.LFB12:
1074:..\..\..\..\..\simplelink\source/driver.c **** 
1075:..\..\..\..\..\simplelink\source/driver.c **** /* ******************************************************************************/
1076:..\..\..\..\..\simplelink\source/driver.c **** /*  _SlDrvClassifyRxMsg */
1077:..\..\..\..\..\simplelink\source/driver.c **** /* ******************************************************************************/
1078:..\..\..\..\..\simplelink\source/driver.c **** void _SlDrvClassifyRxMsg(
1079:..\..\..\..\..\simplelink\source/driver.c ****     _SlOpcode_t         Opcode)
1080:..\..\..\..\..\simplelink\source/driver.c **** {
 4506              		.loc 1 1080 0
 4507              		.cfi_startproc
 4508 0000 80B5     		push	{r7, lr}
 4509              	.LCFI36:
 4510              		.cfi_def_cfa_offset 8
 4511              		.cfi_offset 7, -8
 4512              		.cfi_offset 14, -4
 4513 0002 82B0     		sub	sp, sp, #8
ARM GAS  C:\Users\X0217454\AppData\Local\Temp\cc7UAvFx.s 			page 100


 4514              	.LCFI37:
 4515              		.cfi_def_cfa_offset 16
 4516 0004 00AF     		add	r7, sp, #0
 4517              	.LCFI38:
 4518              		.cfi_def_cfa_register 7
 4519 0006 021C     		mov	r2, r0
 4520 0008 BB1D     		add	r3, r7, #6
 4521 000a 1A80     		strh	r2, [r3]
1081:..\..\..\..\..\simplelink\source/driver.c **** 
1082:..\..\..\..\..\simplelink\source/driver.c ****     g_pCB->FunctionParams.AsyncExt.AsyncEvtHandler = NULL;
 4522              		.loc 1 1082 0
 4523 000c 3F4B     		ldr	r3, .L288
 4524 000e 1A68     		ldr	r2, [r3]
 4525 0010 B023     		mov	r3, #176
 4526 0012 0021     		mov	r1, #0
 4527 0014 D150     		str	r1, [r2, r3]
1083:..\..\..\..\..\simplelink\source/driver.c **** 
1084:..\..\..\..\..\simplelink\source/driver.c **** 	/* Async event has received */
1085:..\..\..\..\..\simplelink\source/driver.c **** 	if (0 == (SL_OPCODE_SYNC & Opcode))
 4528              		.loc 1 1085 0
 4529 0016 BB1D     		add	r3, r7, #6
 4530 0018 1A88     		ldrh	r2, [r3]
 4531 001a 8023     		mov	r3, #128
 4532 001c DB00     		lsl	r3, r3, #3
 4533 001e 1340     		and	r3, r2
 4534 0020 9BB2     		uxth	r3, r3
 4535 0022 002B     		cmp	r3, #0
 4536 0024 00D0     		beq	.LCB4203
 4537 0026 66E0     		b	.L276	@long jump
 4538              	.LCB4203:
1086:..\..\..\..\..\simplelink\source/driver.c **** 	{
1087:..\..\..\..\..\simplelink\source/driver.c **** 		if (SL_OPCODE_DEVICE_DEVICEASYNCDUMMY == Opcode)
 4539              		.loc 1 1087 0
 4540 0028 BB1D     		add	r3, r7, #6
 4541 002a 1B88     		ldrh	r3, [r3]
 4542 002c 632B     		cmp	r3, #99
 4543 002e 05D1     		bne	.L277
1088:..\..\..\..\..\simplelink\source/driver.c **** 		{ 
1089:..\..\..\..\..\simplelink\source/driver.c **** 			g_pCB->FunctionParams.AsyncExt.RxMsgClass = DUMMY_MSG_CLASS;
 4544              		.loc 1 1089 0
 4545 0030 364B     		ldr	r3, .L288
 4546 0032 1A68     		ldr	r2, [r3]
 4547 0034 B423     		mov	r3, #180
 4548 0036 0321     		mov	r1, #3
 4549 0038 D154     		strb	r1, [r2, r3]
1090:..\..\..\..\..\simplelink\source/driver.c **** 		}
1091:..\..\..\..\..\simplelink\source/driver.c **** 		else if ( (SL_OPCODE_SOCKET_RECVASYNCRESPONSE == Opcode) || (SL_OPCODE_SOCKET_RECVFROMASYNCRESPON
1092:..\..\..\..\..\simplelink\source/driver.c **** 		{
1093:..\..\..\..\..\simplelink\source/driver.c **** 			g_pCB->FunctionParams.AsyncExt.RxMsgClass = RECV_RESP_CLASS;
1094:..\..\..\..\..\simplelink\source/driver.c **** 		}
1095:..\..\..\..\..\simplelink\source/driver.c **** 		else
1096:..\..\..\..\..\simplelink\source/driver.c **** 		{
1097:..\..\..\..\..\simplelink\source/driver.c **** 			g_pCB->FunctionParams.AsyncExt.RxMsgClass = ASYNC_EVT_CLASS;
1098:..\..\..\..\..\simplelink\source/driver.c **** 
1099:..\..\..\..\..\simplelink\source/driver.c **** 			/* set silo handler */
1100:..\..\..\..\..\simplelink\source/driver.c **** 			if (SL_OPCODE_SILO_DEVICE == (Opcode & SL_OPCODE_SILO_MASK))
1101:..\..\..\..\..\simplelink\source/driver.c **** 			{
ARM GAS  C:\Users\X0217454\AppData\Local\Temp\cc7UAvFx.s 			page 101


1102:..\..\..\..\..\simplelink\source/driver.c **** 				 g_pCB->FunctionParams.AsyncExt.AsyncEvtHandler = _SlDrvDeviceEventHandler;
1103:..\..\..\..\..\simplelink\source/driver.c **** 			}
1104:..\..\..\..\..\simplelink\source/driver.c **** 			else if (SL_OPCODE_SILO_WLAN == (Opcode & SL_OPCODE_SILO_MASK))
1105:..\..\..\..\..\simplelink\source/driver.c **** 			{
1106:..\..\..\..\..\simplelink\source/driver.c **** #ifdef sl_WlanEvtHdlr
1107:..\..\..\..\..\simplelink\source/driver.c **** 				 g_pCB->FunctionParams.AsyncExt.AsyncEvtHandler = (_SlSpawnEntryFunc_t)sl_WlanEvtHdlr;
1108:..\..\..\..\..\simplelink\source/driver.c **** #endif
1109:..\..\..\..\..\simplelink\source/driver.c **** 			}
1110:..\..\..\..\..\simplelink\source/driver.c **** 			else if (SL_OPCODE_SILO_SOCKET == (Opcode & SL_OPCODE_SILO_MASK))
1111:..\..\..\..\..\simplelink\source/driver.c **** 			{
1112:..\..\..\..\..\simplelink\source/driver.c **** 
1113:..\..\..\..\..\simplelink\source/driver.c **** #ifdef sl_SockEvtHdlr
1114:..\..\..\..\..\simplelink\source/driver.c **** 				g_pCB->FunctionParams.AsyncExt.AsyncEvtHandler = (_SlSpawnEntryFunc_t)sl_SockEvtHdlr;
1115:..\..\..\..\..\simplelink\source/driver.c **** #endif
1116:..\..\..\..\..\simplelink\source/driver.c **** 			}
1117:..\..\..\..\..\simplelink\source/driver.c **** 			else if (SL_OPCODE_SILO_NETAPP == (Opcode & SL_OPCODE_SILO_MASK))
1118:..\..\..\..\..\simplelink\source/driver.c **** 			{
1119:..\..\..\..\..\simplelink\source/driver.c **** #ifdef sl_NetAppEvtHdlr
1120:..\..\..\..\..\simplelink\source/driver.c **** 				if ((SL_OPCODE_NETAPP_HTTPGETTOKENVALUE == Opcode) || (SL_OPCODE_NETAPP_HTTPPOSTTOKENVALUE == O
1121:..\..\..\..\..\simplelink\source/driver.c **** 				{
1122:..\..\..\..\..\simplelink\source/driver.c **** 					g_pCB->FunctionParams.AsyncExt.AsyncEvtHandler = _SlDrvNetAppEventHandler;
1123:..\..\..\..\..\simplelink\source/driver.c **** 				}
1124:..\..\..\..\..\simplelink\source/driver.c **** 				else
1125:..\..\..\..\..\simplelink\source/driver.c **** 				{
1126:..\..\..\..\..\simplelink\source/driver.c **** 					g_pCB->FunctionParams.AsyncExt.AsyncEvtHandler = (_SlSpawnEntryFunc_t)sl_NetAppEvtHdlr;
 4550              		.loc 1 1126 0
 4551 003a 62E0     		b	.L287
 4552              	.L277:
1091:..\..\..\..\..\simplelink\source/driver.c **** 		else if ( (SL_OPCODE_SOCKET_RECVASYNCRESPONSE == Opcode) || (SL_OPCODE_SOCKET_RECVFROMASYNCRESPON
 4553              		.loc 1 1091 0
 4554 003c BB1D     		add	r3, r7, #6
 4555 003e 1A88     		ldrh	r2, [r3]
 4556 0040 334B     		ldr	r3, .L288+4
 4557 0042 9A42     		cmp	r2, r3
 4558 0044 09D0     		beq	.L279
1091:..\..\..\..\..\simplelink\source/driver.c **** 		else if ( (SL_OPCODE_SOCKET_RECVASYNCRESPONSE == Opcode) || (SL_OPCODE_SOCKET_RECVFROMASYNCRESPON
 4559              		.loc 1 1091 0 is_stmt 0 discriminator 1
 4560 0046 BB1D     		add	r3, r7, #6
 4561 0048 1A88     		ldrh	r2, [r3]
 4562 004a 324B     		ldr	r3, .L288+8
 4563 004c 9A42     		cmp	r2, r3
 4564 004e 04D0     		beq	.L279
 4565 0050 BB1D     		add	r3, r7, #6
 4566 0052 1A88     		ldrh	r2, [r3]
 4567 0054 304B     		ldr	r3, .L288+12
 4568 0056 9A42     		cmp	r2, r3
 4569 0058 05D1     		bne	.L280
 4570              	.L279:
1093:..\..\..\..\..\simplelink\source/driver.c **** 			g_pCB->FunctionParams.AsyncExt.RxMsgClass = RECV_RESP_CLASS;
 4571              		.loc 1 1093 0 is_stmt 1
 4572 005a 2C4B     		ldr	r3, .L288
 4573 005c 1A68     		ldr	r2, [r3]
 4574 005e B423     		mov	r3, #180
 4575 0060 0021     		mov	r1, #0
 4576 0062 D154     		strb	r1, [r2, r3]
 4577 0064 4EE0     		b	.L275
 4578              	.L280:
ARM GAS  C:\Users\X0217454\AppData\Local\Temp\cc7UAvFx.s 			page 102


1097:..\..\..\..\..\simplelink\source/driver.c **** 			g_pCB->FunctionParams.AsyncExt.RxMsgClass = ASYNC_EVT_CLASS;
 4579              		.loc 1 1097 0
 4580 0066 294B     		ldr	r3, .L288
 4581 0068 1A68     		ldr	r2, [r3]
 4582 006a B423     		mov	r3, #180
 4583 006c 0221     		mov	r1, #2
 4584 006e D154     		strb	r1, [r2, r3]
1100:..\..\..\..\..\simplelink\source/driver.c **** 			if (SL_OPCODE_SILO_DEVICE == (Opcode & SL_OPCODE_SILO_MASK))
 4585              		.loc 1 1100 0
 4586 0070 BB1D     		add	r3, r7, #6
 4587 0072 1A88     		ldrh	r2, [r3]
 4588 0074 F023     		mov	r3, #240
 4589 0076 DB01     		lsl	r3, r3, #7
 4590 0078 1340     		and	r3, r2
 4591 007a 05D1     		bne	.L281
1102:..\..\..\..\..\simplelink\source/driver.c **** 				 g_pCB->FunctionParams.AsyncExt.AsyncEvtHandler = _SlDrvDeviceEventHandler;
 4592              		.loc 1 1102 0
 4593 007c 234B     		ldr	r3, .L288
 4594 007e 1A68     		ldr	r2, [r3]
 4595 0080 B023     		mov	r3, #176
 4596 0082 2649     		ldr	r1, .L288+16
 4597 0084 D150     		str	r1, [r2, r3]
 4598              		.loc 1 1126 0
 4599 0086 3CE0     		b	.L287
 4600              	.L281:
1104:..\..\..\..\..\simplelink\source/driver.c **** 			else if (SL_OPCODE_SILO_WLAN == (Opcode & SL_OPCODE_SILO_MASK))
 4601              		.loc 1 1104 0
 4602 0088 BB1D     		add	r3, r7, #6
 4603 008a 1A88     		ldrh	r2, [r3]
 4604 008c F023     		mov	r3, #240
 4605 008e DB01     		lsl	r3, r3, #7
 4606 0090 1A40     		and	r2, r3
 4607 0092 8023     		mov	r3, #128
 4608 0094 1B01     		lsl	r3, r3, #4
 4609 0096 9A42     		cmp	r2, r3
 4610 0098 05D1     		bne	.L282
1107:..\..\..\..\..\simplelink\source/driver.c **** 				 g_pCB->FunctionParams.AsyncExt.AsyncEvtHandler = (_SlSpawnEntryFunc_t)sl_WlanEvtHdlr;
 4611              		.loc 1 1107 0
 4612 009a 1C4B     		ldr	r3, .L288
 4613 009c 1A68     		ldr	r2, [r3]
 4614 009e B023     		mov	r3, #176
 4615 00a0 1F49     		ldr	r1, .L288+20
 4616 00a2 D150     		str	r1, [r2, r3]
 4617              		.loc 1 1126 0
 4618 00a4 2DE0     		b	.L287
 4619              	.L282:
1110:..\..\..\..\..\simplelink\source/driver.c **** 			else if (SL_OPCODE_SILO_SOCKET == (Opcode & SL_OPCODE_SILO_MASK))
 4620              		.loc 1 1110 0
 4621 00a6 BB1D     		add	r3, r7, #6
 4622 00a8 1A88     		ldrh	r2, [r3]
 4623 00aa F023     		mov	r3, #240
 4624 00ac DB01     		lsl	r3, r3, #7
 4625 00ae 1A40     		and	r2, r3
 4626 00b0 8023     		mov	r3, #128
 4627 00b2 5B01     		lsl	r3, r3, #5
 4628 00b4 9A42     		cmp	r2, r3
 4629 00b6 24D0     		beq	.L287
ARM GAS  C:\Users\X0217454\AppData\Local\Temp\cc7UAvFx.s 			page 103


1117:..\..\..\..\..\simplelink\source/driver.c **** 			else if (SL_OPCODE_SILO_NETAPP == (Opcode & SL_OPCODE_SILO_MASK))
 4630              		.loc 1 1117 0
 4631 00b8 BB1D     		add	r3, r7, #6
 4632 00ba 1A88     		ldrh	r2, [r3]
 4633 00bc F023     		mov	r3, #240
 4634 00be DB01     		lsl	r3, r3, #7
 4635 00c0 1A40     		and	r2, r3
 4636 00c2 C023     		mov	r3, #192
 4637 00c4 5B01     		lsl	r3, r3, #5
 4638 00c6 9A42     		cmp	r2, r3
 4639 00c8 1BD1     		bne	.L287
1120:..\..\..\..\..\simplelink\source/driver.c **** 				if ((SL_OPCODE_NETAPP_HTTPGETTOKENVALUE == Opcode) || (SL_OPCODE_NETAPP_HTTPPOSTTOKENVALUE == O
 4640              		.loc 1 1120 0
 4641 00ca BB1D     		add	r3, r7, #6
 4642 00cc 1A88     		ldrh	r2, [r3]
 4643 00ce 154B     		ldr	r3, .L288+24
 4644 00d0 9A42     		cmp	r2, r3
 4645 00d2 04D0     		beq	.L283
1120:..\..\..\..\..\simplelink\source/driver.c **** 				if ((SL_OPCODE_NETAPP_HTTPGETTOKENVALUE == Opcode) || (SL_OPCODE_NETAPP_HTTPPOSTTOKENVALUE == O
 4646              		.loc 1 1120 0 is_stmt 0 discriminator 1
 4647 00d4 BB1D     		add	r3, r7, #6
 4648 00d6 1A88     		ldrh	r2, [r3]
 4649 00d8 134B     		ldr	r3, .L288+28
 4650 00da 9A42     		cmp	r2, r3
 4651 00dc 05D1     		bne	.L284
 4652              	.L283:
1122:..\..\..\..\..\simplelink\source/driver.c **** 					g_pCB->FunctionParams.AsyncExt.AsyncEvtHandler = _SlDrvNetAppEventHandler;
 4653              		.loc 1 1122 0 is_stmt 1
 4654 00de 0B4B     		ldr	r3, .L288
 4655 00e0 1A68     		ldr	r2, [r3]
 4656 00e2 B023     		mov	r3, #176
 4657 00e4 1149     		ldr	r1, .L288+32
 4658 00e6 D150     		str	r1, [r2, r3]
 4659 00e8 0CE0     		b	.L275
 4660              	.L284:
 4661              		.loc 1 1126 0
 4662 00ea 084B     		ldr	r3, .L288
 4663 00ec 1A68     		ldr	r2, [r3]
 4664 00ee B023     		mov	r3, #176
 4665 00f0 0F49     		ldr	r1, .L288+36
 4666 00f2 D150     		str	r1, [r2, r3]
 4667 00f4 05E0     		b	.L287
 4668              	.L276:
1127:..\..\..\..\..\simplelink\source/driver.c **** 				}
1128:..\..\..\..\..\simplelink\source/driver.c **** #endif
1129:..\..\..\..\..\simplelink\source/driver.c **** 			}
1130:..\..\..\..\..\simplelink\source/driver.c **** /* 			else if (SL_OPCODE_SILO_NVMEM == (Opcode & SL_OPCODE_SILO_MASK))   */
1131:..\..\..\..\..\simplelink\source/driver.c **** /* 			{ */
1132:..\..\..\..\..\simplelink\source/driver.c **** /* 			} */
1133:..\..\..\..\..\simplelink\source/driver.c **** /* 			else if (SL_OPCODE_SILO_NETCFG == (Opcode & SL_OPCODE_SILO_MASK))   */
1134:..\..\..\..\..\simplelink\source/driver.c **** /* 			{ */
1135:..\..\..\..\..\simplelink\source/driver.c **** /* 			} */
1136:..\..\..\..\..\simplelink\source/driver.c **** 			else
1137:..\..\..\..\..\simplelink\source/driver.c **** 			{
1138:..\..\..\..\..\simplelink\source/driver.c **** 			 SL_ERROR_TRACE2(MSG_311, "ASSERT: _SlDrvClassifyRxMsg : invalid opcode = 0x%x = %1", Opcode, Op
1139:..\..\..\..\..\simplelink\source/driver.c **** 			}
1140:..\..\..\..\..\simplelink\source/driver.c **** 		}
ARM GAS  C:\Users\X0217454\AppData\Local\Temp\cc7UAvFx.s 			page 104


1141:..\..\..\..\..\simplelink\source/driver.c **** 	}
1142:..\..\..\..\..\simplelink\source/driver.c **** 	else
1143:..\..\..\..\..\simplelink\source/driver.c **** 	{
1144:..\..\..\..\..\simplelink\source/driver.c **** 		/* These may be Command responses only */
1145:..\..\..\..\..\simplelink\source/driver.c **** 		g_pCB->FunctionParams.AsyncExt.RxMsgClass = CMD_RESP_CLASS;	
 4669              		.loc 1 1145 0
 4670 00f6 054B     		ldr	r3, .L288
 4671 00f8 1A68     		ldr	r2, [r3]
 4672 00fa B423     		mov	r3, #180
 4673 00fc 0121     		mov	r1, #1
 4674 00fe D154     		strb	r1, [r2, r3]
 4675 0100 00E0     		b	.L275
 4676              	.L287:
1126:..\..\..\..\..\simplelink\source/driver.c **** 					g_pCB->FunctionParams.AsyncExt.AsyncEvtHandler = (_SlSpawnEntryFunc_t)sl_NetAppEvtHdlr;
 4677              		.loc 1 1126 0
 4678 0102 C046     		mov	r8, r8
 4679              	.L275:
1146:..\..\..\..\..\simplelink\source/driver.c **** 	}	 
1147:..\..\..\..\..\simplelink\source/driver.c ****  
1148:..\..\..\..\..\simplelink\source/driver.c **** }
 4680              		.loc 1 1148 0
 4681 0104 BD46     		mov	sp, r7
 4682 0106 02B0     		add	sp, sp, #8
 4683              		@ sp needed for prologue
 4684 0108 80BD     		pop	{r7, pc}
 4685              	.L289:
 4686 010a C046     		.align	2
 4687              	.L288:
 4688 010c 00000000 		.word	g_pCB
 4689 0110 0A100000 		.word	4106
 4690 0114 0B100000 		.word	4107
 4691 0118 0B120000 		.word	4619
 4692 011c 00000000 		.word	_SlDrvDeviceEventHandler
 4693 0120 00000000 		.word	SimpleLinkWlanEventHandler
 4694 0124 2E180000 		.word	6190
 4695 0128 30180000 		.word	6192
 4696 012c 00000000 		.word	_SlDrvNetAppEventHandler
 4697 0130 00000000 		.word	SimpleLinkNetAppEventHandler
 4698              		.cfi_endproc
 4699              	.LFE12:
 4700              		.size	_SlDrvClassifyRxMsg, .-_SlDrvClassifyRxMsg
 4701              		.section	.text._SlDrvShiftDWord,"ax",%progbits
 4702              		.align	2
 4703              		.global	_SlDrvShiftDWord
 4704              		.code	16
 4705              		.thumb_func
 4706              		.type	_SlDrvShiftDWord, %function
 4707              	_SlDrvShiftDWord:
 4708              	.LFB13:
1149:..\..\..\..\..\simplelink\source/driver.c **** 
1150:..\..\..\..\..\simplelink\source/driver.c **** /* ******************************************************************************/
1151:..\..\..\..\..\simplelink\source/driver.c **** /*  _SlDrvShiftDWord */
1152:..\..\..\..\..\simplelink\source/driver.c **** /* ******************************************************************************/
1153:..\..\..\..\..\simplelink\source/driver.c **** void _SlDrvShiftDWord(UINT8 *pBuf)
1154:..\..\..\..\..\simplelink\source/driver.c **** {
 4709              		.loc 1 1154 0
 4710              		.cfi_startproc
ARM GAS  C:\Users\X0217454\AppData\Local\Temp\cc7UAvFx.s 			page 105


 4711 0000 80B5     		push	{r7, lr}
 4712              	.LCFI39:
 4713              		.cfi_def_cfa_offset 8
 4714              		.cfi_offset 7, -8
 4715              		.cfi_offset 14, -4
 4716 0002 84B0     		sub	sp, sp, #16
 4717              	.LCFI40:
 4718              		.cfi_def_cfa_offset 24
 4719 0004 00AF     		add	r7, sp, #0
 4720              	.LCFI41:
 4721              		.cfi_def_cfa_register 7
 4722 0006 7860     		str	r0, [r7, #4]
1155:..\..\..\..\..\simplelink\source/driver.c ****     UINT8       ShiftIdx;
1156:..\..\..\..\..\simplelink\source/driver.c ****     for(ShiftIdx = 0; ShiftIdx< 7; ShiftIdx++)
 4723              		.loc 1 1156 0
 4724 0008 3B1C     		mov	r3, r7
 4725 000a 0F33     		add	r3, r3, #15
 4726 000c 0022     		mov	r2, #0
 4727 000e 1A70     		strb	r2, [r3]
 4728 0010 13E0     		b	.L291
 4729              	.L292:
1157:..\..\..\..\..\simplelink\source/driver.c ****     {
1158:..\..\..\..\..\simplelink\source/driver.c ****         pBuf[ShiftIdx] = pBuf[ShiftIdx+1];
 4730              		.loc 1 1158 0 discriminator 2
 4731 0012 3B1C     		mov	r3, r7
 4732 0014 0F33     		add	r3, r3, #15
 4733 0016 1B78     		ldrb	r3, [r3]
 4734 0018 7A68     		ldr	r2, [r7, #4]
 4735 001a D318     		add	r3, r2, r3
 4736 001c 3A1C     		mov	r2, r7
 4737 001e 0F32     		add	r2, r2, #15
 4738 0020 1278     		ldrb	r2, [r2]
 4739 0022 0132     		add	r2, r2, #1
 4740 0024 7968     		ldr	r1, [r7, #4]
 4741 0026 8A18     		add	r2, r1, r2
 4742 0028 1278     		ldrb	r2, [r2]
 4743 002a 1A70     		strb	r2, [r3]
1156:..\..\..\..\..\simplelink\source/driver.c ****     for(ShiftIdx = 0; ShiftIdx< 7; ShiftIdx++)
 4744              		.loc 1 1156 0 discriminator 2
 4745 002c 3B1C     		mov	r3, r7
 4746 002e 0F33     		add	r3, r3, #15
 4747 0030 3A1C     		mov	r2, r7
 4748 0032 0F32     		add	r2, r2, #15
 4749 0034 1278     		ldrb	r2, [r2]
 4750 0036 0132     		add	r2, r2, #1
 4751 0038 1A70     		strb	r2, [r3]
 4752              	.L291:
1156:..\..\..\..\..\simplelink\source/driver.c ****     for(ShiftIdx = 0; ShiftIdx< 7; ShiftIdx++)
 4753              		.loc 1 1156 0 is_stmt 0 discriminator 1
 4754 003a 3B1C     		mov	r3, r7
 4755 003c 0F33     		add	r3, r3, #15
 4756 003e 1B78     		ldrb	r3, [r3]
 4757 0040 062B     		cmp	r3, #6
 4758 0042 E6D9     		bls	.L292
1159:..\..\..\..\..\simplelink\source/driver.c ****     }
1160:..\..\..\..\..\simplelink\source/driver.c ****     pBuf[7] = 0;
 4759              		.loc 1 1160 0 is_stmt 1
ARM GAS  C:\Users\X0217454\AppData\Local\Temp\cc7UAvFx.s 			page 106


 4760 0044 7B68     		ldr	r3, [r7, #4]
 4761 0046 0733     		add	r3, r3, #7
 4762 0048 0022     		mov	r2, #0
 4763 004a 1A70     		strb	r2, [r3]
1161:..\..\..\..\..\simplelink\source/driver.c **** }
 4764              		.loc 1 1161 0
 4765 004c BD46     		mov	sp, r7
 4766 004e 04B0     		add	sp, sp, #16
 4767              		@ sp needed for prologue
 4768 0050 80BD     		pop	{r7, pc}
 4769              		.cfi_endproc
 4770              	.LFE13:
 4771              		.size	_SlDrvShiftDWord, .-_SlDrvShiftDWord
 4772 0052 C046     		.section	.text._SlDrvRxHdrRead,"ax",%progbits
 4773              		.align	2
 4774              		.global	_SlDrvRxHdrRead
 4775              		.code	16
 4776              		.thumb_func
 4777              		.type	_SlDrvRxHdrRead, %function
 4778              	_SlDrvRxHdrRead:
 4779              	.LFB14:
1162:..\..\..\..\..\simplelink\source/driver.c **** 
1163:..\..\..\..\..\simplelink\source/driver.c **** /* ******************************************************************************/
1164:..\..\..\..\..\simplelink\source/driver.c **** /*  _SlDrvRxHdrRead  */
1165:..\..\..\..\..\simplelink\source/driver.c **** /* ******************************************************************************/
1166:..\..\..\..\..\simplelink\source/driver.c **** _SlReturnVal_t   _SlDrvRxHdrRead(UINT8 *pBuf, UINT8 *pAlignSize)
1167:..\..\..\..\..\simplelink\source/driver.c **** {
 4780              		.loc 1 1167 0
 4781              		.cfi_startproc
 4782 0000 80B5     		push	{r7, lr}
 4783              	.LCFI42:
 4784              		.cfi_def_cfa_offset 8
 4785              		.cfi_offset 7, -8
 4786              		.cfi_offset 14, -4
 4787 0002 90B0     		sub	sp, sp, #64
 4788              	.LCFI43:
 4789              		.cfi_def_cfa_offset 72
 4790 0004 00AF     		add	r7, sp, #0
 4791              	.LCFI44:
 4792              		.cfi_def_cfa_register 7
 4793 0006 7860     		str	r0, [r7, #4]
 4794 0008 3960     		str	r1, [r7]
1168:..\..\..\..\..\simplelink\source/driver.c ****     UINT32       SyncCnt  = 0;
 4795              		.loc 1 1168 0
 4796 000a 0023     		mov	r3, #0
 4797 000c FB63     		str	r3, [r7, #60]
 4798              	.LBB77:
1169:..\..\..\..\..\simplelink\source/driver.c **** 
1170:..\..\..\..\..\simplelink\source/driver.c **** #ifndef SL_IF_TYPE_UART
1171:..\..\..\..\..\simplelink\source/driver.c ****     /*  1. Write CNYS pattern to NWP when working in SPI mode only  */
1172:..\..\..\..\..\simplelink\source/driver.c ****     NWP_IF_WRITE_CHECK(g_pCB->FD, (unsigned char *)&g_H2NCnysPattern.Short, SYNC_PATTERN_LEN);
1173:..\..\..\..\..\simplelink\source/driver.c **** #endif
1174:..\..\..\..\..\simplelink\source/driver.c **** 
1175:..\..\..\..\..\simplelink\source/driver.c ****     /*  2. Read 4 bytes (protocol aligned) */
1176:..\..\..\..\..\simplelink\source/driver.c ****     NWP_IF_READ_CHECK(g_pCB->FD, &pBuf[0], 4);
 4799              		.loc 1 1176 0
 4800 000e 0423     		mov	r3, #4
ARM GAS  C:\Users\X0217454\AppData\Local\Temp\cc7UAvFx.s 			page 107


 4801 0010 BB63     		str	r3, [r7, #56]
 4802 0012 794B     		ldr	r3, .L320
 4803 0014 1B68     		ldr	r3, [r3]
 4804 0016 1B68     		ldr	r3, [r3]
 4805 0018 191C     		mov	r1, r3
 4806 001a 7A68     		ldr	r2, [r7, #4]
 4807 001c BB6B     		ldr	r3, [r7, #56]
 4808 001e 081C     		mov	r0, r1
 4809 0020 111C     		mov	r1, r2
 4810 0022 1A1C     		mov	r2, r3
 4811 0024 FFF7FEFF 		bl	uart_Read
 4812 0028 031C     		mov	r3, r0
 4813 002a 7B63     		str	r3, [r7, #52]
 4814 002c BA6B     		ldr	r2, [r7, #56]
 4815 002e 7B6B     		ldr	r3, [r7, #52]
 4816 0030 9A42     		cmp	r2, r3
 4817 0032 26D0     		beq	.L318
 4818              	.L295:
 4819              		.loc 1 1176 0 is_stmt 0 discriminator 1
 4820 0034 FEE7     		b	.L295
 4821              	.L303:
 4822              	.LBE77:
1177:..\..\..\..\..\simplelink\source/driver.c ****     _SL_DBG_SYNC_LOG(SyncCnt,pBuf);
1178:..\..\..\..\..\simplelink\source/driver.c **** 
1179:..\..\..\..\..\simplelink\source/driver.c ****     /* Wait for SYNC_PATTERN_LEN from the device */
1180:..\..\..\..\..\simplelink\source/driver.c ****     while ( ! N2H_SYNC_PATTERN_MATCH(pBuf, g_pCB->TxSeqNum) )
1181:..\..\..\..\..\simplelink\source/driver.c ****     {
1182:..\..\..\..\..\simplelink\source/driver.c ****         /*  3. Debug limit of scan */
1183:..\..\..\..\..\simplelink\source/driver.c ****         VERIFY_PROTOCOL(SyncCnt < SL_SYNC_SCAN_THRESHOLD);
 4823              		.loc 1 1183 0 is_stmt 1
 4824 0036 FA6B     		ldr	r2, [r7, #60]
 4825 0038 704B     		ldr	r3, .L320+4
 4826 003a 9A42     		cmp	r2, r3
 4827 003c 00D9     		bls	.L297
 4828              	.L298:
 4829              		.loc 1 1183 0 is_stmt 0 discriminator 1
 4830 003e FEE7     		b	.L298
 4831              	.L297:
1184:..\..\..\..\..\simplelink\source/driver.c **** 
1185:..\..\..\..\..\simplelink\source/driver.c ****         /*  4. Read next 4 bytes to Low 4 bytes of buffer */
1186:..\..\..\..\..\simplelink\source/driver.c ****         if(0 == (SyncCnt % (UINT32)SYNC_PATTERN_LEN))
 4832              		.loc 1 1186 0 is_stmt 1
 4833 0040 FA6B     		ldr	r2, [r7, #60]
 4834 0042 0323     		mov	r3, #3
 4835 0044 1340     		and	r3, r2
 4836 0046 14D1     		bne	.L299
 4837              	.LBB78:
1187:..\..\..\..\..\simplelink\source/driver.c ****         {
1188:..\..\..\..\..\simplelink\source/driver.c ****         	NWP_IF_READ_CHECK(g_pCB->FD, &pBuf[4], 4);
 4838              		.loc 1 1188 0
 4839 0048 0423     		mov	r3, #4
 4840 004a 3B63     		str	r3, [r7, #48]
 4841 004c 6A4B     		ldr	r3, .L320
 4842 004e 1B68     		ldr	r3, [r3]
 4843 0050 1B68     		ldr	r3, [r3]
 4844 0052 191C     		mov	r1, r3
 4845 0054 7B68     		ldr	r3, [r7, #4]
ARM GAS  C:\Users\X0217454\AppData\Local\Temp\cc7UAvFx.s 			page 108


 4846 0056 1A1D     		add	r2, r3, #4
 4847 0058 3B6B     		ldr	r3, [r7, #48]
 4848 005a 081C     		mov	r0, r1
 4849 005c 111C     		mov	r1, r2
 4850 005e 1A1C     		mov	r2, r3
 4851 0060 FFF7FEFF 		bl	uart_Read
 4852 0064 031C     		mov	r3, r0
 4853 0066 FB62     		str	r3, [r7, #44]
 4854 0068 3A6B     		ldr	r2, [r7, #48]
 4855 006a FB6A     		ldr	r3, [r7, #44]
 4856 006c 9A42     		cmp	r2, r3
 4857 006e 00D0     		beq	.L299
 4858              	.L300:
 4859              		.loc 1 1188 0 is_stmt 0 discriminator 1
 4860 0070 FEE7     		b	.L300
 4861              	.L299:
 4862              	.LBE78:
1189:..\..\..\..\..\simplelink\source/driver.c ****             _SL_DBG_SYNC_LOG(SyncCnt,pBuf);
1190:..\..\..\..\..\simplelink\source/driver.c ****         }
1191:..\..\..\..\..\simplelink\source/driver.c **** 
1192:..\..\..\..\..\simplelink\source/driver.c ****         /*  5. Shift Buffer Up for checking if the sync is shifted */
1193:..\..\..\..\..\simplelink\source/driver.c ****         _SlDrvShiftDWord(pBuf);
 4863              		.loc 1 1193 0 is_stmt 1
 4864 0072 7B68     		ldr	r3, [r7, #4]
 4865 0074 181C     		mov	r0, r3
 4866 0076 FFF7FEFF 		bl	_SlDrvShiftDWord
1194:..\..\..\..\..\simplelink\source/driver.c **** 
1195:..\..\..\..\..\simplelink\source/driver.c ****         SyncCnt++;
 4867              		.loc 1 1195 0
 4868 007a FB6B     		ldr	r3, [r7, #60]
 4869 007c 0133     		add	r3, r3, #1
 4870 007e FB63     		str	r3, [r7, #60]
 4871 0080 00E0     		b	.L296
 4872              	.L318:
1180:..\..\..\..\..\simplelink\source/driver.c ****     while ( ! N2H_SYNC_PATTERN_MATCH(pBuf, g_pCB->TxSeqNum) )
 4873              		.loc 1 1180 0
 4874 0082 C046     		mov	r8, r8
 4875              	.L296:
1180:..\..\..\..\..\simplelink\source/driver.c ****     while ( ! N2H_SYNC_PATTERN_MATCH(pBuf, g_pCB->TxSeqNum) )
 4876              		.loc 1 1180 0 is_stmt 0 discriminator 1
 4877 0084 7B68     		ldr	r3, [r7, #4]
 4878 0086 1A68     		ldr	r2, [r3]
 4879 0088 0423     		mov	r3, #4
 4880 008a 1340     		and	r3, r2
 4881 008c 0ED0     		beq	.L301
1180:..\..\..\..\..\simplelink\source/driver.c ****     while ( ! N2H_SYNC_PATTERN_MATCH(pBuf, g_pCB->TxSeqNum) )
 4882              		.loc 1 1180 0 discriminator 3
 4883 008e 7B68     		ldr	r3, [r7, #4]
 4884 0090 1A68     		ldr	r2, [r3]
 4885 0092 5B4B     		ldr	r3, .L320+8
 4886 0094 1A40     		and	r2, r3
 4887 0096 584B     		ldr	r3, .L320
 4888 0098 1968     		ldr	r1, [r3]
 4889 009a 9623     		mov	r3, #150
 4890 009c CB5C     		ldrb	r3, [r1, r3]
 4891 009e 191C     		mov	r1, r3
 4892 00a0 0323     		mov	r3, #3
ARM GAS  C:\Users\X0217454\AppData\Local\Temp\cc7UAvFx.s 			page 109


 4893 00a2 0B40     		and	r3, r1
 4894 00a4 5749     		ldr	r1, .L320+12
 4895 00a6 0B43     		orr	r3, r1
 4896 00a8 9A42     		cmp	r2, r3
 4897 00aa 0BD0     		beq	.L302
 4898              	.L301:
1180:..\..\..\..\..\simplelink\source/driver.c ****     while ( ! N2H_SYNC_PATTERN_MATCH(pBuf, g_pCB->TxSeqNum) )
 4899              		.loc 1 1180 0 discriminator 2
 4900 00ac 7B68     		ldr	r3, [r7, #4]
 4901 00ae 1A68     		ldr	r2, [r3]
 4902 00b0 0423     		mov	r3, #4
 4903 00b2 1340     		and	r3, r2
 4904 00b4 BFD1     		bne	.L303
1180:..\..\..\..\..\simplelink\source/driver.c ****     while ( ! N2H_SYNC_PATTERN_MATCH(pBuf, g_pCB->TxSeqNum) )
 4905              		.loc 1 1180 0 discriminator 1
 4906 00b6 7B68     		ldr	r3, [r7, #4]
 4907 00b8 1A68     		ldr	r2, [r3]
 4908 00ba 514B     		ldr	r3, .L320+8
 4909 00bc 1A40     		and	r2, r3
 4910 00be 524B     		ldr	r3, .L320+16
 4911 00c0 9A42     		cmp	r2, r3
 4912 00c2 B8D1     		bne	.L303
 4913              	.L302:
1196:..\..\..\..\..\simplelink\source/driver.c ****     }
1197:..\..\..\..\..\simplelink\source/driver.c **** 
1198:..\..\..\..\..\simplelink\source/driver.c ****     /*  5. Sync pattern found. If needed, complete number of read bytes to multiple of 4 (protocol 
1199:..\..\..\..\..\simplelink\source/driver.c ****     SyncCnt %= SYNC_PATTERN_LEN;
 4914              		.loc 1 1199 0 is_stmt 1
 4915 00c4 FA6B     		ldr	r2, [r7, #60]
 4916 00c6 0323     		mov	r3, #3
 4917 00c8 1340     		and	r3, r2
 4918 00ca FB63     		str	r3, [r7, #60]
1200:..\..\..\..\..\simplelink\source/driver.c **** 
1201:..\..\..\..\..\simplelink\source/driver.c ****     if(SyncCnt > 0)
 4919              		.loc 1 1201 0
 4920 00cc FB6B     		ldr	r3, [r7, #60]
 4921 00ce 002B     		cmp	r3, #0
 4922 00d0 1BD0     		beq	.L304
1202:..\..\..\..\..\simplelink\source/driver.c ****     {
1203:..\..\..\..\..\simplelink\source/driver.c ****         *(UINT32 *)&pBuf[0] = *(UINT32 *)&pBuf[4];
 4923              		.loc 1 1203 0
 4924 00d2 7B68     		ldr	r3, [r7, #4]
 4925 00d4 5A68     		ldr	r2, [r3, #4]
 4926 00d6 7B68     		ldr	r3, [r7, #4]
 4927 00d8 1A60     		str	r2, [r3]
 4928              	.LBB79:
1204:..\..\..\..\..\simplelink\source/driver.c ****         NWP_IF_READ_CHECK(g_pCB->FD, &pBuf[SYNC_PATTERN_LEN - SyncCnt], SyncCnt);
 4929              		.loc 1 1204 0
 4930 00da FB6B     		ldr	r3, [r7, #60]
 4931 00dc BB62     		str	r3, [r7, #40]
 4932 00de 464B     		ldr	r3, .L320
 4933 00e0 1B68     		ldr	r3, [r3]
 4934 00e2 1B68     		ldr	r3, [r3]
 4935 00e4 191C     		mov	r1, r3
 4936 00e6 FB6B     		ldr	r3, [r7, #60]
 4937 00e8 0422     		mov	r2, #4
 4938 00ea D31A     		sub	r3, r2, r3
ARM GAS  C:\Users\X0217454\AppData\Local\Temp\cc7UAvFx.s 			page 110


 4939 00ec 7A68     		ldr	r2, [r7, #4]
 4940 00ee D218     		add	r2, r2, r3
 4941 00f0 BB6A     		ldr	r3, [r7, #40]
 4942 00f2 081C     		mov	r0, r1
 4943 00f4 111C     		mov	r1, r2
 4944 00f6 1A1C     		mov	r2, r3
 4945 00f8 FFF7FEFF 		bl	uart_Read
 4946 00fc 031C     		mov	r3, r0
 4947 00fe 7B62     		str	r3, [r7, #36]
 4948 0100 BA6A     		ldr	r2, [r7, #40]
 4949 0102 7B6A     		ldr	r3, [r7, #36]
 4950 0104 9A42     		cmp	r2, r3
 4951 0106 28D0     		beq	.L319
 4952              	.L306:
 4953              		.loc 1 1204 0 is_stmt 0 discriminator 1
 4954 0108 FEE7     		b	.L306
 4955              	.L304:
 4956              	.LBE79:
 4957              	.LBB80:
1205:..\..\..\..\..\simplelink\source/driver.c ****     }
1206:..\..\..\..\..\simplelink\source/driver.c ****     else
1207:..\..\..\..\..\simplelink\source/driver.c ****     {
1208:..\..\..\..\..\simplelink\source/driver.c ****     	NWP_IF_READ_CHECK(g_pCB->FD, &pBuf[0], 4);
 4958              		.loc 1 1208 0 is_stmt 1
 4959 010a 0423     		mov	r3, #4
 4960 010c 3B62     		str	r3, [r7, #32]
 4961 010e 3A4B     		ldr	r3, .L320
 4962 0110 1B68     		ldr	r3, [r3]
 4963 0112 1B68     		ldr	r3, [r3]
 4964 0114 191C     		mov	r1, r3
 4965 0116 7A68     		ldr	r2, [r7, #4]
 4966 0118 3B6A     		ldr	r3, [r7, #32]
 4967 011a 081C     		mov	r0, r1
 4968 011c 111C     		mov	r1, r2
 4969 011e 1A1C     		mov	r2, r3
 4970 0120 FFF7FEFF 		bl	uart_Read
 4971 0124 031C     		mov	r3, r0
 4972 0126 FB61     		str	r3, [r7, #28]
 4973 0128 3A6A     		ldr	r2, [r7, #32]
 4974 012a FB69     		ldr	r3, [r7, #28]
 4975 012c 9A42     		cmp	r2, r3
 4976 012e 14D0     		beq	.L319
 4977              	.L307:
 4978              		.loc 1 1208 0 is_stmt 0 discriminator 1
 4979 0130 FEE7     		b	.L307
 4980              	.L311:
 4981              	.LBE80:
 4982              	.LBB81:
1209:..\..\..\..\..\simplelink\source/driver.c ****     }
1210:..\..\..\..\..\simplelink\source/driver.c **** 
1211:..\..\..\..\..\simplelink\source/driver.c ****     /*  6. Scan for Double pattern. */
1212:..\..\..\..\..\simplelink\source/driver.c ****     while ( N2H_SYNC_PATTERN_MATCH(pBuf, g_pCB->TxSeqNum) )
1213:..\..\..\..\..\simplelink\source/driver.c ****     {
1214:..\..\..\..\..\simplelink\source/driver.c ****         _SL_DBG_CNT_INC(Work.DoubleSyncPattern);
1215:..\..\..\..\..\simplelink\source/driver.c ****         NWP_IF_READ_CHECK(g_pCB->FD, &pBuf[0], SYNC_PATTERN_LEN);
 4983              		.loc 1 1215 0 is_stmt 1
 4984 0132 0423     		mov	r3, #4
ARM GAS  C:\Users\X0217454\AppData\Local\Temp\cc7UAvFx.s 			page 111


 4985 0134 3B61     		str	r3, [r7, #16]
 4986 0136 304B     		ldr	r3, .L320
 4987 0138 1B68     		ldr	r3, [r3]
 4988 013a 1B68     		ldr	r3, [r3]
 4989 013c 191C     		mov	r1, r3
 4990 013e 7A68     		ldr	r2, [r7, #4]
 4991 0140 3B69     		ldr	r3, [r7, #16]
 4992 0142 081C     		mov	r0, r1
 4993 0144 111C     		mov	r1, r2
 4994 0146 1A1C     		mov	r2, r3
 4995 0148 FFF7FEFF 		bl	uart_Read
 4996 014c 031C     		mov	r3, r0
 4997 014e FB60     		str	r3, [r7, #12]
 4998 0150 3A69     		ldr	r2, [r7, #16]
 4999 0152 FB68     		ldr	r3, [r7, #12]
 5000 0154 9A42     		cmp	r2, r3
 5001 0156 01D0     		beq	.L308
 5002              	.L309:
 5003              		.loc 1 1215 0 is_stmt 0 discriminator 1
 5004 0158 FEE7     		b	.L309
 5005              	.L319:
 5006              	.LBE81:
1212:..\..\..\..\..\simplelink\source/driver.c ****     while ( N2H_SYNC_PATTERN_MATCH(pBuf, g_pCB->TxSeqNum) )
 5007              		.loc 1 1212 0 is_stmt 1
 5008 015a C046     		mov	r8, r8
 5009              	.L308:
1212:..\..\..\..\..\simplelink\source/driver.c ****     while ( N2H_SYNC_PATTERN_MATCH(pBuf, g_pCB->TxSeqNum) )
 5010              		.loc 1 1212 0 is_stmt 0 discriminator 1
 5011 015c 7B68     		ldr	r3, [r7, #4]
 5012 015e 1A68     		ldr	r2, [r3]
 5013 0160 0423     		mov	r3, #4
 5014 0162 1340     		and	r3, r2
 5015 0164 0ED0     		beq	.L310
1212:..\..\..\..\..\simplelink\source/driver.c ****     while ( N2H_SYNC_PATTERN_MATCH(pBuf, g_pCB->TxSeqNum) )
 5016              		.loc 1 1212 0 discriminator 2
 5017 0166 7B68     		ldr	r3, [r7, #4]
 5018 0168 1A68     		ldr	r2, [r3]
 5019 016a 254B     		ldr	r3, .L320+8
 5020 016c 1A40     		and	r2, r3
 5021 016e 224B     		ldr	r3, .L320
 5022 0170 1968     		ldr	r1, [r3]
 5023 0172 9623     		mov	r3, #150
 5024 0174 CB5C     		ldrb	r3, [r1, r3]
 5025 0176 191C     		mov	r1, r3
 5026 0178 0323     		mov	r3, #3
 5027 017a 0B40     		and	r3, r1
 5028 017c 2149     		ldr	r1, .L320+12
 5029 017e 0B43     		orr	r3, r1
 5030 0180 9A42     		cmp	r2, r3
 5031 0182 D6D0     		beq	.L311
 5032              	.L310:
1212:..\..\..\..\..\simplelink\source/driver.c ****     while ( N2H_SYNC_PATTERN_MATCH(pBuf, g_pCB->TxSeqNum) )
 5033              		.loc 1 1212 0 discriminator 3
 5034 0184 7B68     		ldr	r3, [r7, #4]
 5035 0186 1A68     		ldr	r2, [r3]
 5036 0188 0423     		mov	r3, #4
 5037 018a 1340     		and	r3, r2
ARM GAS  C:\Users\X0217454\AppData\Local\Temp\cc7UAvFx.s 			page 112


 5038 018c 06D1     		bne	.L312
1212:..\..\..\..\..\simplelink\source/driver.c ****     while ( N2H_SYNC_PATTERN_MATCH(pBuf, g_pCB->TxSeqNum) )
 5039              		.loc 1 1212 0 discriminator 1
 5040 018e 7B68     		ldr	r3, [r7, #4]
 5041 0190 1A68     		ldr	r2, [r3]
 5042 0192 1B4B     		ldr	r3, .L320+8
 5043 0194 1A40     		and	r2, r3
 5044 0196 1C4B     		ldr	r3, .L320+16
 5045 0198 9A42     		cmp	r2, r3
 5046 019a CAD0     		beq	.L311
 5047              	.L312:
1216:..\..\..\..\..\simplelink\source/driver.c ****     }
1217:..\..\..\..\..\simplelink\source/driver.c ****     g_pCB->TxSeqNum++;
 5048              		.loc 1 1217 0 is_stmt 1
 5049 019c 164B     		ldr	r3, .L320
 5050 019e 1B68     		ldr	r3, [r3]
 5051 01a0 9622     		mov	r2, #150
 5052 01a2 9A5C     		ldrb	r2, [r3, r2]
 5053 01a4 0132     		add	r2, r2, #1
 5054 01a6 D1B2     		uxtb	r1, r2
 5055 01a8 9622     		mov	r2, #150
 5056 01aa 9954     		strb	r1, [r3, r2]
 5057              	.LBB82:
1218:..\..\..\..\..\simplelink\source/driver.c **** 
1219:..\..\..\..\..\simplelink\source/driver.c ****     /*  7. Here we've read Generic Header (4 bytes). Read the Resp Specific header (4 more bytes). 
1220:..\..\..\..\..\simplelink\source/driver.c ****     NWP_IF_READ_CHECK(g_pCB->FD, &pBuf[SYNC_PATTERN_LEN], _SL_RESP_SPEC_HDR_SIZE);
 5058              		.loc 1 1220 0
 5059 01ac 0423     		mov	r3, #4
 5060 01ae BB61     		str	r3, [r7, #24]
 5061 01b0 114B     		ldr	r3, .L320
 5062 01b2 1B68     		ldr	r3, [r3]
 5063 01b4 1B68     		ldr	r3, [r3]
 5064 01b6 191C     		mov	r1, r3
 5065 01b8 7B68     		ldr	r3, [r7, #4]
 5066 01ba 1A1D     		add	r2, r3, #4
 5067 01bc BB69     		ldr	r3, [r7, #24]
 5068 01be 081C     		mov	r0, r1
 5069 01c0 111C     		mov	r1, r2
 5070 01c2 1A1C     		mov	r2, r3
 5071 01c4 FFF7FEFF 		bl	uart_Read
 5072 01c8 031C     		mov	r3, r0
 5073 01ca 7B61     		str	r3, [r7, #20]
 5074 01cc BA69     		ldr	r2, [r7, #24]
 5075 01ce 7B69     		ldr	r3, [r7, #20]
 5076 01d0 9A42     		cmp	r2, r3
 5077 01d2 00D0     		beq	.L313
 5078              	.L314:
 5079              		.loc 1 1220 0 is_stmt 0 discriminator 1
 5080 01d4 FEE7     		b	.L314
 5081              	.L313:
 5082              	.LBE82:
1221:..\..\..\..\..\simplelink\source/driver.c **** 
1222:..\..\..\..\..\simplelink\source/driver.c ****     /*  8. Here we've read the enire Resp Header. */
1223:..\..\..\..\..\simplelink\source/driver.c ****     /*     Return number bytes needed to be sent after read for NWP Rx 4-byte alignment (protocol a
1224:..\..\..\..\..\simplelink\source/driver.c ****     *pAlignSize = (SyncCnt > 0) ? (SYNC_PATTERN_LEN - SyncCnt) : 0;
 5083              		.loc 1 1224 0 is_stmt 1
 5084 01d6 FB6B     		ldr	r3, [r7, #60]
ARM GAS  C:\Users\X0217454\AppData\Local\Temp\cc7UAvFx.s 			page 113


 5085 01d8 002B     		cmp	r3, #0
 5086 01da 05D0     		beq	.L315
 5087              		.loc 1 1224 0 is_stmt 0 discriminator 1
 5088 01dc FB6B     		ldr	r3, [r7, #60]
 5089 01de DBB2     		uxtb	r3, r3
 5090 01e0 0422     		mov	r2, #4
 5091 01e2 D31A     		sub	r3, r2, r3
 5092 01e4 DBB2     		uxtb	r3, r3
 5093 01e6 00E0     		b	.L316
 5094              	.L315:
 5095              		.loc 1 1224 0 discriminator 2
 5096 01e8 0023     		mov	r3, #0
 5097              	.L316:
 5098              		.loc 1 1224 0 discriminator 3
 5099 01ea 3A68     		ldr	r2, [r7]
 5100 01ec 1370     		strb	r3, [r2]
1225:..\..\..\..\..\simplelink\source/driver.c **** 
1226:..\..\..\..\..\simplelink\source/driver.c ****     return SL_RET_CODE_OK;
 5101              		.loc 1 1226 0 is_stmt 1 discriminator 3
 5102 01ee 0023     		mov	r3, #0
1227:..\..\..\..\..\simplelink\source/driver.c **** }
 5103              		.loc 1 1227 0 discriminator 3
 5104 01f0 181C     		mov	r0, r3
 5105 01f2 BD46     		mov	sp, r7
 5106 01f4 10B0     		add	sp, sp, #64
 5107              		@ sp needed for prologue
 5108 01f6 80BD     		pop	{r7, pc}
 5109              	.L321:
 5110              		.align	2
 5111              	.L320:
 5112 01f8 00000000 		.word	g_pCB
 5113 01fc CF070000 		.word	1999
 5114 0200 7F7FFF7F 		.word	2147450751
 5115 0204 3C5CCD2B 		.word	734878780
 5116 0208 3A5CCD2B 		.word	734878778
 5117              		.cfi_endproc
 5118              	.LFE14:
 5119              		.size	_SlDrvRxHdrRead, .-_SlDrvRxHdrRead
 5120              		.section	.text._SlDrvBasicCmd,"ax",%progbits
 5121              		.align	2
 5122              		.global	_SlDrvBasicCmd
 5123              		.code	16
 5124              		.thumb_func
 5125              		.type	_SlDrvBasicCmd, %function
 5126              	_SlDrvBasicCmd:
 5127              	.LFB15:
1228:..\..\..\..\..\simplelink\source/driver.c **** 
1229:..\..\..\..\..\simplelink\source/driver.c **** /* ***************************************************************************** */
1230:..\..\..\..\..\simplelink\source/driver.c **** /*  */
1231:..\..\..\..\..\simplelink\source/driver.c **** /* ***************************************************************************** */
1232:..\..\..\..\..\simplelink\source/driver.c **** typedef union
1233:..\..\..\..\..\simplelink\source/driver.c **** {
1234:..\..\..\..\..\simplelink\source/driver.c **** 	_BasicResponse_t	Rsp;
1235:..\..\..\..\..\simplelink\source/driver.c **** }_SlBasicCmdMsg_u;
1236:..\..\..\..\..\simplelink\source/driver.c **** 
1237:..\..\..\..\..\simplelink\source/driver.c **** int _SlDrvBasicCmd(_SlOpcode_t Opcode)
1238:..\..\..\..\..\simplelink\source/driver.c **** {
ARM GAS  C:\Users\X0217454\AppData\Local\Temp\cc7UAvFx.s 			page 114


 5128              		.loc 1 1238 0
 5129              		.cfi_startproc
 5130 0000 80B5     		push	{r7, lr}
 5131              	.LCFI45:
 5132              		.cfi_def_cfa_offset 8
 5133              		.cfi_offset 7, -8
 5134              		.cfi_offset 14, -4
 5135 0002 86B0     		sub	sp, sp, #24
 5136              	.LCFI46:
 5137              		.cfi_def_cfa_offset 32
 5138 0004 00AF     		add	r7, sp, #0
 5139              	.LCFI47:
 5140              		.cfi_def_cfa_register 7
 5141 0006 021C     		mov	r2, r0
 5142 0008 BB1D     		add	r3, r7, #6
 5143 000a 1A80     		strh	r2, [r3]
1239:..\..\..\..\..\simplelink\source/driver.c ****     _SlBasicCmdMsg_u       Msg = {0};
 5144              		.loc 1 1239 0
 5145 000c 3B1C     		mov	r3, r7
 5146 000e 1033     		add	r3, r3, #16
 5147 0010 0022     		mov	r2, #0
 5148 0012 1A60     		str	r2, [r3]
1240:..\..\..\..\..\simplelink\source/driver.c ****     _SlCmdCtrl_t           CmdCtrl;
1241:..\..\..\..\..\simplelink\source/driver.c ****     
1242:..\..\..\..\..\simplelink\source/driver.c ****     CmdCtrl.Opcode = Opcode;
 5149              		.loc 1 1242 0
 5150 0014 3B1C     		mov	r3, r7
 5151 0016 0C33     		add	r3, r3, #12
 5152 0018 BA1D     		add	r2, r7, #6
 5153 001a 1288     		ldrh	r2, [r2]
 5154 001c 1A80     		strh	r2, [r3]
1243:..\..\..\..\..\simplelink\source/driver.c ****     CmdCtrl.TxDescLen = 0;
 5155              		.loc 1 1243 0
 5156 001e 3B1C     		mov	r3, r7
 5157 0020 0C33     		add	r3, r3, #12
 5158 0022 0022     		mov	r2, #0
 5159 0024 9A70     		strb	r2, [r3, #2]
1244:..\..\..\..\..\simplelink\source/driver.c ****     CmdCtrl.RxDescLen = sizeof(_BasicResponse_t);
 5160              		.loc 1 1244 0
 5161 0026 3B1C     		mov	r3, r7
 5162 0028 0C33     		add	r3, r3, #12
 5163 002a 0422     		mov	r2, #4
 5164 002c DA70     		strb	r2, [r3, #3]
 5165              	.LBB83:
1245:..\..\..\..\..\simplelink\source/driver.c **** 
1246:..\..\..\..\..\simplelink\source/driver.c ****   
1247:..\..\..\..\..\simplelink\source/driver.c ****     VERIFY_RET_OK(_SlDrvCmdOp((_SlCmdCtrl_t *)&CmdCtrl, &Msg, NULL));
 5166              		.loc 1 1247 0
 5167 002e 3A1C     		mov	r2, r7
 5168 0030 0C32     		add	r2, r2, #12
 5169 0032 3B1C     		mov	r3, r7
 5170 0034 1033     		add	r3, r3, #16
 5171 0036 101C     		mov	r0, r2
 5172 0038 191C     		mov	r1, r3
 5173 003a 0022     		mov	r2, #0
 5174 003c FFF7FEFF 		bl	_SlDrvCmdOp
 5175 0040 031C     		mov	r3, r0
ARM GAS  C:\Users\X0217454\AppData\Local\Temp\cc7UAvFx.s 			page 115


 5176 0042 7B61     		str	r3, [r7, #20]
 5177 0044 7B69     		ldr	r3, [r7, #20]
 5178 0046 002B     		cmp	r3, #0
 5179 0048 00D0     		beq	.L323
 5180              	.L324:
 5181              		.loc 1 1247 0 is_stmt 0 discriminator 1
 5182 004a FEE7     		b	.L324
 5183              	.L323:
 5184              	.LBE83:
1248:..\..\..\..\..\simplelink\source/driver.c **** 
1249:..\..\..\..\..\simplelink\source/driver.c ****     return (int)Msg.Rsp.status;
 5185              		.loc 1 1249 0 is_stmt 1
 5186 004c 3B1C     		mov	r3, r7
 5187 004e 1033     		add	r3, r3, #16
 5188 0050 1B88     		ldrh	r3, [r3]
 5189 0052 1BB2     		sxth	r3, r3
1250:..\..\..\..\..\simplelink\source/driver.c **** }
 5190              		.loc 1 1250 0
 5191 0054 181C     		mov	r0, r3
 5192 0056 BD46     		mov	sp, r7
 5193 0058 06B0     		add	sp, sp, #24
 5194              		@ sp needed for prologue
 5195 005a 80BD     		pop	{r7, pc}
 5196              		.cfi_endproc
 5197              	.LFE15:
 5198              		.size	_SlDrvBasicCmd, .-_SlDrvBasicCmd
 5199              		.section	.text._SlDrvWaitForPoolObj,"ax",%progbits
 5200              		.align	2
 5201              		.global	_SlDrvWaitForPoolObj
 5202              		.code	16
 5203              		.thumb_func
 5204              		.type	_SlDrvWaitForPoolObj, %function
 5205              	_SlDrvWaitForPoolObj:
 5206              	.LFB16:
1251:..\..\..\..\..\simplelink\source/driver.c **** 
1252:..\..\..\..\..\simplelink\source/driver.c **** /* ***************************************************************************** */
1253:..\..\..\..\..\simplelink\source/driver.c **** /*  */
1254:..\..\..\..\..\simplelink\source/driver.c **** /* ***************************************************************************** */
1255:..\..\..\..\..\simplelink\source/driver.c **** int _SlDrvWaitForPoolObj(UINT32 ActionID, UINT8 SocketID)
1256:..\..\..\..\..\simplelink\source/driver.c **** {
 5207              		.loc 1 1256 0
 5208              		.cfi_startproc
 5209 0000 90B5     		push	{r4, r7, lr}
 5210              	.LCFI48:
 5211              		.cfi_def_cfa_offset 12
 5212              		.cfi_offset 4, -12
 5213              		.cfi_offset 7, -8
 5214              		.cfi_offset 14, -4
 5215 0002 8BB0     		sub	sp, sp, #44
 5216              	.LCFI49:
 5217              		.cfi_def_cfa_offset 56
 5218 0004 00AF     		add	r7, sp, #0
 5219              	.LCFI50:
 5220              		.cfi_def_cfa_register 7
 5221 0006 7860     		str	r0, [r7, #4]
 5222 0008 0A1C     		mov	r2, r1
 5223 000a FB1C     		add	r3, r7, #3
ARM GAS  C:\Users\X0217454\AppData\Local\Temp\cc7UAvFx.s 			page 116


 5224 000c 1A70     		strb	r2, [r3]
1257:..\..\..\..\..\simplelink\source/driver.c **** 	UINT8 CurrObjIndex = MAX_CONCURRENT_ACTIONS;
 5225              		.loc 1 1257 0
 5226 000e 3B1C     		mov	r3, r7
 5227 0010 2733     		add	r3, r3, #39
 5228 0012 0A22     		mov	r2, #10
 5229 0014 1A70     		strb	r2, [r3]
 5230              	.LBB84:
1258:..\..\..\..\..\simplelink\source/driver.c **** 
1259:..\..\..\..\..\simplelink\source/driver.c **** 	OSI_RET_OK_CHECK(sl_LockObjLock(&g_pCB->ProtectionLockObj, SL_OS_WAIT_FOREVER));
 5231              		.loc 1 1259 0
 5232 0016 994B     		ldr	r3, .L349
 5233 0018 1B68     		ldr	r3, [r3]
 5234 001a 9033     		add	r3, r3, #144
 5235 001c 181C     		mov	r0, r3
 5236 001e 3321     		mov	r1, #51
 5237 0020 4422     		mov	r2, #68
 5238 0022 FF23     		mov	r3, #255
 5239 0024 FFF7FEFF 		bl	_SlNonOsSemGet
 5240 0028 031C     		mov	r3, r0
 5241 002a 3B62     		str	r3, [r7, #32]
 5242 002c 3B6A     		ldr	r3, [r7, #32]
 5243 002e 002B     		cmp	r3, #0
 5244 0030 00D0     		beq	.L327
 5245              	.L328:
 5246              		.loc 1 1259 0 is_stmt 0 discriminator 1
 5247 0032 FEE7     		b	.L328
 5248              	.L327:
 5249              	.LBE84:
1260:..\..\..\..\..\simplelink\source/driver.c **** 
1261:..\..\..\..\..\simplelink\source/driver.c **** 	/* Get free object  */
1262:..\..\..\..\..\simplelink\source/driver.c **** 	if (MAX_CONCURRENT_ACTIONS > g_pCB->FreePoolIdx)
 5250              		.loc 1 1262 0 is_stmt 1
 5251 0034 914B     		ldr	r3, .L349
 5252 0036 1A68     		ldr	r2, [r3]
 5253 0038 8823     		mov	r3, #136
 5254 003a D35C     		ldrb	r3, [r2, r3]
 5255 003c 092B     		cmp	r3, #9
 5256 003e 2DD8     		bhi	.L329
1263:..\..\..\..\..\simplelink\source/driver.c **** 	{
1264:..\..\..\..\..\simplelink\source/driver.c **** 		/* save the current obj index */
1265:..\..\..\..\..\simplelink\source/driver.c **** 		CurrObjIndex = g_pCB->FreePoolIdx;
 5257              		.loc 1 1265 0
 5258 0040 8E4B     		ldr	r3, .L349
 5259 0042 1968     		ldr	r1, [r3]
 5260 0044 3B1C     		mov	r3, r7
 5261 0046 2733     		add	r3, r3, #39
 5262 0048 8822     		mov	r2, #136
 5263 004a 8A5C     		ldrb	r2, [r1, r2]
 5264 004c 1A70     		strb	r2, [r3]
1266:..\..\..\..\..\simplelink\source/driver.c **** 		/* set the new free index */
1267:..\..\..\..\..\simplelink\source/driver.c **** 		if (MAX_CONCURRENT_ACTIONS > g_pCB->ObjPool[CurrObjIndex].NextIndex)
 5265              		.loc 1 1267 0
 5266 004e 8B4B     		ldr	r3, .L349
 5267 0050 1868     		ldr	r0, [r3]
 5268 0052 3B1C     		mov	r3, r7
 5269 0054 2733     		add	r3, r3, #39
ARM GAS  C:\Users\X0217454\AppData\Local\Temp\cc7UAvFx.s 			page 117


 5270 0056 1A78     		ldrb	r2, [r3]
 5271 0058 1821     		mov	r1, #24
 5272 005a 131C     		mov	r3, r2
 5273 005c 5B00     		lsl	r3, r3, #1
 5274 005e 9B18     		add	r3, r3, r2
 5275 0060 9B00     		lsl	r3, r3, #2
 5276 0062 C318     		add	r3, r0, r3
 5277 0064 5B18     		add	r3, r3, r1
 5278 0066 9B78     		ldrb	r3, [r3, #2]
 5279 0068 092B     		cmp	r3, #9
 5280 006a 11D8     		bhi	.L330
1268:..\..\..\..\..\simplelink\source/driver.c **** 		{
1269:..\..\..\..\..\simplelink\source/driver.c **** 			g_pCB->FreePoolIdx = g_pCB->ObjPool[CurrObjIndex].NextIndex;
 5281              		.loc 1 1269 0
 5282 006c 834B     		ldr	r3, .L349
 5283 006e 1968     		ldr	r1, [r3]
 5284 0070 824B     		ldr	r3, .L349
 5285 0072 1C68     		ldr	r4, [r3]
 5286 0074 3B1C     		mov	r3, r7
 5287 0076 2733     		add	r3, r3, #39
 5288 0078 1A78     		ldrb	r2, [r3]
 5289 007a 1820     		mov	r0, #24
 5290 007c 131C     		mov	r3, r2
 5291 007e 5B00     		lsl	r3, r3, #1
 5292 0080 9B18     		add	r3, r3, r2
 5293 0082 9B00     		lsl	r3, r3, #2
 5294 0084 E318     		add	r3, r4, r3
 5295 0086 1B18     		add	r3, r3, r0
 5296 0088 9A78     		ldrb	r2, [r3, #2]
 5297 008a 8823     		mov	r3, #136
 5298 008c CA54     		strb	r2, [r1, r3]
 5299 008e 16E0     		b	.L331
 5300              	.L330:
1270:..\..\..\..\..\simplelink\source/driver.c **** 		}
1271:..\..\..\..\..\simplelink\source/driver.c **** 		else
1272:..\..\..\..\..\simplelink\source/driver.c **** 		{
1273:..\..\..\..\..\simplelink\source/driver.c **** 			/* No further free actions available */
1274:..\..\..\..\..\simplelink\source/driver.c **** 			g_pCB->FreePoolIdx = MAX_CONCURRENT_ACTIONS;
 5301              		.loc 1 1274 0
 5302 0090 7A4B     		ldr	r3, .L349
 5303 0092 1A68     		ldr	r2, [r3]
 5304 0094 8823     		mov	r3, #136
 5305 0096 0A21     		mov	r1, #10
 5306 0098 D154     		strb	r1, [r2, r3]
 5307 009a 10E0     		b	.L331
 5308              	.L329:
 5309              	.LBB85:
1275:..\..\..\..\..\simplelink\source/driver.c **** 		}
1276:..\..\..\..\..\simplelink\source/driver.c **** 	}
1277:..\..\..\..\..\simplelink\source/driver.c **** 	else
1278:..\..\..\..\..\simplelink\source/driver.c **** 	{
1279:..\..\..\..\..\simplelink\source/driver.c **** 		OSI_RET_OK_CHECK(sl_LockObjUnlock(&g_pCB->ProtectionLockObj));
 5310              		.loc 1 1279 0
 5311 009c 774B     		ldr	r3, .L349
 5312 009e 1B68     		ldr	r3, [r3]
 5313 00a0 9033     		add	r3, r3, #144
 5314 00a2 181C     		mov	r0, r3
ARM GAS  C:\Users\X0217454\AppData\Local\Temp\cc7UAvFx.s 			page 118


 5315 00a4 3321     		mov	r1, #51
 5316 00a6 FFF7FEFF 		bl	_SlNonOsSemSet
 5317 00aa 031C     		mov	r3, r0
 5318 00ac FB60     		str	r3, [r7, #12]
 5319 00ae FB68     		ldr	r3, [r7, #12]
 5320 00b0 002B     		cmp	r3, #0
 5321 00b2 00D0     		beq	.L332
 5322              	.L333:
 5323              		.loc 1 1279 0 is_stmt 0 discriminator 1
 5324 00b4 FEE7     		b	.L333
 5325              	.L332:
 5326              	.LBE85:
1280:..\..\..\..\..\simplelink\source/driver.c **** 		return CurrObjIndex;
 5327              		.loc 1 1280 0 is_stmt 1
 5328 00b6 3B1C     		mov	r3, r7
 5329 00b8 2733     		add	r3, r3, #39
 5330 00ba 1B78     		ldrb	r3, [r3]
 5331 00bc D9E0     		b	.L334
 5332              	.L331:
1281:..\..\..\..\..\simplelink\source/driver.c **** 	}
1282:..\..\..\..\..\simplelink\source/driver.c **** 	g_pCB->ObjPool[CurrObjIndex].ActionID = ActionID;
 5333              		.loc 1 1282 0
 5334 00be 6F4B     		ldr	r3, .L349
 5335 00c0 1C68     		ldr	r4, [r3]
 5336 00c2 3B1C     		mov	r3, r7
 5337 00c4 2733     		add	r3, r3, #39
 5338 00c6 1A78     		ldrb	r2, [r3]
 5339 00c8 7B68     		ldr	r3, [r7, #4]
 5340 00ca D9B2     		uxtb	r1, r3
 5341 00cc 1820     		mov	r0, #24
 5342 00ce 131C     		mov	r3, r2
 5343 00d0 5B00     		lsl	r3, r3, #1
 5344 00d2 9B18     		add	r3, r3, r2
 5345 00d4 9B00     		lsl	r3, r3, #2
 5346 00d6 E318     		add	r3, r4, r3
 5347 00d8 1B18     		add	r3, r3, r0
 5348 00da 0A1C     		add	r2, r1, #0
 5349 00dc 1A70     		strb	r2, [r3]
1283:..\..\..\..\..\simplelink\source/driver.c **** 	if (SL_MAX_SOCKETS > SocketID)
 5350              		.loc 1 1283 0
 5351 00de FB1C     		add	r3, r7, #3
 5352 00e0 1B78     		ldrb	r3, [r3]
 5353 00e2 072B     		cmp	r3, #7
 5354 00e4 5BD8     		bhi	.L336
1284:..\..\..\..\..\simplelink\source/driver.c **** 	{
1285:..\..\..\..\..\simplelink\source/driver.c **** 		g_pCB->ObjPool[CurrObjIndex].AdditionalData = SocketID;
 5355              		.loc 1 1285 0
 5356 00e6 654B     		ldr	r3, .L349
 5357 00e8 1868     		ldr	r0, [r3]
 5358 00ea 3B1C     		mov	r3, r7
 5359 00ec 2733     		add	r3, r3, #39
 5360 00ee 1A78     		ldrb	r2, [r3]
 5361 00f0 1821     		mov	r1, #24
 5362 00f2 131C     		mov	r3, r2
 5363 00f4 5B00     		lsl	r3, r3, #1
 5364 00f6 9B18     		add	r3, r3, r2
 5365 00f8 9B00     		lsl	r3, r3, #2
ARM GAS  C:\Users\X0217454\AppData\Local\Temp\cc7UAvFx.s 			page 119


 5366 00fa C318     		add	r3, r0, r3
 5367 00fc 5B18     		add	r3, r3, r1
 5368 00fe FA1C     		add	r2, r7, #3
 5369 0100 1278     		ldrb	r2, [r2]
 5370 0102 5A70     		strb	r2, [r3, #1]
1286:..\..\..\..\..\simplelink\source/driver.c **** 	}
1287:..\..\..\..\..\simplelink\source/driver.c **** 	/*In case this action is socket related, SocketID bit will be on
1288:..\..\..\..\..\simplelink\source/driver.c **** 	  In case SocketID is set to SL_MAX_SOCKETS, the socket is not relevent to the action. In that cas
1289:..\..\..\..\..\simplelink\source/driver.c **** 	while ( ( (SL_MAX_SOCKETS > SocketID) && (g_pCB->ActiveActionsBitmap & (1<<SocketID)) ) || ( (g_pC
 5371              		.loc 1 1289 0
 5372 0104 4BE0     		b	.L336
 5373              	.L343:
1290:..\..\..\..\..\simplelink\source/driver.c **** 	{
1291:..\..\..\..\..\simplelink\source/driver.c **** 		//action in progress - move to pending list 
1292:..\..\..\..\..\simplelink\source/driver.c **** 		g_pCB->ObjPool[CurrObjIndex].NextIndex = g_pCB->PendingPoolIdx;
 5374              		.loc 1 1292 0
 5375 0106 5D4B     		ldr	r3, .L349
 5376 0108 1C68     		ldr	r4, [r3]
 5377 010a 3B1C     		mov	r3, r7
 5378 010c 2733     		add	r3, r3, #39
 5379 010e 1A78     		ldrb	r2, [r3]
 5380 0110 5A4B     		ldr	r3, .L349
 5381 0112 1968     		ldr	r1, [r3]
 5382 0114 8923     		mov	r3, #137
 5383 0116 C95C     		ldrb	r1, [r1, r3]
 5384 0118 1820     		mov	r0, #24
 5385 011a 131C     		mov	r3, r2
 5386 011c 5B00     		lsl	r3, r3, #1
 5387 011e 9B18     		add	r3, r3, r2
 5388 0120 9B00     		lsl	r3, r3, #2
 5389 0122 E318     		add	r3, r4, r3
 5390 0124 1B18     		add	r3, r3, r0
 5391 0126 0A1C     		add	r2, r1, #0
 5392 0128 9A70     		strb	r2, [r3, #2]
1293:..\..\..\..\..\simplelink\source/driver.c **** 		g_pCB->PendingPoolIdx = CurrObjIndex;
 5393              		.loc 1 1293 0
 5394 012a 544B     		ldr	r3, .L349
 5395 012c 1A68     		ldr	r2, [r3]
 5396 012e 391C     		mov	r1, r7
 5397 0130 2731     		add	r1, r1, #39
 5398 0132 8923     		mov	r3, #137
 5399 0134 0978     		ldrb	r1, [r1]
 5400 0136 D154     		strb	r1, [r2, r3]
 5401              	.LBB86:
1294:..\..\..\..\..\simplelink\source/driver.c **** 		OSI_RET_OK_CHECK(sl_LockObjUnlock(&g_pCB->ProtectionLockObj));
 5402              		.loc 1 1294 0
 5403 0138 504B     		ldr	r3, .L349
 5404 013a 1B68     		ldr	r3, [r3]
 5405 013c 9033     		add	r3, r3, #144
 5406 013e 181C     		mov	r0, r3
 5407 0140 3321     		mov	r1, #51
 5408 0142 FFF7FEFF 		bl	_SlNonOsSemSet
 5409 0146 031C     		mov	r3, r0
 5410 0148 BB61     		str	r3, [r7, #24]
 5411 014a BB69     		ldr	r3, [r7, #24]
 5412 014c 002B     		cmp	r3, #0
 5413 014e 00D0     		beq	.L337
ARM GAS  C:\Users\X0217454\AppData\Local\Temp\cc7UAvFx.s 			page 120


 5414              	.L338:
 5415              		.loc 1 1294 0 is_stmt 0 discriminator 1
 5416 0150 FEE7     		b	.L338
 5417              	.L337:
 5418              	.LBE86:
 5419              	.LBB87:
1295:..\..\..\..\..\simplelink\source/driver.c **** 		//wait for action to be free
1296:..\..\..\..\..\simplelink\source/driver.c **** 		OSI_RET_OK_CHECK(sl_SyncObjWait(&g_pCB->ObjPool[CurrObjIndex].SyncObj, SL_OS_WAIT_FOREVER));
 5420              		.loc 1 1296 0 is_stmt 1
 5421 0152 4A4B     		ldr	r3, .L349
 5422 0154 1968     		ldr	r1, [r3]
 5423 0156 3B1C     		mov	r3, r7
 5424 0158 2733     		add	r3, r3, #39
 5425 015a 1A78     		ldrb	r2, [r3]
 5426 015c 131C     		mov	r3, r2
 5427 015e 5B00     		lsl	r3, r3, #1
 5428 0160 9B18     		add	r3, r3, r2
 5429 0162 9B00     		lsl	r3, r3, #2
 5430 0164 1033     		add	r3, r3, #16
 5431 0166 CB18     		add	r3, r1, r3
 5432 0168 181C     		mov	r0, r3
 5433 016a 2221     		mov	r1, #34
 5434 016c 1122     		mov	r2, #17
 5435 016e FF23     		mov	r3, #255
 5436 0170 FFF7FEFF 		bl	_SlNonOsSemGet
 5437 0174 031C     		mov	r3, r0
 5438 0176 7B61     		str	r3, [r7, #20]
 5439 0178 7B69     		ldr	r3, [r7, #20]
 5440 017a 002B     		cmp	r3, #0
 5441 017c 00D0     		beq	.L339
 5442              	.L340:
 5443              		.loc 1 1296 0 is_stmt 0 discriminator 1
 5444 017e FEE7     		b	.L340
 5445              	.L339:
 5446              	.LBE87:
 5447              	.LBB88:
1297:..\..\..\..\..\simplelink\source/driver.c **** 		//set params and move to active (remove from pending list at _SlDrvReleasePoolObj)
1298:..\..\..\..\..\simplelink\source/driver.c **** 		OSI_RET_OK_CHECK(sl_LockObjLock(&g_pCB->ProtectionLockObj, SL_OS_WAIT_FOREVER));
 5448              		.loc 1 1298 0 is_stmt 1
 5449 0180 3E4B     		ldr	r3, .L349
 5450 0182 1B68     		ldr	r3, [r3]
 5451 0184 9033     		add	r3, r3, #144
 5452 0186 181C     		mov	r0, r3
 5453 0188 3321     		mov	r1, #51
 5454 018a 4422     		mov	r2, #68
 5455 018c FF23     		mov	r3, #255
 5456 018e FFF7FEFF 		bl	_SlNonOsSemGet
 5457 0192 031C     		mov	r3, r0
 5458 0194 3B61     		str	r3, [r7, #16]
 5459 0196 3B69     		ldr	r3, [r7, #16]
 5460 0198 002B     		cmp	r3, #0
 5461 019a 00D0     		beq	.L336
 5462              	.L341:
 5463              		.loc 1 1298 0 is_stmt 0 discriminator 1
 5464 019c FEE7     		b	.L341
 5465              	.L336:
 5466              	.LBE88:
ARM GAS  C:\Users\X0217454\AppData\Local\Temp\cc7UAvFx.s 			page 121


1289:..\..\..\..\..\simplelink\source/driver.c **** 	while ( ( (SL_MAX_SOCKETS > SocketID) && (g_pCB->ActiveActionsBitmap & (1<<SocketID)) ) || ( (g_pC
 5467              		.loc 1 1289 0 is_stmt 1 discriminator 1
 5468 019e FB1C     		add	r3, r7, #3
 5469 01a0 1B78     		ldrb	r3, [r3]
 5470 01a2 072B     		cmp	r3, #7
 5471 01a4 0BD8     		bhi	.L342
1289:..\..\..\..\..\simplelink\source/driver.c **** 	while ( ( (SL_MAX_SOCKETS > SocketID) && (g_pCB->ActiveActionsBitmap & (1<<SocketID)) ) || ( (g_pC
 5472              		.loc 1 1289 0 is_stmt 0 discriminator 2
 5473 01a6 354B     		ldr	r3, .L349
 5474 01a8 1A68     		ldr	r2, [r3]
 5475 01aa 8C23     		mov	r3, #140
 5476 01ac D358     		ldr	r3, [r2, r3]
 5477 01ae FA1C     		add	r2, r7, #3
 5478 01b0 1278     		ldrb	r2, [r2]
 5479 01b2 0121     		mov	r1, #1
 5480 01b4 081C     		mov	r0, r1
 5481 01b6 9040     		lsl	r0, r0, r2
 5482 01b8 021C     		mov	r2, r0
 5483 01ba 1340     		and	r3, r2
 5484 01bc A3D1     		bne	.L343
 5485              	.L342:
1289:..\..\..\..\..\simplelink\source/driver.c **** 	while ( ( (SL_MAX_SOCKETS > SocketID) && (g_pCB->ActiveActionsBitmap & (1<<SocketID)) ) || ( (g_pC
 5486              		.loc 1 1289 0 discriminator 3
 5487 01be 2F4B     		ldr	r3, .L349
 5488 01c0 1A68     		ldr	r2, [r3]
 5489 01c2 8C23     		mov	r3, #140
 5490 01c4 D358     		ldr	r3, [r2, r3]
 5491 01c6 7A68     		ldr	r2, [r7, #4]
 5492 01c8 0121     		mov	r1, #1
 5493 01ca 0C1C     		mov	r4, r1
 5494 01cc 9440     		lsl	r4, r4, r2
 5495 01ce 221C     		mov	r2, r4
 5496 01d0 1340     		and	r3, r2
 5497 01d2 03D0     		beq	.L344
1289:..\..\..\..\..\simplelink\source/driver.c **** 	while ( ( (SL_MAX_SOCKETS > SocketID) && (g_pCB->ActiveActionsBitmap & (1<<SocketID)) ) || ( (g_pC
 5498              		.loc 1 1289 0 discriminator 1
 5499 01d4 FB1C     		add	r3, r7, #3
 5500 01d6 1B78     		ldrb	r3, [r3]
 5501 01d8 082B     		cmp	r3, #8
 5502 01da 94D0     		beq	.L343
 5503              	.L344:
1299:..\..\..\..\..\simplelink\source/driver.c **** 	}
1300:..\..\..\..\..\simplelink\source/driver.c **** 	/*mark as active. Set socket as active if action is on socket, otherwise mark action as active*/
1301:..\..\..\..\..\simplelink\source/driver.c **** 		if (SL_MAX_SOCKETS > SocketID)
 5504              		.loc 1 1301 0 is_stmt 1
 5505 01dc FB1C     		add	r3, r7, #3
 5506 01de 1B78     		ldrb	r3, [r3]
 5507 01e0 072B     		cmp	r3, #7
 5508 01e2 0FD8     		bhi	.L345
1302:..\..\..\..\..\simplelink\source/driver.c **** 		{
1303:..\..\..\..\..\simplelink\source/driver.c **** 			g_pCB->ActiveActionsBitmap |= (1<<SocketID);
 5509              		.loc 1 1303 0
 5510 01e4 254B     		ldr	r3, .L349
 5511 01e6 1A68     		ldr	r2, [r3]
 5512 01e8 244B     		ldr	r3, .L349
 5513 01ea 1968     		ldr	r1, [r3]
 5514 01ec 8C23     		mov	r3, #140
ARM GAS  C:\Users\X0217454\AppData\Local\Temp\cc7UAvFx.s 			page 122


 5515 01ee C958     		ldr	r1, [r1, r3]
 5516 01f0 FB1C     		add	r3, r7, #3
 5517 01f2 1B78     		ldrb	r3, [r3]
 5518 01f4 0120     		mov	r0, #1
 5519 01f6 041C     		mov	r4, r0
 5520 01f8 9C40     		lsl	r4, r4, r3
 5521 01fa 231C     		mov	r3, r4
 5522 01fc 1943     		orr	r1, r3
 5523 01fe 8C23     		mov	r3, #140
 5524 0200 D150     		str	r1, [r2, r3]
 5525 0202 0DE0     		b	.L346
 5526              	.L345:
1304:..\..\..\..\..\simplelink\source/driver.c **** 		}
1305:..\..\..\..\..\simplelink\source/driver.c **** 		else
1306:..\..\..\..\..\simplelink\source/driver.c **** 		{
1307:..\..\..\..\..\simplelink\source/driver.c **** 			g_pCB->ActiveActionsBitmap |= (1<<ActionID);
 5527              		.loc 1 1307 0
 5528 0204 1D4B     		ldr	r3, .L349
 5529 0206 1A68     		ldr	r2, [r3]
 5530 0208 1C4B     		ldr	r3, .L349
 5531 020a 1968     		ldr	r1, [r3]
 5532 020c 8C23     		mov	r3, #140
 5533 020e C958     		ldr	r1, [r1, r3]
 5534 0210 7B68     		ldr	r3, [r7, #4]
 5535 0212 0120     		mov	r0, #1
 5536 0214 041C     		mov	r4, r0
 5537 0216 9C40     		lsl	r4, r4, r3
 5538 0218 231C     		mov	r3, r4
 5539 021a 1943     		orr	r1, r3
 5540 021c 8C23     		mov	r3, #140
 5541 021e D150     		str	r1, [r2, r3]
 5542              	.L346:
1308:..\..\..\..\..\simplelink\source/driver.c **** 		}
1309:..\..\..\..\..\simplelink\source/driver.c **** 	/* move to active list  */
1310:..\..\..\..\..\simplelink\source/driver.c **** 		g_pCB->ObjPool[CurrObjIndex].NextIndex = g_pCB->ActivePoolIdx;
 5543              		.loc 1 1310 0
 5544 0220 164B     		ldr	r3, .L349
 5545 0222 1C68     		ldr	r4, [r3]
 5546 0224 3B1C     		mov	r3, r7
 5547 0226 2733     		add	r3, r3, #39
 5548 0228 1A78     		ldrb	r2, [r3]
 5549 022a 144B     		ldr	r3, .L349
 5550 022c 1968     		ldr	r1, [r3]
 5551 022e 8A23     		mov	r3, #138
 5552 0230 C95C     		ldrb	r1, [r1, r3]
 5553 0232 1820     		mov	r0, #24
 5554 0234 131C     		mov	r3, r2
 5555 0236 5B00     		lsl	r3, r3, #1
 5556 0238 9B18     		add	r3, r3, r2
 5557 023a 9B00     		lsl	r3, r3, #2
 5558 023c E318     		add	r3, r4, r3
 5559 023e 1B18     		add	r3, r3, r0
 5560 0240 0A1C     		add	r2, r1, #0
 5561 0242 9A70     		strb	r2, [r3, #2]
1311:..\..\..\..\..\simplelink\source/driver.c **** 		g_pCB->ActivePoolIdx = CurrObjIndex;	
 5562              		.loc 1 1311 0
 5563 0244 0D4B     		ldr	r3, .L349
ARM GAS  C:\Users\X0217454\AppData\Local\Temp\cc7UAvFx.s 			page 123


 5564 0246 1A68     		ldr	r2, [r3]
 5565 0248 391C     		mov	r1, r7
 5566 024a 2731     		add	r1, r1, #39
 5567 024c 8A23     		mov	r3, #138
 5568 024e 0978     		ldrb	r1, [r1]
 5569 0250 D154     		strb	r1, [r2, r3]
 5570              	.LBB89:
1312:..\..\..\..\..\simplelink\source/driver.c **** 	/* unlock */
1313:..\..\..\..\..\simplelink\source/driver.c **** 		OSI_RET_OK_CHECK(sl_LockObjUnlock(&g_pCB->ProtectionLockObj));
 5571              		.loc 1 1313 0
 5572 0252 0A4B     		ldr	r3, .L349
 5573 0254 1B68     		ldr	r3, [r3]
 5574 0256 9033     		add	r3, r3, #144
 5575 0258 181C     		mov	r0, r3
 5576 025a 3321     		mov	r1, #51
 5577 025c FFF7FEFF 		bl	_SlNonOsSemSet
 5578 0260 031C     		mov	r3, r0
 5579 0262 FB61     		str	r3, [r7, #28]
 5580 0264 FB69     		ldr	r3, [r7, #28]
 5581 0266 002B     		cmp	r3, #0
 5582 0268 00D0     		beq	.L347
 5583              	.L348:
 5584              		.loc 1 1313 0 is_stmt 0 discriminator 1
 5585 026a FEE7     		b	.L348
 5586              	.L347:
 5587              	.LBE89:
1314:..\..\..\..\..\simplelink\source/driver.c **** 	return CurrObjIndex;
 5588              		.loc 1 1314 0 is_stmt 1
 5589 026c 3B1C     		mov	r3, r7
 5590 026e 2733     		add	r3, r3, #39
 5591 0270 1B78     		ldrb	r3, [r3]
 5592              	.L334:
1315:..\..\..\..\..\simplelink\source/driver.c **** }
 5593              		.loc 1 1315 0
 5594 0272 181C     		mov	r0, r3
 5595 0274 BD46     		mov	sp, r7
 5596 0276 0BB0     		add	sp, sp, #44
 5597              		@ sp needed for prologue
 5598 0278 90BD     		pop	{r4, r7, pc}
 5599              	.L350:
 5600 027a C046     		.align	2
 5601              	.L349:
 5602 027c 00000000 		.word	g_pCB
 5603              		.cfi_endproc
 5604              	.LFE16:
 5605              		.size	_SlDrvWaitForPoolObj, .-_SlDrvWaitForPoolObj
 5606              		.section	.text._SlDrvReleasePoolObj,"ax",%progbits
 5607              		.align	2
 5608              		.global	_SlDrvReleasePoolObj
 5609              		.code	16
 5610              		.thumb_func
 5611              		.type	_SlDrvReleasePoolObj, %function
 5612              	_SlDrvReleasePoolObj:
 5613              	.LFB17:
1316:..\..\..\..\..\simplelink\source/driver.c **** 
1317:..\..\..\..\..\simplelink\source/driver.c **** /* ******************************************************************************/
1318:..\..\..\..\..\simplelink\source/driver.c **** /*  */
ARM GAS  C:\Users\X0217454\AppData\Local\Temp\cc7UAvFx.s 			page 124


1319:..\..\..\..\..\simplelink\source/driver.c **** /* ******************************************************************************/
1320:..\..\..\..\..\simplelink\source/driver.c **** void _SlDrvReleasePoolObj(UINT8 pObjIdx)
1321:..\..\..\..\..\simplelink\source/driver.c **** {
 5614              		.loc 1 1321 0
 5615              		.cfi_startproc
 5616 0000 B0B5     		push	{r4, r5, r7, lr}
 5617              	.LCFI51:
 5618              		.cfi_def_cfa_offset 16
 5619              		.cfi_offset 4, -16
 5620              		.cfi_offset 5, -12
 5621              		.cfi_offset 7, -8
 5622              		.cfi_offset 14, -4
 5623 0002 86B0     		sub	sp, sp, #24
 5624              	.LCFI52:
 5625              		.cfi_def_cfa_offset 40
 5626 0004 00AF     		add	r7, sp, #0
 5627              	.LCFI53:
 5628              		.cfi_def_cfa_register 7
 5629 0006 021C     		mov	r2, r0
 5630 0008 FB1D     		add	r3, r7, #7
 5631 000a 1A70     		strb	r2, [r3]
 5632              	.LBB90:
1322:..\..\..\..\..\simplelink\source/driver.c **** 	UINT8 PendingIndex;
1323:..\..\..\..\..\simplelink\source/driver.c **** 	
1324:..\..\..\..\..\simplelink\source/driver.c **** 	OSI_RET_OK_CHECK(sl_LockObjLock(&g_pCB->ProtectionLockObj, SL_OS_WAIT_FOREVER));
 5633              		.loc 1 1324 0
 5634 000c A64B     		ldr	r3, .L366
 5635 000e 1B68     		ldr	r3, [r3]
 5636 0010 9033     		add	r3, r3, #144
 5637 0012 181C     		mov	r0, r3
 5638 0014 3321     		mov	r1, #51
 5639 0016 4422     		mov	r2, #68
 5640 0018 FF23     		mov	r3, #255
 5641 001a FFF7FEFF 		bl	_SlNonOsSemGet
 5642 001e 031C     		mov	r3, r0
 5643 0020 3B61     		str	r3, [r7, #16]
 5644 0022 3B69     		ldr	r3, [r7, #16]
 5645 0024 002B     		cmp	r3, #0
 5646 0026 00D0     		beq	.L352
 5647              	.L353:
 5648              		.loc 1 1324 0 is_stmt 0 discriminator 1
 5649 0028 FEE7     		b	.L353
 5650              	.L352:
 5651              	.LBE90:
1325:..\..\..\..\..\simplelink\source/driver.c **** 
1326:..\..\..\..\..\simplelink\source/driver.c **** 	/* go over the pending list and release other pending action if needed */
1327:..\..\..\..\..\simplelink\source/driver.c **** 	PendingIndex = g_pCB->PendingPoolIdx;
 5652              		.loc 1 1327 0 is_stmt 1
 5653 002a 9F4B     		ldr	r3, .L366
 5654 002c 1968     		ldr	r1, [r3]
 5655 002e 3B1C     		mov	r3, r7
 5656 0030 1733     		add	r3, r3, #23
 5657 0032 8922     		mov	r2, #137
 5658 0034 8A5C     		ldrb	r2, [r1, r2]
 5659 0036 1A70     		strb	r2, [r3]
1328:..\..\..\..\..\simplelink\source/driver.c **** 	while(MAX_CONCURRENT_ACTIONS > PendingIndex)
 5660              		.loc 1 1328 0
ARM GAS  C:\Users\X0217454\AppData\Local\Temp\cc7UAvFx.s 			page 125


 5661 0038 8CE0     		b	.L354
 5662              	.L360:
1329:..\..\..\..\..\simplelink\source/driver.c **** 	{
1330:..\..\..\..\..\simplelink\source/driver.c **** 		/* In case this action is socket related, SocketID is in use, otherwise will be set to SL_MAX_SOC
1331:..\..\..\..\..\simplelink\source/driver.c **** 		if ( (g_pCB->ObjPool[PendingIndex].ActionID == g_pCB->ObjPool[pObjIdx].ActionID) && 
 5663              		.loc 1 1331 0
 5664 003a 9B4B     		ldr	r3, .L366
 5665 003c 1868     		ldr	r0, [r3]
 5666 003e 3B1C     		mov	r3, r7
 5667 0040 1733     		add	r3, r3, #23
 5668 0042 1A78     		ldrb	r2, [r3]
 5669 0044 1821     		mov	r1, #24
 5670 0046 131C     		mov	r3, r2
 5671 0048 5B00     		lsl	r3, r3, #1
 5672 004a 9B18     		add	r3, r3, r2
 5673 004c 9B00     		lsl	r3, r3, #2
 5674 004e C318     		add	r3, r0, r3
 5675 0050 5B18     		add	r3, r3, r1
 5676 0052 1978     		ldrb	r1, [r3]
 5677 0054 944B     		ldr	r3, .L366
 5678 0056 1C68     		ldr	r4, [r3]
 5679 0058 FB1D     		add	r3, r7, #7
 5680 005a 1A78     		ldrb	r2, [r3]
 5681 005c 1820     		mov	r0, #24
 5682 005e 131C     		mov	r3, r2
 5683 0060 5B00     		lsl	r3, r3, #1
 5684 0062 9B18     		add	r3, r3, r2
 5685 0064 9B00     		lsl	r3, r3, #2
 5686 0066 E318     		add	r3, r4, r3
 5687 0068 1B18     		add	r3, r3, r0
 5688 006a 1B78     		ldrb	r3, [r3]
 5689 006c 9942     		cmp	r1, r3
 5690 006e 61D1     		bne	.L355
1332:..\..\..\..\..\simplelink\source/driver.c **** 			( (SL_MAX_SOCKETS == (g_pCB->ObjPool[PendingIndex].AdditionalData & BSD_SOCKET_ID_MASK)) || 
 5691              		.loc 1 1332 0 discriminator 1
 5692 0070 8D4B     		ldr	r3, .L366
 5693 0072 1868     		ldr	r0, [r3]
 5694 0074 3B1C     		mov	r3, r7
 5695 0076 1733     		add	r3, r3, #23
 5696 0078 1A78     		ldrb	r2, [r3]
 5697 007a 1821     		mov	r1, #24
 5698 007c 131C     		mov	r3, r2
 5699 007e 5B00     		lsl	r3, r3, #1
 5700 0080 9B18     		add	r3, r3, r2
 5701 0082 9B00     		lsl	r3, r3, #2
 5702 0084 C318     		add	r3, r0, r3
 5703 0086 5B18     		add	r3, r3, r1
 5704 0088 5B78     		ldrb	r3, [r3, #1]
 5705 008a 1A1C     		mov	r2, r3
 5706 008c 0F23     		mov	r3, #15
 5707 008e 1340     		and	r3, r2
1331:..\..\..\..\..\simplelink\source/driver.c **** 		if ( (g_pCB->ObjPool[PendingIndex].ActionID == g_pCB->ObjPool[pObjIdx].ActionID) && 
 5708              		.loc 1 1331 0 discriminator 1
 5709 0090 082B     		cmp	r3, #8
 5710 0092 2FD0     		beq	.L356
1333:..\..\..\..\..\simplelink\source/driver.c **** 			((SL_MAX_SOCKETS > (g_pCB->ObjPool[pObjIdx].AdditionalData & BSD_SOCKET_ID_MASK)) && ( (g_pCB->O
 5711              		.loc 1 1333 0
ARM GAS  C:\Users\X0217454\AppData\Local\Temp\cc7UAvFx.s 			page 126


 5712 0094 844B     		ldr	r3, .L366
 5713 0096 1868     		ldr	r0, [r3]
 5714 0098 FB1D     		add	r3, r7, #7
 5715 009a 1A78     		ldrb	r2, [r3]
 5716 009c 1821     		mov	r1, #24
 5717 009e 131C     		mov	r3, r2
 5718 00a0 5B00     		lsl	r3, r3, #1
 5719 00a2 9B18     		add	r3, r3, r2
 5720 00a4 9B00     		lsl	r3, r3, #2
 5721 00a6 C318     		add	r3, r0, r3
 5722 00a8 5B18     		add	r3, r3, r1
 5723 00aa 5B78     		ldrb	r3, [r3, #1]
 5724 00ac 1A1C     		mov	r2, r3
 5725 00ae 0F23     		mov	r3, #15
 5726 00b0 1340     		and	r3, r2
1332:..\..\..\..\..\simplelink\source/driver.c **** 			( (SL_MAX_SOCKETS == (g_pCB->ObjPool[PendingIndex].AdditionalData & BSD_SOCKET_ID_MASK)) || 
 5727              		.loc 1 1332 0
 5728 00b2 072B     		cmp	r3, #7
 5729 00b4 3EDC     		bgt	.L355
 5730              		.loc 1 1333 0
 5731 00b6 7C4B     		ldr	r3, .L366
 5732 00b8 1868     		ldr	r0, [r3]
 5733 00ba 3B1C     		mov	r3, r7
 5734 00bc 1733     		add	r3, r3, #23
 5735 00be 1A78     		ldrb	r2, [r3]
 5736 00c0 1821     		mov	r1, #24
 5737 00c2 131C     		mov	r3, r2
 5738 00c4 5B00     		lsl	r3, r3, #1
 5739 00c6 9B18     		add	r3, r3, r2
 5740 00c8 9B00     		lsl	r3, r3, #2
 5741 00ca C318     		add	r3, r0, r3
 5742 00cc 5B18     		add	r3, r3, r1
 5743 00ce 5B78     		ldrb	r3, [r3, #1]
 5744 00d0 191C     		mov	r1, r3
 5745 00d2 754B     		ldr	r3, .L366
 5746 00d4 1C68     		ldr	r4, [r3]
 5747 00d6 FB1D     		add	r3, r7, #7
 5748 00d8 1A78     		ldrb	r2, [r3]
 5749 00da 1820     		mov	r0, #24
 5750 00dc 131C     		mov	r3, r2
 5751 00de 5B00     		lsl	r3, r3, #1
 5752 00e0 9B18     		add	r3, r3, r2
 5753 00e2 9B00     		lsl	r3, r3, #2
 5754 00e4 E318     		add	r3, r4, r3
 5755 00e6 1B18     		add	r3, r3, r0
 5756 00e8 5B78     		ldrb	r3, [r3, #1]
 5757 00ea 0A1C     		mov	r2, r1
 5758 00ec 5A40     		eor	r2, r3
 5759 00ee 0F23     		mov	r3, #15
 5760 00f0 1340     		and	r3, r2
 5761 00f2 1FD1     		bne	.L355
 5762              	.L356:
1334:..\..\..\..\..\simplelink\source/driver.c **** 		{
1335:..\..\..\..\..\simplelink\source/driver.c **** 			/* remove from pending list */
1336:..\..\..\..\..\simplelink\source/driver.c **** 			_SlRemoveFromList(&g_pCB->PendingPoolIdx, PendingIndex);
 5763              		.loc 1 1336 0
 5764 00f4 6C4B     		ldr	r3, .L366
ARM GAS  C:\Users\X0217454\AppData\Local\Temp\cc7UAvFx.s 			page 127


 5765 00f6 1B68     		ldr	r3, [r3]
 5766 00f8 1A1C     		mov	r2, r3
 5767 00fa 8932     		add	r2, r2, #137
 5768 00fc 3B1C     		mov	r3, r7
 5769 00fe 1733     		add	r3, r3, #23
 5770 0100 1B78     		ldrb	r3, [r3]
 5771 0102 101C     		mov	r0, r2
 5772 0104 191C     		mov	r1, r3
 5773 0106 FFF7FEFF 		bl	_SlRemoveFromList
 5774              	.LBB91:
1337:..\..\..\..\..\simplelink\source/driver.c **** 			 OSI_RET_OK_CHECK(sl_SyncObjSignal(&(g_pCB->ObjPool[PendingIndex].SyncObj)));
 5775              		.loc 1 1337 0
 5776 010a 674B     		ldr	r3, .L366
 5777 010c 1968     		ldr	r1, [r3]
 5778 010e 3B1C     		mov	r3, r7
 5779 0110 1733     		add	r3, r3, #23
 5780 0112 1A78     		ldrb	r2, [r3]
 5781 0114 131C     		mov	r3, r2
 5782 0116 5B00     		lsl	r3, r3, #1
 5783 0118 9B18     		add	r3, r3, r2
 5784 011a 9B00     		lsl	r3, r3, #2
 5785 011c 1033     		add	r3, r3, #16
 5786 011e CB18     		add	r3, r1, r3
 5787 0120 181C     		mov	r0, r3
 5788 0122 2221     		mov	r1, #34
 5789 0124 FFF7FEFF 		bl	_SlNonOsSemSet
 5790 0128 031C     		mov	r3, r0
 5791 012a FB60     		str	r3, [r7, #12]
 5792 012c FB68     		ldr	r3, [r7, #12]
 5793 012e 002B     		cmp	r3, #0
 5794 0130 17D0     		beq	.L365
 5795              	.L358:
 5796              		.loc 1 1337 0 is_stmt 0 discriminator 1
 5797 0132 FEE7     		b	.L358
 5798              	.L355:
 5799              	.LBE91:
1338:..\..\..\..\..\simplelink\source/driver.c **** 			 break;
1339:..\..\..\..\..\simplelink\source/driver.c **** 		}
1340:..\..\..\..\..\simplelink\source/driver.c **** 		PendingIndex = g_pCB->ObjPool[PendingIndex].NextIndex;
 5800              		.loc 1 1340 0 is_stmt 1
 5801 0134 5C4B     		ldr	r3, .L366
 5802 0136 1C68     		ldr	r4, [r3]
 5803 0138 3B1C     		mov	r3, r7
 5804 013a 1733     		add	r3, r3, #23
 5805 013c 1A78     		ldrb	r2, [r3]
 5806 013e 391C     		mov	r1, r7
 5807 0140 1731     		add	r1, r1, #23
 5808 0142 1820     		mov	r0, #24
 5809 0144 131C     		mov	r3, r2
 5810 0146 5B00     		lsl	r3, r3, #1
 5811 0148 9B18     		add	r3, r3, r2
 5812 014a 9B00     		lsl	r3, r3, #2
 5813 014c E318     		add	r3, r4, r3
 5814 014e 1B18     		add	r3, r3, r0
 5815 0150 9B78     		ldrb	r3, [r3, #2]
 5816 0152 0B70     		strb	r3, [r1]
 5817              	.L354:
ARM GAS  C:\Users\X0217454\AppData\Local\Temp\cc7UAvFx.s 			page 128


1328:..\..\..\..\..\simplelink\source/driver.c **** 	while(MAX_CONCURRENT_ACTIONS > PendingIndex)
 5818              		.loc 1 1328 0 discriminator 1
 5819 0154 3B1C     		mov	r3, r7
 5820 0156 1733     		add	r3, r3, #23
 5821 0158 1B78     		ldrb	r3, [r3]
 5822 015a 092B     		cmp	r3, #9
 5823 015c 00D8     		bhi	.LCB5436
 5824 015e 6CE7     		b	.L360	@long jump
 5825              	.LCB5436:
 5826 0160 00E0     		b	.L359
 5827              	.L365:
1338:..\..\..\..\..\simplelink\source/driver.c **** 			 break;
 5828              		.loc 1 1338 0
 5829 0162 C046     		mov	r8, r8
 5830              	.L359:
1341:..\..\..\..\..\simplelink\source/driver.c **** 	}
1342:..\..\..\..\..\simplelink\source/driver.c **** 
1343:..\..\..\..\..\simplelink\source/driver.c **** 		if (SL_MAX_SOCKETS > (g_pCB->ObjPool[pObjIdx].AdditionalData & BSD_SOCKET_ID_MASK))
 5831              		.loc 1 1343 0
 5832 0164 504B     		ldr	r3, .L366
 5833 0166 1868     		ldr	r0, [r3]
 5834 0168 FB1D     		add	r3, r7, #7
 5835 016a 1A78     		ldrb	r2, [r3]
 5836 016c 1821     		mov	r1, #24
 5837 016e 131C     		mov	r3, r2
 5838 0170 5B00     		lsl	r3, r3, #1
 5839 0172 9B18     		add	r3, r3, r2
 5840 0174 9B00     		lsl	r3, r3, #2
 5841 0176 C318     		add	r3, r0, r3
 5842 0178 5B18     		add	r3, r3, r1
 5843 017a 5B78     		ldrb	r3, [r3, #1]
 5844 017c 1A1C     		mov	r2, r3
 5845 017e 0F23     		mov	r3, #15
 5846 0180 1340     		and	r3, r2
 5847 0182 072B     		cmp	r3, #7
 5848 0184 1EDC     		bgt	.L361
1344:..\..\..\..\..\simplelink\source/driver.c **** 		{
1345:..\..\..\..\..\simplelink\source/driver.c **** 		/* unset socketID  */
1346:..\..\..\..\..\simplelink\source/driver.c **** 			g_pCB->ActiveActionsBitmap &= ~(1<<(g_pCB->ObjPool[pObjIdx].AdditionalData & BSD_SOCKET_ID_MASK)
 5849              		.loc 1 1346 0
 5850 0186 484B     		ldr	r3, .L366
 5851 0188 1968     		ldr	r1, [r3]
 5852 018a 474B     		ldr	r3, .L366
 5853 018c 1A68     		ldr	r2, [r3]
 5854 018e 8C23     		mov	r3, #140
 5855 0190 D058     		ldr	r0, [r2, r3]
 5856 0192 454B     		ldr	r3, .L366
 5857 0194 1D68     		ldr	r5, [r3]
 5858 0196 FB1D     		add	r3, r7, #7
 5859 0198 1A78     		ldrb	r2, [r3]
 5860 019a 1824     		mov	r4, #24
 5861 019c 131C     		mov	r3, r2
 5862 019e 5B00     		lsl	r3, r3, #1
 5863 01a0 9B18     		add	r3, r3, r2
 5864 01a2 9B00     		lsl	r3, r3, #2
 5865 01a4 EB18     		add	r3, r5, r3
 5866 01a6 1B19     		add	r3, r3, r4
ARM GAS  C:\Users\X0217454\AppData\Local\Temp\cc7UAvFx.s 			page 129


 5867 01a8 5B78     		ldrb	r3, [r3, #1]
 5868 01aa 1A1C     		mov	r2, r3
 5869 01ac 0F23     		mov	r3, #15
 5870 01ae 1340     		and	r3, r2
 5871 01b0 0122     		mov	r2, #1
 5872 01b2 141C     		mov	r4, r2
 5873 01b4 9C40     		lsl	r4, r4, r3
 5874 01b6 231C     		mov	r3, r4
 5875 01b8 DB43     		mvn	r3, r3
 5876 01ba 1A1C     		mov	r2, r3
 5877 01bc 0240     		and	r2, r0
 5878 01be 8C23     		mov	r3, #140
 5879 01c0 CA50     		str	r2, [r1, r3]
 5880 01c2 1AE0     		b	.L362
 5881              	.L361:
1347:..\..\..\..\..\simplelink\source/driver.c **** 		}
1348:..\..\..\..\..\simplelink\source/driver.c **** 		else
1349:..\..\..\..\..\simplelink\source/driver.c **** 		{
1350:..\..\..\..\..\simplelink\source/driver.c **** 		/* unset actionID  */
1351:..\..\..\..\..\simplelink\source/driver.c **** 			g_pCB->ActiveActionsBitmap &= ~(1<<g_pCB->ObjPool[pObjIdx].ActionID);
 5882              		.loc 1 1351 0
 5883 01c4 384B     		ldr	r3, .L366
 5884 01c6 1968     		ldr	r1, [r3]
 5885 01c8 374B     		ldr	r3, .L366
 5886 01ca 1A68     		ldr	r2, [r3]
 5887 01cc 8C23     		mov	r3, #140
 5888 01ce D058     		ldr	r0, [r2, r3]
 5889 01d0 354B     		ldr	r3, .L366
 5890 01d2 1D68     		ldr	r5, [r3]
 5891 01d4 FB1D     		add	r3, r7, #7
 5892 01d6 1A78     		ldrb	r2, [r3]
 5893 01d8 1824     		mov	r4, #24
 5894 01da 131C     		mov	r3, r2
 5895 01dc 5B00     		lsl	r3, r3, #1
 5896 01de 9B18     		add	r3, r3, r2
 5897 01e0 9B00     		lsl	r3, r3, #2
 5898 01e2 EB18     		add	r3, r5, r3
 5899 01e4 1B19     		add	r3, r3, r4
 5900 01e6 1B78     		ldrb	r3, [r3]
 5901 01e8 0122     		mov	r2, #1
 5902 01ea 141C     		mov	r4, r2
 5903 01ec 9C40     		lsl	r4, r4, r3
 5904 01ee 231C     		mov	r3, r4
 5905 01f0 DB43     		mvn	r3, r3
 5906 01f2 1A1C     		mov	r2, r3
 5907 01f4 0240     		and	r2, r0
 5908 01f6 8C23     		mov	r3, #140
 5909 01f8 CA50     		str	r2, [r1, r3]
 5910              	.L362:
1352:..\..\..\..\..\simplelink\source/driver.c **** 		}	
1353:..\..\..\..\..\simplelink\source/driver.c **** 
1354:..\..\..\..\..\simplelink\source/driver.c **** 	/* delete old data */
1355:..\..\..\..\..\simplelink\source/driver.c **** 	g_pCB->ObjPool[pObjIdx].pRespArgs = NULL;
 5911              		.loc 1 1355 0
 5912 01fa 2B4B     		ldr	r3, .L366
 5913 01fc 1968     		ldr	r1, [r3]
 5914 01fe FB1D     		add	r3, r7, #7
ARM GAS  C:\Users\X0217454\AppData\Local\Temp\cc7UAvFx.s 			page 130


 5915 0200 1A78     		ldrb	r2, [r3]
 5916 0202 131C     		mov	r3, r2
 5917 0204 5B00     		lsl	r3, r3, #1
 5918 0206 9B18     		add	r3, r3, r2
 5919 0208 9B00     		lsl	r3, r3, #2
 5920 020a CB18     		add	r3, r1, r3
 5921 020c 1433     		add	r3, r3, #20
 5922 020e 0022     		mov	r2, #0
 5923 0210 1A60     		str	r2, [r3]
1356:..\..\..\..\..\simplelink\source/driver.c **** 	g_pCB->ObjPool[pObjIdx].ActionID = 0;
 5924              		.loc 1 1356 0
 5925 0212 254B     		ldr	r3, .L366
 5926 0214 1868     		ldr	r0, [r3]
 5927 0216 FB1D     		add	r3, r7, #7
 5928 0218 1A78     		ldrb	r2, [r3]
 5929 021a 1821     		mov	r1, #24
 5930 021c 131C     		mov	r3, r2
 5931 021e 5B00     		lsl	r3, r3, #1
 5932 0220 9B18     		add	r3, r3, r2
 5933 0222 9B00     		lsl	r3, r3, #2
 5934 0224 C318     		add	r3, r0, r3
 5935 0226 5B18     		add	r3, r3, r1
 5936 0228 0022     		mov	r2, #0
 5937 022a 1A70     		strb	r2, [r3]
1357:..\..\..\..\..\simplelink\source/driver.c **** 	g_pCB->ObjPool[pObjIdx].AdditionalData = SL_MAX_SOCKETS;
 5938              		.loc 1 1357 0
 5939 022c 1E4B     		ldr	r3, .L366
 5940 022e 1868     		ldr	r0, [r3]
 5941 0230 FB1D     		add	r3, r7, #7
 5942 0232 1A78     		ldrb	r2, [r3]
 5943 0234 1821     		mov	r1, #24
 5944 0236 131C     		mov	r3, r2
 5945 0238 5B00     		lsl	r3, r3, #1
 5946 023a 9B18     		add	r3, r3, r2
 5947 023c 9B00     		lsl	r3, r3, #2
 5948 023e C318     		add	r3, r0, r3
 5949 0240 5B18     		add	r3, r3, r1
 5950 0242 0822     		mov	r2, #8
 5951 0244 5A70     		strb	r2, [r3, #1]
1358:..\..\..\..\..\simplelink\source/driver.c **** 
1359:..\..\..\..\..\simplelink\source/driver.c **** 	/* remove from active list */
1360:..\..\..\..\..\simplelink\source/driver.c **** 	_SlRemoveFromList(&g_pCB->ActivePoolIdx, pObjIdx);
 5952              		.loc 1 1360 0
 5953 0246 184B     		ldr	r3, .L366
 5954 0248 1B68     		ldr	r3, [r3]
 5955 024a 1A1C     		mov	r2, r3
 5956 024c 8A32     		add	r2, r2, #138
 5957 024e FB1D     		add	r3, r7, #7
 5958 0250 1B78     		ldrb	r3, [r3]
 5959 0252 101C     		mov	r0, r2
 5960 0254 191C     		mov	r1, r3
 5961 0256 FFF7FEFF 		bl	_SlRemoveFromList
1361:..\..\..\..\..\simplelink\source/driver.c **** 	/* move to free list */
1362:..\..\..\..\..\simplelink\source/driver.c **** 	g_pCB->ObjPool[pObjIdx].NextIndex = g_pCB->FreePoolIdx;
 5962              		.loc 1 1362 0
 5963 025a 134B     		ldr	r3, .L366
 5964 025c 1C68     		ldr	r4, [r3]
ARM GAS  C:\Users\X0217454\AppData\Local\Temp\cc7UAvFx.s 			page 131


 5965 025e FB1D     		add	r3, r7, #7
 5966 0260 1A78     		ldrb	r2, [r3]
 5967 0262 114B     		ldr	r3, .L366
 5968 0264 1968     		ldr	r1, [r3]
 5969 0266 8823     		mov	r3, #136
 5970 0268 C95C     		ldrb	r1, [r1, r3]
 5971 026a 1820     		mov	r0, #24
 5972 026c 131C     		mov	r3, r2
 5973 026e 5B00     		lsl	r3, r3, #1
 5974 0270 9B18     		add	r3, r3, r2
 5975 0272 9B00     		lsl	r3, r3, #2
 5976 0274 E318     		add	r3, r4, r3
 5977 0276 1B18     		add	r3, r3, r0
 5978 0278 0A1C     		add	r2, r1, #0
 5979 027a 9A70     		strb	r2, [r3, #2]
1363:..\..\..\..\..\simplelink\source/driver.c **** 	g_pCB->FreePoolIdx = pObjIdx;
 5980              		.loc 1 1363 0
 5981 027c 0A4B     		ldr	r3, .L366
 5982 027e 1A68     		ldr	r2, [r3]
 5983 0280 F91D     		add	r1, r7, #7
 5984 0282 8823     		mov	r3, #136
 5985 0284 0978     		ldrb	r1, [r1]
 5986 0286 D154     		strb	r1, [r2, r3]
 5987              	.LBB92:
1364:..\..\..\..\..\simplelink\source/driver.c **** 
1365:..\..\..\..\..\simplelink\source/driver.c **** 	OSI_RET_OK_CHECK(sl_LockObjUnlock(&g_pCB->ProtectionLockObj));
 5988              		.loc 1 1365 0
 5989 0288 074B     		ldr	r3, .L366
 5990 028a 1B68     		ldr	r3, [r3]
 5991 028c 9033     		add	r3, r3, #144
 5992 028e 181C     		mov	r0, r3
 5993 0290 3321     		mov	r1, #51
 5994 0292 FFF7FEFF 		bl	_SlNonOsSemSet
 5995 0296 031C     		mov	r3, r0
 5996 0298 BB60     		str	r3, [r7, #8]
 5997 029a BB68     		ldr	r3, [r7, #8]
 5998 029c 002B     		cmp	r3, #0
 5999 029e 00D0     		beq	.L351
 6000              	.L364:
 6001              		.loc 1 1365 0 is_stmt 0 discriminator 1
 6002 02a0 FEE7     		b	.L364
 6003              	.L351:
 6004              	.LBE92:
1366:..\..\..\..\..\simplelink\source/driver.c **** }
 6005              		.loc 1 1366 0 is_stmt 1
 6006 02a2 BD46     		mov	sp, r7
 6007 02a4 06B0     		add	sp, sp, #24
 6008              		@ sp needed for prologue
 6009 02a6 B0BD     		pop	{r4, r5, r7, pc}
 6010              	.L367:
 6011              		.align	2
 6012              	.L366:
 6013 02a8 00000000 		.word	g_pCB
 6014              		.cfi_endproc
 6015              	.LFE17:
 6016              		.size	_SlDrvReleasePoolObj, .-_SlDrvReleasePoolObj
 6017              		.section	.text._SlDrvObjInit,"ax",%progbits
ARM GAS  C:\Users\X0217454\AppData\Local\Temp\cc7UAvFx.s 			page 132


 6018              		.align	2
 6019              		.global	_SlDrvObjInit
 6020              		.code	16
 6021              		.thumb_func
 6022              		.type	_SlDrvObjInit, %function
 6023              	_SlDrvObjInit:
 6024              	.LFB18:
1367:..\..\..\..\..\simplelink\source/driver.c **** 
1368:..\..\..\..\..\simplelink\source/driver.c **** 
1369:..\..\..\..\..\simplelink\source/driver.c **** 
1370:..\..\..\..\..\simplelink\source/driver.c **** /* ******************************************************************************/
1371:..\..\..\..\..\simplelink\source/driver.c **** /*   */
1372:..\..\..\..\..\simplelink\source/driver.c **** /* ******************************************************************************/
1373:..\..\..\..\..\simplelink\source/driver.c **** void _SlDrvObjInit(void)
1374:..\..\..\..\..\simplelink\source/driver.c **** {
 6025              		.loc 1 1374 0
 6026              		.cfi_startproc
 6027 0000 90B5     		push	{r4, r7, lr}
 6028              	.LCFI54:
 6029              		.cfi_def_cfa_offset 12
 6030              		.cfi_offset 4, -12
 6031              		.cfi_offset 7, -8
 6032              		.cfi_offset 14, -4
 6033 0002 83B0     		sub	sp, sp, #12
 6034              	.LCFI55:
 6035              		.cfi_def_cfa_offset 24
 6036 0004 00AF     		add	r7, sp, #0
 6037              	.LCFI56:
 6038              		.cfi_def_cfa_register 7
1375:..\..\..\..\..\simplelink\source/driver.c **** 	UINT8 Idx;
1376:..\..\..\..\..\simplelink\source/driver.c **** 
1377:..\..\..\..\..\simplelink\source/driver.c **** 	sl_Memset(&g_pCB->ObjPool[0],0,MAX_CONCURRENT_ACTIONS*sizeof(_SlPoolObj_t));
 6039              		.loc 1 1377 0
 6040 0006 224B     		ldr	r3, .L371
 6041 0008 1B68     		ldr	r3, [r3]
 6042 000a 1033     		add	r3, r3, #16
 6043 000c 181C     		mov	r0, r3
 6044 000e 0021     		mov	r1, #0
 6045 0010 7822     		mov	r2, #120
 6046 0012 FFF7FEFF 		bl	memset
1378:..\..\..\..\..\simplelink\source/driver.c **** 	/* place all Obj in the free list */
1379:..\..\..\..\..\simplelink\source/driver.c **** 	g_pCB->FreePoolIdx = 0;
 6047              		.loc 1 1379 0
 6048 0016 1E4B     		ldr	r3, .L371
 6049 0018 1A68     		ldr	r2, [r3]
 6050 001a 8823     		mov	r3, #136
 6051 001c 0021     		mov	r1, #0
 6052 001e D154     		strb	r1, [r2, r3]
1380:..\..\..\..\..\simplelink\source/driver.c **** 	for (Idx = 0 ; Idx < MAX_CONCURRENT_ACTIONS ; Idx++)
 6053              		.loc 1 1380 0
 6054 0020 FB1D     		add	r3, r7, #7
 6055 0022 0022     		mov	r2, #0
 6056 0024 1A70     		strb	r2, [r3]
 6057 0026 22E0     		b	.L369
 6058              	.L370:
1381:..\..\..\..\..\simplelink\source/driver.c **** 	{
1382:..\..\..\..\..\simplelink\source/driver.c **** 		g_pCB->ObjPool[Idx].NextIndex = Idx + 1;
ARM GAS  C:\Users\X0217454\AppData\Local\Temp\cc7UAvFx.s 			page 133


 6059              		.loc 1 1382 0 discriminator 2
 6060 0028 194B     		ldr	r3, .L371
 6061 002a 1C68     		ldr	r4, [r3]
 6062 002c FB1D     		add	r3, r7, #7
 6063 002e 1A78     		ldrb	r2, [r3]
 6064 0030 FB1D     		add	r3, r7, #7
 6065 0032 1B78     		ldrb	r3, [r3]
 6066 0034 0133     		add	r3, r3, #1
 6067 0036 D9B2     		uxtb	r1, r3
 6068 0038 1820     		mov	r0, #24
 6069 003a 131C     		mov	r3, r2
 6070 003c 5B00     		lsl	r3, r3, #1
 6071 003e 9B18     		add	r3, r3, r2
 6072 0040 9B00     		lsl	r3, r3, #2
 6073 0042 E318     		add	r3, r4, r3
 6074 0044 1B18     		add	r3, r3, r0
 6075 0046 0A1C     		add	r2, r1, #0
 6076 0048 9A70     		strb	r2, [r3, #2]
1383:..\..\..\..\..\simplelink\source/driver.c **** 		g_pCB->ObjPool[Idx].AdditionalData = SL_MAX_SOCKETS;
 6077              		.loc 1 1383 0 discriminator 2
 6078 004a 114B     		ldr	r3, .L371
 6079 004c 1868     		ldr	r0, [r3]
 6080 004e FB1D     		add	r3, r7, #7
 6081 0050 1A78     		ldrb	r2, [r3]
 6082 0052 1821     		mov	r1, #24
 6083 0054 131C     		mov	r3, r2
 6084 0056 5B00     		lsl	r3, r3, #1
 6085 0058 9B18     		add	r3, r3, r2
 6086 005a 9B00     		lsl	r3, r3, #2
 6087 005c C318     		add	r3, r0, r3
 6088 005e 5B18     		add	r3, r3, r1
 6089 0060 0822     		mov	r2, #8
 6090 0062 5A70     		strb	r2, [r3, #1]
1380:..\..\..\..\..\simplelink\source/driver.c **** 	for (Idx = 0 ; Idx < MAX_CONCURRENT_ACTIONS ; Idx++)
 6091              		.loc 1 1380 0 discriminator 2
 6092 0064 FB1D     		add	r3, r7, #7
 6093 0066 FA1D     		add	r2, r7, #7
 6094 0068 1278     		ldrb	r2, [r2]
 6095 006a 0132     		add	r2, r2, #1
 6096 006c 1A70     		strb	r2, [r3]
 6097              	.L369:
1380:..\..\..\..\..\simplelink\source/driver.c **** 	for (Idx = 0 ; Idx < MAX_CONCURRENT_ACTIONS ; Idx++)
 6098              		.loc 1 1380 0 is_stmt 0 discriminator 1
 6099 006e FB1D     		add	r3, r7, #7
 6100 0070 1B78     		ldrb	r3, [r3]
 6101 0072 092B     		cmp	r3, #9
 6102 0074 D8D9     		bls	.L370
1384:..\..\..\..\..\simplelink\source/driver.c **** 	}
1385:..\..\..\..\..\simplelink\source/driver.c **** 	
1386:..\..\..\..\..\simplelink\source/driver.c **** 	g_pCB->ActivePoolIdx = MAX_CONCURRENT_ACTIONS;
 6103              		.loc 1 1386 0 is_stmt 1
 6104 0076 064B     		ldr	r3, .L371
 6105 0078 1A68     		ldr	r2, [r3]
 6106 007a 8A23     		mov	r3, #138
 6107 007c 0A21     		mov	r1, #10
 6108 007e D154     		strb	r1, [r2, r3]
1387:..\..\..\..\..\simplelink\source/driver.c **** 	g_pCB->PendingPoolIdx = MAX_CONCURRENT_ACTIONS;
ARM GAS  C:\Users\X0217454\AppData\Local\Temp\cc7UAvFx.s 			page 134


 6109              		.loc 1 1387 0
 6110 0080 034B     		ldr	r3, .L371
 6111 0082 1A68     		ldr	r2, [r3]
 6112 0084 8923     		mov	r3, #137
 6113 0086 0A21     		mov	r1, #10
 6114 0088 D154     		strb	r1, [r2, r3]
1388:..\..\..\..\..\simplelink\source/driver.c **** 
1389:..\..\..\..\..\simplelink\source/driver.c **** }
 6115              		.loc 1 1389 0
 6116 008a BD46     		mov	sp, r7
 6117 008c 03B0     		add	sp, sp, #12
 6118              		@ sp needed for prologue
 6119 008e 90BD     		pop	{r4, r7, pc}
 6120              	.L372:
 6121              		.align	2
 6122              	.L371:
 6123 0090 00000000 		.word	g_pCB
 6124              		.cfi_endproc
 6125              	.LFE18:
 6126              		.size	_SlDrvObjInit, .-_SlDrvObjInit
 6127              		.section	.text._SlDrvObjDeInit,"ax",%progbits
 6128              		.align	2
 6129              		.global	_SlDrvObjDeInit
 6130              		.code	16
 6131              		.thumb_func
 6132              		.type	_SlDrvObjDeInit, %function
 6133              	_SlDrvObjDeInit:
 6134              	.LFB19:
1390:..\..\..\..\..\simplelink\source/driver.c **** 
1391:..\..\..\..\..\simplelink\source/driver.c **** /* ******************************************************************************/
1392:..\..\..\..\..\simplelink\source/driver.c **** /*   */
1393:..\..\..\..\..\simplelink\source/driver.c **** /* ******************************************************************************/
1394:..\..\..\..\..\simplelink\source/driver.c **** void _SlDrvObjDeInit(void)
1395:..\..\..\..\..\simplelink\source/driver.c **** {
 6135              		.loc 1 1395 0
 6136              		.cfi_startproc
 6137 0000 80B5     		push	{r7, lr}
 6138              	.LCFI57:
 6139              		.cfi_def_cfa_offset 8
 6140              		.cfi_offset 7, -8
 6141              		.cfi_offset 14, -4
 6142 0002 00AF     		add	r7, sp, #0
 6143              	.LCFI58:
 6144              		.cfi_def_cfa_register 7
1396:..\..\..\..\..\simplelink\source/driver.c **** 	g_pCB->FreePoolIdx = 0;
 6145              		.loc 1 1396 0
 6146 0004 084B     		ldr	r3, .L374
 6147 0006 1A68     		ldr	r2, [r3]
 6148 0008 8823     		mov	r3, #136
 6149 000a 0021     		mov	r1, #0
 6150 000c D154     		strb	r1, [r2, r3]
1397:..\..\..\..\..\simplelink\source/driver.c **** 	g_pCB->PendingPoolIdx = MAX_CONCURRENT_ACTIONS;
 6151              		.loc 1 1397 0
 6152 000e 064B     		ldr	r3, .L374
 6153 0010 1A68     		ldr	r2, [r3]
 6154 0012 8923     		mov	r3, #137
 6155 0014 0A21     		mov	r1, #10
ARM GAS  C:\Users\X0217454\AppData\Local\Temp\cc7UAvFx.s 			page 135


 6156 0016 D154     		strb	r1, [r2, r3]
1398:..\..\..\..\..\simplelink\source/driver.c **** 	g_pCB->ActivePoolIdx = MAX_CONCURRENT_ACTIONS;
 6157              		.loc 1 1398 0
 6158 0018 034B     		ldr	r3, .L374
 6159 001a 1A68     		ldr	r2, [r3]
 6160 001c 8A23     		mov	r3, #138
 6161 001e 0A21     		mov	r1, #10
 6162 0020 D154     		strb	r1, [r2, r3]
1399:..\..\..\..\..\simplelink\source/driver.c **** 
1400:..\..\..\..\..\simplelink\source/driver.c **** }
 6163              		.loc 1 1400 0
 6164 0022 BD46     		mov	sp, r7
 6165              		@ sp needed for prologue
 6166 0024 80BD     		pop	{r7, pc}
 6167              	.L375:
 6168 0026 C046     		.align	2
 6169              	.L374:
 6170 0028 00000000 		.word	g_pCB
 6171              		.cfi_endproc
 6172              	.LFE19:
 6173              		.size	_SlDrvObjDeInit, .-_SlDrvObjDeInit
 6174              		.section	.text._SlRemoveFromList,"ax",%progbits
 6175              		.align	2
 6176              		.global	_SlRemoveFromList
 6177              		.code	16
 6178              		.thumb_func
 6179              		.type	_SlRemoveFromList, %function
 6180              	_SlRemoveFromList:
 6181              	.LFB20:
1401:..\..\..\..\..\simplelink\source/driver.c **** 
1402:..\..\..\..\..\simplelink\source/driver.c **** /* ******************************************************************************/
1403:..\..\..\..\..\simplelink\source/driver.c **** /*   */
1404:..\..\..\..\..\simplelink\source/driver.c **** /* ******************************************************************************/
1405:..\..\..\..\..\simplelink\source/driver.c **** void _SlRemoveFromList(UINT8 *ListIndex, UINT8 ItemIndex)
1406:..\..\..\..\..\simplelink\source/driver.c **** {
 6182              		.loc 1 1406 0
 6183              		.cfi_startproc
 6184 0000 B0B5     		push	{r4, r5, r7, lr}
 6185              	.LCFI59:
 6186              		.cfi_def_cfa_offset 16
 6187              		.cfi_offset 4, -16
 6188              		.cfi_offset 5, -12
 6189              		.cfi_offset 7, -8
 6190              		.cfi_offset 14, -4
 6191 0002 84B0     		sub	sp, sp, #16
 6192              	.LCFI60:
 6193              		.cfi_def_cfa_offset 32
 6194 0004 00AF     		add	r7, sp, #0
 6195              	.LCFI61:
 6196              		.cfi_def_cfa_register 7
 6197 0006 7860     		str	r0, [r7, #4]
 6198 0008 0A1C     		mov	r2, r1
 6199 000a FB1C     		add	r3, r7, #3
 6200 000c 1A70     		strb	r2, [r3]
1407:..\..\..\..\..\simplelink\source/driver.c **** 	UINT8 Idx;
1408:..\..\..\..\..\simplelink\source/driver.c **** 	/* only one item in the list */
1409:..\..\..\..\..\simplelink\source/driver.c **** 	if (MAX_CONCURRENT_ACTIONS == g_pCB->ObjPool[*ListIndex].NextIndex)
ARM GAS  C:\Users\X0217454\AppData\Local\Temp\cc7UAvFx.s 			page 136


 6201              		.loc 1 1409 0
 6202 000e 394B     		ldr	r3, .L383
 6203 0010 1868     		ldr	r0, [r3]
 6204 0012 7B68     		ldr	r3, [r7, #4]
 6205 0014 1B78     		ldrb	r3, [r3]
 6206 0016 1A1C     		mov	r2, r3
 6207 0018 1821     		mov	r1, #24
 6208 001a 131C     		mov	r3, r2
 6209 001c 5B00     		lsl	r3, r3, #1
 6210 001e 9B18     		add	r3, r3, r2
 6211 0020 9B00     		lsl	r3, r3, #2
 6212 0022 C318     		add	r3, r0, r3
 6213 0024 5B18     		add	r3, r3, r1
 6214 0026 9B78     		ldrb	r3, [r3, #2]
 6215 0028 0A2B     		cmp	r3, #10
 6216 002a 03D1     		bne	.L377
1410:..\..\..\..\..\simplelink\source/driver.c **** 	{
1411:..\..\..\..\..\simplelink\source/driver.c **** 		*ListIndex = MAX_CONCURRENT_ACTIONS;
 6217              		.loc 1 1411 0
 6218 002c 7B68     		ldr	r3, [r7, #4]
 6219 002e 0A22     		mov	r2, #10
 6220 0030 1A70     		strb	r2, [r3]
 6221 0032 5BE0     		b	.L376
 6222              	.L377:
1412:..\..\..\..\..\simplelink\source/driver.c **** 	}
1413:..\..\..\..\..\simplelink\source/driver.c **** 	/* need to remove the first item in the list and therfore update the global which holds this index
1414:..\..\..\..\..\simplelink\source/driver.c **** 	else if (*ListIndex == ItemIndex)
 6223              		.loc 1 1414 0
 6224 0034 7B68     		ldr	r3, [r7, #4]
 6225 0036 1B78     		ldrb	r3, [r3]
 6226 0038 FA1C     		add	r2, r7, #3
 6227 003a 1278     		ldrb	r2, [r2]
 6228 003c 9A42     		cmp	r2, r3
 6229 003e 0ED1     		bne	.L379
1415:..\..\..\..\..\simplelink\source/driver.c **** 	{
1416:..\..\..\..\..\simplelink\source/driver.c **** 		*ListIndex = g_pCB->ObjPool[ItemIndex].NextIndex;
 6230              		.loc 1 1416 0
 6231 0040 2C4B     		ldr	r3, .L383
 6232 0042 1868     		ldr	r0, [r3]
 6233 0044 FB1C     		add	r3, r7, #3
 6234 0046 1A78     		ldrb	r2, [r3]
 6235 0048 1821     		mov	r1, #24
 6236 004a 131C     		mov	r3, r2
 6237 004c 5B00     		lsl	r3, r3, #1
 6238 004e 9B18     		add	r3, r3, r2
 6239 0050 9B00     		lsl	r3, r3, #2
 6240 0052 C318     		add	r3, r0, r3
 6241 0054 5B18     		add	r3, r3, r1
 6242 0056 9A78     		ldrb	r2, [r3, #2]
 6243 0058 7B68     		ldr	r3, [r7, #4]
 6244 005a 1A70     		strb	r2, [r3]
 6245 005c 46E0     		b	.L376
 6246              	.L379:
1417:..\..\..\..\..\simplelink\source/driver.c **** 	}
1418:..\..\..\..\..\simplelink\source/driver.c **** 	else
1419:..\..\..\..\..\simplelink\source/driver.c **** 	{
1420:..\..\..\..\..\simplelink\source/driver.c **** 		Idx = *ListIndex;
ARM GAS  C:\Users\X0217454\AppData\Local\Temp\cc7UAvFx.s 			page 137


 6247              		.loc 1 1420 0
 6248 005e 3B1C     		mov	r3, r7
 6249 0060 0F33     		add	r3, r3, #15
 6250 0062 7A68     		ldr	r2, [r7, #4]
 6251 0064 1278     		ldrb	r2, [r2]
 6252 0066 1A70     		strb	r2, [r3]
1421:..\..\..\..\..\simplelink\source/driver.c **** 		while(MAX_CONCURRENT_ACTIONS > Idx)
 6253              		.loc 1 1421 0
 6254 0068 3BE0     		b	.L380
 6255              	.L382:
1422:..\..\..\..\..\simplelink\source/driver.c **** 		{
1423:..\..\..\..\..\simplelink\source/driver.c **** 			/* remove from list */
1424:..\..\..\..\..\simplelink\source/driver.c **** 			if (g_pCB->ObjPool[Idx].NextIndex == ItemIndex)
 6256              		.loc 1 1424 0
 6257 006a 224B     		ldr	r3, .L383
 6258 006c 1868     		ldr	r0, [r3]
 6259 006e 3B1C     		mov	r3, r7
 6260 0070 0F33     		add	r3, r3, #15
 6261 0072 1A78     		ldrb	r2, [r3]
 6262 0074 1821     		mov	r1, #24
 6263 0076 131C     		mov	r3, r2
 6264 0078 5B00     		lsl	r3, r3, #1
 6265 007a 9B18     		add	r3, r3, r2
 6266 007c 9B00     		lsl	r3, r3, #2
 6267 007e C318     		add	r3, r0, r3
 6268 0080 5B18     		add	r3, r3, r1
 6269 0082 9B78     		ldrb	r3, [r3, #2]
 6270 0084 FA1C     		add	r2, r7, #3
 6271 0086 1278     		ldrb	r2, [r2]
 6272 0088 9A42     		cmp	r2, r3
 6273 008a 1AD1     		bne	.L381
1425:..\..\..\..\..\simplelink\source/driver.c **** 			{
1426:..\..\..\..\..\simplelink\source/driver.c **** 				g_pCB->ObjPool[Idx].NextIndex = g_pCB->ObjPool[ItemIndex].NextIndex;
 6274              		.loc 1 1426 0
 6275 008c 194B     		ldr	r3, .L383
 6276 008e 1C68     		ldr	r4, [r3]
 6277 0090 3B1C     		mov	r3, r7
 6278 0092 0F33     		add	r3, r3, #15
 6279 0094 1A78     		ldrb	r2, [r3]
 6280 0096 174B     		ldr	r3, .L383
 6281 0098 1D68     		ldr	r5, [r3]
 6282 009a FB1C     		add	r3, r7, #3
 6283 009c 1978     		ldrb	r1, [r3]
 6284 009e 1820     		mov	r0, #24
 6285 00a0 0B1C     		mov	r3, r1
 6286 00a2 5B00     		lsl	r3, r3, #1
 6287 00a4 5B18     		add	r3, r3, r1
 6288 00a6 9B00     		lsl	r3, r3, #2
 6289 00a8 EB18     		add	r3, r5, r3
 6290 00aa 1B18     		add	r3, r3, r0
 6291 00ac 9978     		ldrb	r1, [r3, #2]
 6292 00ae 1820     		mov	r0, #24
 6293 00b0 131C     		mov	r3, r2
 6294 00b2 5B00     		lsl	r3, r3, #1
 6295 00b4 9B18     		add	r3, r3, r2
 6296 00b6 9B00     		lsl	r3, r3, #2
 6297 00b8 E318     		add	r3, r4, r3
ARM GAS  C:\Users\X0217454\AppData\Local\Temp\cc7UAvFx.s 			page 138


 6298 00ba 1B18     		add	r3, r3, r0
 6299 00bc 0A1C     		add	r2, r1, #0
 6300 00be 9A70     		strb	r2, [r3, #2]
1427:..\..\..\..\..\simplelink\source/driver.c **** 				break;
 6301              		.loc 1 1427 0
 6302 00c0 14E0     		b	.L376
 6303              	.L381:
1428:..\..\..\..\..\simplelink\source/driver.c **** 			}
1429:..\..\..\..\..\simplelink\source/driver.c **** 			Idx = g_pCB->ObjPool[Idx].NextIndex;		
 6304              		.loc 1 1429 0
 6305 00c2 0C4B     		ldr	r3, .L383
 6306 00c4 1C68     		ldr	r4, [r3]
 6307 00c6 3B1C     		mov	r3, r7
 6308 00c8 0F33     		add	r3, r3, #15
 6309 00ca 1A78     		ldrb	r2, [r3]
 6310 00cc 391C     		mov	r1, r7
 6311 00ce 0F31     		add	r1, r1, #15
 6312 00d0 1820     		mov	r0, #24
 6313 00d2 131C     		mov	r3, r2
 6314 00d4 5B00     		lsl	r3, r3, #1
 6315 00d6 9B18     		add	r3, r3, r2
 6316 00d8 9B00     		lsl	r3, r3, #2
 6317 00da E318     		add	r3, r4, r3
 6318 00dc 1B18     		add	r3, r3, r0
 6319 00de 9B78     		ldrb	r3, [r3, #2]
 6320 00e0 0B70     		strb	r3, [r1]
 6321              	.L380:
1421:..\..\..\..\..\simplelink\source/driver.c **** 		while(MAX_CONCURRENT_ACTIONS > Idx)
 6322              		.loc 1 1421 0 discriminator 1
 6323 00e2 3B1C     		mov	r3, r7
 6324 00e4 0F33     		add	r3, r3, #15
 6325 00e6 1B78     		ldrb	r3, [r3]
 6326 00e8 092B     		cmp	r3, #9
 6327 00ea BED9     		bls	.L382
 6328              	.L376:
1430:..\..\..\..\..\simplelink\source/driver.c **** 		}
1431:..\..\..\..\..\simplelink\source/driver.c **** 	}
1432:..\..\..\..\..\simplelink\source/driver.c **** }
 6329              		.loc 1 1432 0
 6330 00ec BD46     		mov	sp, r7
 6331 00ee 04B0     		add	sp, sp, #16
 6332              		@ sp needed for prologue
 6333 00f0 B0BD     		pop	{r4, r5, r7, pc}
 6334              	.L384:
 6335 00f2 C046     		.align	2
 6336              	.L383:
 6337 00f4 00000000 		.word	g_pCB
 6338              		.cfi_endproc
 6339              	.LFE20:
 6340              		.size	_SlRemoveFromList, .-_SlRemoveFromList
 6341              		.section	.text._SlFindAndSetActiveObj,"ax",%progbits
 6342              		.align	2
 6343              		.global	_SlFindAndSetActiveObj
 6344              		.code	16
 6345              		.thumb_func
 6346              		.type	_SlFindAndSetActiveObj, %function
 6347              	_SlFindAndSetActiveObj:
ARM GAS  C:\Users\X0217454\AppData\Local\Temp\cc7UAvFx.s 			page 139


 6348              	.LFB21:
1433:..\..\..\..\..\simplelink\source/driver.c **** 
1434:..\..\..\..\..\simplelink\source/driver.c **** 
1435:..\..\..\..\..\simplelink\source/driver.c **** /* ******************************************************************************/
1436:..\..\..\..\..\simplelink\source/driver.c **** /*  _SlFindAndSetActiveObj                                                     */
1437:..\..\..\..\..\simplelink\source/driver.c **** /* ******************************************************************************/
1438:..\..\..\..\..\simplelink\source/driver.c **** _SlReturnVal_t _SlFindAndSetActiveObj(_SlOpcode_t  Opcode, UINT8 Sd)
1439:..\..\..\..\..\simplelink\source/driver.c **** {
 6349              		.loc 1 1439 0
 6350              		.cfi_startproc
 6351 0000 90B5     		push	{r4, r7, lr}
 6352              	.LCFI62:
 6353              		.cfi_def_cfa_offset 12
 6354              		.cfi_offset 4, -12
 6355              		.cfi_offset 7, -8
 6356              		.cfi_offset 14, -4
 6357 0002 85B0     		sub	sp, sp, #20
 6358              	.LCFI63:
 6359              		.cfi_def_cfa_offset 32
 6360 0004 00AF     		add	r7, sp, #0
 6361              	.LCFI64:
 6362              		.cfi_def_cfa_register 7
 6363 0006 0A1C     		mov	r2, r1
 6364 0008 BB1D     		add	r3, r7, #6
 6365 000a 011C     		add	r1, r0, #0
 6366 000c 1980     		strh	r1, [r3]
 6367 000e 7B1D     		add	r3, r7, #5
 6368 0010 1A70     		strb	r2, [r3]
1440:..\..\..\..\..\simplelink\source/driver.c **** 	UINT8 ActiveIndex;
1441:..\..\..\..\..\simplelink\source/driver.c **** 
1442:..\..\..\..\..\simplelink\source/driver.c **** 	ActiveIndex = g_pCB->ActivePoolIdx;
 6369              		.loc 1 1442 0
 6370 0012 694B     		ldr	r3, .L395
 6371 0014 1968     		ldr	r1, [r3]
 6372 0016 3B1C     		mov	r3, r7
 6373 0018 0F33     		add	r3, r3, #15
 6374 001a 8A22     		mov	r2, #138
 6375 001c 8A5C     		ldrb	r2, [r1, r2]
 6376 001e 1A70     		strb	r2, [r3]
1443:..\..\..\..\..\simplelink\source/driver.c **** 	/* go over the active list if exist to find obj waiting for this Async event */
1444:..\..\..\..\..\simplelink\source/driver.c **** 		while (MAX_CONCURRENT_ACTIONS > ActiveIndex)
 6377              		.loc 1 1444 0
 6378 0020 BEE0     		b	.L386
 6379              	.L394:
1445:..\..\..\..\..\simplelink\source/driver.c **** 		{
1446:..\..\..\..\..\simplelink\source/driver.c **** 			/* unset the Ipv4\IPv6 bit in the opcode if family bit was set  */
1447:..\..\..\..\..\simplelink\source/driver.c **** 			if (g_pCB->ObjPool[ActiveIndex].AdditionalData & SL_NETAPP_FAMILY_MASK)
 6380              		.loc 1 1447 0
 6381 0022 654B     		ldr	r3, .L395
 6382 0024 1868     		ldr	r0, [r3]
 6383 0026 3B1C     		mov	r3, r7
 6384 0028 0F33     		add	r3, r3, #15
 6385 002a 1A78     		ldrb	r2, [r3]
 6386 002c 1821     		mov	r1, #24
 6387 002e 131C     		mov	r3, r2
 6388 0030 5B00     		lsl	r3, r3, #1
 6389 0032 9B18     		add	r3, r3, r2
ARM GAS  C:\Users\X0217454\AppData\Local\Temp\cc7UAvFx.s 			page 140


 6390 0034 9B00     		lsl	r3, r3, #2
 6391 0036 C318     		add	r3, r0, r3
 6392 0038 5B18     		add	r3, r3, r1
 6393 003a 5B78     		ldrb	r3, [r3, #1]
 6394 003c DBB2     		uxtb	r3, r3
 6395 003e 5BB2     		sxtb	r3, r3
 6396 0040 002B     		cmp	r3, #0
 6397 0042 05DA     		bge	.L387
1448:..\..\..\..\..\simplelink\source/driver.c **** 			{
1449:..\..\..\..\..\simplelink\source/driver.c **** 				Opcode &= ~SL_OPCODE_IPV6;
 6398              		.loc 1 1449 0
 6399 0044 BB1D     		add	r3, r7, #6
 6400 0046 BA1D     		add	r2, r7, #6
 6401 0048 1188     		ldrh	r1, [r2]
 6402 004a 5C4A     		ldr	r2, .L395+4
 6403 004c 0A40     		and	r2, r1
 6404 004e 1A80     		strh	r2, [r3]
 6405              	.L387:
1450:..\..\..\..\..\simplelink\source/driver.c **** 			}
1451:..\..\..\..\..\simplelink\source/driver.c **** 
1452:..\..\..\..\..\simplelink\source/driver.c **** 			if ((g_pCB->ObjPool[ActiveIndex].ActionID == RECV_ID) && (Sd == g_pCB->ObjPool[ActiveIndex].Addi
 6406              		.loc 1 1452 0
 6407 0050 594B     		ldr	r3, .L395
 6408 0052 1868     		ldr	r0, [r3]
 6409 0054 3B1C     		mov	r3, r7
 6410 0056 0F33     		add	r3, r3, #15
 6411 0058 1A78     		ldrb	r2, [r3]
 6412 005a 1821     		mov	r1, #24
 6413 005c 131C     		mov	r3, r2
 6414 005e 5B00     		lsl	r3, r3, #1
 6415 0060 9B18     		add	r3, r3, r2
 6416 0062 9B00     		lsl	r3, r3, #2
 6417 0064 C318     		add	r3, r0, r3
 6418 0066 5B18     		add	r3, r3, r1
 6419 0068 1B78     		ldrb	r3, [r3]
 6420 006a 0F2B     		cmp	r3, #15
 6421 006c 28D1     		bne	.L388
 6422              		.loc 1 1452 0 is_stmt 0 discriminator 1
 6423 006e 524B     		ldr	r3, .L395
 6424 0070 1868     		ldr	r0, [r3]
 6425 0072 3B1C     		mov	r3, r7
 6426 0074 0F33     		add	r3, r3, #15
 6427 0076 1A78     		ldrb	r2, [r3]
 6428 0078 1821     		mov	r1, #24
 6429 007a 131C     		mov	r3, r2
 6430 007c 5B00     		lsl	r3, r3, #1
 6431 007e 9B18     		add	r3, r3, r2
 6432 0080 9B00     		lsl	r3, r3, #2
 6433 0082 C318     		add	r3, r0, r3
 6434 0084 5B18     		add	r3, r3, r1
 6435 0086 5B78     		ldrb	r3, [r3, #1]
 6436 0088 7A1D     		add	r2, r7, #5
 6437 008a 1278     		ldrb	r2, [r2]
 6438 008c 9A42     		cmp	r2, r3
 6439 008e 17D1     		bne	.L388
 6440 0090 BB1D     		add	r3, r7, #6
 6441 0092 1A88     		ldrh	r2, [r3]
ARM GAS  C:\Users\X0217454\AppData\Local\Temp\cc7UAvFx.s 			page 141


 6442 0094 4A4B     		ldr	r3, .L395+8
 6443 0096 9A42     		cmp	r2, r3
 6444 0098 09D0     		beq	.L389
1453:..\..\..\..\..\simplelink\source/driver.c **** 						( (SL_OPCODE_SOCKET_RECVASYNCRESPONSE == Opcode) || (SL_OPCODE_SOCKET_RECVFROMASYNCRESPONSE =
 6445              		.loc 1 1453 0 is_stmt 1
 6446 009a BB1D     		add	r3, r7, #6
 6447 009c 1A88     		ldrh	r2, [r3]
 6448 009e 494B     		ldr	r3, .L395+12
 6449 00a0 9A42     		cmp	r2, r3
 6450 00a2 04D0     		beq	.L389
 6451              		.loc 1 1453 0 is_stmt 0 discriminator 1
 6452 00a4 BB1D     		add	r3, r7, #6
 6453 00a6 1A88     		ldrh	r2, [r3]
 6454 00a8 474B     		ldr	r3, .L395+16
 6455 00aa 9A42     		cmp	r2, r3
 6456 00ac 08D1     		bne	.L388
 6457              	.L389:
1454:..\..\..\..\..\simplelink\source/driver.c **** 			{
1455:..\..\..\..\..\simplelink\source/driver.c **** 				g_pCB->FunctionParams.AsyncExt.ActionIndex = ActiveIndex;
 6458              		.loc 1 1455 0 is_stmt 1
 6459 00ae 424B     		ldr	r3, .L395
 6460 00b0 1A68     		ldr	r2, [r3]
 6461 00b2 391C     		mov	r1, r7
 6462 00b4 0F31     		add	r1, r1, #15
 6463 00b6 AC23     		mov	r3, #172
 6464 00b8 0978     		ldrb	r1, [r1]
 6465 00ba D154     		strb	r1, [r2, r3]
1456:..\..\..\..\..\simplelink\source/driver.c **** 				return SL_RET_CODE_OK;
 6466              		.loc 1 1456 0
 6467 00bc 0023     		mov	r3, #0
 6468 00be 77E0     		b	.L390
 6469              	.L388:
1457:..\..\..\..\..\simplelink\source/driver.c **** 			}
1458:..\..\..\..\..\simplelink\source/driver.c ****                          /* In case this action is socket related, SocketID is in use, otherwise wi
1459:..\..\..\..\..\simplelink\source/driver.c **** 			if ( (_SlActionLookupTable[ g_pCB->ObjPool[ActiveIndex].ActionID - MAX_SOCKET_ENUM_IDX].ActionAs
 6470              		.loc 1 1459 0
 6471 00c0 3D4B     		ldr	r3, .L395
 6472 00c2 1868     		ldr	r0, [r3]
 6473 00c4 3B1C     		mov	r3, r7
 6474 00c6 0F33     		add	r3, r3, #15
 6475 00c8 1A78     		ldrb	r2, [r3]
 6476 00ca 1821     		mov	r1, #24
 6477 00cc 131C     		mov	r3, r2
 6478 00ce 5B00     		lsl	r3, r3, #1
 6479 00d0 9B18     		add	r3, r3, r2
 6480 00d2 9B00     		lsl	r3, r3, #2
 6481 00d4 C318     		add	r3, r0, r3
 6482 00d6 5B18     		add	r3, r3, r1
 6483 00d8 1B78     		ldrb	r3, [r3]
 6484 00da 083B     		sub	r3, r3, #8
 6485 00dc 3B4A     		ldr	r2, .L395+20
 6486 00de DB00     		lsl	r3, r3, #3
 6487 00e0 D318     		add	r3, r2, r3
 6488 00e2 5B88     		ldrh	r3, [r3, #2]
 6489 00e4 BA1D     		add	r2, r7, #6
 6490 00e6 1288     		ldrh	r2, [r2]
 6491 00e8 9A42     		cmp	r2, r3
ARM GAS  C:\Users\X0217454\AppData\Local\Temp\cc7UAvFx.s 			page 142


 6492 00ea 49D1     		bne	.L391
1460:..\..\..\..\..\simplelink\source/driver.c **** 						( ((Sd == (g_pCB->ObjPool[ActiveIndex].AdditionalData & BSD_SOCKET_ID_MASK) ) && (SL_MAX_SOCK
 6493              		.loc 1 1460 0 discriminator 1
 6494 00ec 7B1D     		add	r3, r7, #5
 6495 00ee 1978     		ldrb	r1, [r3]
 6496 00f0 314B     		ldr	r3, .L395
 6497 00f2 1C68     		ldr	r4, [r3]
 6498 00f4 3B1C     		mov	r3, r7
 6499 00f6 0F33     		add	r3, r3, #15
 6500 00f8 1A78     		ldrb	r2, [r3]
 6501 00fa 1820     		mov	r0, #24
 6502 00fc 131C     		mov	r3, r2
 6503 00fe 5B00     		lsl	r3, r3, #1
 6504 0100 9B18     		add	r3, r3, r2
 6505 0102 9B00     		lsl	r3, r3, #2
 6506 0104 E318     		add	r3, r4, r3
 6507 0106 1B18     		add	r3, r3, r0
 6508 0108 5B78     		ldrb	r3, [r3, #1]
 6509 010a 1A1C     		mov	r2, r3
 6510 010c 0F23     		mov	r3, #15
 6511 010e 1340     		and	r3, r2
1459:..\..\..\..\..\simplelink\source/driver.c **** 			if ( (_SlActionLookupTable[ g_pCB->ObjPool[ActiveIndex].ActionID - MAX_SOCKET_ENUM_IDX].ActionAs
 6512              		.loc 1 1459 0 discriminator 1
 6513 0110 9942     		cmp	r1, r3
 6514 0112 03D1     		bne	.L392
 6515              		.loc 1 1460 0
 6516 0114 7B1D     		add	r3, r7, #5
 6517 0116 1B78     		ldrb	r3, [r3]
 6518 0118 072B     		cmp	r3, #7
 6519 011a 11D9     		bls	.L393
 6520              	.L392:
 6521              		.loc 1 1460 0 is_stmt 0 discriminator 1
 6522 011c 264B     		ldr	r3, .L395
 6523 011e 1868     		ldr	r0, [r3]
 6524 0120 3B1C     		mov	r3, r7
 6525 0122 0F33     		add	r3, r3, #15
 6526 0124 1A78     		ldrb	r2, [r3]
 6527 0126 1821     		mov	r1, #24
 6528 0128 131C     		mov	r3, r2
 6529 012a 5B00     		lsl	r3, r3, #1
 6530 012c 9B18     		add	r3, r3, r2
 6531 012e 9B00     		lsl	r3, r3, #2
 6532 0130 C318     		add	r3, r0, r3
 6533 0132 5B18     		add	r3, r3, r1
 6534 0134 5B78     		ldrb	r3, [r3, #1]
 6535 0136 1A1C     		mov	r2, r3
 6536 0138 0F23     		mov	r3, #15
 6537 013a 1340     		and	r3, r2
 6538 013c 082B     		cmp	r3, #8
 6539 013e 1FD1     		bne	.L391
 6540              	.L393:
1461:..\..\..\..\..\simplelink\source/driver.c **** 			{
1462:..\..\..\..\..\simplelink\source/driver.c **** 				/* set handler */
1463:..\..\..\..\..\simplelink\source/driver.c **** 				g_pCB->FunctionParams.AsyncExt.AsyncEvtHandler = _SlActionLookupTable[ g_pCB->ObjPool[ActiveInd
 6541              		.loc 1 1463 0 is_stmt 1
 6542 0140 1D4B     		ldr	r3, .L395
 6543 0142 1968     		ldr	r1, [r3]
ARM GAS  C:\Users\X0217454\AppData\Local\Temp\cc7UAvFx.s 			page 143


 6544 0144 1C4B     		ldr	r3, .L395
 6545 0146 1C68     		ldr	r4, [r3]
 6546 0148 3B1C     		mov	r3, r7
 6547 014a 0F33     		add	r3, r3, #15
 6548 014c 1A78     		ldrb	r2, [r3]
 6549 014e 1820     		mov	r0, #24
 6550 0150 131C     		mov	r3, r2
 6551 0152 5B00     		lsl	r3, r3, #1
 6552 0154 9B18     		add	r3, r3, r2
 6553 0156 9B00     		lsl	r3, r3, #2
 6554 0158 E318     		add	r3, r4, r3
 6555 015a 1B18     		add	r3, r3, r0
 6556 015c 1B78     		ldrb	r3, [r3]
 6557 015e 083B     		sub	r3, r3, #8
 6558 0160 1A4A     		ldr	r2, .L395+20
 6559 0162 DB00     		lsl	r3, r3, #3
 6560 0164 D318     		add	r3, r2, r3
 6561 0166 0433     		add	r3, r3, #4
 6562 0168 1A68     		ldr	r2, [r3]
 6563 016a B023     		mov	r3, #176
 6564 016c CA50     		str	r2, [r1, r3]
1464:..\..\..\..\..\simplelink\source/driver.c **** 				g_pCB->FunctionParams.AsyncExt.ActionIndex = ActiveIndex;
 6565              		.loc 1 1464 0
 6566 016e 124B     		ldr	r3, .L395
 6567 0170 1A68     		ldr	r2, [r3]
 6568 0172 391C     		mov	r1, r7
 6569 0174 0F31     		add	r1, r1, #15
 6570 0176 AC23     		mov	r3, #172
 6571 0178 0978     		ldrb	r1, [r1]
 6572 017a D154     		strb	r1, [r2, r3]
1465:..\..\..\..\..\simplelink\source/driver.c **** 				return SL_RET_CODE_OK;
 6573              		.loc 1 1465 0
 6574 017c 0023     		mov	r3, #0
 6575 017e 17E0     		b	.L390
 6576              	.L391:
1466:..\..\..\..\..\simplelink\source/driver.c **** 			}
1467:..\..\..\..\..\simplelink\source/driver.c **** 			ActiveIndex = g_pCB->ObjPool[ActiveIndex].NextIndex;
 6577              		.loc 1 1467 0
 6578 0180 0D4B     		ldr	r3, .L395
 6579 0182 1C68     		ldr	r4, [r3]
 6580 0184 3B1C     		mov	r3, r7
 6581 0186 0F33     		add	r3, r3, #15
 6582 0188 1A78     		ldrb	r2, [r3]
 6583 018a 391C     		mov	r1, r7
 6584 018c 0F31     		add	r1, r1, #15
 6585 018e 1820     		mov	r0, #24
 6586 0190 131C     		mov	r3, r2
 6587 0192 5B00     		lsl	r3, r3, #1
 6588 0194 9B18     		add	r3, r3, r2
 6589 0196 9B00     		lsl	r3, r3, #2
 6590 0198 E318     		add	r3, r4, r3
 6591 019a 1B18     		add	r3, r3, r0
 6592 019c 9B78     		ldrb	r3, [r3, #2]
 6593 019e 0B70     		strb	r3, [r1]
 6594              	.L386:
1444:..\..\..\..\..\simplelink\source/driver.c **** 		while (MAX_CONCURRENT_ACTIONS > ActiveIndex)
 6595              		.loc 1 1444 0 discriminator 1
ARM GAS  C:\Users\X0217454\AppData\Local\Temp\cc7UAvFx.s 			page 144


 6596 01a0 3B1C     		mov	r3, r7
 6597 01a2 0F33     		add	r3, r3, #15
 6598 01a4 1B78     		ldrb	r3, [r3]
 6599 01a6 092B     		cmp	r3, #9
 6600 01a8 00D8     		bhi	.LCB6178
 6601 01aa 3AE7     		b	.L394	@long jump
 6602              	.LCB6178:
1468:..\..\..\..\..\simplelink\source/driver.c **** 		}
1469:..\..\..\..\..\simplelink\source/driver.c **** 
1470:..\..\..\..\..\simplelink\source/driver.c **** 	return SL_RET_CODE_SELF_ERROR;
 6603              		.loc 1 1470 0
 6604 01ac 0323     		mov	r3, #3
 6605 01ae 5B42     		neg	r3, r3
 6606              	.L390:
1471:..\..\..\..\..\simplelink\source/driver.c **** }
 6607              		.loc 1 1471 0
 6608 01b0 181C     		mov	r0, r3
 6609 01b2 BD46     		mov	sp, r7
 6610 01b4 05B0     		add	sp, sp, #20
 6611              		@ sp needed for prologue
 6612 01b6 90BD     		pop	{r4, r7, pc}
 6613              	.L396:
 6614              		.align	2
 6615              	.L395:
 6616 01b8 00000000 		.word	g_pCB
 6617 01bc FFFDFFFF 		.word	-513
 6618 01c0 0A100000 		.word	4106
 6619 01c4 0B100000 		.word	4107
 6620 01c8 0B120000 		.word	4619
 6621 01cc 00000000 		.word	_SlActionLookupTable
 6622              		.cfi_endproc
 6623              	.LFE21:
 6624              		.size	_SlFindAndSetActiveObj, .-_SlFindAndSetActiveObj
 6625              		.text
 6626              	.Letext0:
 6627              		.file 2 "..\\..\\..\\..\\..\\simplelink\\source\\datatypes.h"
 6628              		.file 3 "..\\..\\..\\..\\..\\simplelink\\include/simplelink.h"
 6629              		.file 4 "..\\..\\..\\..\\..\\simplelink\\include/../source/nonos.h"
 6630              		.file 5 "..\\..\\..\\..\\..\\simplelink\\include/socket.h"
 6631              		.file 6 "..\\..\\..\\..\\..\\simplelink\\include/netapp.h"
 6632              		.file 7 "..\\..\\..\\..\\..\\simplelink\\include/wlan.h"
 6633              		.file 8 "..\\..\\..\\..\\..\\simplelink\\include/device.h"
 6634              		.file 9 "..\\..\\..\\..\\..\\simplelink\\source\\protocol.h"
 6635              		.file 10 "..\\..\\..\\..\\..\\simplelink\\source\\driver.h"
 6636              		.section	.debug_info,"",%progbits
 6637              	.Ldebug_info0:
 6638 0000 CA1F0000 		.4byte	0x1fca
 6639 0004 0200     		.2byte	0x2
 6640 0006 00000000 		.4byte	.Ldebug_abbrev0
 6641 000a 04       		.byte	0x4
 6642 000b 01       		.uleb128 0x1
 6643 000c A2030000 		.4byte	.LASF250
 6644 0010 01       		.byte	0x1
 6645 0011 B50A0000 		.4byte	.LASF251
 6646 0015 81060000 		.4byte	.LASF252
 6647 0019 18000000 		.4byte	.Ldebug_ranges0+0x18
 6648 001d 00000000 		.4byte	0
ARM GAS  C:\Users\X0217454\AppData\Local\Temp\cc7UAvFx.s 			page 145


 6649 0021 00000000 		.4byte	0
 6650 0025 00000000 		.4byte	.Ldebug_line0
 6651 0029 02       		.uleb128 0x2
 6652 002a 01       		.byte	0x1
 6653 002b 06       		.byte	0x6
 6654 002c E7020000 		.4byte	.LASF0
 6655 0030 03       		.uleb128 0x3
 6656 0031 F10B0000 		.4byte	.LASF2
 6657 0035 02       		.byte	0x2
 6658 0036 45       		.byte	0x45
 6659 0037 3B000000 		.4byte	0x3b
 6660 003b 02       		.uleb128 0x2
 6661 003c 01       		.byte	0x1
 6662 003d 08       		.byte	0x8
 6663 003e 3E030000 		.4byte	.LASF1
 6664 0042 03       		.uleb128 0x3
 6665 0043 38030000 		.4byte	.LASF3
 6666 0047 02       		.byte	0x2
 6667 0048 4A       		.byte	0x4a
 6668 0049 4D000000 		.4byte	0x4d
 6669 004d 02       		.uleb128 0x2
 6670 004e 02       		.byte	0x2
 6671 004f 05       		.byte	0x5
 6672 0050 7E0C0000 		.4byte	.LASF4
 6673 0054 03       		.uleb128 0x3
 6674 0055 BC050000 		.4byte	.LASF5
 6675 0059 02       		.byte	0x2
 6676 005a 4F       		.byte	0x4f
 6677 005b 5F000000 		.4byte	0x5f
 6678 005f 02       		.uleb128 0x2
 6679 0060 02       		.byte	0x2
 6680 0061 07       		.byte	0x7
 6681 0062 C00D0000 		.4byte	.LASF6
 6682 0066 02       		.uleb128 0x2
 6683 0067 04       		.byte	0x4
 6684 0068 05       		.byte	0x5
 6685 0069 40020000 		.4byte	.LASF7
 6686 006d 03       		.uleb128 0x3
 6687 006e 24070000 		.4byte	.LASF8
 6688 0072 02       		.byte	0x2
 6689 0073 63       		.byte	0x63
 6690 0074 78000000 		.4byte	0x78
 6691 0078 02       		.uleb128 0x2
 6692 0079 04       		.byte	0x4
 6693 007a 07       		.byte	0x7
 6694 007b 22060000 		.4byte	.LASF9
 6695 007f 02       		.uleb128 0x2
 6696 0080 08       		.byte	0x8
 6697 0081 07       		.byte	0x7
 6698 0082 870A0000 		.4byte	.LASF10
 6699 0086 04       		.uleb128 0x4
 6700 0087 494E5400 		.ascii	"INT\000"
 6701 008b 02       		.byte	0x2
 6702 008c 6D       		.byte	0x6d
 6703 008d 91000000 		.4byte	0x91
 6704 0091 05       		.uleb128 0x5
 6705 0092 04       		.byte	0x4
ARM GAS  C:\Users\X0217454\AppData\Local\Temp\cc7UAvFx.s 			page 146


 6706 0093 05       		.byte	0x5
 6707 0094 696E7400 		.ascii	"int\000"
 6708 0098 02       		.uleb128 0x2
 6709 0099 01       		.byte	0x1
 6710 009a 08       		.byte	0x8
 6711 009b 92040000 		.4byte	.LASF11
 6712 009f 02       		.uleb128 0x2
 6713 00a0 04       		.byte	0x4
 6714 00a1 04       		.byte	0x4
 6715 00a2 70080000 		.4byte	.LASF12
 6716 00a6 02       		.uleb128 0x2
 6717 00a7 08       		.byte	0x8
 6718 00a8 04       		.byte	0x4
 6719 00a9 3D080000 		.4byte	.LASF13
 6720 00ad 03       		.uleb128 0x3
 6721 00ae 2C030000 		.4byte	.LASF14
 6722 00b2 02       		.byte	0x2
 6723 00b3 73       		.byte	0x73
 6724 00b4 54000000 		.4byte	0x54
 6725 00b8 03       		.uleb128 0x3
 6726 00b9 AF050000 		.4byte	.LASF15
 6727 00bd 02       		.byte	0x2
 6728 00be 74       		.byte	0x74
 6729 00bf 30000000 		.4byte	0x30
 6730 00c3 03       		.uleb128 0x3
 6731 00c4 E70D0000 		.4byte	.LASF16
 6732 00c8 02       		.byte	0x2
 6733 00c9 76       		.byte	0x76
 6734 00ca 86000000 		.4byte	0x86
 6735 00ce 02       		.uleb128 0x2
 6736 00cf 04       		.byte	0x4
 6737 00d0 07       		.byte	0x7
 6738 00d1 B0080000 		.4byte	.LASF17
 6739 00d5 02       		.uleb128 0x2
 6740 00d6 08       		.byte	0x8
 6741 00d7 05       		.byte	0x5
 6742 00d8 DA070000 		.4byte	.LASF18
 6743 00dc 02       		.uleb128 0x2
 6744 00dd 04       		.byte	0x4
 6745 00de 07       		.byte	0x7
 6746 00df 31000000 		.4byte	.LASF19
 6747 00e3 06       		.uleb128 0x6
 6748 00e4 04       		.byte	0x4
 6749 00e5 07       		.uleb128 0x7
 6750 00e6 3B000000 		.4byte	0x3b
 6751 00ea F5000000 		.4byte	0xf5
 6752 00ee 08       		.uleb128 0x8
 6753 00ef DC000000 		.4byte	0xdc
 6754 00f3 02       		.byte	0x2
 6755 00f4 00       		.byte	0
 6756 00f5 09       		.uleb128 0x9
 6757 00f6 04       		.byte	0x4
 6758 00f7 FB000000 		.4byte	0xfb
 6759 00fb 0A       		.uleb128 0xa
 6760 00fc 01       		.byte	0x1
 6761 00fd 07010000 		.4byte	0x107
 6762 0101 0B       		.uleb128 0xb
ARM GAS  C:\Users\X0217454\AppData\Local\Temp\cc7UAvFx.s 			page 147


 6763 0102 E3000000 		.4byte	0xe3
 6764 0106 00       		.byte	0
 6765 0107 0C       		.uleb128 0xc
 6766 0108 CB010000 		.4byte	.LASF20
 6767 010c 03       		.byte	0x3
 6768 010d 2001     		.2byte	0x120
 6769 010f F5000000 		.4byte	0xf5
 6770 0113 03       		.uleb128 0x3
 6771 0114 470D0000 		.4byte	.LASF21
 6772 0118 04       		.byte	0x4
 6773 0119 50       		.byte	0x50
 6774 011a 3B000000 		.4byte	0x3b
 6775 011e 07       		.uleb128 0x7
 6776 011f 78000000 		.4byte	0x78
 6777 0123 2E010000 		.4byte	0x12e
 6778 0127 08       		.uleb128 0x8
 6779 0128 DC000000 		.4byte	0xdc
 6780 012c 03       		.byte	0x3
 6781 012d 00       		.byte	0
 6782 012e 0D       		.uleb128 0xd
 6783 012f 04       		.byte	0x4
 6784 0130 05       		.byte	0x5
 6785 0131 9701     		.2byte	0x197
 6786 0133 55010000 		.4byte	0x155
 6787 0137 0E       		.uleb128 0xe
 6788 0138 3D060000 		.4byte	.LASF22
 6789 013c 05       		.byte	0x5
 6790 013d 9901     		.2byte	0x199
 6791 013f 4D000000 		.4byte	0x4d
 6792 0143 02       		.byte	0x2
 6793 0144 23       		.byte	0x23
 6794 0145 00       		.uleb128 0
 6795 0146 0F       		.uleb128 0xf
 6796 0147 736400   		.ascii	"sd\000"
 6797 014a 05       		.byte	0x5
 6798 014b 9A01     		.2byte	0x19a
 6799 014d 5F000000 		.4byte	0x5f
 6800 0151 02       		.byte	0x2
 6801 0152 23       		.byte	0x23
 6802 0153 02       		.uleb128 0x2
 6803 0154 00       		.byte	0
 6804 0155 0C       		.uleb128 0xc
 6805 0156 6F060000 		.4byte	.LASF23
 6806 015a 05       		.byte	0x5
 6807 015b 9B01     		.2byte	0x19b
 6808 015d 2E010000 		.4byte	0x12e
 6809 0161 0D       		.uleb128 0xd
 6810 0162 08       		.byte	0x8
 6811 0163 05       		.byte	0x5
 6812 0164 9D01     		.2byte	0x19d
 6813 0166 89010000 		.4byte	0x189
 6814 016a 0E       		.uleb128 0xe
 6815 016b 1D080000 		.4byte	.LASF24
 6816 016f 05       		.byte	0x5
 6817 0170 9F01     		.2byte	0x19f
 6818 0172 78000000 		.4byte	0x78
 6819 0176 02       		.byte	0x2
ARM GAS  C:\Users\X0217454\AppData\Local\Temp\cc7UAvFx.s 			page 148


 6820 0177 23       		.byte	0x23
 6821 0178 00       		.uleb128 0
 6822 0179 0E       		.uleb128 0xe
 6823 017a 90000000 		.4byte	.LASF25
 6824 017e 05       		.byte	0x5
 6825 017f A001     		.2byte	0x1a0
 6826 0181 55010000 		.4byte	0x155
 6827 0185 02       		.byte	0x2
 6828 0186 23       		.byte	0x23
 6829 0187 04       		.uleb128 0x4
 6830 0188 00       		.byte	0
 6831 0189 0C       		.uleb128 0xc
 6832 018a 4E0C0000 		.4byte	.LASF26
 6833 018e 05       		.byte	0x5
 6834 018f A101     		.2byte	0x1a1
 6835 0191 61010000 		.4byte	0x161
 6836 0195 0D       		.uleb128 0xd
 6837 0196 0C       		.byte	0xc
 6838 0197 05       		.byte	0x5
 6839 0198 F101     		.2byte	0x1f1
 6840 019a CB010000 		.4byte	0x1cb
 6841 019e 0F       		.uleb128 0xf
 6842 019f 697000   		.ascii	"ip\000"
 6843 01a2 05       		.byte	0x5
 6844 01a3 F301     		.2byte	0x1f3
 6845 01a5 78000000 		.4byte	0x78
 6846 01a9 02       		.byte	0x2
 6847 01aa 23       		.byte	0x23
 6848 01ab 00       		.uleb128 0
 6849 01ac 0E       		.uleb128 0xe
 6850 01ad 0C0D0000 		.4byte	.LASF27
 6851 01b1 05       		.byte	0x5
 6852 01b2 F401     		.2byte	0x1f4
 6853 01b4 78000000 		.4byte	0x78
 6854 01b8 02       		.byte	0x2
 6855 01b9 23       		.byte	0x23
 6856 01ba 04       		.uleb128 0x4
 6857 01bb 0F       		.uleb128 0xf
 6858 01bc 646E7300 		.ascii	"dns\000"
 6859 01c0 05       		.byte	0x5
 6860 01c1 F501     		.2byte	0x1f5
 6861 01c3 78000000 		.4byte	0x78
 6862 01c7 02       		.byte	0x2
 6863 01c8 23       		.byte	0x23
 6864 01c9 08       		.uleb128 0x8
 6865 01ca 00       		.byte	0
 6866 01cb 0C       		.uleb128 0xc
 6867 01cc 6A030000 		.4byte	.LASF28
 6868 01d0 05       		.byte	0x5
 6869 01d1 F601     		.2byte	0x1f6
 6870 01d3 95010000 		.4byte	0x195
 6871 01d7 0D       		.uleb128 0xd
 6872 01d8 34       		.byte	0x34
 6873 01d9 05       		.byte	0x5
 6874 01da F801     		.2byte	0x1f8
 6875 01dc 1C020000 		.4byte	0x21c
 6876 01e0 0E       		.uleb128 0xe
ARM GAS  C:\Users\X0217454\AppData\Local\Temp\cc7UAvFx.s 			page 149


 6877 01e1 9B010000 		.4byte	.LASF29
 6878 01e5 05       		.byte	0x5
 6879 01e6 FA01     		.2byte	0x1fa
 6880 01e8 78000000 		.4byte	0x78
 6881 01ec 02       		.byte	0x2
 6882 01ed 23       		.byte	0x23
 6883 01ee 00       		.uleb128 0
 6884 01ef 0F       		.uleb128 0xf
 6885 01f0 697000   		.ascii	"ip\000"
 6886 01f3 05       		.byte	0x5
 6887 01f4 FB01     		.2byte	0x1fb
 6888 01f6 1E010000 		.4byte	0x11e
 6889 01fa 02       		.byte	0x2
 6890 01fb 23       		.byte	0x23
 6891 01fc 04       		.uleb128 0x4
 6892 01fd 0E       		.uleb128 0xe
 6893 01fe 0C0D0000 		.4byte	.LASF27
 6894 0202 05       		.byte	0x5
 6895 0203 FC01     		.2byte	0x1fc
 6896 0205 1E010000 		.4byte	0x11e
 6897 0209 02       		.byte	0x2
 6898 020a 23       		.byte	0x23
 6899 020b 14       		.uleb128 0x14
 6900 020c 0F       		.uleb128 0xf
 6901 020d 646E7300 		.ascii	"dns\000"
 6902 0211 05       		.byte	0x5
 6903 0212 FD01     		.2byte	0x1fd
 6904 0214 1E010000 		.4byte	0x11e
 6905 0218 02       		.byte	0x2
 6906 0219 23       		.byte	0x23
 6907 021a 24       		.uleb128 0x24
 6908 021b 00       		.byte	0
 6909 021c 0C       		.uleb128 0xc
 6910 021d E1050000 		.4byte	.LASF30
 6911 0221 05       		.byte	0x5
 6912 0222 FE01     		.2byte	0x1fe
 6913 0224 D7010000 		.4byte	0x1d7
 6914 0228 0D       		.uleb128 0xd
 6915 0229 10       		.byte	0x10
 6916 022a 05       		.byte	0x5
 6917 022b 0002     		.2byte	0x200
 6918 022d 6E020000 		.4byte	0x26e
 6919 0231 0E       		.uleb128 0xe
 6920 0232 010D0000 		.4byte	.LASF31
 6921 0236 05       		.byte	0x5
 6922 0237 0202     		.2byte	0x202
 6923 0239 78000000 		.4byte	0x78
 6924 023d 02       		.byte	0x2
 6925 023e 23       		.byte	0x23
 6926 023f 00       		.uleb128 0
 6927 0240 0E       		.uleb128 0xe
 6928 0241 D6050000 		.4byte	.LASF32
 6929 0245 05       		.byte	0x5
 6930 0246 0302     		.2byte	0x203
 6931 0248 78000000 		.4byte	0x78
 6932 024c 02       		.byte	0x2
 6933 024d 23       		.byte	0x23
ARM GAS  C:\Users\X0217454\AppData\Local\Temp\cc7UAvFx.s 			page 150


 6934 024e 04       		.uleb128 0x4
 6935 024f 0F       		.uleb128 0xf
 6936 0250 6D616300 		.ascii	"mac\000"
 6937 0254 05       		.byte	0x5
 6938 0255 0402     		.2byte	0x204
 6939 0257 6E020000 		.4byte	0x26e
 6940 025b 02       		.byte	0x2
 6941 025c 23       		.byte	0x23
 6942 025d 08       		.uleb128 0x8
 6943 025e 0E       		.uleb128 0xe
 6944 025f 320D0000 		.4byte	.LASF33
 6945 0263 05       		.byte	0x5
 6946 0264 0502     		.2byte	0x205
 6947 0266 5F000000 		.4byte	0x5f
 6948 026a 02       		.byte	0x2
 6949 026b 23       		.byte	0x23
 6950 026c 0E       		.uleb128 0xe
 6951 026d 00       		.byte	0
 6952 026e 07       		.uleb128 0x7
 6953 026f 3B000000 		.4byte	0x3b
 6954 0273 7E020000 		.4byte	0x27e
 6955 0277 08       		.uleb128 0x8
 6956 0278 DC000000 		.4byte	0xdc
 6957 027c 05       		.byte	0x5
 6958 027d 00       		.byte	0
 6959 027e 0C       		.uleb128 0xc
 6960 027f 62050000 		.4byte	.LASF34
 6961 0283 05       		.byte	0x5
 6962 0284 0602     		.2byte	0x206
 6963 0286 28020000 		.4byte	0x228
 6964 028a 0D       		.uleb128 0xd
 6965 028b 0C       		.byte	0xc
 6966 028c 05       		.byte	0x5
 6967 028d 0802     		.2byte	0x208
 6968 028f C1020000 		.4byte	0x2c1
 6969 0293 0E       		.uleb128 0xe
 6970 0294 010D0000 		.4byte	.LASF31
 6971 0298 05       		.byte	0x5
 6972 0299 0A02     		.2byte	0x20a
 6973 029b 78000000 		.4byte	0x78
 6974 029f 02       		.byte	0x2
 6975 02a0 23       		.byte	0x23
 6976 02a1 00       		.uleb128 0
 6977 02a2 0F       		.uleb128 0xf
 6978 02a3 6D616300 		.ascii	"mac\000"
 6979 02a7 05       		.byte	0x5
 6980 02a8 0B02     		.2byte	0x20b
 6981 02aa 6E020000 		.4byte	0x26e
 6982 02ae 02       		.byte	0x2
 6983 02af 23       		.byte	0x23
 6984 02b0 04       		.uleb128 0x4
 6985 02b1 0E       		.uleb128 0xe
 6986 02b2 F60A0000 		.4byte	.LASF35
 6987 02b6 05       		.byte	0x5
 6988 02b7 0C02     		.2byte	0x20c
 6989 02b9 5F000000 		.4byte	0x5f
 6990 02bd 02       		.byte	0x2
ARM GAS  C:\Users\X0217454\AppData\Local\Temp\cc7UAvFx.s 			page 151


 6991 02be 23       		.byte	0x23
 6992 02bf 0A       		.uleb128 0xa
 6993 02c0 00       		.byte	0
 6994 02c1 0C       		.uleb128 0xc
 6995 02c2 C8020000 		.4byte	.LASF36
 6996 02c6 05       		.byte	0x5
 6997 02c7 0D02     		.2byte	0x20d
 6998 02c9 8A020000 		.4byte	0x28a
 6999 02cd 10       		.uleb128 0x10
 7000 02ce 34       		.byte	0x34
 7001 02cf 05       		.byte	0x5
 7002 02d0 0F02     		.2byte	0x20f
 7003 02d2 12030000 		.4byte	0x312
 7004 02d6 11       		.uleb128 0x11
 7005 02d7 68090000 		.4byte	.LASF37
 7006 02db 05       		.byte	0x5
 7007 02dc 1102     		.2byte	0x211
 7008 02de CB010000 		.4byte	0x1cb
 7009 02e2 11       		.uleb128 0x11
 7010 02e3 75090000 		.4byte	.LASF38
 7011 02e7 05       		.byte	0x5
 7012 02e8 1202     		.2byte	0x212
 7013 02ea 1C020000 		.4byte	0x21c
 7014 02ee 12       		.uleb128 0x12
 7015 02ef 736400   		.ascii	"sd\000"
 7016 02f2 05       		.byte	0x5
 7017 02f3 1302     		.2byte	0x213
 7018 02f5 91000000 		.4byte	0x91
 7019 02f9 11       		.uleb128 0x11
 7020 02fa 060A0000 		.4byte	.LASF39
 7021 02fe 05       		.byte	0x5
 7022 02ff 1402     		.2byte	0x214
 7023 0301 7E020000 		.4byte	0x27e
 7024 0305 11       		.uleb128 0x11
 7025 0306 1A0A0000 		.4byte	.LASF40
 7026 030a 05       		.byte	0x5
 7027 030b 1502     		.2byte	0x215
 7028 030d C1020000 		.4byte	0x2c1
 7029 0311 00       		.byte	0
 7030 0312 0C       		.uleb128 0xc
 7031 0313 10070000 		.4byte	.LASF41
 7032 0317 05       		.byte	0x5
 7033 0318 1602     		.2byte	0x216
 7034 031a CD020000 		.4byte	0x2cd
 7035 031e 0D       		.uleb128 0xd
 7036 031f 38       		.byte	0x38
 7037 0320 05       		.byte	0x5
 7038 0321 1802     		.2byte	0x218
 7039 0323 46030000 		.4byte	0x346
 7040 0327 0E       		.uleb128 0xe
 7041 0328 1D080000 		.4byte	.LASF24
 7042 032c 05       		.byte	0x5
 7043 032d 1A02     		.2byte	0x21a
 7044 032f 78000000 		.4byte	0x78
 7045 0333 02       		.byte	0x2
 7046 0334 23       		.byte	0x23
 7047 0335 00       		.uleb128 0
ARM GAS  C:\Users\X0217454\AppData\Local\Temp\cc7UAvFx.s 			page 152


 7048 0336 0E       		.uleb128 0xe
 7049 0337 90000000 		.4byte	.LASF25
 7050 033b 05       		.byte	0x5
 7051 033c 1B02     		.2byte	0x21b
 7052 033e 12030000 		.4byte	0x312
 7053 0342 02       		.byte	0x2
 7054 0343 23       		.byte	0x23
 7055 0344 04       		.uleb128 0x4
 7056 0345 00       		.byte	0
 7057 0346 0C       		.uleb128 0xc
 7058 0347 2D0C0000 		.4byte	.LASF42
 7059 034b 05       		.byte	0x5
 7060 034c 1C02     		.2byte	0x21c
 7061 034e 1E030000 		.4byte	0x31e
 7062 0352 13       		.uleb128 0x13
 7063 0353 14       		.byte	0x14
 7064 0354 06       		.byte	0x6
 7065 0355 33       		.byte	0x33
 7066 0356 AF030000 		.4byte	0x3af
 7067 035a 14       		.uleb128 0x14
 7068 035b 630A0000 		.4byte	.LASF43
 7069 035f 06       		.byte	0x6
 7070 0360 35       		.byte	0x35
 7071 0361 78000000 		.4byte	0x78
 7072 0365 02       		.byte	0x2
 7073 0366 23       		.byte	0x23
 7074 0367 00       		.uleb128 0
 7075 0368 14       		.uleb128 0x14
 7076 0369 DF0C0000 		.4byte	.LASF44
 7077 036d 06       		.byte	0x6
 7078 036e 36       		.byte	0x36
 7079 036f 78000000 		.4byte	0x78
 7080 0373 02       		.byte	0x2
 7081 0374 23       		.byte	0x23
 7082 0375 04       		.uleb128 0x4
 7083 0376 14       		.uleb128 0x14
 7084 0377 C4040000 		.4byte	.LASF45
 7085 037b 06       		.byte	0x6
 7086 037c 37       		.byte	0x37
 7087 037d 5F000000 		.4byte	0x5f
 7088 0381 02       		.byte	0x2
 7089 0382 23       		.byte	0x23
 7090 0383 08       		.uleb128 0x8
 7091 0384 14       		.uleb128 0x14
 7092 0385 55050000 		.4byte	.LASF46
 7093 0389 06       		.byte	0x6
 7094 038a 38       		.byte	0x38
 7095 038b 5F000000 		.4byte	0x5f
 7096 038f 02       		.byte	0x2
 7097 0390 23       		.byte	0x23
 7098 0391 0A       		.uleb128 0xa
 7099 0392 14       		.uleb128 0x14
 7100 0393 83050000 		.4byte	.LASF47
 7101 0397 06       		.byte	0x6
 7102 0398 39       		.byte	0x39
 7103 0399 5F000000 		.4byte	0x5f
 7104 039d 02       		.byte	0x2
ARM GAS  C:\Users\X0217454\AppData\Local\Temp\cc7UAvFx.s 			page 153


 7105 039e 23       		.byte	0x23
 7106 039f 0C       		.uleb128 0xc
 7107 03a0 14       		.uleb128 0x14
 7108 03a1 6B000000 		.4byte	.LASF48
 7109 03a5 06       		.byte	0x6
 7110 03a6 3A       		.byte	0x3a
 7111 03a7 78000000 		.4byte	0x78
 7112 03ab 02       		.byte	0x2
 7113 03ac 23       		.byte	0x23
 7114 03ad 10       		.uleb128 0x10
 7115 03ae 00       		.byte	0
 7116 03af 03       		.uleb128 0x3
 7117 03b0 5B020000 		.4byte	.LASF49
 7118 03b4 06       		.byte	0x6
 7119 03b5 3B       		.byte	0x3b
 7120 03b6 52030000 		.4byte	0x352
 7121 03ba 0C       		.uleb128 0xc
 7122 03bb DF0A0000 		.4byte	.LASF50
 7123 03bf 06       		.byte	0x6
 7124 03c0 1F01     		.2byte	0x11f
 7125 03c2 C6030000 		.4byte	0x3c6
 7126 03c6 09       		.uleb128 0x9
 7127 03c7 04       		.byte	0x4
 7128 03c8 CC030000 		.4byte	0x3cc
 7129 03cc 0A       		.uleb128 0xa
 7130 03cd 01       		.byte	0x1
 7131 03ce D8030000 		.4byte	0x3d8
 7132 03d2 0B       		.uleb128 0xb
 7133 03d3 D8030000 		.4byte	0x3d8
 7134 03d7 00       		.byte	0
 7135 03d8 09       		.uleb128 0x9
 7136 03d9 04       		.byte	0x4
 7137 03da AF030000 		.4byte	0x3af
 7138 03de 0D       		.uleb128 0xd
 7139 03df 4C       		.byte	0x4c
 7140 03e0 07       		.byte	0x7
 7141 03e1 5001     		.2byte	0x150
 7142 03e3 33040000 		.4byte	0x433
 7143 03e7 0E       		.uleb128 0xe
 7144 03e8 3D060000 		.4byte	.LASF22
 7145 03ec 07       		.byte	0x7
 7146 03ed 5201     		.2byte	0x152
 7147 03ef 78000000 		.4byte	0x78
 7148 03f3 02       		.byte	0x2
 7149 03f4 23       		.byte	0x23
 7150 03f5 00       		.uleb128 0
 7151 03f6 0E       		.uleb128 0xe
 7152 03f7 5E0E0000 		.4byte	.LASF51
 7153 03fb 07       		.byte	0x7
 7154 03fc 5301     		.2byte	0x153
 7155 03fe 78000000 		.4byte	0x78
 7156 0402 02       		.byte	0x2
 7157 0403 23       		.byte	0x23
 7158 0404 04       		.uleb128 0x4
 7159 0405 0E       		.uleb128 0xe
 7160 0406 35020000 		.4byte	.LASF52
 7161 040a 07       		.byte	0x7
ARM GAS  C:\Users\X0217454\AppData\Local\Temp\cc7UAvFx.s 			page 154


 7162 040b 5401     		.2byte	0x154
 7163 040d 33040000 		.4byte	0x433
 7164 0411 02       		.byte	0x2
 7165 0412 23       		.byte	0x23
 7166 0413 08       		.uleb128 0x8
 7167 0414 0E       		.uleb128 0xe
 7168 0415 830B0000 		.4byte	.LASF53
 7169 0419 07       		.byte	0x7
 7170 041a 5501     		.2byte	0x155
 7171 041c 78000000 		.4byte	0x78
 7172 0420 02       		.byte	0x2
 7173 0421 23       		.byte	0x23
 7174 0422 28       		.uleb128 0x28
 7175 0423 0E       		.uleb128 0xe
 7176 0424 F2090000 		.4byte	.LASF54
 7177 0428 07       		.byte	0x7
 7178 0429 5601     		.2byte	0x156
 7179 042b 33040000 		.4byte	0x433
 7180 042f 02       		.byte	0x2
 7181 0430 23       		.byte	0x23
 7182 0431 2C       		.uleb128 0x2c
 7183 0432 00       		.byte	0
 7184 0433 07       		.uleb128 0x7
 7185 0434 3B000000 		.4byte	0x3b
 7186 0438 43040000 		.4byte	0x443
 7187 043c 08       		.uleb128 0x8
 7188 043d DC000000 		.4byte	0xdc
 7189 0441 1F       		.byte	0x1f
 7190 0442 00       		.byte	0
 7191 0443 0C       		.uleb128 0xc
 7192 0444 760D0000 		.4byte	.LASF55
 7193 0448 07       		.byte	0x7
 7194 0449 5701     		.2byte	0x157
 7195 044b DE030000 		.4byte	0x3de
 7196 044f 0D       		.uleb128 0xd
 7197 0450 04       		.byte	0x4
 7198 0451 07       		.byte	0x7
 7199 0452 5901     		.2byte	0x159
 7200 0454 77040000 		.4byte	0x477
 7201 0458 0E       		.uleb128 0xe
 7202 0459 3D060000 		.4byte	.LASF22
 7203 045d 07       		.byte	0x7
 7204 045e 5B01     		.2byte	0x15b
 7205 0460 5F000000 		.4byte	0x5f
 7206 0464 02       		.byte	0x2
 7207 0465 23       		.byte	0x23
 7208 0466 00       		.uleb128 0
 7209 0467 0E       		.uleb128 0xe
 7210 0468 320D0000 		.4byte	.LASF33
 7211 046c 07       		.byte	0x7
 7212 046d 5C01     		.2byte	0x15c
 7213 046f 5F000000 		.4byte	0x5f
 7214 0473 02       		.byte	0x2
 7215 0474 23       		.byte	0x23
 7216 0475 02       		.uleb128 0x2
 7217 0476 00       		.byte	0
 7218 0477 0C       		.uleb128 0xc
ARM GAS  C:\Users\X0217454\AppData\Local\Temp\cc7UAvFx.s 			page 155


 7219 0478 330A0000 		.4byte	.LASF56
 7220 047c 07       		.byte	0x7
 7221 047d 5D01     		.2byte	0x15d
 7222 047f 4F040000 		.4byte	0x44f
 7223 0483 0D       		.uleb128 0xd
 7224 0484 04       		.byte	0x4
 7225 0485 07       		.byte	0x7
 7226 0486 5F01     		.2byte	0x15f
 7227 0488 AB040000 		.4byte	0x4ab
 7228 048c 0E       		.uleb128 0xe
 7229 048d 3D060000 		.4byte	.LASF22
 7230 0491 07       		.byte	0x7
 7231 0492 6101     		.2byte	0x161
 7232 0494 5F000000 		.4byte	0x5f
 7233 0498 02       		.byte	0x2
 7234 0499 23       		.byte	0x23
 7235 049a 00       		.uleb128 0
 7236 049b 0E       		.uleb128 0xe
 7237 049c 320D0000 		.4byte	.LASF33
 7238 04a0 07       		.byte	0x7
 7239 04a1 6201     		.2byte	0x162
 7240 04a3 5F000000 		.4byte	0x5f
 7241 04a7 02       		.byte	0x2
 7242 04a8 23       		.byte	0x23
 7243 04a9 02       		.uleb128 0x2
 7244 04aa 00       		.byte	0
 7245 04ab 0C       		.uleb128 0xc
 7246 04ac 84070000 		.4byte	.LASF57
 7247 04b0 07       		.byte	0x7
 7248 04b1 6301     		.2byte	0x163
 7249 04b3 83040000 		.4byte	0x483
 7250 04b7 0D       		.uleb128 0xd
 7251 04b8 4C       		.byte	0x4c
 7252 04b9 07       		.byte	0x7
 7253 04ba 6501     		.2byte	0x165
 7254 04bc 39050000 		.4byte	0x539
 7255 04c0 0E       		.uleb128 0xe
 7256 04c1 320E0000 		.4byte	.LASF58
 7257 04c5 07       		.byte	0x7
 7258 04c6 6701     		.2byte	0x167
 7259 04c8 3B000000 		.4byte	0x3b
 7260 04cc 02       		.byte	0x2
 7261 04cd 23       		.byte	0x23
 7262 04ce 00       		.uleb128 0
 7263 04cf 0E       		.uleb128 0xe
 7264 04d0 5E0E0000 		.4byte	.LASF51
 7265 04d4 07       		.byte	0x7
 7266 04d5 6801     		.2byte	0x168
 7267 04d7 3B000000 		.4byte	0x3b
 7268 04db 02       		.byte	0x2
 7269 04dc 23       		.byte	0x23
 7270 04dd 01       		.uleb128 0x1
 7271 04de 0E       		.uleb128 0xe
 7272 04df 59090000 		.4byte	.LASF59
 7273 04e3 07       		.byte	0x7
 7274 04e4 6901     		.2byte	0x169
 7275 04e6 33040000 		.4byte	0x433
ARM GAS  C:\Users\X0217454\AppData\Local\Temp\cc7UAvFx.s 			page 156


 7276 04ea 02       		.byte	0x2
 7277 04eb 23       		.byte	0x23
 7278 04ec 02       		.uleb128 0x2
 7279 04ed 0E       		.uleb128 0xe
 7280 04ee 82020000 		.4byte	.LASF60
 7281 04f2 07       		.byte	0x7
 7282 04f3 6A01     		.2byte	0x16a
 7283 04f5 3B000000 		.4byte	0x3b
 7284 04f9 02       		.byte	0x2
 7285 04fa 23       		.byte	0x23
 7286 04fb 22       		.uleb128 0x22
 7287 04fc 0E       		.uleb128 0xe
 7288 04fd 44060000 		.4byte	.LASF61
 7289 0501 07       		.byte	0x7
 7290 0502 6B01     		.2byte	0x16b
 7291 0504 33040000 		.4byte	0x433
 7292 0508 02       		.byte	0x2
 7293 0509 23       		.byte	0x23
 7294 050a 23       		.uleb128 0x23
 7295 050b 0E       		.uleb128 0xe
 7296 050c 3A020000 		.4byte	.LASF62
 7297 0510 07       		.byte	0x7
 7298 0511 6C01     		.2byte	0x16c
 7299 0513 6E020000 		.4byte	0x26e
 7300 0517 02       		.byte	0x2
 7301 0518 23       		.byte	0x23
 7302 0519 43       		.uleb128 0x43
 7303 051a 0E       		.uleb128 0xe
 7304 051b 720C0000 		.4byte	.LASF63
 7305 051f 07       		.byte	0x7
 7306 0520 6D01     		.2byte	0x16d
 7307 0522 3B000000 		.4byte	0x3b
 7308 0526 02       		.byte	0x2
 7309 0527 23       		.byte	0x23
 7310 0528 49       		.uleb128 0x49
 7311 0529 0E       		.uleb128 0xe
 7312 052a 320D0000 		.4byte	.LASF33
 7313 052e 07       		.byte	0x7
 7314 052f 6E01     		.2byte	0x16e
 7315 0531 39050000 		.4byte	0x539
 7316 0535 02       		.byte	0x2
 7317 0536 23       		.byte	0x23
 7318 0537 4A       		.uleb128 0x4a
 7319 0538 00       		.byte	0
 7320 0539 07       		.uleb128 0x7
 7321 053a 3B000000 		.4byte	0x3b
 7322 053e 49050000 		.4byte	0x549
 7323 0542 08       		.uleb128 0x8
 7324 0543 DC000000 		.4byte	0xdc
 7325 0547 01       		.byte	0x1
 7326 0548 00       		.byte	0
 7327 0549 0C       		.uleb128 0xc
 7328 054a 3A000000 		.4byte	.LASF64
 7329 054e 07       		.byte	0x7
 7330 054f 6F01     		.2byte	0x16f
 7331 0551 B7040000 		.4byte	0x4b7
 7332 0555 0D       		.uleb128 0xd
ARM GAS  C:\Users\X0217454\AppData\Local\Temp\cc7UAvFx.s 			page 157


 7333 0556 4C       		.byte	0x4c
 7334 0557 07       		.byte	0x7
 7335 0558 7101     		.2byte	0x171
 7336 055a C8050000 		.4byte	0x5c8
 7337 055e 0E       		.uleb128 0xe
 7338 055f 44060000 		.4byte	.LASF61
 7339 0563 07       		.byte	0x7
 7340 0564 7301     		.2byte	0x173
 7341 0566 33040000 		.4byte	0x433
 7342 056a 02       		.byte	0x2
 7343 056b 23       		.byte	0x23
 7344 056c 00       		.uleb128 0
 7345 056d 0F       		.uleb128 0xf
 7346 056e 6D616300 		.ascii	"mac\000"
 7347 0572 07       		.byte	0x7
 7348 0573 7401     		.2byte	0x174
 7349 0575 6E020000 		.4byte	0x26e
 7350 0579 02       		.byte	0x2
 7351 057a 23       		.byte	0x23
 7352 057b 20       		.uleb128 0x20
 7353 057c 0E       		.uleb128 0xe
 7354 057d 82020000 		.4byte	.LASF60
 7355 0581 07       		.byte	0x7
 7356 0582 7501     		.2byte	0x175
 7357 0584 3B000000 		.4byte	0x3b
 7358 0588 02       		.byte	0x2
 7359 0589 23       		.byte	0x23
 7360 058a 26       		.uleb128 0x26
 7361 058b 0E       		.uleb128 0xe
 7362 058c FB070000 		.4byte	.LASF65
 7363 0590 07       		.byte	0x7
 7364 0591 7601     		.2byte	0x176
 7365 0593 3B000000 		.4byte	0x3b
 7366 0597 02       		.byte	0x2
 7367 0598 23       		.byte	0x23
 7368 0599 27       		.uleb128 0x27
 7369 059a 0E       		.uleb128 0xe
 7370 059b 150C0000 		.4byte	.LASF66
 7371 059f 07       		.byte	0x7
 7372 05a0 7701     		.2byte	0x177
 7373 05a2 33040000 		.4byte	0x433
 7374 05a6 02       		.byte	0x2
 7375 05a7 23       		.byte	0x23
 7376 05a8 28       		.uleb128 0x28
 7377 05a9 0E       		.uleb128 0xe
 7378 05aa 63080000 		.4byte	.LASF67
 7379 05ae 07       		.byte	0x7
 7380 05af 7801     		.2byte	0x178
 7381 05b1 3B000000 		.4byte	0x3b
 7382 05b5 02       		.byte	0x2
 7383 05b6 23       		.byte	0x23
 7384 05b7 48       		.uleb128 0x48
 7385 05b8 0E       		.uleb128 0xe
 7386 05b9 320D0000 		.4byte	.LASF33
 7387 05bd 07       		.byte	0x7
 7388 05be 7901     		.2byte	0x179
 7389 05c0 E5000000 		.4byte	0xe5
ARM GAS  C:\Users\X0217454\AppData\Local\Temp\cc7UAvFx.s 			page 158


 7390 05c4 02       		.byte	0x2
 7391 05c5 23       		.byte	0x23
 7392 05c6 49       		.uleb128 0x49
 7393 05c7 00       		.byte	0
 7394 05c8 0C       		.uleb128 0xc
 7395 05c9 5D010000 		.4byte	.LASF68
 7396 05cd 07       		.byte	0x7
 7397 05ce 7A01     		.2byte	0x17a
 7398 05d0 55050000 		.4byte	0x555
 7399 05d4 10       		.uleb128 0x10
 7400 05d5 4C       		.byte	0x4c
 7401 05d6 07       		.byte	0x7
 7402 05d7 7D01     		.2byte	0x17d
 7403 05d9 4A060000 		.4byte	0x64a
 7404 05dd 11       		.uleb128 0x11
 7405 05de 9D0C0000 		.4byte	.LASF69
 7406 05e2 07       		.byte	0x7
 7407 05e3 7F01     		.2byte	0x17f
 7408 05e5 43040000 		.4byte	0x443
 7409 05e9 11       		.uleb128 0x11
 7410 05ea 14030000 		.4byte	.LASF70
 7411 05ee 07       		.byte	0x7
 7412 05ef 8001     		.2byte	0x180
 7413 05f1 77040000 		.4byte	0x477
 7414 05f5 11       		.uleb128 0x11
 7415 05f6 80030000 		.4byte	.LASF71
 7416 05fa 07       		.byte	0x7
 7417 05fb 8101     		.2byte	0x181
 7418 05fd C8050000 		.4byte	0x5c8
 7419 0601 11       		.uleb128 0x11
 7420 0602 5C0C0000 		.4byte	.LASF72
 7421 0606 07       		.byte	0x7
 7422 0607 8201     		.2byte	0x182
 7423 0609 C8050000 		.4byte	0x5c8
 7424 060d 11       		.uleb128 0x11
 7425 060e DF080000 		.4byte	.LASF73
 7426 0612 07       		.byte	0x7
 7427 0613 8301     		.2byte	0x183
 7428 0615 49050000 		.4byte	0x549
 7429 0619 11       		.uleb128 0x11
 7430 061a C3090000 		.4byte	.LASF74
 7431 061e 07       		.byte	0x7
 7432 061f 8401     		.2byte	0x184
 7433 0621 49050000 		.4byte	0x549
 7434 0625 11       		.uleb128 0x11
 7435 0626 64070000 		.4byte	.LASF75
 7436 062a 07       		.byte	0x7
 7437 062b 8501     		.2byte	0x185
 7438 062d C8050000 		.4byte	0x5c8
 7439 0631 11       		.uleb128 0x11
 7440 0632 76080000 		.4byte	.LASF76
 7441 0636 07       		.byte	0x7
 7442 0637 8601     		.2byte	0x186
 7443 0639 C8050000 		.4byte	0x5c8
 7444 063d 11       		.uleb128 0x11
 7445 063e 2B010000 		.4byte	.LASF77
 7446 0642 07       		.byte	0x7
ARM GAS  C:\Users\X0217454\AppData\Local\Temp\cc7UAvFx.s 			page 159


 7447 0643 8701     		.2byte	0x187
 7448 0645 AB040000 		.4byte	0x4ab
 7449 0649 00       		.byte	0
 7450 064a 0C       		.uleb128 0xc
 7451 064b 2F050000 		.4byte	.LASF78
 7452 064f 07       		.byte	0x7
 7453 0650 8901     		.2byte	0x189
 7454 0652 D4050000 		.4byte	0x5d4
 7455 0656 0D       		.uleb128 0xd
 7456 0657 50       		.byte	0x50
 7457 0658 07       		.byte	0x7
 7458 0659 8B01     		.2byte	0x18b
 7459 065b 7E060000 		.4byte	0x67e
 7460 065f 0E       		.uleb128 0xe
 7461 0660 1D080000 		.4byte	.LASF24
 7462 0664 07       		.byte	0x7
 7463 0665 8D01     		.2byte	0x18d
 7464 0667 78000000 		.4byte	0x78
 7465 066b 02       		.byte	0x2
 7466 066c 23       		.byte	0x23
 7467 066d 00       		.uleb128 0
 7468 066e 0E       		.uleb128 0xe
 7469 066f 90000000 		.4byte	.LASF25
 7470 0673 07       		.byte	0x7
 7471 0674 8E01     		.2byte	0x18e
 7472 0676 4A060000 		.4byte	0x64a
 7473 067a 02       		.byte	0x2
 7474 067b 23       		.byte	0x23
 7475 067c 04       		.uleb128 0x4
 7476 067d 00       		.byte	0
 7477 067e 0C       		.uleb128 0xc
 7478 067f 90050000 		.4byte	.LASF79
 7479 0683 07       		.byte	0x7
 7480 0684 8F01     		.2byte	0x18f
 7481 0686 56060000 		.4byte	0x656
 7482 068a 03       		.uleb128 0x3
 7483 068b 220D0000 		.4byte	.LASF80
 7484 068f 08       		.byte	0x8
 7485 0690 2E       		.byte	0x2e
 7486 0691 95060000 		.4byte	0x695
 7487 0695 09       		.uleb128 0x9
 7488 0696 04       		.byte	0x4
 7489 0697 9B060000 		.4byte	0x69b
 7490 069b 0A       		.uleb128 0xa
 7491 069c 01       		.byte	0x1
 7492 069d A7060000 		.4byte	0x6a7
 7493 06a1 0B       		.uleb128 0xb
 7494 06a2 78000000 		.4byte	0x78
 7495 06a6 00       		.byte	0
 7496 06a7 07       		.uleb128 0x7
 7497 06a8 30000000 		.4byte	0x30
 7498 06ac B7060000 		.4byte	0x6b7
 7499 06b0 08       		.uleb128 0x8
 7500 06b1 DC000000 		.4byte	0xdc
 7501 06b5 03       		.byte	0x3
 7502 06b6 00       		.byte	0
 7503 06b7 13       		.uleb128 0x13
ARM GAS  C:\Users\X0217454\AppData\Local\Temp\cc7UAvFx.s 			page 160


 7504 06b8 04       		.byte	0x4
 7505 06b9 09       		.byte	0x9
 7506 06ba 4E       		.byte	0x4e
 7507 06bb DC060000 		.4byte	0x6dc
 7508 06bf 14       		.uleb128 0x14
 7509 06c0 950B0000 		.4byte	.LASF81
 7510 06c4 09       		.byte	0x9
 7511 06c5 50       		.byte	0x50
 7512 06c6 54000000 		.4byte	0x54
 7513 06ca 02       		.byte	0x2
 7514 06cb 23       		.byte	0x23
 7515 06cc 00       		.uleb128 0
 7516 06cd 15       		.uleb128 0x15
 7517 06ce 4C656E00 		.ascii	"Len\000"
 7518 06d2 09       		.byte	0x9
 7519 06d3 51       		.byte	0x51
 7520 06d4 54000000 		.4byte	0x54
 7521 06d8 02       		.byte	0x2
 7522 06d9 23       		.byte	0x23
 7523 06da 02       		.uleb128 0x2
 7524 06db 00       		.byte	0
 7525 06dc 03       		.uleb128 0x3
 7526 06dd C3050000 		.4byte	.LASF82
 7527 06e1 09       		.byte	0x9
 7528 06e2 52       		.byte	0x52
 7529 06e3 B7060000 		.4byte	0x6b7
 7530 06e7 13       		.uleb128 0x13
 7531 06e8 08       		.byte	0x8
 7532 06e9 09       		.byte	0x9
 7533 06ea 55       		.byte	0x55
 7534 06eb 28070000 		.4byte	0x728
 7535 06ef 14       		.uleb128 0x14
 7536 06f0 B5070000 		.4byte	.LASF83
 7537 06f4 09       		.byte	0x9
 7538 06f5 57       		.byte	0x57
 7539 06f6 6D000000 		.4byte	0x6d
 7540 06fa 02       		.byte	0x2
 7541 06fb 23       		.byte	0x23
 7542 06fc 00       		.uleb128 0
 7543 06fd 14       		.uleb128 0x14
 7544 06fe 1C060000 		.4byte	.LASF84
 7545 0702 09       		.byte	0x9
 7546 0703 58       		.byte	0x58
 7547 0704 54000000 		.4byte	0x54
 7548 0708 02       		.byte	0x2
 7549 0709 23       		.byte	0x23
 7550 070a 04       		.uleb128 0x4
 7551 070b 14       		.uleb128 0x14
 7552 070c AA020000 		.4byte	.LASF85
 7553 0710 09       		.byte	0x9
 7554 0711 59       		.byte	0x59
 7555 0712 30000000 		.4byte	0x30
 7556 0716 02       		.byte	0x2
 7557 0717 23       		.byte	0x23
 7558 0718 06       		.uleb128 0x6
 7559 0719 14       		.uleb128 0x14
 7560 071a B0020000 		.4byte	.LASF86
ARM GAS  C:\Users\X0217454\AppData\Local\Temp\cc7UAvFx.s 			page 161


 7561 071e 09       		.byte	0x9
 7562 071f 5A       		.byte	0x5a
 7563 0720 30000000 		.4byte	0x30
 7564 0724 02       		.byte	0x2
 7565 0725 23       		.byte	0x23
 7566 0726 07       		.uleb128 0x7
 7567 0727 00       		.byte	0
 7568 0728 03       		.uleb128 0x3
 7569 0729 9E050000 		.4byte	.LASF87
 7570 072d 09       		.byte	0x9
 7571 072e 5B       		.byte	0x5b
 7572 072f E7060000 		.4byte	0x6e7
 7573 0733 03       		.uleb128 0x3
 7574 0734 E8070000 		.4byte	.LASF88
 7575 0738 09       		.byte	0x9
 7576 0739 5D       		.byte	0x5d
 7577 073a DC060000 		.4byte	0x6dc
 7578 073e 13       		.uleb128 0x13
 7579 073f 08       		.byte	0x8
 7580 0740 09       		.byte	0x9
 7581 0741 5F       		.byte	0x5f
 7582 0742 8D070000 		.4byte	0x78d
 7583 0746 14       		.uleb128 0x14
 7584 0747 31090000 		.4byte	.LASF89
 7585 074b 09       		.byte	0x9
 7586 074c 61       		.byte	0x61
 7587 074d DC060000 		.4byte	0x6dc
 7588 0751 02       		.byte	0x2
 7589 0752 23       		.byte	0x23
 7590 0753 00       		.uleb128 0
 7591 0754 14       		.uleb128 0x14
 7592 0755 EF0C0000 		.4byte	.LASF90
 7593 0759 09       		.byte	0x9
 7594 075a 62       		.byte	0x62
 7595 075b 30000000 		.4byte	0x30
 7596 075f 02       		.byte	0x2
 7597 0760 23       		.byte	0x23
 7598 0761 04       		.uleb128 0x4
 7599 0762 14       		.uleb128 0x14
 7600 0763 880C0000 		.4byte	.LASF91
 7601 0767 09       		.byte	0x9
 7602 0768 63       		.byte	0x63
 7603 0769 30000000 		.4byte	0x30
 7604 076d 02       		.byte	0x2
 7605 076e 23       		.byte	0x23
 7606 076f 05       		.uleb128 0x5
 7607 0770 14       		.uleb128 0x14
 7608 0771 2B040000 		.4byte	.LASF92
 7609 0775 09       		.byte	0x9
 7610 0776 64       		.byte	0x64
 7611 0777 30000000 		.4byte	0x30
 7612 077b 02       		.byte	0x2
 7613 077c 23       		.byte	0x23
 7614 077d 06       		.uleb128 0x6
 7615 077e 14       		.uleb128 0x14
 7616 077f 0C090000 		.4byte	.LASF93
 7617 0783 09       		.byte	0x9
ARM GAS  C:\Users\X0217454\AppData\Local\Temp\cc7UAvFx.s 			page 162


 7618 0784 65       		.byte	0x65
 7619 0785 30000000 		.4byte	0x30
 7620 0789 02       		.byte	0x2
 7621 078a 23       		.byte	0x23
 7622 078b 07       		.uleb128 0x7
 7623 078c 00       		.byte	0
 7624 078d 03       		.uleb128 0x3
 7625 078e D30D0000 		.4byte	.LASF94
 7626 0792 09       		.byte	0x9
 7627 0793 66       		.byte	0x66
 7628 0794 3E070000 		.4byte	0x73e
 7629 0798 0D       		.uleb128 0xd
 7630 0799 04       		.byte	0x4
 7631 079a 09       		.byte	0x9
 7632 079b 7C01     		.2byte	0x17c
 7633 079d C0070000 		.4byte	0x7c0
 7634 07a1 0E       		.uleb128 0xe
 7635 07a2 3D060000 		.4byte	.LASF22
 7636 07a6 09       		.byte	0x9
 7637 07a7 7E01     		.2byte	0x17e
 7638 07a9 42000000 		.4byte	0x42
 7639 07ad 02       		.byte	0x2
 7640 07ae 23       		.byte	0x23
 7641 07af 00       		.uleb128 0
 7642 07b0 0E       		.uleb128 0xe
 7643 07b1 320D0000 		.4byte	.LASF33
 7644 07b5 09       		.byte	0x9
 7645 07b6 7F01     		.2byte	0x17f
 7646 07b8 54000000 		.4byte	0x54
 7647 07bc 02       		.byte	0x2
 7648 07bd 23       		.byte	0x23
 7649 07be 02       		.uleb128 0x2
 7650 07bf 00       		.byte	0
 7651 07c0 0C       		.uleb128 0xc
 7652 07c1 FC010000 		.4byte	.LASF95
 7653 07c5 09       		.byte	0x9
 7654 07c6 8101     		.2byte	0x181
 7655 07c8 98070000 		.4byte	0x798
 7656 07cc 07       		.uleb128 0x7
 7657 07cd 30000000 		.4byte	0x30
 7658 07d1 DC070000 		.4byte	0x7dc
 7659 07d5 08       		.uleb128 0x8
 7660 07d6 DC000000 		.4byte	0xdc
 7661 07da 05       		.byte	0x5
 7662 07db 00       		.byte	0
 7663 07dc 0D       		.uleb128 0xd
 7664 07dd 04       		.byte	0x4
 7665 07de 09       		.byte	0x9
 7666 07df EE02     		.2byte	0x2ee
 7667 07e1 12080000 		.4byte	0x812
 7668 07e5 0E       		.uleb128 0xe
 7669 07e6 58070000 		.4byte	.LASF96
 7670 07ea 09       		.byte	0x9
 7671 07eb F002     		.2byte	0x2f0
 7672 07ed 42000000 		.4byte	0x42
 7673 07f1 02       		.byte	0x2
 7674 07f2 23       		.byte	0x23
ARM GAS  C:\Users\X0217454\AppData\Local\Temp\cc7UAvFx.s 			page 163


 7675 07f3 00       		.uleb128 0
 7676 07f4 0F       		.uleb128 0xf
 7677 07f5 736400   		.ascii	"sd\000"
 7678 07f8 09       		.byte	0x9
 7679 07f9 F102     		.2byte	0x2f1
 7680 07fb 30000000 		.4byte	0x30
 7681 07ff 02       		.byte	0x2
 7682 0800 23       		.byte	0x23
 7683 0801 02       		.uleb128 0x2
 7684 0802 0E       		.uleb128 0xe
 7685 0803 320D0000 		.4byte	.LASF33
 7686 0807 09       		.byte	0x9
 7687 0808 F202     		.2byte	0x2f2
 7688 080a 30000000 		.4byte	0x30
 7689 080e 02       		.byte	0x2
 7690 080f 23       		.byte	0x23
 7691 0810 03       		.uleb128 0x3
 7692 0811 00       		.byte	0
 7693 0812 0C       		.uleb128 0xc
 7694 0813 E7000000 		.4byte	.LASF97
 7695 0817 09       		.byte	0x9
 7696 0818 F302     		.2byte	0x2f3
 7697 081a DC070000 		.4byte	0x7dc
 7698 081e 0D       		.uleb128 0xd
 7699 081f 0C       		.byte	0xc
 7700 0820 09       		.byte	0x9
 7701 0821 FE02     		.2byte	0x2fe
 7702 0823 81080000 		.4byte	0x881
 7703 0827 0E       		.uleb128 0xe
 7704 0828 58070000 		.4byte	.LASF96
 7705 082c 09       		.byte	0x9
 7706 082d 0003     		.2byte	0x300
 7707 082f 42000000 		.4byte	0x42
 7708 0833 02       		.byte	0x2
 7709 0834 23       		.byte	0x23
 7710 0835 00       		.uleb128 0
 7711 0836 0F       		.uleb128 0xf
 7712 0837 736400   		.ascii	"sd\000"
 7713 083a 09       		.byte	0x9
 7714 083b 0103     		.2byte	0x301
 7715 083d 30000000 		.4byte	0x30
 7716 0841 02       		.byte	0x2
 7717 0842 23       		.byte	0x23
 7718 0843 02       		.uleb128 0x2
 7719 0844 0E       		.uleb128 0xe
 7720 0845 94090000 		.4byte	.LASF98
 7721 0849 09       		.byte	0x9
 7722 084a 0203     		.2byte	0x302
 7723 084c 30000000 		.4byte	0x30
 7724 0850 02       		.byte	0x2
 7725 0851 23       		.byte	0x23
 7726 0852 03       		.uleb128 0x3
 7727 0853 0E       		.uleb128 0xe
 7728 0854 63090000 		.4byte	.LASF99
 7729 0858 09       		.byte	0x9
 7730 0859 0303     		.2byte	0x303
 7731 085b 54000000 		.4byte	0x54
ARM GAS  C:\Users\X0217454\AppData\Local\Temp\cc7UAvFx.s 			page 164


 7732 085f 02       		.byte	0x2
 7733 0860 23       		.byte	0x23
 7734 0861 04       		.uleb128 0x4
 7735 0862 0E       		.uleb128 0xe
 7736 0863 B60C0000 		.4byte	.LASF100
 7737 0867 09       		.byte	0x9
 7738 0868 0403     		.2byte	0x304
 7739 086a 54000000 		.4byte	0x54
 7740 086e 02       		.byte	0x2
 7741 086f 23       		.byte	0x23
 7742 0870 06       		.uleb128 0x6
 7743 0871 0E       		.uleb128 0xe
 7744 0872 58060000 		.4byte	.LASF101
 7745 0876 09       		.byte	0x9
 7746 0877 0503     		.2byte	0x305
 7747 0879 6D000000 		.4byte	0x6d
 7748 087d 02       		.byte	0x2
 7749 087e 23       		.byte	0x23
 7750 087f 08       		.uleb128 0x8
 7751 0880 00       		.byte	0
 7752 0881 0C       		.uleb128 0xc
 7753 0882 430B0000 		.4byte	.LASF102
 7754 0886 09       		.byte	0x9
 7755 0887 0603     		.2byte	0x306
 7756 0889 1E080000 		.4byte	0x81e
 7757 088d 0D       		.uleb128 0xd
 7758 088e 0C       		.byte	0xc
 7759 088f 09       		.byte	0x9
 7760 0890 0803     		.2byte	0x308
 7761 0892 E1080000 		.4byte	0x8e1
 7762 0896 0E       		.uleb128 0xe
 7763 0897 58070000 		.4byte	.LASF96
 7764 089b 09       		.byte	0x9
 7765 089c 0A03     		.2byte	0x30a
 7766 089e 42000000 		.4byte	0x42
 7767 08a2 02       		.byte	0x2
 7768 08a3 23       		.byte	0x23
 7769 08a4 00       		.uleb128 0
 7770 08a5 0F       		.uleb128 0xf
 7771 08a6 736400   		.ascii	"sd\000"
 7772 08a9 09       		.byte	0x9
 7773 08aa 0B03     		.2byte	0x30b
 7774 08ac 30000000 		.4byte	0x30
 7775 08b0 02       		.byte	0x2
 7776 08b1 23       		.byte	0x23
 7777 08b2 02       		.uleb128 0x2
 7778 08b3 0E       		.uleb128 0xe
 7779 08b4 94090000 		.4byte	.LASF98
 7780 08b8 09       		.byte	0x9
 7781 08b9 0C03     		.2byte	0x30c
 7782 08bb 30000000 		.4byte	0x30
 7783 08bf 02       		.byte	0x2
 7784 08c0 23       		.byte	0x23
 7785 08c1 03       		.uleb128 0x3
 7786 08c2 0E       		.uleb128 0xe
 7787 08c3 63090000 		.4byte	.LASF99
 7788 08c7 09       		.byte	0x9
ARM GAS  C:\Users\X0217454\AppData\Local\Temp\cc7UAvFx.s 			page 165


 7789 08c8 0D03     		.2byte	0x30d
 7790 08ca 54000000 		.4byte	0x54
 7791 08ce 02       		.byte	0x2
 7792 08cf 23       		.byte	0x23
 7793 08d0 04       		.uleb128 0x4
 7794 08d1 0E       		.uleb128 0xe
 7795 08d2 58060000 		.4byte	.LASF101
 7796 08d6 09       		.byte	0x9
 7797 08d7 0E03     		.2byte	0x30e
 7798 08d9 CC070000 		.4byte	0x7cc
 7799 08dd 02       		.byte	0x2
 7800 08de 23       		.byte	0x23
 7801 08df 06       		.uleb128 0x6
 7802 08e0 00       		.byte	0
 7803 08e1 0C       		.uleb128 0xc
 7804 08e2 8C080000 		.4byte	.LASF103
 7805 08e6 09       		.byte	0x9
 7806 08e7 0F03     		.2byte	0x30f
 7807 08e9 8D080000 		.4byte	0x88d
 7808 08ed 10       		.uleb128 0x10
 7809 08ee 0C       		.byte	0xc
 7810 08ef 09       		.byte	0x9
 7811 08f0 3F03     		.2byte	0x33f
 7812 08f2 0F090000 		.4byte	0x90f
 7813 08f6 11       		.uleb128 0x11
 7814 08f7 74050000 		.4byte	.LASF104
 7815 08fb 09       		.byte	0x9
 7816 08fc 4003     		.2byte	0x340
 7817 08fe 81080000 		.4byte	0x881
 7818 0902 11       		.uleb128 0x11
 7819 0903 B9090000 		.4byte	.LASF105
 7820 0907 09       		.byte	0x9
 7821 0908 4103     		.2byte	0x341
 7822 090a E1080000 		.4byte	0x8e1
 7823 090e 00       		.byte	0
 7824 090f 0C       		.uleb128 0xc
 7825 0910 06060000 		.4byte	.LASF106
 7826 0914 09       		.byte	0x9
 7827 0915 4503     		.2byte	0x345
 7828 0917 ED080000 		.4byte	0x8ed
 7829 091b 13       		.uleb128 0x13
 7830 091c 04       		.byte	0x4
 7831 091d 0A       		.byte	0xa
 7832 091e 28       		.byte	0x28
 7833 091f 4E090000 		.4byte	0x94e
 7834 0923 14       		.uleb128 0x14
 7835 0924 950B0000 		.4byte	.LASF81
 7836 0928 0A       		.byte	0xa
 7837 0929 2A       		.byte	0x2a
 7838 092a AD000000 		.4byte	0xad
 7839 092e 02       		.byte	0x2
 7840 092f 23       		.byte	0x23
 7841 0930 00       		.uleb128 0
 7842 0931 14       		.uleb128 0x14
 7843 0932 4C030000 		.4byte	.LASF107
 7844 0936 0A       		.byte	0xa
 7845 0937 2B       		.byte	0x2b
ARM GAS  C:\Users\X0217454\AppData\Local\Temp\cc7UAvFx.s 			page 166


 7846 0938 B8000000 		.4byte	0xb8
 7847 093c 02       		.byte	0x2
 7848 093d 23       		.byte	0x23
 7849 093e 02       		.uleb128 0x2
 7850 093f 14       		.uleb128 0x14
 7851 0940 0B0C0000 		.4byte	.LASF108
 7852 0944 0A       		.byte	0xa
 7853 0945 2C       		.byte	0x2c
 7854 0946 B8000000 		.4byte	0xb8
 7855 094a 02       		.byte	0x2
 7856 094b 23       		.byte	0x23
 7857 094c 03       		.uleb128 0x3
 7858 094d 00       		.byte	0
 7859 094e 03       		.uleb128 0x3
 7860 094f 7A0A0000 		.4byte	.LASF109
 7861 0953 0A       		.byte	0xa
 7862 0954 2D       		.byte	0x2d
 7863 0955 1B090000 		.4byte	0x91b
 7864 0959 13       		.uleb128 0x13
 7865 095a 10       		.byte	0x10
 7866 095b 0A       		.byte	0xa
 7867 095c 2F       		.byte	0x2f
 7868 095d A8090000 		.4byte	0x9a8
 7869 0961 14       		.uleb128 0x14
 7870 0962 DD090000 		.4byte	.LASF110
 7871 0966 0A       		.byte	0xa
 7872 0967 31       		.byte	0x31
 7873 0968 54000000 		.4byte	0x54
 7874 096c 02       		.byte	0x2
 7875 096d 23       		.byte	0x23
 7876 096e 00       		.uleb128 0
 7877 096f 14       		.uleb128 0x14
 7878 0970 BE010000 		.4byte	.LASF111
 7879 0974 0A       		.byte	0xa
 7880 0975 32       		.byte	0x32
 7881 0976 54000000 		.4byte	0x54
 7882 097a 02       		.byte	0x2
 7883 097b 23       		.byte	0x23
 7884 097c 02       		.uleb128 0x2
 7885 097d 14       		.uleb128 0x14
 7886 097e 700B0000 		.4byte	.LASF112
 7887 0982 0A       		.byte	0xa
 7888 0983 33       		.byte	0x33
 7889 0984 54000000 		.4byte	0x54
 7890 0988 02       		.byte	0x2
 7891 0989 23       		.byte	0x23
 7892 098a 04       		.uleb128 0x4
 7893 098b 14       		.uleb128 0x14
 7894 098c A90B0000 		.4byte	.LASF113
 7895 0990 0A       		.byte	0xa
 7896 0991 34       		.byte	0x34
 7897 0992 A8090000 		.4byte	0x9a8
 7898 0996 02       		.byte	0x2
 7899 0997 23       		.byte	0x23
 7900 0998 08       		.uleb128 0x8
 7901 0999 14       		.uleb128 0x14
 7902 099a 19050000 		.4byte	.LASF114
ARM GAS  C:\Users\X0217454\AppData\Local\Temp\cc7UAvFx.s 			page 167


 7903 099e 0A       		.byte	0xa
 7904 099f 35       		.byte	0x35
 7905 09a0 A8090000 		.4byte	0x9a8
 7906 09a4 02       		.byte	0x2
 7907 09a5 23       		.byte	0x23
 7908 09a6 0C       		.uleb128 0xc
 7909 09a7 00       		.byte	0
 7910 09a8 09       		.uleb128 0x9
 7911 09a9 04       		.byte	0x4
 7912 09aa 30000000 		.4byte	0x30
 7913 09ae 03       		.uleb128 0x3
 7914 09af B3000000 		.4byte	.LASF115
 7915 09b3 0A       		.byte	0xa
 7916 09b4 36       		.byte	0x36
 7917 09b5 59090000 		.4byte	0x959
 7918 09b9 16       		.uleb128 0x16
 7919 09ba 6A020000 		.4byte	.LASF118
 7920 09be 08       		.byte	0x8
 7921 09bf 0A       		.byte	0xa
 7922 09c0 39       		.byte	0x39
 7923 09c1 E2090000 		.4byte	0x9e2
 7924 09c5 14       		.uleb128 0x14
 7925 09c6 52070000 		.4byte	.LASF116
 7926 09ca 0A       		.byte	0xa
 7927 09cb 3B       		.byte	0x3b
 7928 09cc A8090000 		.4byte	0x9a8
 7929 09d0 02       		.byte	0x2
 7930 09d1 23       		.byte	0x23
 7931 09d2 00       		.uleb128 0
 7932 09d3 14       		.uleb128 0x14
 7933 09d4 2C0E0000 		.4byte	.LASF117
 7934 09d8 0A       		.byte	0xa
 7935 09d9 3C       		.byte	0x3c
 7936 09da A8090000 		.4byte	0x9a8
 7937 09de 02       		.byte	0x2
 7938 09df 23       		.byte	0x23
 7939 09e0 04       		.uleb128 0x4
 7940 09e1 00       		.byte	0
 7941 09e2 03       		.uleb128 0x3
 7942 09e3 6A020000 		.4byte	.LASF118
 7943 09e7 0A       		.byte	0xa
 7944 09e8 3D       		.byte	0x3d
 7945 09e9 B9090000 		.4byte	0x9b9
 7946 09ed 16       		.uleb128 0x16
 7947 09ee 8E010000 		.4byte	.LASF119
 7948 09f2 0C       		.byte	0xc
 7949 09f3 0A       		.byte	0xa
 7950 09f4 40       		.byte	0x40
 7951 09f5 400A0000 		.4byte	0xa40
 7952 09f9 14       		.uleb128 0x14
 7953 09fa 7C070000 		.4byte	.LASF120
 7954 09fe 0A       		.byte	0xa
 7955 09ff 42       		.byte	0x42
 7956 0a00 13010000 		.4byte	0x113
 7957 0a04 02       		.byte	0x2
 7958 0a05 23       		.byte	0x23
 7959 0a06 00       		.uleb128 0
ARM GAS  C:\Users\X0217454\AppData\Local\Temp\cc7UAvFx.s 			page 168


 7960 0a07 14       		.uleb128 0x14
 7961 0a08 78020000 		.4byte	.LASF121
 7962 0a0c 0A       		.byte	0xa
 7963 0a0d 43       		.byte	0x43
 7964 0a0e A8090000 		.4byte	0x9a8
 7965 0a12 02       		.byte	0x2
 7966 0a13 23       		.byte	0x23
 7967 0a14 04       		.uleb128 0x4
 7968 0a15 14       		.uleb128 0x14
 7969 0a16 190E0000 		.4byte	.LASF122
 7970 0a1a 0A       		.byte	0xa
 7971 0a1b 44       		.byte	0x44
 7972 0a1c 30000000 		.4byte	0x30
 7973 0a20 02       		.byte	0x2
 7974 0a21 23       		.byte	0x23
 7975 0a22 08       		.uleb128 0x8
 7976 0a23 14       		.uleb128 0x14
 7977 0a24 0E010000 		.4byte	.LASF123
 7978 0a28 0A       		.byte	0xa
 7979 0a29 45       		.byte	0x45
 7980 0a2a 30000000 		.4byte	0x30
 7981 0a2e 02       		.byte	0x2
 7982 0a2f 23       		.byte	0x23
 7983 0a30 09       		.uleb128 0x9
 7984 0a31 14       		.uleb128 0x14
 7985 0a32 4A040000 		.4byte	.LASF124
 7986 0a36 0A       		.byte	0xa
 7987 0a37 46       		.byte	0x46
 7988 0a38 30000000 		.4byte	0x30
 7989 0a3c 02       		.byte	0x2
 7990 0a3d 23       		.byte	0x23
 7991 0a3e 0A       		.uleb128 0xa
 7992 0a3f 00       		.byte	0
 7993 0a40 03       		.uleb128 0x3
 7994 0a41 8E010000 		.4byte	.LASF119
 7995 0a45 0A       		.byte	0xa
 7996 0a46 48       		.byte	0x48
 7997 0a47 ED090000 		.4byte	0x9ed
 7998 0a4b 17       		.uleb128 0x17
 7999 0a4c 01       		.byte	0x1
 8000 0a4d 0A       		.byte	0xa
 8001 0a4e 4C       		.byte	0x4c
 8002 0a4f BA0A0000 		.4byte	0xaba
 8003 0a53 18       		.uleb128 0x18
 8004 0a54 D1040000 		.4byte	.LASF125
 8005 0a58 00       		.sleb128 0
 8006 0a59 18       		.uleb128 0x18
 8007 0a5a DA040000 		.4byte	.LASF126
 8008 0a5e 01       		.sleb128 1
 8009 0a5f 18       		.uleb128 0x18
 8010 0a60 E3040000 		.4byte	.LASF127
 8011 0a64 02       		.sleb128 2
 8012 0a65 18       		.uleb128 0x18
 8013 0a66 EC040000 		.4byte	.LASF128
 8014 0a6a 03       		.sleb128 3
 8015 0a6b 18       		.uleb128 0x18
 8016 0a6c F5040000 		.4byte	.LASF129
ARM GAS  C:\Users\X0217454\AppData\Local\Temp\cc7UAvFx.s 			page 169


 8017 0a70 04       		.sleb128 4
 8018 0a71 18       		.uleb128 0x18
 8019 0a72 FE040000 		.4byte	.LASF130
 8020 0a76 05       		.sleb128 5
 8021 0a77 18       		.uleb128 0x18
 8022 0a78 07050000 		.4byte	.LASF131
 8023 0a7c 06       		.sleb128 6
 8024 0a7d 18       		.uleb128 0x18
 8025 0a7e 10050000 		.4byte	.LASF132
 8026 0a82 07       		.sleb128 7
 8027 0a83 18       		.uleb128 0x18
 8028 0a84 980D0000 		.4byte	.LASF133
 8029 0a88 08       		.sleb128 8
 8030 0a89 18       		.uleb128 0x18
 8031 0a8a 010C0000 		.4byte	.LASF134
 8032 0a8e 08       		.sleb128 8
 8033 0a8f 18       		.uleb128 0x18
 8034 0a90 6F0A0000 		.4byte	.LASF135
 8035 0a94 09       		.sleb128 9
 8036 0a95 18       		.uleb128 0x18
 8037 0a96 220E0000 		.4byte	.LASF136
 8038 0a9a 0A       		.sleb128 10
 8039 0a9b 18       		.uleb128 0x18
 8040 0a9c CE0C0000 		.4byte	.LASF137
 8041 0aa0 0B       		.sleb128 11
 8042 0aa1 18       		.uleb128 0x18
 8043 0aa2 41050000 		.4byte	.LASF138
 8044 0aa6 0C       		.sleb128 12
 8045 0aa7 18       		.uleb128 0x18
 8046 0aa8 F4010000 		.4byte	.LASF139
 8047 0aac 0D       		.sleb128 13
 8048 0aad 18       		.uleb128 0x18
 8049 0aae 140D0000 		.4byte	.LASF140
 8050 0ab2 0E       		.sleb128 14
 8051 0ab3 18       		.uleb128 0x18
 8052 0ab4 AD0A0000 		.4byte	.LASF141
 8053 0ab8 0F       		.sleb128 15
 8054 0ab9 00       		.byte	0
 8055 0aba 16       		.uleb128 0x16
 8056 0abb A7090000 		.4byte	.LASF142
 8057 0abf 08       		.byte	0x8
 8058 0ac0 0A       		.byte	0xa
 8059 0ac1 60       		.byte	0x60
 8060 0ac2 F10A0000 		.4byte	0xaf1
 8061 0ac6 14       		.uleb128 0x14
 8062 0ac7 190E0000 		.4byte	.LASF122
 8063 0acb 0A       		.byte	0xa
 8064 0acc 62       		.byte	0x62
 8065 0acd 30000000 		.4byte	0x30
 8066 0ad1 02       		.byte	0x2
 8067 0ad2 23       		.byte	0x23
 8068 0ad3 00       		.uleb128 0
 8069 0ad4 14       		.uleb128 0x14
 8070 0ad5 82090000 		.4byte	.LASF143
 8071 0ad9 0A       		.byte	0xa
 8072 0ada 63       		.byte	0x63
 8073 0adb 54000000 		.4byte	0x54
ARM GAS  C:\Users\X0217454\AppData\Local\Temp\cc7UAvFx.s 			page 170


 8074 0adf 02       		.byte	0x2
 8075 0ae0 23       		.byte	0x23
 8076 0ae1 02       		.uleb128 0x2
 8077 0ae2 14       		.uleb128 0x14
 8078 0ae3 FA080000 		.4byte	.LASF144
 8079 0ae7 0A       		.byte	0xa
 8080 0ae8 64       		.byte	0x64
 8081 0ae9 07010000 		.4byte	0x107
 8082 0aed 02       		.byte	0x2
 8083 0aee 23       		.byte	0x23
 8084 0aef 04       		.uleb128 0x4
 8085 0af0 00       		.byte	0
 8086 0af1 03       		.uleb128 0x3
 8087 0af2 A7090000 		.4byte	.LASF142
 8088 0af6 0A       		.byte	0xa
 8089 0af7 66       		.byte	0x66
 8090 0af8 BA0A0000 		.4byte	0xaba
 8091 0afc 13       		.uleb128 0x13
 8092 0afd 03       		.byte	0x3
 8093 0afe 0A       		.byte	0xa
 8094 0aff 69       		.byte	0x69
 8095 0b00 2F0B0000 		.4byte	0xb2f
 8096 0b04 14       		.uleb128 0x14
 8097 0b05 EF0C0000 		.4byte	.LASF90
 8098 0b09 0A       		.byte	0xa
 8099 0b0a 6B       		.byte	0x6b
 8100 0b0b 30000000 		.4byte	0x30
 8101 0b0f 02       		.byte	0x2
 8102 0b10 23       		.byte	0x23
 8103 0b11 00       		.uleb128 0
 8104 0b12 14       		.uleb128 0x14
 8105 0b13 F70B0000 		.4byte	.LASF145
 8106 0b17 0A       		.byte	0xa
 8107 0b18 6C       		.byte	0x6c
 8108 0b19 13010000 		.4byte	0x113
 8109 0b1d 02       		.byte	0x2
 8110 0b1e 23       		.byte	0x23
 8111 0b1f 01       		.uleb128 0x1
 8112 0b20 14       		.uleb128 0x14
 8113 0b21 C40C0000 		.4byte	.LASF146
 8114 0b25 0A       		.byte	0xa
 8115 0b26 6D       		.byte	0x6d
 8116 0b27 13010000 		.4byte	0x113
 8117 0b2b 02       		.byte	0x2
 8118 0b2c 23       		.byte	0x23
 8119 0b2d 02       		.uleb128 0x2
 8120 0b2e 00       		.byte	0
 8121 0b2f 03       		.uleb128 0x3
 8122 0b30 49090000 		.4byte	.LASF147
 8123 0b34 0A       		.byte	0xa
 8124 0b35 6E       		.byte	0x6e
 8125 0b36 FC0A0000 		.4byte	0xafc
 8126 0b3a 17       		.uleb128 0x17
 8127 0b3b 01       		.byte	0x1
 8128 0b3c 0A       		.byte	0xa
 8129 0b3d 71       		.byte	0x71
 8130 0b3e 5B0B0000 		.4byte	0xb5b
ARM GAS  C:\Users\X0217454\AppData\Local\Temp\cc7UAvFx.s 			page 171


 8131 0b42 18       		.uleb128 0x18
 8132 0b43 060B0000 		.4byte	.LASF148
 8133 0b47 00       		.sleb128 0
 8134 0b48 18       		.uleb128 0x18
 8135 0b49 3B040000 		.4byte	.LASF149
 8136 0b4d 01       		.sleb128 1
 8137 0b4e 18       		.uleb128 0x18
 8138 0b4f BF070000 		.4byte	.LASF150
 8139 0b53 02       		.sleb128 2
 8140 0b54 18       		.uleb128 0x18
 8141 0b55 BD080000 		.4byte	.LASF151
 8142 0b59 03       		.sleb128 3
 8143 0b5a 00       		.byte	0
 8144 0b5b 03       		.uleb128 0x3
 8145 0b5c 090E0000 		.4byte	.LASF152
 8146 0b60 0A       		.byte	0xa
 8147 0b61 76       		.byte	0x76
 8148 0b62 3A0B0000 		.4byte	0xb3a
 8149 0b66 13       		.uleb128 0x13
 8150 0b67 10       		.byte	0x10
 8151 0b68 0A       		.byte	0xa
 8152 0b69 78       		.byte	0x78
 8153 0b6a A70B0000 		.4byte	0xba7
 8154 0b6e 14       		.uleb128 0x14
 8155 0b6f 6C0D0000 		.4byte	.LASF153
 8156 0b73 0A       		.byte	0xa
 8157 0b74 7A       		.byte	0x7a
 8158 0b75 A8090000 		.4byte	0x9a8
 8159 0b79 02       		.byte	0x2
 8160 0b7a 23       		.byte	0x23
 8161 0b7b 00       		.uleb128 0
 8162 0b7c 14       		.uleb128 0x14
 8163 0b7d 9B090000 		.4byte	.LASF154
 8164 0b81 0A       		.byte	0xa
 8165 0b82 7B       		.byte	0x7b
 8166 0b83 30000000 		.4byte	0x30
 8167 0b87 02       		.byte	0x2
 8168 0b88 23       		.byte	0x23
 8169 0b89 04       		.uleb128 0x4
 8170 0b8a 14       		.uleb128 0x14
 8171 0b8b 04040000 		.4byte	.LASF155
 8172 0b8f 0A       		.byte	0xa
 8173 0b90 7C       		.byte	0x7c
 8174 0b91 07010000 		.4byte	0x107
 8175 0b95 02       		.byte	0x2
 8176 0b96 23       		.byte	0x23
 8177 0b97 08       		.uleb128 0x8
 8178 0b98 14       		.uleb128 0x14
 8179 0b99 00000000 		.4byte	.LASF156
 8180 0b9d 0A       		.byte	0xa
 8181 0b9e 7D       		.byte	0x7d
 8182 0b9f 5B0B0000 		.4byte	0xb5b
 8183 0ba3 02       		.byte	0x2
 8184 0ba4 23       		.byte	0x23
 8185 0ba5 0C       		.uleb128 0xc
 8186 0ba6 00       		.byte	0
 8187 0ba7 03       		.uleb128 0x3
ARM GAS  C:\Users\X0217454\AppData\Local\Temp\cc7UAvFx.s 			page 172


 8188 0ba8 CF070000 		.4byte	.LASF157
 8189 0bac 0A       		.byte	0xa
 8190 0bad 7E       		.byte	0x7e
 8191 0bae 660B0000 		.4byte	0xb66
 8192 0bb2 03       		.uleb128 0x3
 8193 0bb3 9A020000 		.4byte	.LASF158
 8194 0bb7 0A       		.byte	0xa
 8195 0bb8 80       		.byte	0x80
 8196 0bb9 30000000 		.4byte	0x30
 8197 0bbd 13       		.uleb128 0x13
 8198 0bbe 1C       		.byte	0x1c
 8199 0bbf 0A       		.byte	0xa
 8200 0bc0 82       		.byte	0x82
 8201 0bc1 FE0B0000 		.4byte	0xbfe
 8202 0bc5 14       		.uleb128 0x14
 8203 0bc6 FD050000 		.4byte	.LASF159
 8204 0bca 0A       		.byte	0xa
 8205 0bcb 84       		.byte	0x84
 8206 0bcc FE0B0000 		.4byte	0xbfe
 8207 0bd0 02       		.byte	0x2
 8208 0bd1 23       		.byte	0x23
 8209 0bd2 00       		.uleb128 0
 8210 0bd3 14       		.uleb128 0x14
 8211 0bd4 06030000 		.4byte	.LASF160
 8212 0bd8 0A       		.byte	0xa
 8213 0bd9 85       		.byte	0x85
 8214 0bda A8090000 		.4byte	0x9a8
 8215 0bde 02       		.byte	0x2
 8216 0bdf 23       		.byte	0x23
 8217 0be0 04       		.uleb128 0x4
 8218 0be1 14       		.uleb128 0x14
 8219 0be2 C0020000 		.4byte	.LASF161
 8220 0be6 0A       		.byte	0xa
 8221 0be7 86       		.byte	0x86
 8222 0be8 040C0000 		.4byte	0xc04
 8223 0bec 02       		.byte	0x2
 8224 0bed 23       		.byte	0x23
 8225 0bee 08       		.uleb128 0x8
 8226 0bef 14       		.uleb128 0x14
 8227 0bf0 000E0000 		.4byte	.LASF162
 8228 0bf4 0A       		.byte	0xa
 8229 0bf5 87       		.byte	0x87
 8230 0bf6 A70B0000 		.4byte	0xba7
 8231 0bfa 02       		.byte	0x2
 8232 0bfb 23       		.byte	0x23
 8233 0bfc 0C       		.uleb128 0xc
 8234 0bfd 00       		.byte	0
 8235 0bfe 09       		.uleb128 0x9
 8236 0bff 04       		.byte	0x4
 8237 0c00 4E090000 		.4byte	0x94e
 8238 0c04 09       		.uleb128 0x9
 8239 0c05 04       		.byte	0x4
 8240 0c06 AE090000 		.4byte	0x9ae
 8241 0c0a 03       		.uleb128 0x3
 8242 0c0b 420E0000 		.4byte	.LASF163
 8243 0c0f 0A       		.byte	0xa
 8244 0c10 88       		.byte	0x88
ARM GAS  C:\Users\X0217454\AppData\Local\Temp\cc7UAvFx.s 			page 173


 8245 0c11 BD0B0000 		.4byte	0xbbd
 8246 0c15 13       		.uleb128 0x13
 8247 0c16 B8       		.byte	0xb8
 8248 0c17 0A       		.byte	0xa
 8249 0c18 8B       		.byte	0x8b
 8250 0c19 440D0000 		.4byte	0xd44
 8251 0c1d 15       		.uleb128 0x15
 8252 0c1e 464400   		.ascii	"FD\000"
 8253 0c21 0A       		.byte	0xa
 8254 0c22 8D       		.byte	0x8d
 8255 0c23 91000000 		.4byte	0x91
 8256 0c27 02       		.byte	0x2
 8257 0c28 23       		.byte	0x23
 8258 0c29 00       		.uleb128 0
 8259 0c2a 14       		.uleb128 0x14
 8260 0c2b 44080000 		.4byte	.LASF164
 8261 0c2f 0A       		.byte	0xa
 8262 0c30 8E       		.byte	0x8e
 8263 0c31 13010000 		.4byte	0x113
 8264 0c35 02       		.byte	0x2
 8265 0c36 23       		.byte	0x23
 8266 0c37 04       		.uleb128 0x4
 8267 0c38 14       		.uleb128 0x14
 8268 0c39 1E090000 		.4byte	.LASF165
 8269 0c3d 0A       		.byte	0xa
 8270 0c3e 8F       		.byte	0x8f
 8271 0c3f 33070000 		.4byte	0x733
 8272 0c43 02       		.byte	0x2
 8273 0c44 23       		.byte	0x23
 8274 0c45 06       		.uleb128 0x6
 8275 0c46 14       		.uleb128 0x14
 8276 0c47 0F080000 		.4byte	.LASF166
 8277 0c4b 0A       		.byte	0xa
 8278 0c4c 90       		.byte	0x90
 8279 0c4d 8A060000 		.4byte	0x68a
 8280 0c51 02       		.byte	0x2
 8281 0c52 23       		.byte	0x23
 8282 0c53 0C       		.uleb128 0xc
 8283 0c54 14       		.uleb128 0x14
 8284 0c55 EA090000 		.4byte	.LASF167
 8285 0c59 0A       		.byte	0xa
 8286 0c5a 92       		.byte	0x92
 8287 0c5b 440D0000 		.4byte	0xd44
 8288 0c5f 02       		.byte	0x2
 8289 0c60 23       		.byte	0x23
 8290 0c61 10       		.uleb128 0x10
 8291 0c62 14       		.uleb128 0x14
 8292 0c63 0B000000 		.4byte	.LASF168
 8293 0c67 0A       		.byte	0xa
 8294 0c68 93       		.byte	0x93
 8295 0c69 30000000 		.4byte	0x30
 8296 0c6d 03       		.byte	0x3
 8297 0c6e 23       		.byte	0x23
 8298 0c6f 8801     		.uleb128 0x88
 8299 0c71 14       		.uleb128 0x14
 8300 0c72 9E0A0000 		.4byte	.LASF169
 8301 0c76 0A       		.byte	0xa
ARM GAS  C:\Users\X0217454\AppData\Local\Temp\cc7UAvFx.s 			page 174


 8302 0c77 94       		.byte	0x94
 8303 0c78 30000000 		.4byte	0x30
 8304 0c7c 03       		.byte	0x3
 8305 0c7d 23       		.byte	0x23
 8306 0c7e 8901     		.uleb128 0x89
 8307 0c80 14       		.uleb128 0x14
 8308 0c81 250A0000 		.4byte	.LASF170
 8309 0c85 0A       		.byte	0xa
 8310 0c86 95       		.byte	0x95
 8311 0c87 30000000 		.4byte	0x30
 8312 0c8b 03       		.byte	0x3
 8313 0c8c 23       		.byte	0x23
 8314 0c8d 8A01     		.uleb128 0x8a
 8315 0c8f 14       		.uleb128 0x14
 8316 0c90 AC0D0000 		.4byte	.LASF171
 8317 0c94 0A       		.byte	0xa
 8318 0c95 96       		.byte	0x96
 8319 0c96 6D000000 		.4byte	0x6d
 8320 0c9a 03       		.byte	0x3
 8321 0c9b 23       		.byte	0x23
 8322 0c9c 8C01     		.uleb128 0x8c
 8323 0c9e 14       		.uleb128 0x14
 8324 0c9f 54040000 		.4byte	.LASF172
 8325 0ca3 0A       		.byte	0xa
 8326 0ca4 97       		.byte	0x97
 8327 0ca5 13010000 		.4byte	0x113
 8328 0ca9 03       		.byte	0x3
 8329 0caa 23       		.byte	0x23
 8330 0cab 9001     		.uleb128 0x90
 8331 0cad 14       		.uleb128 0x14
 8332 0cae 24050000 		.4byte	.LASF173
 8333 0cb2 0A       		.byte	0xa
 8334 0cb3 99       		.byte	0x99
 8335 0cb4 13010000 		.4byte	0x113
 8336 0cb8 03       		.byte	0x3
 8337 0cb9 23       		.byte	0x23
 8338 0cba 9101     		.uleb128 0x91
 8339 0cbc 14       		.uleb128 0x14
 8340 0cbd A5070000 		.4byte	.LASF174
 8341 0cc1 0A       		.byte	0xa
 8342 0cc2 9A       		.byte	0x9a
 8343 0cc3 30000000 		.4byte	0x30
 8344 0cc7 03       		.byte	0x3
 8345 0cc8 23       		.byte	0x23
 8346 0cc9 9201     		.uleb128 0x92
 8347 0ccb 14       		.uleb128 0x14
 8348 0ccc 0F0A0000 		.4byte	.LASF175
 8349 0cd0 0A       		.byte	0xa
 8350 0cd1 9C       		.byte	0x9c
 8351 0cd2 2F0B0000 		.4byte	0xb2f
 8352 0cd6 03       		.byte	0x3
 8353 0cd7 23       		.byte	0x23
 8354 0cd8 9301     		.uleb128 0x93
 8355 0cda 14       		.uleb128 0x14
 8356 0cdb 52020000 		.4byte	.LASF176
 8357 0cdf 0A       		.byte	0xa
 8358 0ce0 9E       		.byte	0x9e
ARM GAS  C:\Users\X0217454\AppData\Local\Temp\cc7UAvFx.s 			page 175


 8359 0ce1 30000000 		.4byte	0x30
 8360 0ce5 03       		.byte	0x3
 8361 0ce6 23       		.byte	0x23
 8362 0ce7 9601     		.uleb128 0x96
 8363 0ce9 14       		.uleb128 0x14
 8364 0cea DF010000 		.4byte	.LASF177
 8365 0cee 0A       		.byte	0xa
 8366 0cef 9F       		.byte	0x9f
 8367 0cf0 30000000 		.4byte	0x30
 8368 0cf4 03       		.byte	0x3
 8369 0cf5 23       		.byte	0x23
 8370 0cf6 9701     		.uleb128 0x97
 8371 0cf8 14       		.uleb128 0x14
 8372 0cf9 B6020000 		.4byte	.LASF178
 8373 0cfd 0A       		.byte	0xa
 8374 0cfe A0       		.byte	0xa0
 8375 0cff 30000000 		.4byte	0x30
 8376 0d03 03       		.byte	0x3
 8377 0d04 23       		.byte	0x23
 8378 0d05 9801     		.uleb128 0x98
 8379 0d07 14       		.uleb128 0x14
 8380 0d08 0C090000 		.4byte	.LASF93
 8381 0d0c 0A       		.byte	0xa
 8382 0d0d A1       		.byte	0xa1
 8383 0d0e 30000000 		.4byte	0x30
 8384 0d12 03       		.byte	0x3
 8385 0d13 23       		.byte	0x23
 8386 0d14 9901     		.uleb128 0x99
 8387 0d16 14       		.uleb128 0x14
 8388 0d17 2B040000 		.4byte	.LASF92
 8389 0d1b 0A       		.byte	0xa
 8390 0d1c A2       		.byte	0xa2
 8391 0d1d 30000000 		.4byte	0x30
 8392 0d21 03       		.byte	0x3
 8393 0d22 23       		.byte	0x23
 8394 0d23 9A01     		.uleb128 0x9a
 8395 0d25 14       		.uleb128 0x14
 8396 0d26 66040000 		.4byte	.LASF179
 8397 0d2a 0A       		.byte	0xa
 8398 0d2b A3       		.byte	0xa3
 8399 0d2c 30000000 		.4byte	0x30
 8400 0d30 03       		.byte	0x3
 8401 0d31 23       		.byte	0x23
 8402 0d32 9B01     		.uleb128 0x9b
 8403 0d34 14       		.uleb128 0x14
 8404 0d35 60060000 		.4byte	.LASF180
 8405 0d39 0A       		.byte	0xa
 8406 0d3a A5       		.byte	0xa5
 8407 0d3b 0A0C0000 		.4byte	0xc0a
 8408 0d3f 03       		.byte	0x3
 8409 0d40 23       		.byte	0x23
 8410 0d41 9C01     		.uleb128 0x9c
 8411 0d43 00       		.byte	0
 8412 0d44 07       		.uleb128 0x7
 8413 0d45 400A0000 		.4byte	0xa40
 8414 0d49 540D0000 		.4byte	0xd54
 8415 0d4d 08       		.uleb128 0x8
ARM GAS  C:\Users\X0217454\AppData\Local\Temp\cc7UAvFx.s 			page 176


 8416 0d4e DC000000 		.4byte	0xdc
 8417 0d52 09       		.byte	0x9
 8418 0d53 00       		.byte	0
 8419 0d54 03       		.uleb128 0x3
 8420 0d55 620B0000 		.4byte	.LASF181
 8421 0d59 0A       		.byte	0xa
 8422 0d5a A7       		.byte	0xa7
 8423 0d5b 150C0000 		.4byte	0xc15
 8424 0d5f 19       		.uleb128 0x19
 8425 0d60 6401     		.2byte	0x164
 8426 0d62 01       		.byte	0x1
 8427 0d63 61       		.byte	0x61
 8428 0d64 940D0000 		.4byte	0xd94
 8429 0d68 14       		.uleb128 0x14
 8430 0d69 000A0000 		.4byte	.LASF182
 8431 0d6d 01       		.byte	0x1
 8432 0d6e 63       		.byte	0x63
 8433 0d6f 6D000000 		.4byte	0x6d
 8434 0d73 02       		.byte	0x2
 8435 0d74 23       		.byte	0x23
 8436 0d75 00       		.uleb128 0
 8437 0d76 14       		.uleb128 0x14
 8438 0d77 FD0A0000 		.4byte	.LASF183
 8439 0d7b 01       		.byte	0x1
 8440 0d7c 64       		.byte	0x64
 8441 0d7d 540D0000 		.4byte	0xd54
 8442 0d81 02       		.byte	0x2
 8443 0d82 23       		.byte	0x23
 8444 0d83 04       		.uleb128 0x4
 8445 0d84 14       		.uleb128 0x14
 8446 0d85 9C0B0000 		.4byte	.LASF184
 8447 0d89 01       		.byte	0x1
 8448 0d8a 65       		.byte	0x65
 8449 0d8b 940D0000 		.4byte	0xd94
 8450 0d8f 03       		.byte	0x3
 8451 0d90 23       		.byte	0x23
 8452 0d91 BC01     		.uleb128 0xbc
 8453 0d93 00       		.byte	0
 8454 0d94 07       		.uleb128 0x7
 8455 0d95 30000000 		.4byte	0x30
 8456 0d99 A40D0000 		.4byte	0xda4
 8457 0d9d 08       		.uleb128 0x8
 8458 0d9e DC000000 		.4byte	0xdc
 8459 0da2 A7       		.byte	0xa7
 8460 0da3 00       		.byte	0
 8461 0da4 03       		.uleb128 0x3
 8462 0da5 EB030000 		.4byte	.LASF185
 8463 0da9 01       		.byte	0x1
 8464 0daa 66       		.byte	0x66
 8465 0dab 5F0D0000 		.4byte	0xd5f
 8466 0daf 10       		.uleb128 0x10
 8467 0db0 04       		.byte	0x4
 8468 0db1 01       		.byte	0x1
 8469 0db2 D004     		.2byte	0x4d0
 8470 0db4 C50D0000 		.4byte	0xdc5
 8471 0db8 12       		.uleb128 0x12
 8472 0db9 52737000 		.ascii	"Rsp\000"
ARM GAS  C:\Users\X0217454\AppData\Local\Temp\cc7UAvFx.s 			page 177


 8473 0dbd 01       		.byte	0x1
 8474 0dbe D204     		.2byte	0x4d2
 8475 0dc0 C0070000 		.4byte	0x7c0
 8476 0dc4 00       		.byte	0
 8477 0dc5 0C       		.uleb128 0xc
 8478 0dc6 52080000 		.4byte	.LASF186
 8479 0dca 01       		.byte	0x1
 8480 0dcb D304     		.2byte	0x4d3
 8481 0dcd AF0D0000 		.4byte	0xdaf
 8482 0dd1 1A       		.uleb128 0x1a
 8483 0dd2 01       		.byte	0x1
 8484 0dd3 F3020000 		.4byte	.LASF188
 8485 0dd7 01       		.byte	0x1
 8486 0dd8 6F       		.byte	0x6f
 8487 0dd9 01       		.byte	0x1
 8488 0dda 00000000 		.4byte	.LFB0
 8489 0dde 08010000 		.4byte	.LFE0
 8490 0de2 00000000 		.4byte	.LLST0
 8491 0de6 01       		.byte	0x1
 8492 0de7 660E0000 		.4byte	0xe66
 8493 0deb 1B       		.uleb128 0x1b
 8494 0dec 49647800 		.ascii	"Idx\000"
 8495 0df0 01       		.byte	0x1
 8496 0df1 71       		.byte	0x71
 8497 0df2 30000000 		.4byte	0x30
 8498 0df6 02       		.byte	0x2
 8499 0df7 91       		.byte	0x91
 8500 0df8 77       		.sleb128 -9
 8501 0df9 1C       		.uleb128 0x1c
 8502 0dfa 24000000 		.4byte	.LBB2
 8503 0dfe 3E000000 		.4byte	.LBE2
 8504 0e02 150E0000 		.4byte	0xe15
 8505 0e06 1D       		.uleb128 0x1d
 8506 0e07 F90C0000 		.4byte	.LASF187
 8507 0e0b 01       		.byte	0x1
 8508 0e0c 7C       		.byte	0x7c
 8509 0e0d C3000000 		.4byte	0xc3
 8510 0e11 02       		.byte	0x2
 8511 0e12 91       		.byte	0x91
 8512 0e13 70       		.sleb128 -16
 8513 0e14 00       		.byte	0
 8514 0e15 1C       		.uleb128 0x1c
 8515 0e16 50000000 		.4byte	.LBB3
 8516 0e1a 6A000000 		.4byte	.LBE3
 8517 0e1e 310E0000 		.4byte	0xe31
 8518 0e22 1D       		.uleb128 0x1d
 8519 0e23 F90C0000 		.4byte	.LASF187
 8520 0e27 01       		.byte	0x1
 8521 0e28 7F       		.byte	0x7f
 8522 0e29 C3000000 		.4byte	0xc3
 8523 0e2d 02       		.byte	0x2
 8524 0e2e 91       		.byte	0x91
 8525 0e2f 6C       		.sleb128 -20
 8526 0e30 00       		.byte	0
 8527 0e31 1C       		.uleb128 0x1c
 8528 0e32 6A000000 		.4byte	.LBB4
 8529 0e36 84000000 		.4byte	.LBE4
ARM GAS  C:\Users\X0217454\AppData\Local\Temp\cc7UAvFx.s 			page 178


 8530 0e3a 4D0E0000 		.4byte	0xe4d
 8531 0e3e 1D       		.uleb128 0x1d
 8532 0e3f F90C0000 		.4byte	.LASF187
 8533 0e43 01       		.byte	0x1
 8534 0e44 81       		.byte	0x81
 8535 0e45 C3000000 		.4byte	0xc3
 8536 0e49 02       		.byte	0x2
 8537 0e4a 91       		.byte	0x91
 8538 0e4b 68       		.sleb128 -24
 8539 0e4c 00       		.byte	0
 8540 0e4d 1E       		.uleb128 0x1e
 8541 0e4e 92000000 		.4byte	.LBB5
 8542 0e52 BC000000 		.4byte	.LBE5
 8543 0e56 1D       		.uleb128 0x1d
 8544 0e57 F90C0000 		.4byte	.LASF187
 8545 0e5b 01       		.byte	0x1
 8546 0e5c 87       		.byte	0x87
 8547 0e5d C3000000 		.4byte	0xc3
 8548 0e61 02       		.byte	0x2
 8549 0e62 91       		.byte	0x91
 8550 0e63 64       		.sleb128 -28
 8551 0e64 00       		.byte	0
 8552 0e65 00       		.byte	0
 8553 0e66 1A       		.uleb128 0x1a
 8554 0e67 01       		.byte	0x1
 8555 0e68 48010000 		.4byte	.LASF189
 8556 0e6c 01       		.byte	0x1
 8557 0e6d 90       		.byte	0x90
 8558 0e6e 01       		.byte	0x1
 8559 0e6f 00000000 		.4byte	.LFB1
 8560 0e73 C0000000 		.4byte	.LFE1
 8561 0e77 38000000 		.4byte	.LLST1
 8562 0e7b 01       		.byte	0x1
 8563 0e7c FB0E0000 		.4byte	0xefb
 8564 0e80 1B       		.uleb128 0x1b
 8565 0e81 49647800 		.ascii	"Idx\000"
 8566 0e85 01       		.byte	0x1
 8567 0e86 92       		.byte	0x92
 8568 0e87 30000000 		.4byte	0x30
 8569 0e8b 02       		.byte	0x2
 8570 0e8c 91       		.byte	0x91
 8571 0e8d 77       		.sleb128 -9
 8572 0e8e 1C       		.uleb128 0x1c
 8573 0e8f 0A000000 		.4byte	.LBB6
 8574 0e93 24000000 		.4byte	.LBE6
 8575 0e97 AA0E0000 		.4byte	0xeaa
 8576 0e9b 1D       		.uleb128 0x1d
 8577 0e9c F90C0000 		.4byte	.LASF187
 8578 0ea0 01       		.byte	0x1
 8579 0ea1 96       		.byte	0x96
 8580 0ea2 C3000000 		.4byte	0xc3
 8581 0ea6 02       		.byte	0x2
 8582 0ea7 91       		.byte	0x91
 8583 0ea8 70       		.sleb128 -16
 8584 0ea9 00       		.byte	0
 8585 0eaa 1C       		.uleb128 0x1c
 8586 0eab 24000000 		.4byte	.LBB7
ARM GAS  C:\Users\X0217454\AppData\Local\Temp\cc7UAvFx.s 			page 179


 8587 0eaf 3E000000 		.4byte	.LBE7
 8588 0eb3 C60E0000 		.4byte	0xec6
 8589 0eb7 1D       		.uleb128 0x1d
 8590 0eb8 F90C0000 		.4byte	.LASF187
 8591 0ebc 01       		.byte	0x1
 8592 0ebd 98       		.byte	0x98
 8593 0ebe C3000000 		.4byte	0xc3
 8594 0ec2 02       		.byte	0x2
 8595 0ec3 91       		.byte	0x91
 8596 0ec4 6C       		.sleb128 -20
 8597 0ec5 00       		.byte	0
 8598 0ec6 1C       		.uleb128 0x1c
 8599 0ec7 3E000000 		.4byte	.LBB8
 8600 0ecb 58000000 		.4byte	.LBE8
 8601 0ecf E20E0000 		.4byte	0xee2
 8602 0ed3 1D       		.uleb128 0x1d
 8603 0ed4 F90C0000 		.4byte	.LASF187
 8604 0ed8 01       		.byte	0x1
 8605 0ed9 9A       		.byte	0x9a
 8606 0eda C3000000 		.4byte	0xc3
 8607 0ede 02       		.byte	0x2
 8608 0edf 91       		.byte	0x91
 8609 0ee0 68       		.sleb128 -24
 8610 0ee1 00       		.byte	0
 8611 0ee2 1E       		.uleb128 0x1e
 8612 0ee3 62000000 		.4byte	.LBB9
 8613 0ee7 8C000000 		.4byte	.LBE9
 8614 0eeb 1D       		.uleb128 0x1d
 8615 0eec F90C0000 		.4byte	.LASF187
 8616 0ef0 01       		.byte	0x1
 8617 0ef1 9D       		.byte	0x9d
 8618 0ef2 C3000000 		.4byte	0xc3
 8619 0ef6 02       		.byte	0x2
 8620 0ef7 91       		.byte	0x91
 8621 0ef8 64       		.sleb128 -28
 8622 0ef9 00       		.byte	0
 8623 0efa 00       		.byte	0
 8624 0efb 1A       		.uleb128 0x1a
 8625 0efc 01       		.byte	0x1
 8626 0efd A0010000 		.4byte	.LASF190
 8627 0f01 01       		.byte	0x1
 8628 0f02 AE       		.byte	0xae
 8629 0f03 01       		.byte	0x1
 8630 0f04 00000000 		.4byte	.LFB2
 8631 0f08 5C000000 		.4byte	.LFE2
 8632 0f0c 70000000 		.4byte	.LLST2
 8633 0f10 01       		.byte	0x1
 8634 0f11 3C0F0000 		.4byte	0xf3c
 8635 0f15 1F       		.uleb128 0x1f
 8636 0f16 BD040000 		.4byte	.LASF191
 8637 0f1a 01       		.byte	0x1
 8638 0f1b AE       		.byte	0xae
 8639 0f1c E3000000 		.4byte	0xe3
 8640 0f20 02       		.byte	0x2
 8641 0f21 91       		.byte	0x91
 8642 0f22 6C       		.sleb128 -20
 8643 0f23 1E       		.uleb128 0x1e
ARM GAS  C:\Users\X0217454\AppData\Local\Temp\cc7UAvFx.s 			page 180


 8644 0f24 28000000 		.4byte	.LBB10
 8645 0f28 42000000 		.4byte	.LBE10
 8646 0f2c 1D       		.uleb128 0x1d
 8647 0f2d F90C0000 		.4byte	.LASF187
 8648 0f31 01       		.byte	0x1
 8649 0f32 B5       		.byte	0xb5
 8650 0f33 C3000000 		.4byte	0xc3
 8651 0f37 02       		.byte	0x2
 8652 0f38 91       		.byte	0x91
 8653 0f39 74       		.sleb128 -12
 8654 0f3a 00       		.byte	0
 8655 0f3b 00       		.byte	0
 8656 0f3c 20       		.uleb128 0x20
 8657 0f3d 01       		.byte	0x1
 8658 0f3e 97040000 		.4byte	.LASF193
 8659 0f42 01       		.byte	0x1
 8660 0f43 C0       		.byte	0xc0
 8661 0f44 01       		.byte	0x1
 8662 0f45 C3000000 		.4byte	0xc3
 8663 0f49 00000000 		.4byte	.LFB3
 8664 0f4d 94000000 		.4byte	.LFE3
 8665 0f51 A8000000 		.4byte	.LLST3
 8666 0f55 01       		.byte	0x1
 8667 0f56 C70F0000 		.4byte	0xfc7
 8668 0f5a 1F       		.uleb128 0x1f
 8669 0f5b FD050000 		.4byte	.LASF159
 8670 0f5f 01       		.byte	0x1
 8671 0f60 C1       		.byte	0xc1
 8672 0f61 FE0B0000 		.4byte	0xbfe
 8673 0f65 02       		.byte	0x2
 8674 0f66 91       		.byte	0x91
 8675 0f67 64       		.sleb128 -28
 8676 0f68 1F       		.uleb128 0x1f
 8677 0f69 06030000 		.4byte	.LASF160
 8678 0f6d 01       		.byte	0x1
 8679 0f6e C2       		.byte	0xc2
 8680 0f6f E3000000 		.4byte	0xe3
 8681 0f73 02       		.byte	0x2
 8682 0f74 91       		.byte	0x91
 8683 0f75 60       		.sleb128 -32
 8684 0f76 1F       		.uleb128 0x1f
 8685 0f77 C0020000 		.4byte	.LASF161
 8686 0f7b 01       		.byte	0x1
 8687 0f7c C3       		.byte	0xc3
 8688 0f7d 040C0000 		.4byte	0xc04
 8689 0f81 02       		.byte	0x2
 8690 0f82 91       		.byte	0x91
 8691 0f83 5C       		.sleb128 -36
 8692 0f84 1D       		.uleb128 0x1d
 8693 0f85 77010000 		.4byte	.LASF192
 8694 0f89 01       		.byte	0x1
 8695 0f8a C5       		.byte	0xc5
 8696 0f8b C3000000 		.4byte	0xc3
 8697 0f8f 02       		.byte	0x2
 8698 0f90 91       		.byte	0x91
 8699 0f91 74       		.sleb128 -12
 8700 0f92 1C       		.uleb128 0x1c
ARM GAS  C:\Users\X0217454\AppData\Local\Temp\cc7UAvFx.s 			page 181


 8701 0f93 0C000000 		.4byte	.LBB11
 8702 0f97 2A000000 		.4byte	.LBE11
 8703 0f9b AE0F0000 		.4byte	0xfae
 8704 0f9f 1D       		.uleb128 0x1d
 8705 0fa0 F90C0000 		.4byte	.LASF187
 8706 0fa4 01       		.byte	0x1
 8707 0fa5 C7       		.byte	0xc7
 8708 0fa6 C3000000 		.4byte	0xc3
 8709 0faa 02       		.byte	0x2
 8710 0fab 91       		.byte	0x91
 8711 0fac 70       		.sleb128 -16
 8712 0fad 00       		.byte	0
 8713 0fae 1E       		.uleb128 0x1e
 8714 0faf 6A000000 		.4byte	.LBB12
 8715 0fb3 84000000 		.4byte	.LBE12
 8716 0fb7 1D       		.uleb128 0x1d
 8717 0fb8 F90C0000 		.4byte	.LASF187
 8718 0fbc 01       		.byte	0x1
 8719 0fbd DB       		.byte	0xdb
 8720 0fbe C3000000 		.4byte	0xc3
 8721 0fc2 02       		.byte	0x2
 8722 0fc3 91       		.byte	0x91
 8723 0fc4 6C       		.sleb128 -20
 8724 0fc5 00       		.byte	0
 8725 0fc6 00       		.byte	0
 8726 0fc7 20       		.uleb128 0x20
 8727 0fc8 01       		.byte	0x1
 8728 0fc9 1D010000 		.4byte	.LASF194
 8729 0fcd 01       		.byte	0x1
 8730 0fce E5       		.byte	0xe5
 8731 0fcf 01       		.byte	0x1
 8732 0fd0 C3000000 		.4byte	0xc3
 8733 0fd4 00000000 		.4byte	.LFB4
 8734 0fd8 4C000000 		.4byte	.LFE4
 8735 0fdc E0000000 		.4byte	.LLST4
 8736 0fe0 01       		.byte	0x1
 8737 0fe1 1E100000 		.4byte	0x101e
 8738 0fe5 1F       		.uleb128 0x1f
 8739 0fe6 FD050000 		.4byte	.LASF159
 8740 0fea 01       		.byte	0x1
 8741 0feb E6       		.byte	0xe6
 8742 0fec FE0B0000 		.4byte	0xbfe
 8743 0ff0 02       		.byte	0x2
 8744 0ff1 91       		.byte	0x91
 8745 0ff2 6C       		.sleb128 -20
 8746 0ff3 1F       		.uleb128 0x1f
 8747 0ff4 06030000 		.4byte	.LASF160
 8748 0ff8 01       		.byte	0x1
 8749 0ff9 E7       		.byte	0xe7
 8750 0ffa E3000000 		.4byte	0xe3
 8751 0ffe 02       		.byte	0x2
 8752 0fff 91       		.byte	0x91
 8753 1000 68       		.sleb128 -24
 8754 1001 1F       		.uleb128 0x1f
 8755 1002 C0020000 		.4byte	.LASF161
 8756 1006 01       		.byte	0x1
 8757 1007 E8       		.byte	0xe8
ARM GAS  C:\Users\X0217454\AppData\Local\Temp\cc7UAvFx.s 			page 182


 8758 1008 040C0000 		.4byte	0xc04
 8759 100c 02       		.byte	0x2
 8760 100d 91       		.byte	0x91
 8761 100e 64       		.sleb128 -28
 8762 100f 1D       		.uleb128 0x1d
 8763 1010 77010000 		.4byte	.LASF192
 8764 1014 01       		.byte	0x1
 8765 1015 EA       		.byte	0xea
 8766 1016 C3000000 		.4byte	0xc3
 8767 101a 02       		.byte	0x2
 8768 101b 91       		.byte	0x91
 8769 101c 74       		.sleb128 -12
 8770 101d 00       		.byte	0
 8771 101e 20       		.uleb128 0x20
 8772 101f 01       		.byte	0x1
 8773 1020 D00B0000 		.4byte	.LASF195
 8774 1024 01       		.byte	0x1
 8775 1025 FC       		.byte	0xfc
 8776 1026 01       		.byte	0x1
 8777 1027 C3000000 		.4byte	0xc3
 8778 102b 00000000 		.4byte	.LFB5
 8779 102f 48020000 		.4byte	.LFE5
 8780 1033 18010000 		.4byte	.LLST5
 8781 1037 01       		.byte	0x1
 8782 1038 88110000 		.4byte	0x1188
 8783 103c 21       		.uleb128 0x21
 8784 103d 536400   		.ascii	"Sd\000"
 8785 1040 01       		.byte	0x1
 8786 1041 FD       		.byte	0xfd
 8787 1042 B20B0000 		.4byte	0xbb2
 8788 1046 02       		.byte	0x2
 8789 1047 91       		.byte	0x91
 8790 1048 47       		.sleb128 -57
 8791 1049 1F       		.uleb128 0x1f
 8792 104a FD050000 		.4byte	.LASF159
 8793 104e 01       		.byte	0x1
 8794 104f FE       		.byte	0xfe
 8795 1050 FE0B0000 		.4byte	0xbfe
 8796 1054 02       		.byte	0x2
 8797 1055 91       		.byte	0x91
 8798 1056 40       		.sleb128 -64
 8799 1057 1F       		.uleb128 0x1f
 8800 1058 06030000 		.4byte	.LASF160
 8801 105c 01       		.byte	0x1
 8802 105d FF       		.byte	0xff
 8803 105e E3000000 		.4byte	0xe3
 8804 1062 03       		.byte	0x3
 8805 1063 91       		.byte	0x91
 8806 1064 BC7F     		.sleb128 -68
 8807 1066 22       		.uleb128 0x22
 8808 1067 C0020000 		.4byte	.LASF161
 8809 106b 01       		.byte	0x1
 8810 106c 0001     		.2byte	0x100
 8811 106e 040C0000 		.4byte	0xc04
 8812 1072 03       		.byte	0x3
 8813 1073 91       		.byte	0x91
 8814 1074 B87F     		.sleb128 -72
ARM GAS  C:\Users\X0217454\AppData\Local\Temp\cc7UAvFx.s 			page 183


 8815 1076 23       		.uleb128 0x23
 8816 1077 77010000 		.4byte	.LASF192
 8817 107b 01       		.byte	0x1
 8818 107c 0201     		.2byte	0x102
 8819 107e C3000000 		.4byte	0xc3
 8820 1082 02       		.byte	0x2
 8821 1083 91       		.byte	0x91
 8822 1084 58       		.sleb128 -40
 8823 1085 23       		.uleb128 0x23
 8824 1086 2D020000 		.4byte	.LASF196
 8825 108a 01       		.byte	0x1
 8826 108b 0301     		.2byte	0x103
 8827 108d 30000000 		.4byte	0x30
 8828 1091 02       		.byte	0x2
 8829 1092 91       		.byte	0x91
 8830 1093 77       		.sleb128 -9
 8831 1094 23       		.uleb128 0x23
 8832 1095 DD000000 		.4byte	.LASF197
 8833 1099 01       		.byte	0x1
 8834 109a 0401     		.2byte	0x104
 8835 109c E2090000 		.4byte	0x9e2
 8836 10a0 02       		.byte	0x2
 8837 10a1 91       		.byte	0x91
 8838 10a2 48       		.sleb128 -56
 8839 10a3 1C       		.uleb128 0x1c
 8840 10a4 5A000000 		.4byte	.LBB13
 8841 10a8 78000000 		.4byte	.LBE13
 8842 10ac C0100000 		.4byte	0x10c0
 8843 10b0 23       		.uleb128 0x23
 8844 10b1 F90C0000 		.4byte	.LASF187
 8845 10b5 01       		.byte	0x1
 8846 10b6 1501     		.2byte	0x115
 8847 10b8 C3000000 		.4byte	0xc3
 8848 10bc 02       		.byte	0x2
 8849 10bd 91       		.byte	0x91
 8850 10be 70       		.sleb128 -16
 8851 10bf 00       		.byte	0
 8852 10c0 1C       		.uleb128 0x1c
 8853 10c1 A6000000 		.4byte	.LBB14
 8854 10c5 C0000000 		.4byte	.LBE14
 8855 10c9 DD100000 		.4byte	0x10dd
 8856 10cd 23       		.uleb128 0x23
 8857 10ce F90C0000 		.4byte	.LASF187
 8858 10d2 01       		.byte	0x1
 8859 10d3 1A01     		.2byte	0x11a
 8860 10d5 C3000000 		.4byte	0xc3
 8861 10d9 02       		.byte	0x2
 8862 10da 91       		.byte	0x91
 8863 10db 6C       		.sleb128 -20
 8864 10dc 00       		.byte	0
 8865 10dd 1C       		.uleb128 0x1c
 8866 10de C0000000 		.4byte	.LBB15
 8867 10e2 DE000000 		.4byte	.LBE15
 8868 10e6 FA100000 		.4byte	0x10fa
 8869 10ea 23       		.uleb128 0x23
 8870 10eb F90C0000 		.4byte	.LASF187
 8871 10ef 01       		.byte	0x1
ARM GAS  C:\Users\X0217454\AppData\Local\Temp\cc7UAvFx.s 			page 184


 8872 10f0 1E01     		.2byte	0x11e
 8873 10f2 C3000000 		.4byte	0xc3
 8874 10f6 02       		.byte	0x2
 8875 10f7 91       		.byte	0x91
 8876 10f8 68       		.sleb128 -24
 8877 10f9 00       		.byte	0
 8878 10fa 1C       		.uleb128 0x1c
 8879 10fb FC000000 		.4byte	.LBB16
 8880 10ff 1A010000 		.4byte	.LBE16
 8881 1103 17110000 		.4byte	0x1117
 8882 1107 23       		.uleb128 0x23
 8883 1108 F90C0000 		.4byte	.LASF187
 8884 110c 01       		.byte	0x1
 8885 110d 2A01     		.2byte	0x12a
 8886 110f C3000000 		.4byte	0xc3
 8887 1113 02       		.byte	0x2
 8888 1114 91       		.byte	0x91
 8889 1115 64       		.sleb128 -28
 8890 1116 00       		.byte	0
 8891 1117 1C       		.uleb128 0x1c
 8892 1118 1A010000 		.4byte	.LBB17
 8893 111c 38010000 		.4byte	.LBE17
 8894 1120 34110000 		.4byte	0x1134
 8895 1124 23       		.uleb128 0x23
 8896 1125 F90C0000 		.4byte	.LASF187
 8897 1129 01       		.byte	0x1
 8898 112a 2D01     		.2byte	0x12d
 8899 112c C3000000 		.4byte	0xc3
 8900 1130 02       		.byte	0x2
 8901 1131 91       		.byte	0x91
 8902 1132 60       		.sleb128 -32
 8903 1133 00       		.byte	0
 8904 1134 1C       		.uleb128 0x1c
 8905 1135 56010000 		.4byte	.LBB18
 8906 1139 70010000 		.4byte	.LBE18
 8907 113d 51110000 		.4byte	0x1151
 8908 1141 23       		.uleb128 0x23
 8909 1142 F90C0000 		.4byte	.LASF187
 8910 1146 01       		.byte	0x1
 8911 1147 3201     		.2byte	0x132
 8912 1149 C3000000 		.4byte	0xc3
 8913 114d 02       		.byte	0x2
 8914 114e 91       		.byte	0x91
 8915 114f 5C       		.sleb128 -36
 8916 1150 00       		.byte	0
 8917 1151 1C       		.uleb128 0x1c
 8918 1152 DC010000 		.4byte	.LBB19
 8919 1156 F6010000 		.4byte	.LBE19
 8920 115a 6E110000 		.4byte	0x116e
 8921 115e 23       		.uleb128 0x23
 8922 115f F90C0000 		.4byte	.LASF187
 8923 1163 01       		.byte	0x1
 8924 1164 3C01     		.2byte	0x13c
 8925 1166 C3000000 		.4byte	0xc3
 8926 116a 02       		.byte	0x2
 8927 116b 91       		.byte	0x91
 8928 116c 54       		.sleb128 -44
ARM GAS  C:\Users\X0217454\AppData\Local\Temp\cc7UAvFx.s 			page 185


 8929 116d 00       		.byte	0
 8930 116e 1E       		.uleb128 0x1e
 8931 116f FC010000 		.4byte	.LBB20
 8932 1173 2A020000 		.4byte	.LBE20
 8933 1177 23       		.uleb128 0x23
 8934 1178 F90C0000 		.4byte	.LASF187
 8935 117c 01       		.byte	0x1
 8936 117d 4101     		.2byte	0x141
 8937 117f C3000000 		.4byte	0xc3
 8938 1183 02       		.byte	0x2
 8939 1184 91       		.byte	0x91
 8940 1185 50       		.sleb128 -48
 8941 1186 00       		.byte	0
 8942 1187 00       		.byte	0
 8943 1188 24       		.uleb128 0x24
 8944 1189 01       		.byte	0x1
 8945 118a 33070000 		.4byte	.LASF198
 8946 118e 01       		.byte	0x1
 8947 118f 4B01     		.2byte	0x14b
 8948 1191 01       		.byte	0x1
 8949 1192 C3000000 		.4byte	0xc3
 8950 1196 00000000 		.4byte	.LFB6
 8951 119a 04020000 		.4byte	.LFE6
 8952 119e 52010000 		.4byte	.LLST6
 8953 11a2 01       		.byte	0x1
 8954 11a3 D6120000 		.4byte	0x12d6
 8955 11a7 25       		.uleb128 0x25
 8956 11a8 536400   		.ascii	"Sd\000"
 8957 11ab 01       		.byte	0x1
 8958 11ac 4C01     		.2byte	0x14c
 8959 11ae B20B0000 		.4byte	0xbb2
 8960 11b2 02       		.byte	0x2
 8961 11b3 91       		.byte	0x91
 8962 11b4 4F       		.sleb128 -49
 8963 11b5 22       		.uleb128 0x22
 8964 11b6 FD050000 		.4byte	.LASF159
 8965 11ba 01       		.byte	0x1
 8966 11bb 4D01     		.2byte	0x14d
 8967 11bd FE0B0000 		.4byte	0xbfe
 8968 11c1 02       		.byte	0x2
 8969 11c2 91       		.byte	0x91
 8970 11c3 48       		.sleb128 -56
 8971 11c4 22       		.uleb128 0x22
 8972 11c5 06030000 		.4byte	.LASF160
 8973 11c9 01       		.byte	0x1
 8974 11ca 4E01     		.2byte	0x14e
 8975 11cc E3000000 		.4byte	0xe3
 8976 11d0 02       		.byte	0x2
 8977 11d1 91       		.byte	0x91
 8978 11d2 44       		.sleb128 -60
 8979 11d3 22       		.uleb128 0x22
 8980 11d4 C0020000 		.4byte	.LASF161
 8981 11d8 01       		.byte	0x1
 8982 11d9 4F01     		.2byte	0x14f
 8983 11db 040C0000 		.4byte	0xc04
 8984 11df 02       		.byte	0x2
 8985 11e0 91       		.byte	0x91
ARM GAS  C:\Users\X0217454\AppData\Local\Temp\cc7UAvFx.s 			page 186


 8986 11e1 40       		.sleb128 -64
 8987 11e2 23       		.uleb128 0x23
 8988 11e3 77010000 		.4byte	.LASF192
 8989 11e7 01       		.byte	0x1
 8990 11e8 5101     		.2byte	0x151
 8991 11ea C3000000 		.4byte	0xc3
 8992 11ee 02       		.byte	0x2
 8993 11ef 91       		.byte	0x91
 8994 11f0 74       		.sleb128 -12
 8995 11f1 1C       		.uleb128 0x1c
 8996 11f2 1E000000 		.4byte	.LBB21
 8997 11f6 3C000000 		.4byte	.LBE21
 8998 11fa 0E120000 		.4byte	0x120e
 8999 11fe 23       		.uleb128 0x23
 9000 11ff F90C0000 		.4byte	.LASF187
 9001 1203 01       		.byte	0x1
 9002 1204 5501     		.2byte	0x155
 9003 1206 C3000000 		.4byte	0xc3
 9004 120a 02       		.byte	0x2
 9005 120b 91       		.byte	0x91
 9006 120c 70       		.sleb128 -16
 9007 120d 00       		.byte	0
 9008 120e 1C       		.uleb128 0x1c
 9009 120f 6A000000 		.4byte	.LBB22
 9010 1213 84000000 		.4byte	.LBE22
 9011 1217 2B120000 		.4byte	0x122b
 9012 121b 23       		.uleb128 0x23
 9013 121c F90C0000 		.4byte	.LASF187
 9014 1220 01       		.byte	0x1
 9015 1221 5F01     		.2byte	0x15f
 9016 1223 C3000000 		.4byte	0xc3
 9017 1227 02       		.byte	0x2
 9018 1228 91       		.byte	0x91
 9019 1229 6C       		.sleb128 -20
 9020 122a 00       		.byte	0
 9021 122b 1C       		.uleb128 0x1c
 9022 122c B4000000 		.4byte	.LBB23
 9023 1230 CE000000 		.4byte	.LBE23
 9024 1234 48120000 		.4byte	0x1248
 9025 1238 23       		.uleb128 0x23
 9026 1239 F90C0000 		.4byte	.LASF187
 9027 123d 01       		.byte	0x1
 9028 123e 6801     		.2byte	0x168
 9029 1240 C3000000 		.4byte	0xc3
 9030 1244 02       		.byte	0x2
 9031 1245 91       		.byte	0x91
 9032 1246 68       		.sleb128 -24
 9033 1247 00       		.byte	0
 9034 1248 1C       		.uleb128 0x1c
 9035 1249 D2000000 		.4byte	.LBB24
 9036 124d F0000000 		.4byte	.LBE24
 9037 1251 65120000 		.4byte	0x1265
 9038 1255 23       		.uleb128 0x23
 9039 1256 F90C0000 		.4byte	.LASF187
 9040 125a 01       		.byte	0x1
 9041 125b 6D01     		.2byte	0x16d
 9042 125d C3000000 		.4byte	0xc3
ARM GAS  C:\Users\X0217454\AppData\Local\Temp\cc7UAvFx.s 			page 187


 9043 1261 02       		.byte	0x2
 9044 1262 91       		.byte	0x91
 9045 1263 64       		.sleb128 -28
 9046 1264 00       		.byte	0
 9047 1265 1C       		.uleb128 0x1c
 9048 1266 FC000000 		.4byte	.LBB25
 9049 126a 16010000 		.4byte	.LBE25
 9050 126e 82120000 		.4byte	0x1282
 9051 1272 23       		.uleb128 0x23
 9052 1273 F90C0000 		.4byte	.LASF187
 9053 1277 01       		.byte	0x1
 9054 1278 7501     		.2byte	0x175
 9055 127a C3000000 		.4byte	0xc3
 9056 127e 02       		.byte	0x2
 9057 127f 91       		.byte	0x91
 9058 1280 54       		.sleb128 -44
 9059 1281 00       		.byte	0
 9060 1282 1C       		.uleb128 0x1c
 9061 1283 18010000 		.4byte	.LBB26
 9062 1287 36010000 		.4byte	.LBE26
 9063 128b 9F120000 		.4byte	0x129f
 9064 128f 23       		.uleb128 0x23
 9065 1290 F90C0000 		.4byte	.LASF187
 9066 1294 01       		.byte	0x1
 9067 1295 7801     		.2byte	0x178
 9068 1297 C3000000 		.4byte	0xc3
 9069 129b 02       		.byte	0x2
 9070 129c 91       		.byte	0x91
 9071 129d 60       		.sleb128 -32
 9072 129e 00       		.byte	0
 9073 129f 1C       		.uleb128 0x1c
 9074 12a0 54010000 		.4byte	.LBB27
 9075 12a4 6E010000 		.4byte	.LBE27
 9076 12a8 BC120000 		.4byte	0x12bc
 9077 12ac 23       		.uleb128 0x23
 9078 12ad F90C0000 		.4byte	.LASF187
 9079 12b1 01       		.byte	0x1
 9080 12b2 7D01     		.2byte	0x17d
 9081 12b4 C3000000 		.4byte	0xc3
 9082 12b8 02       		.byte	0x2
 9083 12b9 91       		.byte	0x91
 9084 12ba 5C       		.sleb128 -36
 9085 12bb 00       		.byte	0
 9086 12bc 1E       		.uleb128 0x1e
 9087 12bd DA010000 		.4byte	.LBB28
 9088 12c1 F4010000 		.4byte	.LBE28
 9089 12c5 23       		.uleb128 0x23
 9090 12c6 F90C0000 		.4byte	.LASF187
 9091 12ca 01       		.byte	0x1
 9092 12cb 8801     		.2byte	0x188
 9093 12cd C3000000 		.4byte	0xc3
 9094 12d1 02       		.byte	0x2
 9095 12d2 91       		.byte	0x91
 9096 12d3 58       		.sleb128 -40
 9097 12d4 00       		.byte	0
 9098 12d5 00       		.byte	0
 9099 12d6 24       		.uleb128 0x24
ARM GAS  C:\Users\X0217454\AppData\Local\Temp\cc7UAvFx.s 			page 188


 9100 12d7 01       		.byte	0x1
 9101 12d8 93030000 		.4byte	.LASF199
 9102 12dc 01       		.byte	0x1
 9103 12dd 9001     		.2byte	0x190
 9104 12df 01       		.byte	0x1
 9105 12e0 C3000000 		.4byte	0xc3
 9106 12e4 00000000 		.4byte	.LFB7
 9107 12e8 1C020000 		.4byte	.LFE7
 9108 12ec 8C010000 		.4byte	.LLST7
 9109 12f0 01       		.byte	0x1
 9110 12f1 CE130000 		.4byte	0x13ce
 9111 12f5 1C       		.uleb128 0x1c
 9112 12f6 9E000000 		.4byte	.LBB29
 9113 12fa C6000000 		.4byte	.LBE29
 9114 12fe 21130000 		.4byte	0x1321
 9115 1302 23       		.uleb128 0x23
 9116 1303 A2020000 		.4byte	.LASF200
 9117 1307 01       		.byte	0x1
 9118 1308 A301     		.2byte	0x1a3
 9119 130a 91000000 		.4byte	0x91
 9120 130e 02       		.byte	0x2
 9121 130f 91       		.byte	0x91
 9122 1310 70       		.sleb128 -16
 9123 1311 23       		.uleb128 0x23
 9124 1312 74070000 		.4byte	.LASF201
 9125 1316 01       		.byte	0x1
 9126 1317 A301     		.2byte	0x1a3
 9127 1319 91000000 		.4byte	0x91
 9128 131d 02       		.byte	0x2
 9129 131e 91       		.byte	0x91
 9130 131f 74       		.sleb128 -12
 9131 1320 00       		.byte	0
 9132 1321 1C       		.uleb128 0x1c
 9133 1322 C6000000 		.4byte	.LBB30
 9134 1326 F2000000 		.4byte	.LBE30
 9135 132a 4D130000 		.4byte	0x134d
 9136 132e 23       		.uleb128 0x23
 9137 132f A2020000 		.4byte	.LASF200
 9138 1333 01       		.byte	0x1
 9139 1334 AA01     		.2byte	0x1aa
 9140 1336 91000000 		.4byte	0x91
 9141 133a 02       		.byte	0x2
 9142 133b 91       		.byte	0x91
 9143 133c 68       		.sleb128 -24
 9144 133d 23       		.uleb128 0x23
 9145 133e 74070000 		.4byte	.LASF201
 9146 1342 01       		.byte	0x1
 9147 1343 AA01     		.2byte	0x1aa
 9148 1345 91000000 		.4byte	0x91
 9149 1349 02       		.byte	0x2
 9150 134a 91       		.byte	0x91
 9151 134b 6C       		.sleb128 -20
 9152 134c 00       		.byte	0
 9153 134d 1C       		.uleb128 0x1c
 9154 134e 0C010000 		.4byte	.LBB31
 9155 1352 48010000 		.4byte	.LBE31
 9156 1356 79130000 		.4byte	0x1379
ARM GAS  C:\Users\X0217454\AppData\Local\Temp\cc7UAvFx.s 			page 189


 9157 135a 23       		.uleb128 0x23
 9158 135b A2020000 		.4byte	.LASF200
 9159 135f 01       		.byte	0x1
 9160 1360 AF01     		.2byte	0x1af
 9161 1362 91000000 		.4byte	0x91
 9162 1366 02       		.byte	0x2
 9163 1367 91       		.byte	0x91
 9164 1368 60       		.sleb128 -32
 9165 1369 23       		.uleb128 0x23
 9166 136a 74070000 		.4byte	.LASF201
 9167 136e 01       		.byte	0x1
 9168 136f AF01     		.2byte	0x1af
 9169 1371 91000000 		.4byte	0x91
 9170 1375 02       		.byte	0x2
 9171 1376 91       		.byte	0x91
 9172 1377 64       		.sleb128 -28
 9173 1378 00       		.byte	0
 9174 1379 1C       		.uleb128 0x1c
 9175 137a 5E010000 		.4byte	.LBB32
 9176 137e 9C010000 		.4byte	.LBE32
 9177 1382 A5130000 		.4byte	0x13a5
 9178 1386 23       		.uleb128 0x23
 9179 1387 A2020000 		.4byte	.LASF200
 9180 138b 01       		.byte	0x1
 9181 138c B901     		.2byte	0x1b9
 9182 138e 91000000 		.4byte	0x91
 9183 1392 02       		.byte	0x2
 9184 1393 91       		.byte	0x91
 9185 1394 58       		.sleb128 -40
 9186 1395 23       		.uleb128 0x23
 9187 1396 74070000 		.4byte	.LASF201
 9188 139a 01       		.byte	0x1
 9189 139b B901     		.2byte	0x1b9
 9190 139d 91000000 		.4byte	0x91
 9191 13a1 02       		.byte	0x2
 9192 13a2 91       		.byte	0x91
 9193 13a3 5C       		.sleb128 -36
 9194 13a4 00       		.byte	0
 9195 13a5 1E       		.uleb128 0x1e
 9196 13a6 CA010000 		.4byte	.LBB33
 9197 13aa 08020000 		.4byte	.LBE33
 9198 13ae 23       		.uleb128 0x23
 9199 13af A2020000 		.4byte	.LASF200
 9200 13b3 01       		.byte	0x1
 9201 13b4 C401     		.2byte	0x1c4
 9202 13b6 91000000 		.4byte	0x91
 9203 13ba 02       		.byte	0x2
 9204 13bb 91       		.byte	0x91
 9205 13bc 50       		.sleb128 -48
 9206 13bd 23       		.uleb128 0x23
 9207 13be 74070000 		.4byte	.LASF201
 9208 13c2 01       		.byte	0x1
 9209 13c3 C401     		.2byte	0x1c4
 9210 13c5 91000000 		.4byte	0x91
 9211 13c9 02       		.byte	0x2
 9212 13ca 91       		.byte	0x91
 9213 13cb 54       		.sleb128 -44
ARM GAS  C:\Users\X0217454\AppData\Local\Temp\cc7UAvFx.s 			page 190


 9214 13cc 00       		.byte	0
 9215 13cd 00       		.byte	0
 9216 13ce 24       		.uleb128 0x24
 9217 13cf 01       		.byte	0x1
 9218 13d0 23080000 		.4byte	.LASF202
 9219 13d4 01       		.byte	0x1
 9220 13d5 DB01     		.2byte	0x1db
 9221 13d7 01       		.byte	0x1
 9222 13d8 C3000000 		.4byte	0xc3
 9223 13dc 00000000 		.4byte	.LFB8
 9224 13e0 64070000 		.4byte	.LFE8
 9225 13e4 C4010000 		.4byte	.LLST8
 9226 13e8 01       		.byte	0x1
 9227 13e9 66170000 		.4byte	0x1766
 9228 13ed 10       		.uleb128 0x10
 9229 13ee 08       		.byte	0x8
 9230 13ef 01       		.byte	0x1
 9231 13f0 DE01     		.2byte	0x1de
 9232 13f2 0F140000 		.4byte	0x140f
 9233 13f6 11       		.uleb128 0x11
 9234 13f7 560E0000 		.4byte	.LASF203
 9235 13fb 01       		.byte	0x1
 9236 13fc E001     		.2byte	0x1e0
 9237 13fe 66170000 		.4byte	0x1766
 9238 1402 11       		.uleb128 0x11
 9239 1403 49020000 		.4byte	.LASF204
 9240 1407 01       		.byte	0x1
 9241 1408 E101     		.2byte	0x1e1
 9242 140a 76170000 		.4byte	0x1776
 9243 140e 00       		.byte	0
 9244 140f 23       		.uleb128 0x23
 9245 1410 540A0000 		.4byte	.LASF205
 9246 1414 01       		.byte	0x1
 9247 1415 E201     		.2byte	0x1e2
 9248 1417 ED130000 		.4byte	0x13ed
 9249 141b 03       		.byte	0x3
 9250 141c 91       		.byte	0x91
 9251 141d F07E     		.sleb128 -144
 9252 141f 23       		.uleb128 0x23
 9253 1420 B3010000 		.4byte	.LASF206
 9254 1424 01       		.byte	0x1
 9255 1425 E301     		.2byte	0x1e3
 9256 1427 A7060000 		.4byte	0x6a7
 9257 142b 03       		.byte	0x3
 9258 142c 91       		.byte	0x91
 9259 142d EC7E     		.sleb128 -148
 9260 142f 23       		.uleb128 0x23
 9261 1430 3A0D0000 		.4byte	.LASF207
 9262 1434 01       		.byte	0x1
 9263 1435 E401     		.2byte	0x1e4
 9264 1437 54000000 		.4byte	0x54
 9265 143b 02       		.byte	0x2
 9266 143c 91       		.byte	0x91
 9267 143d 76       		.sleb128 -10
 9268 143e 23       		.uleb128 0x23
 9269 143f 7E000000 		.4byte	.LASF208
 9270 1443 01       		.byte	0x1
ARM GAS  C:\Users\X0217454\AppData\Local\Temp\cc7UAvFx.s 			page 191


 9271 1444 E501     		.2byte	0x1e5
 9272 1446 54000000 		.4byte	0x54
 9273 144a 02       		.byte	0x2
 9274 144b 91       		.byte	0x91
 9275 144c 74       		.sleb128 -12
 9276 144d 23       		.uleb128 0x23
 9277 144e 61000000 		.4byte	.LASF209
 9278 1452 01       		.byte	0x1
 9279 1453 E601     		.2byte	0x1e6
 9280 1455 30000000 		.4byte	0x30
 9281 1459 03       		.byte	0x3
 9282 145a 91       		.byte	0x91
 9283 145b EB7E     		.sleb128 -149
 9284 145d 1C       		.uleb128 0x1c
 9285 145e 06000000 		.4byte	.LBB34
 9286 1462 28000000 		.4byte	.LBE34
 9287 1466 7A140000 		.4byte	0x147a
 9288 146a 23       		.uleb128 0x23
 9289 146b F90C0000 		.4byte	.LASF187
 9290 146f 01       		.byte	0x1
 9291 1470 E801     		.2byte	0x1e8
 9292 1472 C3000000 		.4byte	0xc3
 9293 1476 02       		.byte	0x2
 9294 1477 91       		.byte	0x91
 9295 1478 6C       		.sleb128 -20
 9296 1479 00       		.byte	0
 9297 147a 1C       		.uleb128 0x1c
 9298 147b 68000000 		.4byte	.LBB35
 9299 147f 8A000000 		.4byte	.LBE35
 9300 1483 97140000 		.4byte	0x1497
 9301 1487 23       		.uleb128 0x23
 9302 1488 F90C0000 		.4byte	.LASF187
 9303 148c 01       		.byte	0x1
 9304 148d F301     		.2byte	0x1f3
 9305 148f C3000000 		.4byte	0xc3
 9306 1493 02       		.byte	0x2
 9307 1494 91       		.byte	0x91
 9308 1495 68       		.sleb128 -24
 9309 1496 00       		.byte	0
 9310 1497 1C       		.uleb128 0x1c
 9311 1498 2A010000 		.4byte	.LBB36
 9312 149c 60010000 		.4byte	.LBE36
 9313 14a0 C3140000 		.4byte	0x14c3
 9314 14a4 23       		.uleb128 0x23
 9315 14a5 A2020000 		.4byte	.LASF200
 9316 14a9 01       		.byte	0x1
 9317 14aa 1402     		.2byte	0x214
 9318 14ac 91000000 		.4byte	0x91
 9319 14b0 02       		.byte	0x2
 9320 14b1 91       		.byte	0x91
 9321 14b2 60       		.sleb128 -32
 9322 14b3 23       		.uleb128 0x23
 9323 14b4 74070000 		.4byte	.LASF201
 9324 14b8 01       		.byte	0x1
 9325 14b9 1402     		.2byte	0x214
 9326 14bb 91000000 		.4byte	0x91
 9327 14bf 02       		.byte	0x2
ARM GAS  C:\Users\X0217454\AppData\Local\Temp\cc7UAvFx.s 			page 192


 9328 14c0 91       		.byte	0x91
 9329 14c1 64       		.sleb128 -28
 9330 14c2 00       		.byte	0
 9331 14c3 1C       		.uleb128 0x1c
 9332 14c4 8A010000 		.4byte	.LBB37
 9333 14c8 B2010000 		.4byte	.LBE37
 9334 14cc EF140000 		.4byte	0x14ef
 9335 14d0 23       		.uleb128 0x23
 9336 14d1 A2020000 		.4byte	.LASF200
 9337 14d5 01       		.byte	0x1
 9338 14d6 1E02     		.2byte	0x21e
 9339 14d8 91000000 		.4byte	0x91
 9340 14dc 02       		.byte	0x2
 9341 14dd 91       		.byte	0x91
 9342 14de 58       		.sleb128 -40
 9343 14df 23       		.uleb128 0x23
 9344 14e0 74070000 		.4byte	.LASF201
 9345 14e4 01       		.byte	0x1
 9346 14e5 1E02     		.2byte	0x21e
 9347 14e7 91000000 		.4byte	0x91
 9348 14eb 02       		.byte	0x2
 9349 14ec 91       		.byte	0x91
 9350 14ed 5C       		.sleb128 -36
 9351 14ee 00       		.byte	0
 9352 14ef 1C       		.uleb128 0x1c
 9353 14f0 CA010000 		.4byte	.LBB38
 9354 14f4 E8010000 		.4byte	.LBE38
 9355 14f8 0C150000 		.4byte	0x150c
 9356 14fc 23       		.uleb128 0x23
 9357 14fd F90C0000 		.4byte	.LASF187
 9358 1501 01       		.byte	0x1
 9359 1502 2202     		.2byte	0x222
 9360 1504 C3000000 		.4byte	0xc3
 9361 1508 02       		.byte	0x2
 9362 1509 91       		.byte	0x91
 9363 150a 54       		.sleb128 -44
 9364 150b 00       		.byte	0
 9365 150c 1C       		.uleb128 0x1c
 9366 150d 3C020000 		.4byte	.LBB39
 9367 1511 58020000 		.4byte	.LBE39
 9368 1515 29150000 		.4byte	0x1529
 9369 1519 23       		.uleb128 0x23
 9370 151a F90C0000 		.4byte	.LASF187
 9371 151e 01       		.byte	0x1
 9372 151f 2D02     		.2byte	0x22d
 9373 1521 C3000000 		.4byte	0xc3
 9374 1525 02       		.byte	0x2
 9375 1526 91       		.byte	0x91
 9376 1527 50       		.sleb128 -48
 9377 1528 00       		.byte	0
 9378 1529 1C       		.uleb128 0x1c
 9379 152a 58020000 		.4byte	.LBB40
 9380 152e EE040000 		.4byte	.LBE40
 9381 1532 6E160000 		.4byte	0x166e
 9382 1536 23       		.uleb128 0x23
 9383 1537 0D020000 		.4byte	.LASF210
 9384 153b 01       		.byte	0x1
ARM GAS  C:\Users\X0217454\AppData\Local\Temp\cc7UAvFx.s 			page 193


 9385 153c 3302     		.2byte	0x233
 9386 153e 30000000 		.4byte	0x30
 9387 1542 02       		.byte	0x2
 9388 1543 91       		.byte	0x91
 9389 1544 73       		.sleb128 -13
 9390 1545 1C       		.uleb128 0x1c
 9391 1546 88020000 		.4byte	.LBB41
 9392 154a B4020000 		.4byte	.LBE41
 9393 154e 71150000 		.4byte	0x1571
 9394 1552 23       		.uleb128 0x23
 9395 1553 A2020000 		.4byte	.LASF200
 9396 1557 01       		.byte	0x1
 9397 1558 4402     		.2byte	0x244
 9398 155a 91000000 		.4byte	0x91
 9399 155e 02       		.byte	0x2
 9400 155f 91       		.byte	0x91
 9401 1560 48       		.sleb128 -56
 9402 1561 23       		.uleb128 0x23
 9403 1562 74070000 		.4byte	.LASF201
 9404 1566 01       		.byte	0x1
 9405 1567 4402     		.2byte	0x244
 9406 1569 91000000 		.4byte	0x91
 9407 156d 02       		.byte	0x2
 9408 156e 91       		.byte	0x91
 9409 156f 4C       		.sleb128 -52
 9410 1570 00       		.byte	0
 9411 1571 1C       		.uleb128 0x1c
 9412 1572 C8020000 		.4byte	.LBB42
 9413 1576 E6020000 		.4byte	.LBE42
 9414 157a 8E150000 		.4byte	0x158e
 9415 157e 23       		.uleb128 0x23
 9416 157f F90C0000 		.4byte	.LASF187
 9417 1583 01       		.byte	0x1
 9418 1584 4902     		.2byte	0x249
 9419 1586 C3000000 		.4byte	0xc3
 9420 158a 02       		.byte	0x2
 9421 158b 91       		.byte	0x91
 9422 158c 44       		.sleb128 -60
 9423 158d 00       		.byte	0
 9424 158e 1C       		.uleb128 0x1c
 9425 158f E6020000 		.4byte	.LBB43
 9426 1593 2C030000 		.4byte	.LBE43
 9427 1597 AB150000 		.4byte	0x15ab
 9428 159b 23       		.uleb128 0x23
 9429 159c F90C0000 		.4byte	.LASF187
 9430 15a0 01       		.byte	0x1
 9431 15a1 4C02     		.2byte	0x24c
 9432 15a3 C3000000 		.4byte	0xc3
 9433 15a7 02       		.byte	0x2
 9434 15a8 91       		.byte	0x91
 9435 15a9 40       		.sleb128 -64
 9436 15aa 00       		.byte	0
 9437 15ab 1C       		.uleb128 0x1c
 9438 15ac 64030000 		.4byte	.LBB44
 9439 15b0 B0030000 		.4byte	.LBE44
 9440 15b4 D9150000 		.4byte	0x15d9
 9441 15b8 23       		.uleb128 0x23
ARM GAS  C:\Users\X0217454\AppData\Local\Temp\cc7UAvFx.s 			page 194


 9442 15b9 A2020000 		.4byte	.LASF200
 9443 15bd 01       		.byte	0x1
 9444 15be 5502     		.2byte	0x255
 9445 15c0 91000000 		.4byte	0x91
 9446 15c4 03       		.byte	0x3
 9447 15c5 91       		.byte	0x91
 9448 15c6 B87F     		.sleb128 -72
 9449 15c8 23       		.uleb128 0x23
 9450 15c9 74070000 		.4byte	.LASF201
 9451 15cd 01       		.byte	0x1
 9452 15ce 5502     		.2byte	0x255
 9453 15d0 91000000 		.4byte	0x91
 9454 15d4 03       		.byte	0x3
 9455 15d5 91       		.byte	0x91
 9456 15d6 BC7F     		.sleb128 -68
 9457 15d8 00       		.byte	0
 9458 15d9 1C       		.uleb128 0x1c
 9459 15da F2030000 		.4byte	.LBB45
 9460 15de 3A040000 		.4byte	.LBE45
 9461 15e2 07160000 		.4byte	0x1607
 9462 15e6 23       		.uleb128 0x23
 9463 15e7 A2020000 		.4byte	.LASF200
 9464 15eb 01       		.byte	0x1
 9465 15ec 6A02     		.2byte	0x26a
 9466 15ee 91000000 		.4byte	0x91
 9467 15f2 03       		.byte	0x3
 9468 15f3 91       		.byte	0x91
 9469 15f4 B07F     		.sleb128 -80
 9470 15f6 23       		.uleb128 0x23
 9471 15f7 74070000 		.4byte	.LASF201
 9472 15fb 01       		.byte	0x1
 9473 15fc 6A02     		.2byte	0x26a
 9474 15fe 91000000 		.4byte	0x91
 9475 1602 03       		.byte	0x3
 9476 1603 91       		.byte	0x91
 9477 1604 B47F     		.sleb128 -76
 9478 1606 00       		.byte	0
 9479 1607 1C       		.uleb128 0x1c
 9480 1608 44040000 		.4byte	.LBB46
 9481 160c 6C040000 		.4byte	.LBE46
 9482 1610 35160000 		.4byte	0x1635
 9483 1614 23       		.uleb128 0x23
 9484 1615 A2020000 		.4byte	.LASF200
 9485 1619 01       		.byte	0x1
 9486 161a 6F02     		.2byte	0x26f
 9487 161c 91000000 		.4byte	0x91
 9488 1620 03       		.byte	0x3
 9489 1621 91       		.byte	0x91
 9490 1622 A87F     		.sleb128 -88
 9491 1624 23       		.uleb128 0x23
 9492 1625 74070000 		.4byte	.LASF201
 9493 1629 01       		.byte	0x1
 9494 162a 6F02     		.2byte	0x26f
 9495 162c 91000000 		.4byte	0x91
 9496 1630 03       		.byte	0x3
 9497 1631 91       		.byte	0x91
 9498 1632 AC7F     		.sleb128 -84
ARM GAS  C:\Users\X0217454\AppData\Local\Temp\cc7UAvFx.s 			page 195


 9499 1634 00       		.byte	0
 9500 1635 1C       		.uleb128 0x1c
 9501 1636 A4040000 		.4byte	.LBB47
 9502 163a D2040000 		.4byte	.LBE47
 9503 163e 53160000 		.4byte	0x1653
 9504 1642 23       		.uleb128 0x23
 9505 1643 F90C0000 		.4byte	.LASF187
 9506 1647 01       		.byte	0x1
 9507 1648 7302     		.2byte	0x273
 9508 164a C3000000 		.4byte	0xc3
 9509 164e 03       		.byte	0x3
 9510 164f 91       		.byte	0x91
 9511 1650 A47F     		.sleb128 -92
 9512 1652 00       		.byte	0
 9513 1653 1E       		.uleb128 0x1e
 9514 1654 D2040000 		.4byte	.LBB48
 9515 1658 EE040000 		.4byte	.LBE48
 9516 165c 23       		.uleb128 0x23
 9517 165d F90C0000 		.4byte	.LASF187
 9518 1661 01       		.byte	0x1
 9519 1662 7402     		.2byte	0x274
 9520 1664 C3000000 		.4byte	0xc3
 9521 1668 03       		.byte	0x3
 9522 1669 91       		.byte	0x91
 9523 166a A07F     		.sleb128 -96
 9524 166c 00       		.byte	0
 9525 166d 00       		.byte	0
 9526 166e 1C       		.uleb128 0x1c
 9527 166f EE040000 		.4byte	.LBB49
 9528 1673 2A050000 		.4byte	.LBE49
 9529 1677 9C160000 		.4byte	0x169c
 9530 167b 23       		.uleb128 0x23
 9531 167c A2020000 		.4byte	.LASF200
 9532 1680 01       		.byte	0x1
 9533 1681 8002     		.2byte	0x280
 9534 1683 91000000 		.4byte	0x91
 9535 1687 03       		.byte	0x3
 9536 1688 91       		.byte	0x91
 9537 1689 987F     		.sleb128 -104
 9538 168b 23       		.uleb128 0x23
 9539 168c 74070000 		.4byte	.LASF201
 9540 1690 01       		.byte	0x1
 9541 1691 8002     		.2byte	0x280
 9542 1693 91000000 		.4byte	0x91
 9543 1697 03       		.byte	0x3
 9544 1698 91       		.byte	0x91
 9545 1699 9C7F     		.sleb128 -100
 9546 169b 00       		.byte	0
 9547 169c 26       		.uleb128 0x26
 9548 169d 00000000 		.4byte	.Ldebug_ranges0+0
 9549 16a1 3B170000 		.4byte	0x173b
 9550 16a5 23       		.uleb128 0x23
 9551 16a6 E8010000 		.4byte	.LASF211
 9552 16aa 01       		.byte	0x1
 9553 16ab 8702     		.2byte	0x287
 9554 16ad 42000000 		.4byte	0x42
 9555 16b1 02       		.byte	0x2
ARM GAS  C:\Users\X0217454\AppData\Local\Temp\cc7UAvFx.s 			page 196


 9556 16b2 91       		.byte	0x91
 9557 16b3 70       		.sleb128 -16
 9558 16b4 1C       		.uleb128 0x1c
 9559 16b5 FA050000 		.4byte	.LBB51
 9560 16b9 2E060000 		.4byte	.LBE51
 9561 16bd E2160000 		.4byte	0x16e2
 9562 16c1 23       		.uleb128 0x23
 9563 16c2 A2020000 		.4byte	.LASF200
 9564 16c6 01       		.byte	0x1
 9565 16c7 A402     		.2byte	0x2a4
 9566 16c9 91000000 		.4byte	0x91
 9567 16cd 03       		.byte	0x3
 9568 16ce 91       		.byte	0x91
 9569 16cf 907F     		.sleb128 -112
 9570 16d1 23       		.uleb128 0x23
 9571 16d2 74070000 		.4byte	.LASF201
 9572 16d6 01       		.byte	0x1
 9573 16d7 A402     		.2byte	0x2a4
 9574 16d9 91000000 		.4byte	0x91
 9575 16dd 03       		.byte	0x3
 9576 16de 91       		.byte	0x91
 9577 16df 947F     		.sleb128 -108
 9578 16e1 00       		.byte	0
 9579 16e2 1C       		.uleb128 0x1c
 9580 16e3 38060000 		.4byte	.LBB52
 9581 16e7 64060000 		.4byte	.LBE52
 9582 16eb 10170000 		.4byte	0x1710
 9583 16ef 23       		.uleb128 0x23
 9584 16f0 A2020000 		.4byte	.LASF200
 9585 16f4 01       		.byte	0x1
 9586 16f5 AC02     		.2byte	0x2ac
 9587 16f7 91000000 		.4byte	0x91
 9588 16fb 03       		.byte	0x3
 9589 16fc 91       		.byte	0x91
 9590 16fd 887F     		.sleb128 -120
 9591 16ff 23       		.uleb128 0x23
 9592 1700 74070000 		.4byte	.LASF201
 9593 1704 01       		.byte	0x1
 9594 1705 AC02     		.2byte	0x2ac
 9595 1707 91000000 		.4byte	0x91
 9596 170b 03       		.byte	0x3
 9597 170c 91       		.byte	0x91
 9598 170d 8C7F     		.sleb128 -116
 9599 170f 00       		.byte	0
 9600 1710 1E       		.uleb128 0x1e
 9601 1711 CE060000 		.4byte	.LBB53
 9602 1715 F6060000 		.4byte	.LBE53
 9603 1719 23       		.uleb128 0x23
 9604 171a A2020000 		.4byte	.LASF200
 9605 171e 01       		.byte	0x1
 9606 171f BA02     		.2byte	0x2ba
 9607 1721 91000000 		.4byte	0x91
 9608 1725 03       		.byte	0x3
 9609 1726 91       		.byte	0x91
 9610 1727 807F     		.sleb128 -128
 9611 1729 23       		.uleb128 0x23
 9612 172a 74070000 		.4byte	.LASF201
ARM GAS  C:\Users\X0217454\AppData\Local\Temp\cc7UAvFx.s 			page 197


 9613 172e 01       		.byte	0x1
 9614 172f BA02     		.2byte	0x2ba
 9615 1731 91000000 		.4byte	0x91
 9616 1735 03       		.byte	0x3
 9617 1736 91       		.byte	0x91
 9618 1737 847F     		.sleb128 -124
 9619 1739 00       		.byte	0
 9620 173a 00       		.byte	0
 9621 173b 1E       		.uleb128 0x1e
 9622 173c 24070000 		.4byte	.LBB55
 9623 1740 50070000 		.4byte	.LBE55
 9624 1744 23       		.uleb128 0x23
 9625 1745 A2020000 		.4byte	.LASF200
 9626 1749 01       		.byte	0x1
 9627 174a CC02     		.2byte	0x2cc
 9628 174c 91000000 		.4byte	0x91
 9629 1750 03       		.byte	0x3
 9630 1751 91       		.byte	0x91
 9631 1752 F87E     		.sleb128 -136
 9632 1754 23       		.uleb128 0x23
 9633 1755 74070000 		.4byte	.LASF201
 9634 1759 01       		.byte	0x1
 9635 175a CC02     		.2byte	0x2cc
 9636 175c 91000000 		.4byte	0x91
 9637 1760 03       		.byte	0x3
 9638 1761 91       		.byte	0x91
 9639 1762 FC7E     		.sleb128 -132
 9640 1764 00       		.byte	0
 9641 1765 00       		.byte	0
 9642 1766 07       		.uleb128 0x7
 9643 1767 30000000 		.4byte	0x30
 9644 176b 76170000 		.4byte	0x1776
 9645 176f 08       		.uleb128 0x8
 9646 1770 DC000000 		.4byte	0xdc
 9647 1774 07       		.byte	0x7
 9648 1775 00       		.byte	0
 9649 1776 07       		.uleb128 0x7
 9650 1777 6D000000 		.4byte	0x6d
 9651 177b 86170000 		.4byte	0x1786
 9652 177f 08       		.uleb128 0x8
 9653 1780 DC000000 		.4byte	0xdc
 9654 1784 01       		.byte	0x1
 9655 1785 00       		.byte	0
 9656 1786 27       		.uleb128 0x27
 9657 1787 01       		.byte	0x1
 9658 1788 B40B0000 		.4byte	.LASF212
 9659 178c 01       		.byte	0x1
 9660 178d DA02     		.2byte	0x2da
 9661 178f 01       		.byte	0x1
 9662 1790 00000000 		.4byte	.LFB9
 9663 1794 E8070000 		.4byte	.LFE9
 9664 1798 FE010000 		.4byte	.LLST9
 9665 179c 01       		.byte	0x1
 9666 179d 74190000 		.4byte	0x1974
 9667 17a1 23       		.uleb128 0x23
 9668 17a2 BA070000 		.4byte	.LASF213
 9669 17a6 01       		.byte	0x1
ARM GAS  C:\Users\X0217454\AppData\Local\Temp\cc7UAvFx.s 			page 198


 9670 17a7 DC02     		.2byte	0x2dc
 9671 17a9 74190000 		.4byte	0x1974
 9672 17ad 02       		.byte	0x2
 9673 17ae 91       		.byte	0x91
 9674 17af 74       		.sleb128 -12
 9675 17b0 23       		.uleb128 0x23
 9676 17b1 79050000 		.4byte	.LASF214
 9677 17b5 01       		.byte	0x1
 9678 17b6 DD02     		.2byte	0x2dd
 9679 17b8 7E060000 		.4byte	0x67e
 9680 17bc 03       		.byte	0x3
 9681 17bd 91       		.byte	0x91
 9682 17be EC7E     		.sleb128 -148
 9683 17c0 23       		.uleb128 0x23
 9684 17c1 F8030000 		.4byte	.LASF215
 9685 17c5 01       		.byte	0x1
 9686 17c6 DE02     		.2byte	0x2de
 9687 17c8 46030000 		.4byte	0x346
 9688 17cc 03       		.byte	0x3
 9689 17cd 91       		.byte	0x91
 9690 17ce B47E     		.sleb128 -204
 9691 17d0 23       		.uleb128 0x23
 9692 17d1 45070000 		.4byte	.LASF216
 9693 17d5 01       		.byte	0x1
 9694 17d6 DF02     		.2byte	0x2df
 9695 17d8 89010000 		.4byte	0x189
 9696 17dc 03       		.byte	0x3
 9697 17dd 91       		.byte	0x91
 9698 17de AC7E     		.sleb128 -212
 9699 17e0 1C       		.uleb128 0x1c
 9700 17e1 BC000000 		.4byte	.LBB56
 9701 17e5 36010000 		.4byte	.LBE56
 9702 17e9 FD170000 		.4byte	0x17fd
 9703 17ed 23       		.uleb128 0x23
 9704 17ee 920C0000 		.4byte	.LASF217
 9705 17f2 01       		.byte	0x1
 9706 17f3 E702     		.2byte	0x2e7
 9707 17f5 7A190000 		.4byte	0x197a
 9708 17f9 02       		.byte	0x2
 9709 17fa 91       		.byte	0x91
 9710 17fb 70       		.sleb128 -16
 9711 17fc 00       		.byte	0
 9712 17fd 1C       		.uleb128 0x1c
 9713 17fe 36010000 		.4byte	.LBB57
 9714 1802 C2010000 		.4byte	.LBE57
 9715 1806 1A180000 		.4byte	0x181a
 9716 180a 23       		.uleb128 0x23
 9717 180b 920C0000 		.4byte	.LASF217
 9718 180f 01       		.byte	0x1
 9719 1810 F202     		.2byte	0x2f2
 9720 1812 7A190000 		.4byte	0x197a
 9721 1816 02       		.byte	0x2
 9722 1817 91       		.byte	0x91
 9723 1818 6C       		.sleb128 -20
 9724 1819 00       		.byte	0
 9725 181a 1C       		.uleb128 0x1c
 9726 181b C2010000 		.4byte	.LBB58
ARM GAS  C:\Users\X0217454\AppData\Local\Temp\cc7UAvFx.s 			page 199


 9727 181f FA010000 		.4byte	.LBE58
 9728 1823 37180000 		.4byte	0x1837
 9729 1827 23       		.uleb128 0x23
 9730 1828 920C0000 		.4byte	.LASF217
 9731 182c 01       		.byte	0x1
 9732 182d FE02     		.2byte	0x2fe
 9733 182f 80190000 		.4byte	0x1980
 9734 1833 02       		.byte	0x2
 9735 1834 91       		.byte	0x91
 9736 1835 68       		.sleb128 -24
 9737 1836 00       		.byte	0
 9738 1837 1C       		.uleb128 0x1c
 9739 1838 FA010000 		.4byte	.LBB59
 9740 183c C4020000 		.4byte	.LBE59
 9741 1840 54180000 		.4byte	0x1854
 9742 1844 23       		.uleb128 0x23
 9743 1845 590A0000 		.4byte	.LASF218
 9744 1849 01       		.byte	0x1
 9745 184a 0903     		.2byte	0x309
 9746 184c 86190000 		.4byte	0x1986
 9747 1850 02       		.byte	0x2
 9748 1851 91       		.byte	0x91
 9749 1852 64       		.sleb128 -28
 9750 1853 00       		.byte	0
 9751 1854 1C       		.uleb128 0x1c
 9752 1855 C4020000 		.4byte	.LBB60
 9753 1859 D8030000 		.4byte	.LBE60
 9754 185d 71180000 		.4byte	0x1871
 9755 1861 23       		.uleb128 0x23
 9756 1862 590A0000 		.4byte	.LASF218
 9757 1866 01       		.byte	0x1
 9758 1867 1803     		.2byte	0x318
 9759 1869 86190000 		.4byte	0x1986
 9760 186d 02       		.byte	0x2
 9761 186e 91       		.byte	0x91
 9762 186f 60       		.sleb128 -32
 9763 1870 00       		.byte	0
 9764 1871 1C       		.uleb128 0x1c
 9765 1872 D8030000 		.4byte	.LBB61
 9766 1876 2A040000 		.4byte	.LBE61
 9767 187a 8E180000 		.4byte	0x188e
 9768 187e 23       		.uleb128 0x23
 9769 187f 31080000 		.4byte	.LASF219
 9770 1883 01       		.byte	0x1
 9771 1884 2703     		.2byte	0x327
 9772 1886 8C190000 		.4byte	0x198c
 9773 188a 02       		.byte	0x2
 9774 188b 91       		.byte	0x91
 9775 188c 5C       		.sleb128 -36
 9776 188d 00       		.byte	0
 9777 188e 1C       		.uleb128 0x1c
 9778 188f 2C040000 		.4byte	.LBB62
 9779 1893 6C040000 		.4byte	.LBE62
 9780 1897 AB180000 		.4byte	0x18ab
 9781 189b 23       		.uleb128 0x23
 9782 189c 37080000 		.4byte	.LASF220
 9783 18a0 01       		.byte	0x1
ARM GAS  C:\Users\X0217454\AppData\Local\Temp\cc7UAvFx.s 			page 200


 9784 18a1 3103     		.2byte	0x331
 9785 18a3 92190000 		.4byte	0x1992
 9786 18a7 02       		.byte	0x2
 9787 18a8 91       		.byte	0x91
 9788 18a9 58       		.sleb128 -40
 9789 18aa 00       		.byte	0
 9790 18ab 1C       		.uleb128 0x1c
 9791 18ac 6E040000 		.4byte	.LBB63
 9792 18b0 D0040000 		.4byte	.LBE63
 9793 18b4 C8180000 		.4byte	0x18c8
 9794 18b8 23       		.uleb128 0x23
 9795 18b9 31080000 		.4byte	.LASF219
 9796 18bd 01       		.byte	0x1
 9797 18be 3A03     		.2byte	0x33a
 9798 18c0 98190000 		.4byte	0x1998
 9799 18c4 02       		.byte	0x2
 9800 18c5 91       		.byte	0x91
 9801 18c6 54       		.sleb128 -44
 9802 18c7 00       		.byte	0
 9803 18c8 1C       		.uleb128 0x1c
 9804 18c9 D2040000 		.4byte	.LBB64
 9805 18cd 32050000 		.4byte	.LBE64
 9806 18d1 E5180000 		.4byte	0x18e5
 9807 18d5 23       		.uleb128 0x23
 9808 18d6 31080000 		.4byte	.LASF219
 9809 18da 01       		.byte	0x1
 9810 18db 4603     		.2byte	0x346
 9811 18dd 9E190000 		.4byte	0x199e
 9812 18e1 02       		.byte	0x2
 9813 18e2 91       		.byte	0x91
 9814 18e3 50       		.sleb128 -48
 9815 18e4 00       		.byte	0
 9816 18e5 1C       		.uleb128 0x1c
 9817 18e6 34050000 		.4byte	.LBB65
 9818 18ea 6C050000 		.4byte	.LBE65
 9819 18ee 02190000 		.4byte	0x1902
 9820 18f2 23       		.uleb128 0x23
 9821 18f3 A3040000 		.4byte	.LASF221
 9822 18f7 01       		.byte	0x1
 9823 18f8 5203     		.2byte	0x352
 9824 18fa A4190000 		.4byte	0x19a4
 9825 18fe 02       		.byte	0x2
 9826 18ff 91       		.byte	0x91
 9827 1900 4C       		.sleb128 -52
 9828 1901 00       		.byte	0
 9829 1902 1C       		.uleb128 0x1c
 9830 1903 6E050000 		.4byte	.LBB66
 9831 1907 30060000 		.4byte	.LBE66
 9832 190b 1F190000 		.4byte	0x191f
 9833 190f 23       		.uleb128 0x23
 9834 1910 920C0000 		.4byte	.LASF217
 9835 1914 01       		.byte	0x1
 9836 1915 5B03     		.2byte	0x35b
 9837 1917 AA190000 		.4byte	0x19aa
 9838 191b 02       		.byte	0x2
 9839 191c 91       		.byte	0x91
 9840 191d 48       		.sleb128 -56
ARM GAS  C:\Users\X0217454\AppData\Local\Temp\cc7UAvFx.s 			page 201


 9841 191e 00       		.byte	0
 9842 191f 1C       		.uleb128 0x1c
 9843 1920 32060000 		.4byte	.LBB67
 9844 1924 68060000 		.4byte	.LBE67
 9845 1928 3C190000 		.4byte	0x193c
 9846 192c 23       		.uleb128 0x23
 9847 192d 920C0000 		.4byte	.LASF217
 9848 1931 01       		.byte	0x1
 9849 1932 7103     		.2byte	0x371
 9850 1934 B0190000 		.4byte	0x19b0
 9851 1938 02       		.byte	0x2
 9852 1939 91       		.byte	0x91
 9853 193a 44       		.sleb128 -60
 9854 193b 00       		.byte	0
 9855 193c 1C       		.uleb128 0x1c
 9856 193d 6A060000 		.4byte	.LBB68
 9857 1941 28070000 		.4byte	.LBE68
 9858 1945 59190000 		.4byte	0x1959
 9859 1949 23       		.uleb128 0x23
 9860 194a 920C0000 		.4byte	.LASF217
 9861 194e 01       		.byte	0x1
 9862 194f 7C03     		.2byte	0x37c
 9863 1951 7A190000 		.4byte	0x197a
 9864 1955 02       		.byte	0x2
 9865 1956 91       		.byte	0x91
 9866 1957 40       		.sleb128 -64
 9867 1958 00       		.byte	0
 9868 1959 1E       		.uleb128 0x1e
 9869 195a 2A070000 		.4byte	.LBB69
 9870 195e B2070000 		.4byte	.LBE69
 9871 1962 23       		.uleb128 0x23
 9872 1963 920C0000 		.4byte	.LASF217
 9873 1967 01       		.byte	0x1
 9874 1968 8B03     		.2byte	0x38b
 9875 196a 7A190000 		.4byte	0x197a
 9876 196e 03       		.byte	0x3
 9877 196f 91       		.byte	0x91
 9878 1970 BC7F     		.sleb128 -68
 9879 1972 00       		.byte	0
 9880 1973 00       		.byte	0
 9881 1974 09       		.uleb128 0x9
 9882 1975 04       		.byte	0x4
 9883 1976 8D070000 		.4byte	0x78d
 9884 197a 09       		.uleb128 0x9
 9885 197b 04       		.byte	0x4
 9886 197c C8050000 		.4byte	0x5c8
 9887 1980 09       		.uleb128 0x9
 9888 1981 04       		.byte	0x4
 9889 1982 AB040000 		.4byte	0x4ab
 9890 1986 09       		.uleb128 0x9
 9891 1987 04       		.byte	0x4
 9892 1988 49050000 		.4byte	0x549
 9893 198c 09       		.uleb128 0x9
 9894 198d 04       		.byte	0x4
 9895 198e CB010000 		.4byte	0x1cb
 9896 1992 09       		.uleb128 0x9
 9897 1993 04       		.byte	0x4
ARM GAS  C:\Users\X0217454\AppData\Local\Temp\cc7UAvFx.s 			page 202


 9898 1994 1C020000 		.4byte	0x21c
 9899 1998 09       		.uleb128 0x9
 9900 1999 04       		.byte	0x4
 9901 199a 7E020000 		.4byte	0x27e
 9902 199e 09       		.uleb128 0x9
 9903 199f 04       		.byte	0x4
 9904 19a0 C1020000 		.4byte	0x2c1
 9905 19a4 09       		.uleb128 0x9
 9906 19a5 04       		.byte	0x4
 9907 19a6 55010000 		.4byte	0x155
 9908 19aa 09       		.uleb128 0x9
 9909 19ab 04       		.byte	0x4
 9910 19ac 43040000 		.4byte	0x443
 9911 19b0 09       		.uleb128 0x9
 9912 19b1 04       		.byte	0x4
 9913 19b2 77040000 		.4byte	0x477
 9914 19b6 24       		.uleb128 0x24
 9915 19b7 01       		.byte	0x1
 9916 19b8 580D0000 		.4byte	.LASF222
 9917 19bc 01       		.byte	0x1
 9918 19bd A703     		.2byte	0x3a7
 9919 19bf 01       		.byte	0x1
 9920 19c0 C3000000 		.4byte	0xc3
 9921 19c4 00000000 		.4byte	.LFB10
 9922 19c8 18010000 		.4byte	.LFE10
 9923 19cc 38020000 		.4byte	.LLST10
 9924 19d0 01       		.byte	0x1
 9925 19d1 291A0000 		.4byte	0x1a29
 9926 19d5 1C       		.uleb128 0x1c
 9927 19d6 3A000000 		.4byte	.LBB70
 9928 19da 4A000000 		.4byte	.LBE70
 9929 19de F2190000 		.4byte	0x19f2
 9930 19e2 23       		.uleb128 0x23
 9931 19e3 F90C0000 		.4byte	.LASF187
 9932 19e7 01       		.byte	0x1
 9933 19e8 B803     		.2byte	0x3b8
 9934 19ea C3000000 		.4byte	0xc3
 9935 19ee 02       		.byte	0x2
 9936 19ef 91       		.byte	0x91
 9937 19f0 74       		.sleb128 -12
 9938 19f1 00       		.byte	0
 9939 19f2 1C       		.uleb128 0x1c
 9940 19f3 A0000000 		.4byte	.LBB71
 9941 19f7 BE000000 		.4byte	.LBE71
 9942 19fb 0F1A0000 		.4byte	0x1a0f
 9943 19ff 23       		.uleb128 0x23
 9944 1a00 F90C0000 		.4byte	.LASF187
 9945 1a04 01       		.byte	0x1
 9946 1a05 D703     		.2byte	0x3d7
 9947 1a07 C3000000 		.4byte	0xc3
 9948 1a0b 02       		.byte	0x2
 9949 1a0c 91       		.byte	0x91
 9950 1a0d 70       		.sleb128 -16
 9951 1a0e 00       		.byte	0
 9952 1a0f 1E       		.uleb128 0x1e
 9953 1a10 CA000000 		.4byte	.LBB72
 9954 1a14 E4000000 		.4byte	.LBE72
ARM GAS  C:\Users\X0217454\AppData\Local\Temp\cc7UAvFx.s 			page 203


 9955 1a18 23       		.uleb128 0x23
 9956 1a19 F90C0000 		.4byte	.LASF187
 9957 1a1d 01       		.byte	0x1
 9958 1a1e E003     		.2byte	0x3e0
 9959 1a20 C3000000 		.4byte	0xc3
 9960 1a24 02       		.byte	0x2
 9961 1a25 91       		.byte	0x91
 9962 1a26 6C       		.sleb128 -20
 9963 1a27 00       		.byte	0
 9964 1a28 00       		.byte	0
 9965 1a29 24       		.uleb128 0x24
 9966 1a2a 01       		.byte	0x1
 9967 1a2b BF000000 		.4byte	.LASF223
 9968 1a2f 01       		.byte	0x1
 9969 1a30 EC03     		.2byte	0x3ec
 9970 1a32 01       		.byte	0x1
 9971 1a33 C3000000 		.4byte	0xc3
 9972 1a37 00000000 		.4byte	.LFB11
 9973 1a3b F8000000 		.4byte	.LFE11
 9974 1a3f 70020000 		.4byte	.LLST11
 9975 1a43 01       		.byte	0x1
 9976 1a44 C81A0000 		.4byte	0x1ac8
 9977 1a48 22       		.uleb128 0x22
 9978 1a49 BD040000 		.4byte	.LASF191
 9979 1a4d 01       		.byte	0x1
 9980 1a4e EC03     		.2byte	0x3ec
 9981 1a50 E3000000 		.4byte	0xe3
 9982 1a54 02       		.byte	0x2
 9983 1a55 91       		.byte	0x91
 9984 1a56 64       		.sleb128 -28
 9985 1a57 1C       		.uleb128 0x1c
 9986 1a58 08000000 		.4byte	.LBB73
 9987 1a5c 26000000 		.4byte	.LBE73
 9988 1a60 741A0000 		.4byte	0x1a74
 9989 1a64 23       		.uleb128 0x23
 9990 1a65 F90C0000 		.4byte	.LASF187
 9991 1a69 01       		.byte	0x1
 9992 1a6a 0104     		.2byte	0x401
 9993 1a6c C3000000 		.4byte	0xc3
 9994 1a70 02       		.byte	0x2
 9995 1a71 91       		.byte	0x91
 9996 1a72 74       		.sleb128 -12
 9997 1a73 00       		.byte	0
 9998 1a74 1C       		.uleb128 0x1c
 9999 1a75 58000000 		.4byte	.LBB74
 10000 1a79 72000000 		.4byte	.LBE74
 10001 1a7d 911A0000 		.4byte	0x1a91
 10002 1a81 23       		.uleb128 0x23
 10003 1a82 F90C0000 		.4byte	.LASF187
 10004 1a86 01       		.byte	0x1
 10005 1a87 0C04     		.2byte	0x40c
 10006 1a89 C3000000 		.4byte	0xc3
 10007 1a8d 02       		.byte	0x2
 10008 1a8e 91       		.byte	0x91
 10009 1a8f 70       		.sleb128 -16
 10010 1a90 00       		.byte	0
 10011 1a91 1C       		.uleb128 0x1c
ARM GAS  C:\Users\X0217454\AppData\Local\Temp\cc7UAvFx.s 			page 204


 10012 1a92 76000000 		.4byte	.LBB75
 10013 1a96 86000000 		.4byte	.LBE75
 10014 1a9a AE1A0000 		.4byte	0x1aae
 10015 1a9e 23       		.uleb128 0x23
 10016 1a9f F90C0000 		.4byte	.LASF187
 10017 1aa3 01       		.byte	0x1
 10018 1aa4 1004     		.2byte	0x410
 10019 1aa6 C3000000 		.4byte	0xc3
 10020 1aaa 02       		.byte	0x2
 10021 1aab 91       		.byte	0x91
 10022 1aac 6C       		.sleb128 -20
 10023 1aad 00       		.byte	0
 10024 1aae 1E       		.uleb128 0x1e
 10025 1aaf CE000000 		.4byte	.LBB76
 10026 1ab3 E8000000 		.4byte	.LBE76
 10027 1ab7 23       		.uleb128 0x23
 10028 1ab8 F90C0000 		.4byte	.LASF187
 10029 1abc 01       		.byte	0x1
 10030 1abd 2E04     		.2byte	0x42e
 10031 1abf C3000000 		.4byte	0xc3
 10032 1ac3 02       		.byte	0x2
 10033 1ac4 91       		.byte	0x91
 10034 1ac5 68       		.sleb128 -24
 10035 1ac6 00       		.byte	0
 10036 1ac7 00       		.byte	0
 10037 1ac8 28       		.uleb128 0x28
 10038 1ac9 01       		.byte	0x1
 10039 1aca 56030000 		.4byte	.LASF224
 10040 1ace 01       		.byte	0x1
 10041 1acf 3604     		.2byte	0x436
 10042 1ad1 01       		.byte	0x1
 10043 1ad2 00000000 		.4byte	.LFB12
 10044 1ad6 34010000 		.4byte	.LFE12
 10045 1ada A8020000 		.4byte	.LLST12
 10046 1ade 01       		.byte	0x1
 10047 1adf F31A0000 		.4byte	0x1af3
 10048 1ae3 22       		.uleb128 0x22
 10049 1ae4 950B0000 		.4byte	.LASF81
 10050 1ae8 01       		.byte	0x1
 10051 1ae9 3704     		.2byte	0x437
 10052 1aeb AD000000 		.4byte	0xad
 10053 1aef 02       		.byte	0x2
 10054 1af0 91       		.byte	0x91
 10055 1af1 76       		.sleb128 -10
 10056 1af2 00       		.byte	0
 10057 1af3 28       		.uleb128 0x28
 10058 1af4 01       		.byte	0x1
 10059 1af5 3D0C0000 		.4byte	.LASF225
 10060 1af9 01       		.byte	0x1
 10061 1afa 8104     		.2byte	0x481
 10062 1afc 01       		.byte	0x1
 10063 1afd 00000000 		.4byte	.LFB13
 10064 1b01 52000000 		.4byte	.LFE13
 10065 1b05 E0020000 		.4byte	.LLST13
 10066 1b09 01       		.byte	0x1
 10067 1b0a 2D1B0000 		.4byte	0x1b2d
 10068 1b0e 22       		.uleb128 0x22
ARM GAS  C:\Users\X0217454\AppData\Local\Temp\cc7UAvFx.s 			page 205


 10069 1b0f 980C0000 		.4byte	.LASF226
 10070 1b13 01       		.byte	0x1
 10071 1b14 8104     		.2byte	0x481
 10072 1b16 A8090000 		.4byte	0x9a8
 10073 1b1a 02       		.byte	0x2
 10074 1b1b 91       		.byte	0x91
 10075 1b1c 6C       		.sleb128 -20
 10076 1b1d 23       		.uleb128 0x23
 10077 1b1e 17000000 		.4byte	.LASF227
 10078 1b22 01       		.byte	0x1
 10079 1b23 8304     		.2byte	0x483
 10080 1b25 30000000 		.4byte	0x30
 10081 1b29 02       		.byte	0x2
 10082 1b2a 91       		.byte	0x91
 10083 1b2b 77       		.sleb128 -9
 10084 1b2c 00       		.byte	0
 10085 1b2d 24       		.uleb128 0x24
 10086 1b2e 01       		.byte	0x1
 10087 1b2f E10B0000 		.4byte	.LASF228
 10088 1b33 01       		.byte	0x1
 10089 1b34 8E04     		.2byte	0x48e
 10090 1b36 01       		.byte	0x1
 10091 1b37 C3000000 		.4byte	0xc3
 10092 1b3b 00000000 		.4byte	.LFB14
 10093 1b3f 0C020000 		.4byte	.LFE14
 10094 1b43 18030000 		.4byte	.LLST14
 10095 1b47 01       		.byte	0x1
 10096 1b48 801C0000 		.4byte	0x1c80
 10097 1b4c 22       		.uleb128 0x22
 10098 1b4d 980C0000 		.4byte	.LASF226
 10099 1b51 01       		.byte	0x1
 10100 1b52 8E04     		.2byte	0x48e
 10101 1b54 A8090000 		.4byte	0x9a8
 10102 1b58 03       		.byte	0x3
 10103 1b59 91       		.byte	0x91
 10104 1b5a BC7F     		.sleb128 -68
 10105 1b5c 22       		.uleb128 0x22
 10106 1b5d DC020000 		.4byte	.LASF229
 10107 1b61 01       		.byte	0x1
 10108 1b62 8E04     		.2byte	0x48e
 10109 1b64 A8090000 		.4byte	0x9a8
 10110 1b68 03       		.byte	0x3
 10111 1b69 91       		.byte	0x91
 10112 1b6a B87F     		.sleb128 -72
 10113 1b6c 23       		.uleb128 0x23
 10114 1b6d 2B070000 		.4byte	.LASF230
 10115 1b71 01       		.byte	0x1
 10116 1b72 9004     		.2byte	0x490
 10117 1b74 6D000000 		.4byte	0x6d
 10118 1b78 02       		.byte	0x2
 10119 1b79 91       		.byte	0x91
 10120 1b7a 74       		.sleb128 -12
 10121 1b7b 1C       		.uleb128 0x1c
 10122 1b7c 0E000000 		.4byte	.LBB77
 10123 1b80 36000000 		.4byte	.LBE77
 10124 1b84 A71B0000 		.4byte	0x1ba7
 10125 1b88 23       		.uleb128 0x23
ARM GAS  C:\Users\X0217454\AppData\Local\Temp\cc7UAvFx.s 			page 206


 10126 1b89 A2020000 		.4byte	.LASF200
 10127 1b8d 01       		.byte	0x1
 10128 1b8e 9804     		.2byte	0x498
 10129 1b90 91000000 		.4byte	0x91
 10130 1b94 02       		.byte	0x2
 10131 1b95 91       		.byte	0x91
 10132 1b96 6C       		.sleb128 -20
 10133 1b97 23       		.uleb128 0x23
 10134 1b98 74070000 		.4byte	.LASF201
 10135 1b9c 01       		.byte	0x1
 10136 1b9d 9804     		.2byte	0x498
 10137 1b9f 91000000 		.4byte	0x91
 10138 1ba3 02       		.byte	0x2
 10139 1ba4 91       		.byte	0x91
 10140 1ba5 70       		.sleb128 -16
 10141 1ba6 00       		.byte	0
 10142 1ba7 1C       		.uleb128 0x1c
 10143 1ba8 48000000 		.4byte	.LBB78
 10144 1bac 72000000 		.4byte	.LBE78
 10145 1bb0 D31B0000 		.4byte	0x1bd3
 10146 1bb4 23       		.uleb128 0x23
 10147 1bb5 A2020000 		.4byte	.LASF200
 10148 1bb9 01       		.byte	0x1
 10149 1bba A404     		.2byte	0x4a4
 10150 1bbc 91000000 		.4byte	0x91
 10151 1bc0 02       		.byte	0x2
 10152 1bc1 91       		.byte	0x91
 10153 1bc2 64       		.sleb128 -28
 10154 1bc3 23       		.uleb128 0x23
 10155 1bc4 74070000 		.4byte	.LASF201
 10156 1bc8 01       		.byte	0x1
 10157 1bc9 A404     		.2byte	0x4a4
 10158 1bcb 91000000 		.4byte	0x91
 10159 1bcf 02       		.byte	0x2
 10160 1bd0 91       		.byte	0x91
 10161 1bd1 68       		.sleb128 -24
 10162 1bd2 00       		.byte	0
 10163 1bd3 1C       		.uleb128 0x1c
 10164 1bd4 DA000000 		.4byte	.LBB79
 10165 1bd8 0A010000 		.4byte	.LBE79
 10166 1bdc FF1B0000 		.4byte	0x1bff
 10167 1be0 23       		.uleb128 0x23
 10168 1be1 A2020000 		.4byte	.LASF200
 10169 1be5 01       		.byte	0x1
 10170 1be6 B404     		.2byte	0x4b4
 10171 1be8 91000000 		.4byte	0x91
 10172 1bec 02       		.byte	0x2
 10173 1bed 91       		.byte	0x91
 10174 1bee 5C       		.sleb128 -36
 10175 1bef 23       		.uleb128 0x23
 10176 1bf0 74070000 		.4byte	.LASF201
 10177 1bf4 01       		.byte	0x1
 10178 1bf5 B404     		.2byte	0x4b4
 10179 1bf7 91000000 		.4byte	0x91
 10180 1bfb 02       		.byte	0x2
 10181 1bfc 91       		.byte	0x91
 10182 1bfd 60       		.sleb128 -32
ARM GAS  C:\Users\X0217454\AppData\Local\Temp\cc7UAvFx.s 			page 207


 10183 1bfe 00       		.byte	0
 10184 1bff 1C       		.uleb128 0x1c
 10185 1c00 0A010000 		.4byte	.LBB80
 10186 1c04 32010000 		.4byte	.LBE80
 10187 1c08 2B1C0000 		.4byte	0x1c2b
 10188 1c0c 23       		.uleb128 0x23
 10189 1c0d A2020000 		.4byte	.LASF200
 10190 1c11 01       		.byte	0x1
 10191 1c12 B804     		.2byte	0x4b8
 10192 1c14 91000000 		.4byte	0x91
 10193 1c18 02       		.byte	0x2
 10194 1c19 91       		.byte	0x91
 10195 1c1a 54       		.sleb128 -44
 10196 1c1b 23       		.uleb128 0x23
 10197 1c1c 74070000 		.4byte	.LASF201
 10198 1c20 01       		.byte	0x1
 10199 1c21 B804     		.2byte	0x4b8
 10200 1c23 91000000 		.4byte	0x91
 10201 1c27 02       		.byte	0x2
 10202 1c28 91       		.byte	0x91
 10203 1c29 58       		.sleb128 -40
 10204 1c2a 00       		.byte	0
 10205 1c2b 1C       		.uleb128 0x1c
 10206 1c2c 32010000 		.4byte	.LBB81
 10207 1c30 5A010000 		.4byte	.LBE81
 10208 1c34 571C0000 		.4byte	0x1c57
 10209 1c38 23       		.uleb128 0x23
 10210 1c39 A2020000 		.4byte	.LASF200
 10211 1c3d 01       		.byte	0x1
 10212 1c3e BF04     		.2byte	0x4bf
 10213 1c40 91000000 		.4byte	0x91
 10214 1c44 02       		.byte	0x2
 10215 1c45 91       		.byte	0x91
 10216 1c46 44       		.sleb128 -60
 10217 1c47 23       		.uleb128 0x23
 10218 1c48 74070000 		.4byte	.LASF201
 10219 1c4c 01       		.byte	0x1
 10220 1c4d BF04     		.2byte	0x4bf
 10221 1c4f 91000000 		.4byte	0x91
 10222 1c53 02       		.byte	0x2
 10223 1c54 91       		.byte	0x91
 10224 1c55 48       		.sleb128 -56
 10225 1c56 00       		.byte	0
 10226 1c57 1E       		.uleb128 0x1e
 10227 1c58 AC010000 		.4byte	.LBB82
 10228 1c5c D6010000 		.4byte	.LBE82
 10229 1c60 23       		.uleb128 0x23
 10230 1c61 A2020000 		.4byte	.LASF200
 10231 1c65 01       		.byte	0x1
 10232 1c66 C404     		.2byte	0x4c4
 10233 1c68 91000000 		.4byte	0x91
 10234 1c6c 02       		.byte	0x2
 10235 1c6d 91       		.byte	0x91
 10236 1c6e 4C       		.sleb128 -52
 10237 1c6f 23       		.uleb128 0x23
 10238 1c70 74070000 		.4byte	.LASF201
 10239 1c74 01       		.byte	0x1
ARM GAS  C:\Users\X0217454\AppData\Local\Temp\cc7UAvFx.s 			page 208


 10240 1c75 C404     		.2byte	0x4c4
 10241 1c77 91000000 		.4byte	0x91
 10242 1c7b 02       		.byte	0x2
 10243 1c7c 91       		.byte	0x91
 10244 1c7d 50       		.sleb128 -48
 10245 1c7e 00       		.byte	0
 10246 1c7f 00       		.byte	0
 10247 1c80 24       		.uleb128 0x24
 10248 1c81 01       		.byte	0x1
 10249 1c82 1E0C0000 		.4byte	.LASF231
 10250 1c86 01       		.byte	0x1
 10251 1c87 D504     		.2byte	0x4d5
 10252 1c89 01       		.byte	0x1
 10253 1c8a 91000000 		.4byte	0x91
 10254 1c8e 00000000 		.4byte	.LFB15
 10255 1c92 5C000000 		.4byte	.LFE15
 10256 1c96 52030000 		.4byte	.LLST15
 10257 1c9a 01       		.byte	0x1
 10258 1c9b E61C0000 		.4byte	0x1ce6
 10259 1c9f 22       		.uleb128 0x22
 10260 1ca0 950B0000 		.4byte	.LASF81
 10261 1ca4 01       		.byte	0x1
 10262 1ca5 D504     		.2byte	0x4d5
 10263 1ca7 AD000000 		.4byte	0xad
 10264 1cab 02       		.byte	0x2
 10265 1cac 91       		.byte	0x91
 10266 1cad 66       		.sleb128 -26
 10267 1cae 29       		.uleb128 0x29
 10268 1caf 4D736700 		.ascii	"Msg\000"
 10269 1cb3 01       		.byte	0x1
 10270 1cb4 D704     		.2byte	0x4d7
 10271 1cb6 C50D0000 		.4byte	0xdc5
 10272 1cba 02       		.byte	0x2
 10273 1cbb 91       		.byte	0x91
 10274 1cbc 70       		.sleb128 -16
 10275 1cbd 23       		.uleb128 0x23
 10276 1cbe D5000000 		.4byte	.LASF232
 10277 1cc2 01       		.byte	0x1
 10278 1cc3 D804     		.2byte	0x4d8
 10279 1cc5 4E090000 		.4byte	0x94e
 10280 1cc9 02       		.byte	0x2
 10281 1cca 91       		.byte	0x91
 10282 1ccb 6C       		.sleb128 -20
 10283 1ccc 1E       		.uleb128 0x1e
 10284 1ccd 2E000000 		.4byte	.LBB83
 10285 1cd1 4C000000 		.4byte	.LBE83
 10286 1cd5 23       		.uleb128 0x23
 10287 1cd6 F90C0000 		.4byte	.LASF187
 10288 1cda 01       		.byte	0x1
 10289 1cdb DF04     		.2byte	0x4df
 10290 1cdd C3000000 		.4byte	0xc3
 10291 1ce1 02       		.byte	0x2
 10292 1ce2 91       		.byte	0x91
 10293 1ce3 74       		.sleb128 -12
 10294 1ce4 00       		.byte	0
 10295 1ce5 00       		.byte	0
 10296 1ce6 24       		.uleb128 0x24
ARM GAS  C:\Users\X0217454\AppData\Local\Temp\cc7UAvFx.s 			page 209


 10297 1ce7 01       		.byte	0x1
 10298 1ce8 F9000000 		.4byte	.LASF233
 10299 1cec 01       		.byte	0x1
 10300 1ced E704     		.2byte	0x4e7
 10301 1cef 01       		.byte	0x1
 10302 1cf0 91000000 		.4byte	0x91
 10303 1cf4 00000000 		.4byte	.LFB16
 10304 1cf8 80020000 		.4byte	.LFE16
 10305 1cfc 8A030000 		.4byte	.LLST16
 10306 1d00 01       		.byte	0x1
 10307 1d01 DD1D0000 		.4byte	0x1ddd
 10308 1d05 22       		.uleb128 0x22
 10309 1d06 190E0000 		.4byte	.LASF122
 10310 1d0a 01       		.byte	0x1
 10311 1d0b E704     		.2byte	0x4e7
 10312 1d0d 6D000000 		.4byte	0x6d
 10313 1d11 02       		.byte	0x2
 10314 1d12 91       		.byte	0x91
 10315 1d13 4C       		.sleb128 -52
 10316 1d14 22       		.uleb128 0x22
 10317 1d15 34060000 		.4byte	.LASF234
 10318 1d19 01       		.byte	0x1
 10319 1d1a E704     		.2byte	0x4e7
 10320 1d1c 30000000 		.4byte	0x30
 10321 1d20 02       		.byte	0x2
 10322 1d21 91       		.byte	0x91
 10323 1d22 4B       		.sleb128 -53
 10324 1d23 23       		.uleb128 0x23
 10325 1d24 A6000000 		.4byte	.LASF235
 10326 1d28 01       		.byte	0x1
 10327 1d29 E904     		.2byte	0x4e9
 10328 1d2b 30000000 		.4byte	0x30
 10329 1d2f 02       		.byte	0x2
 10330 1d30 91       		.byte	0x91
 10331 1d31 6F       		.sleb128 -17
 10332 1d32 1C       		.uleb128 0x1c
 10333 1d33 16000000 		.4byte	.LBB84
 10334 1d37 34000000 		.4byte	.LBE84
 10335 1d3b 4F1D0000 		.4byte	0x1d4f
 10336 1d3f 23       		.uleb128 0x23
 10337 1d40 F90C0000 		.4byte	.LASF187
 10338 1d44 01       		.byte	0x1
 10339 1d45 EB04     		.2byte	0x4eb
 10340 1d47 C3000000 		.4byte	0xc3
 10341 1d4b 02       		.byte	0x2
 10342 1d4c 91       		.byte	0x91
 10343 1d4d 68       		.sleb128 -24
 10344 1d4e 00       		.byte	0
 10345 1d4f 1C       		.uleb128 0x1c
 10346 1d50 9C000000 		.4byte	.LBB85
 10347 1d54 B6000000 		.4byte	.LBE85
 10348 1d58 6C1D0000 		.4byte	0x1d6c
 10349 1d5c 23       		.uleb128 0x23
 10350 1d5d F90C0000 		.4byte	.LASF187
 10351 1d61 01       		.byte	0x1
 10352 1d62 FF04     		.2byte	0x4ff
 10353 1d64 C3000000 		.4byte	0xc3
ARM GAS  C:\Users\X0217454\AppData\Local\Temp\cc7UAvFx.s 			page 210


 10354 1d68 02       		.byte	0x2
 10355 1d69 91       		.byte	0x91
 10356 1d6a 54       		.sleb128 -44
 10357 1d6b 00       		.byte	0
 10358 1d6c 1C       		.uleb128 0x1c
 10359 1d6d 38010000 		.4byte	.LBB86
 10360 1d71 52010000 		.4byte	.LBE86
 10361 1d75 891D0000 		.4byte	0x1d89
 10362 1d79 23       		.uleb128 0x23
 10363 1d7a F90C0000 		.4byte	.LASF187
 10364 1d7e 01       		.byte	0x1
 10365 1d7f 0E05     		.2byte	0x50e
 10366 1d81 C3000000 		.4byte	0xc3
 10367 1d85 02       		.byte	0x2
 10368 1d86 91       		.byte	0x91
 10369 1d87 60       		.sleb128 -32
 10370 1d88 00       		.byte	0
 10371 1d89 1C       		.uleb128 0x1c
 10372 1d8a 52010000 		.4byte	.LBB87
 10373 1d8e 80010000 		.4byte	.LBE87
 10374 1d92 A61D0000 		.4byte	0x1da6
 10375 1d96 23       		.uleb128 0x23
 10376 1d97 F90C0000 		.4byte	.LASF187
 10377 1d9b 01       		.byte	0x1
 10378 1d9c 1005     		.2byte	0x510
 10379 1d9e C3000000 		.4byte	0xc3
 10380 1da2 02       		.byte	0x2
 10381 1da3 91       		.byte	0x91
 10382 1da4 5C       		.sleb128 -36
 10383 1da5 00       		.byte	0
 10384 1da6 1C       		.uleb128 0x1c
 10385 1da7 80010000 		.4byte	.LBB88
 10386 1dab 9E010000 		.4byte	.LBE88
 10387 1daf C31D0000 		.4byte	0x1dc3
 10388 1db3 23       		.uleb128 0x23
 10389 1db4 F90C0000 		.4byte	.LASF187
 10390 1db8 01       		.byte	0x1
 10391 1db9 1205     		.2byte	0x512
 10392 1dbb C3000000 		.4byte	0xc3
 10393 1dbf 02       		.byte	0x2
 10394 1dc0 91       		.byte	0x91
 10395 1dc1 58       		.sleb128 -40
 10396 1dc2 00       		.byte	0
 10397 1dc3 1E       		.uleb128 0x1e
 10398 1dc4 52020000 		.4byte	.LBB89
 10399 1dc8 6C020000 		.4byte	.LBE89
 10400 1dcc 23       		.uleb128 0x23
 10401 1dcd F90C0000 		.4byte	.LASF187
 10402 1dd1 01       		.byte	0x1
 10403 1dd2 2105     		.2byte	0x521
 10404 1dd4 C3000000 		.4byte	0xc3
 10405 1dd8 02       		.byte	0x2
 10406 1dd9 91       		.byte	0x91
 10407 1dda 64       		.sleb128 -28
 10408 1ddb 00       		.byte	0
 10409 1ddc 00       		.byte	0
 10410 1ddd 27       		.uleb128 0x27
ARM GAS  C:\Users\X0217454\AppData\Local\Temp\cc7UAvFx.s 			page 211


 10411 1dde 01       		.byte	0x1
 10412 1ddf 7D040000 		.4byte	.LASF236
 10413 1de3 01       		.byte	0x1
 10414 1de4 2805     		.2byte	0x528
 10415 1de6 01       		.byte	0x1
 10416 1de7 00000000 		.4byte	.LFB17
 10417 1deb AC020000 		.4byte	.LFE17
 10418 1def C2030000 		.4byte	.LLST17
 10419 1df3 01       		.byte	0x1
 10420 1df4 6A1E0000 		.4byte	0x1e6a
 10421 1df8 22       		.uleb128 0x22
 10422 1df9 2D020000 		.4byte	.LASF196
 10423 1dfd 01       		.byte	0x1
 10424 1dfe 2805     		.2byte	0x528
 10425 1e00 30000000 		.4byte	0x30
 10426 1e04 02       		.byte	0x2
 10427 1e05 91       		.byte	0x91
 10428 1e06 5F       		.sleb128 -33
 10429 1e07 23       		.uleb128 0x23
 10430 1e08 B0040000 		.4byte	.LASF237
 10431 1e0c 01       		.byte	0x1
 10432 1e0d 2A05     		.2byte	0x52a
 10433 1e0f 30000000 		.4byte	0x30
 10434 1e13 02       		.byte	0x2
 10435 1e14 91       		.byte	0x91
 10436 1e15 6F       		.sleb128 -17
 10437 1e16 1C       		.uleb128 0x1c
 10438 1e17 0C000000 		.4byte	.LBB90
 10439 1e1b 2A000000 		.4byte	.LBE90
 10440 1e1f 331E0000 		.4byte	0x1e33
 10441 1e23 23       		.uleb128 0x23
 10442 1e24 F90C0000 		.4byte	.LASF187
 10443 1e28 01       		.byte	0x1
 10444 1e29 2C05     		.2byte	0x52c
 10445 1e2b C3000000 		.4byte	0xc3
 10446 1e2f 02       		.byte	0x2
 10447 1e30 91       		.byte	0x91
 10448 1e31 68       		.sleb128 -24
 10449 1e32 00       		.byte	0
 10450 1e33 1C       		.uleb128 0x1c
 10451 1e34 0A010000 		.4byte	.LBB91
 10452 1e38 34010000 		.4byte	.LBE91
 10453 1e3c 501E0000 		.4byte	0x1e50
 10454 1e40 23       		.uleb128 0x23
 10455 1e41 F90C0000 		.4byte	.LASF187
 10456 1e45 01       		.byte	0x1
 10457 1e46 3905     		.2byte	0x539
 10458 1e48 C3000000 		.4byte	0xc3
 10459 1e4c 02       		.byte	0x2
 10460 1e4d 91       		.byte	0x91
 10461 1e4e 64       		.sleb128 -28
 10462 1e4f 00       		.byte	0
 10463 1e50 1E       		.uleb128 0x1e
 10464 1e51 88020000 		.4byte	.LBB92
 10465 1e55 A2020000 		.4byte	.LBE92
 10466 1e59 23       		.uleb128 0x23
 10467 1e5a F90C0000 		.4byte	.LASF187
ARM GAS  C:\Users\X0217454\AppData\Local\Temp\cc7UAvFx.s 			page 212


 10468 1e5e 01       		.byte	0x1
 10469 1e5f 5505     		.2byte	0x555
 10470 1e61 C3000000 		.4byte	0xc3
 10471 1e65 02       		.byte	0x2
 10472 1e66 91       		.byte	0x91
 10473 1e67 60       		.sleb128 -32
 10474 1e68 00       		.byte	0
 10475 1e69 00       		.byte	0
 10476 1e6a 27       		.uleb128 0x27
 10477 1e6b 01       		.byte	0x1
 10478 1e6c 3B090000 		.4byte	.LASF238
 10479 1e70 01       		.byte	0x1
 10480 1e71 5D05     		.2byte	0x55d
 10481 1e73 01       		.byte	0x1
 10482 1e74 00000000 		.4byte	.LFB18
 10483 1e78 94000000 		.4byte	.LFE18
 10484 1e7c FA030000 		.4byte	.LLST18
 10485 1e80 01       		.byte	0x1
 10486 1e81 951E0000 		.4byte	0x1e95
 10487 1e85 29       		.uleb128 0x29
 10488 1e86 49647800 		.ascii	"Idx\000"
 10489 1e8a 01       		.byte	0x1
 10490 1e8b 5F05     		.2byte	0x55f
 10491 1e8d 30000000 		.4byte	0x30
 10492 1e91 02       		.byte	0x2
 10493 1e92 91       		.byte	0x91
 10494 1e93 6F       		.sleb128 -17
 10495 1e94 00       		.byte	0
 10496 1e95 2A       		.uleb128 0x2a
 10497 1e96 01       		.byte	0x1
 10498 1e97 7E010000 		.4byte	.LASF253
 10499 1e9b 01       		.byte	0x1
 10500 1e9c 7205     		.2byte	0x572
 10501 1e9e 01       		.byte	0x1
 10502 1e9f 00000000 		.4byte	.LFB19
 10503 1ea3 2C000000 		.4byte	.LFE19
 10504 1ea7 32040000 		.4byte	.LLST19
 10505 1eab 01       		.byte	0x1
 10506 1eac 28       		.uleb128 0x28
 10507 1ead 01       		.byte	0x1
 10508 1eae 310B0000 		.4byte	.LASF239
 10509 1eb2 01       		.byte	0x1
 10510 1eb3 7D05     		.2byte	0x57d
 10511 1eb5 01       		.byte	0x1
 10512 1eb6 00000000 		.4byte	.LFB20
 10513 1eba F8000000 		.4byte	.LFE20
 10514 1ebe 5E040000 		.4byte	.LLST20
 10515 1ec2 01       		.byte	0x1
 10516 1ec3 F51E0000 		.4byte	0x1ef5
 10517 1ec7 22       		.uleb128 0x22
 10518 1ec8 74000000 		.4byte	.LASF240
 10519 1ecc 01       		.byte	0x1
 10520 1ecd 7D05     		.2byte	0x57d
 10521 1ecf A8090000 		.4byte	0x9a8
 10522 1ed3 02       		.byte	0x2
 10523 1ed4 91       		.byte	0x91
 10524 1ed5 64       		.sleb128 -28
ARM GAS  C:\Users\X0217454\AppData\Local\Temp\cc7UAvFx.s 			page 213


 10525 1ed6 22       		.uleb128 0x22
 10526 1ed7 F60D0000 		.4byte	.LASF241
 10527 1edb 01       		.byte	0x1
 10528 1edc 7D05     		.2byte	0x57d
 10529 1ede 30000000 		.4byte	0x30
 10530 1ee2 02       		.byte	0x2
 10531 1ee3 91       		.byte	0x91
 10532 1ee4 63       		.sleb128 -29
 10533 1ee5 29       		.uleb128 0x29
 10534 1ee6 49647800 		.ascii	"Idx\000"
 10535 1eea 01       		.byte	0x1
 10536 1eeb 7F05     		.2byte	0x57f
 10537 1eed 30000000 		.4byte	0x30
 10538 1ef1 02       		.byte	0x2
 10539 1ef2 91       		.byte	0x91
 10540 1ef3 6F       		.sleb128 -17
 10541 1ef4 00       		.byte	0
 10542 1ef5 2B       		.uleb128 0x2b
 10543 1ef6 01       		.byte	0x1
 10544 1ef7 14040000 		.4byte	.LASF242
 10545 1efb 01       		.byte	0x1
 10546 1efc 9E05     		.2byte	0x59e
 10547 1efe 01       		.byte	0x1
 10548 1eff C3000000 		.4byte	0xc3
 10549 1f03 00000000 		.4byte	.LFB21
 10550 1f07 D0010000 		.4byte	.LFE21
 10551 1f0b 96040000 		.4byte	.LLST21
 10552 1f0f 01       		.byte	0x1
 10553 1f10 411F0000 		.4byte	0x1f41
 10554 1f14 22       		.uleb128 0x22
 10555 1f15 950B0000 		.4byte	.LASF81
 10556 1f19 01       		.byte	0x1
 10557 1f1a 9E05     		.2byte	0x59e
 10558 1f1c AD000000 		.4byte	0xad
 10559 1f20 02       		.byte	0x2
 10560 1f21 91       		.byte	0x91
 10561 1f22 66       		.sleb128 -26
 10562 1f23 25       		.uleb128 0x25
 10563 1f24 536400   		.ascii	"Sd\000"
 10564 1f27 01       		.byte	0x1
 10565 1f28 9E05     		.2byte	0x59e
 10566 1f2a 30000000 		.4byte	0x30
 10567 1f2e 02       		.byte	0x2
 10568 1f2f 91       		.byte	0x91
 10569 1f30 65       		.sleb128 -27
 10570 1f31 23       		.uleb128 0x23
 10571 1f32 9A000000 		.4byte	.LASF243
 10572 1f36 01       		.byte	0x1
 10573 1f37 A005     		.2byte	0x5a0
 10574 1f39 30000000 		.4byte	0x30
 10575 1f3d 02       		.byte	0x2
 10576 1f3e 91       		.byte	0x91
 10577 1f3f 6F       		.sleb128 -17
 10578 1f40 00       		.byte	0
 10579 1f41 2C       		.uleb128 0x2c
 10580 1f42 F7050000 		.4byte	.LASF244
 10581 1f46 01       		.byte	0x1
ARM GAS  C:\Users\X0217454\AppData\Local\Temp\cc7UAvFx.s 			page 214


 10582 1f47 3B       		.byte	0x3b
 10583 1f48 531F0000 		.4byte	0x1f53
 10584 1f4c 01       		.byte	0x1
 10585 1f4d 05       		.byte	0x5
 10586 1f4e 03       		.byte	0x3
 10587 1f4f 00000000 		.4byte	g_pCB
 10588 1f53 09       		.uleb128 0x9
 10589 1f54 04       		.byte	0x4
 10590 1f55 540D0000 		.4byte	0xd54
 10591 1f59 2C       		.uleb128 0x2c
 10592 1f5a CD080000 		.4byte	.LASF245
 10593 1f5e 01       		.byte	0x1
 10594 1f5f 3C       		.byte	0x3c
 10595 1f60 BA030000 		.4byte	0x3ba
 10596 1f64 01       		.byte	0x1
 10597 1f65 05       		.byte	0x5
 10598 1f66 03       		.byte	0x3
 10599 1f67 00000000 		.4byte	pPingCallBackFunc
 10600 1f6b 2C       		.uleb128 0x2c
 10601 1f6c 200B0000 		.4byte	.LASF246
 10602 1f70 01       		.byte	0x1
 10603 1f71 3E       		.byte	0x3e
 10604 1f72 7D1F0000 		.4byte	0x1f7d
 10605 1f76 01       		.byte	0x1
 10606 1f77 05       		.byte	0x5
 10607 1f78 03       		.byte	0x3
 10608 1f79 00000000 		.4byte	g_H2NSyncPattern
 10609 1f7d 2D       		.uleb128 0x2d
 10610 1f7e 28070000 		.4byte	0x728
 10611 1f82 2C       		.uleb128 0x2c
 10612 1f83 20000000 		.4byte	.LASF247
 10613 1f87 01       		.byte	0x1
 10614 1f88 3F       		.byte	0x3f
 10615 1f89 7D1F0000 		.4byte	0x1f7d
 10616 1f8d 01       		.byte	0x1
 10617 1f8e 05       		.byte	0x5
 10618 1f8f 03       		.byte	0x3
 10619 1f90 00000000 		.4byte	g_H2NCnysPattern
 10620 1f94 07       		.uleb128 0x7
 10621 1f95 F10A0000 		.4byte	0xaf1
 10622 1f99 A41F0000 		.4byte	0x1fa4
 10623 1f9d 08       		.uleb128 0x8
 10624 1f9e DC000000 		.4byte	0xdc
 10625 1fa2 06       		.byte	0x6
 10626 1fa3 00       		.byte	0
 10627 1fa4 2C       		.uleb128 0x2c
 10628 1fa5 18020000 		.4byte	.LASF248
 10629 1fa9 01       		.byte	0x1
 10630 1faa 40       		.byte	0x40
 10631 1fab B61F0000 		.4byte	0x1fb6
 10632 1faf 01       		.byte	0x1
 10633 1fb0 05       		.byte	0x5
 10634 1fb1 03       		.byte	0x3
 10635 1fb2 00000000 		.4byte	_SlActionLookupTable
 10636 1fb6 2D       		.uleb128 0x2d
 10637 1fb7 941F0000 		.4byte	0x1f94
 10638 1fbb 2C       		.uleb128 0x2c
ARM GAS  C:\Users\X0217454\AppData\Local\Temp\cc7UAvFx.s 			page 215


 10639 1fbc 160B0000 		.4byte	.LASF249
 10640 1fc0 01       		.byte	0x1
 10641 1fc1 68       		.byte	0x68
 10642 1fc2 A40D0000 		.4byte	0xda4
 10643 1fc6 01       		.byte	0x1
 10644 1fc7 05       		.byte	0x5
 10645 1fc8 03       		.byte	0x3
 10646 1fc9 00000000 		.4byte	g_StatMem
 10647 1fcd 00       		.byte	0
 10648              		.section	.debug_abbrev,"",%progbits
 10649              	.Ldebug_abbrev0:
 10650 0000 01       		.uleb128 0x1
 10651 0001 11       		.uleb128 0x11
 10652 0002 01       		.byte	0x1
 10653 0003 25       		.uleb128 0x25
 10654 0004 0E       		.uleb128 0xe
 10655 0005 13       		.uleb128 0x13
 10656 0006 0B       		.uleb128 0xb
 10657 0007 03       		.uleb128 0x3
 10658 0008 0E       		.uleb128 0xe
 10659 0009 1B       		.uleb128 0x1b
 10660 000a 0E       		.uleb128 0xe
 10661 000b 55       		.uleb128 0x55
 10662 000c 06       		.uleb128 0x6
 10663 000d 11       		.uleb128 0x11
 10664 000e 01       		.uleb128 0x1
 10665 000f 52       		.uleb128 0x52
 10666 0010 01       		.uleb128 0x1
 10667 0011 10       		.uleb128 0x10
 10668 0012 06       		.uleb128 0x6
 10669 0013 00       		.byte	0
 10670 0014 00       		.byte	0
 10671 0015 02       		.uleb128 0x2
 10672 0016 24       		.uleb128 0x24
 10673 0017 00       		.byte	0
 10674 0018 0B       		.uleb128 0xb
 10675 0019 0B       		.uleb128 0xb
 10676 001a 3E       		.uleb128 0x3e
 10677 001b 0B       		.uleb128 0xb
 10678 001c 03       		.uleb128 0x3
 10679 001d 0E       		.uleb128 0xe
 10680 001e 00       		.byte	0
 10681 001f 00       		.byte	0
 10682 0020 03       		.uleb128 0x3
 10683 0021 16       		.uleb128 0x16
 10684 0022 00       		.byte	0
 10685 0023 03       		.uleb128 0x3
 10686 0024 0E       		.uleb128 0xe
 10687 0025 3A       		.uleb128 0x3a
 10688 0026 0B       		.uleb128 0xb
 10689 0027 3B       		.uleb128 0x3b
 10690 0028 0B       		.uleb128 0xb
 10691 0029 49       		.uleb128 0x49
 10692 002a 13       		.uleb128 0x13
 10693 002b 00       		.byte	0
 10694 002c 00       		.byte	0
 10695 002d 04       		.uleb128 0x4
ARM GAS  C:\Users\X0217454\AppData\Local\Temp\cc7UAvFx.s 			page 216


 10696 002e 16       		.uleb128 0x16
 10697 002f 00       		.byte	0
 10698 0030 03       		.uleb128 0x3
 10699 0031 08       		.uleb128 0x8
 10700 0032 3A       		.uleb128 0x3a
 10701 0033 0B       		.uleb128 0xb
 10702 0034 3B       		.uleb128 0x3b
 10703 0035 0B       		.uleb128 0xb
 10704 0036 49       		.uleb128 0x49
 10705 0037 13       		.uleb128 0x13
 10706 0038 00       		.byte	0
 10707 0039 00       		.byte	0
 10708 003a 05       		.uleb128 0x5
 10709 003b 24       		.uleb128 0x24
 10710 003c 00       		.byte	0
 10711 003d 0B       		.uleb128 0xb
 10712 003e 0B       		.uleb128 0xb
 10713 003f 3E       		.uleb128 0x3e
 10714 0040 0B       		.uleb128 0xb
 10715 0041 03       		.uleb128 0x3
 10716 0042 08       		.uleb128 0x8
 10717 0043 00       		.byte	0
 10718 0044 00       		.byte	0
 10719 0045 06       		.uleb128 0x6
 10720 0046 0F       		.uleb128 0xf
 10721 0047 00       		.byte	0
 10722 0048 0B       		.uleb128 0xb
 10723 0049 0B       		.uleb128 0xb
 10724 004a 00       		.byte	0
 10725 004b 00       		.byte	0
 10726 004c 07       		.uleb128 0x7
 10727 004d 01       		.uleb128 0x1
 10728 004e 01       		.byte	0x1
 10729 004f 49       		.uleb128 0x49
 10730 0050 13       		.uleb128 0x13
 10731 0051 01       		.uleb128 0x1
 10732 0052 13       		.uleb128 0x13
 10733 0053 00       		.byte	0
 10734 0054 00       		.byte	0
 10735 0055 08       		.uleb128 0x8
 10736 0056 21       		.uleb128 0x21
 10737 0057 00       		.byte	0
 10738 0058 49       		.uleb128 0x49
 10739 0059 13       		.uleb128 0x13
 10740 005a 2F       		.uleb128 0x2f
 10741 005b 0B       		.uleb128 0xb
 10742 005c 00       		.byte	0
 10743 005d 00       		.byte	0
 10744 005e 09       		.uleb128 0x9
 10745 005f 0F       		.uleb128 0xf
 10746 0060 00       		.byte	0
 10747 0061 0B       		.uleb128 0xb
 10748 0062 0B       		.uleb128 0xb
 10749 0063 49       		.uleb128 0x49
 10750 0064 13       		.uleb128 0x13
 10751 0065 00       		.byte	0
 10752 0066 00       		.byte	0
ARM GAS  C:\Users\X0217454\AppData\Local\Temp\cc7UAvFx.s 			page 217


 10753 0067 0A       		.uleb128 0xa
 10754 0068 15       		.uleb128 0x15
 10755 0069 01       		.byte	0x1
 10756 006a 27       		.uleb128 0x27
 10757 006b 0C       		.uleb128 0xc
 10758 006c 01       		.uleb128 0x1
 10759 006d 13       		.uleb128 0x13
 10760 006e 00       		.byte	0
 10761 006f 00       		.byte	0
 10762 0070 0B       		.uleb128 0xb
 10763 0071 05       		.uleb128 0x5
 10764 0072 00       		.byte	0
 10765 0073 49       		.uleb128 0x49
 10766 0074 13       		.uleb128 0x13
 10767 0075 00       		.byte	0
 10768 0076 00       		.byte	0
 10769 0077 0C       		.uleb128 0xc
 10770 0078 16       		.uleb128 0x16
 10771 0079 00       		.byte	0
 10772 007a 03       		.uleb128 0x3
 10773 007b 0E       		.uleb128 0xe
 10774 007c 3A       		.uleb128 0x3a
 10775 007d 0B       		.uleb128 0xb
 10776 007e 3B       		.uleb128 0x3b
 10777 007f 05       		.uleb128 0x5
 10778 0080 49       		.uleb128 0x49
 10779 0081 13       		.uleb128 0x13
 10780 0082 00       		.byte	0
 10781 0083 00       		.byte	0
 10782 0084 0D       		.uleb128 0xd
 10783 0085 13       		.uleb128 0x13
 10784 0086 01       		.byte	0x1
 10785 0087 0B       		.uleb128 0xb
 10786 0088 0B       		.uleb128 0xb
 10787 0089 3A       		.uleb128 0x3a
 10788 008a 0B       		.uleb128 0xb
 10789 008b 3B       		.uleb128 0x3b
 10790 008c 05       		.uleb128 0x5
 10791 008d 01       		.uleb128 0x1
 10792 008e 13       		.uleb128 0x13
 10793 008f 00       		.byte	0
 10794 0090 00       		.byte	0
 10795 0091 0E       		.uleb128 0xe
 10796 0092 0D       		.uleb128 0xd
 10797 0093 00       		.byte	0
 10798 0094 03       		.uleb128 0x3
 10799 0095 0E       		.uleb128 0xe
 10800 0096 3A       		.uleb128 0x3a
 10801 0097 0B       		.uleb128 0xb
 10802 0098 3B       		.uleb128 0x3b
 10803 0099 05       		.uleb128 0x5
 10804 009a 49       		.uleb128 0x49
 10805 009b 13       		.uleb128 0x13
 10806 009c 38       		.uleb128 0x38
 10807 009d 0A       		.uleb128 0xa
 10808 009e 00       		.byte	0
 10809 009f 00       		.byte	0
ARM GAS  C:\Users\X0217454\AppData\Local\Temp\cc7UAvFx.s 			page 218


 10810 00a0 0F       		.uleb128 0xf
 10811 00a1 0D       		.uleb128 0xd
 10812 00a2 00       		.byte	0
 10813 00a3 03       		.uleb128 0x3
 10814 00a4 08       		.uleb128 0x8
 10815 00a5 3A       		.uleb128 0x3a
 10816 00a6 0B       		.uleb128 0xb
 10817 00a7 3B       		.uleb128 0x3b
 10818 00a8 05       		.uleb128 0x5
 10819 00a9 49       		.uleb128 0x49
 10820 00aa 13       		.uleb128 0x13
 10821 00ab 38       		.uleb128 0x38
 10822 00ac 0A       		.uleb128 0xa
 10823 00ad 00       		.byte	0
 10824 00ae 00       		.byte	0
 10825 00af 10       		.uleb128 0x10
 10826 00b0 17       		.uleb128 0x17
 10827 00b1 01       		.byte	0x1
 10828 00b2 0B       		.uleb128 0xb
 10829 00b3 0B       		.uleb128 0xb
 10830 00b4 3A       		.uleb128 0x3a
 10831 00b5 0B       		.uleb128 0xb
 10832 00b6 3B       		.uleb128 0x3b
 10833 00b7 05       		.uleb128 0x5
 10834 00b8 01       		.uleb128 0x1
 10835 00b9 13       		.uleb128 0x13
 10836 00ba 00       		.byte	0
 10837 00bb 00       		.byte	0
 10838 00bc 11       		.uleb128 0x11
 10839 00bd 0D       		.uleb128 0xd
 10840 00be 00       		.byte	0
 10841 00bf 03       		.uleb128 0x3
 10842 00c0 0E       		.uleb128 0xe
 10843 00c1 3A       		.uleb128 0x3a
 10844 00c2 0B       		.uleb128 0xb
 10845 00c3 3B       		.uleb128 0x3b
 10846 00c4 05       		.uleb128 0x5
 10847 00c5 49       		.uleb128 0x49
 10848 00c6 13       		.uleb128 0x13
 10849 00c7 00       		.byte	0
 10850 00c8 00       		.byte	0
 10851 00c9 12       		.uleb128 0x12
 10852 00ca 0D       		.uleb128 0xd
 10853 00cb 00       		.byte	0
 10854 00cc 03       		.uleb128 0x3
 10855 00cd 08       		.uleb128 0x8
 10856 00ce 3A       		.uleb128 0x3a
 10857 00cf 0B       		.uleb128 0xb
 10858 00d0 3B       		.uleb128 0x3b
 10859 00d1 05       		.uleb128 0x5
 10860 00d2 49       		.uleb128 0x49
 10861 00d3 13       		.uleb128 0x13
 10862 00d4 00       		.byte	0
 10863 00d5 00       		.byte	0
 10864 00d6 13       		.uleb128 0x13
 10865 00d7 13       		.uleb128 0x13
 10866 00d8 01       		.byte	0x1
ARM GAS  C:\Users\X0217454\AppData\Local\Temp\cc7UAvFx.s 			page 219


 10867 00d9 0B       		.uleb128 0xb
 10868 00da 0B       		.uleb128 0xb
 10869 00db 3A       		.uleb128 0x3a
 10870 00dc 0B       		.uleb128 0xb
 10871 00dd 3B       		.uleb128 0x3b
 10872 00de 0B       		.uleb128 0xb
 10873 00df 01       		.uleb128 0x1
 10874 00e0 13       		.uleb128 0x13
 10875 00e1 00       		.byte	0
 10876 00e2 00       		.byte	0
 10877 00e3 14       		.uleb128 0x14
 10878 00e4 0D       		.uleb128 0xd
 10879 00e5 00       		.byte	0
 10880 00e6 03       		.uleb128 0x3
 10881 00e7 0E       		.uleb128 0xe
 10882 00e8 3A       		.uleb128 0x3a
 10883 00e9 0B       		.uleb128 0xb
 10884 00ea 3B       		.uleb128 0x3b
 10885 00eb 0B       		.uleb128 0xb
 10886 00ec 49       		.uleb128 0x49
 10887 00ed 13       		.uleb128 0x13
 10888 00ee 38       		.uleb128 0x38
 10889 00ef 0A       		.uleb128 0xa
 10890 00f0 00       		.byte	0
 10891 00f1 00       		.byte	0
 10892 00f2 15       		.uleb128 0x15
 10893 00f3 0D       		.uleb128 0xd
 10894 00f4 00       		.byte	0
 10895 00f5 03       		.uleb128 0x3
 10896 00f6 08       		.uleb128 0x8
 10897 00f7 3A       		.uleb128 0x3a
 10898 00f8 0B       		.uleb128 0xb
 10899 00f9 3B       		.uleb128 0x3b
 10900 00fa 0B       		.uleb128 0xb
 10901 00fb 49       		.uleb128 0x49
 10902 00fc 13       		.uleb128 0x13
 10903 00fd 38       		.uleb128 0x38
 10904 00fe 0A       		.uleb128 0xa
 10905 00ff 00       		.byte	0
 10906 0100 00       		.byte	0
 10907 0101 16       		.uleb128 0x16
 10908 0102 13       		.uleb128 0x13
 10909 0103 01       		.byte	0x1
 10910 0104 03       		.uleb128 0x3
 10911 0105 0E       		.uleb128 0xe
 10912 0106 0B       		.uleb128 0xb
 10913 0107 0B       		.uleb128 0xb
 10914 0108 3A       		.uleb128 0x3a
 10915 0109 0B       		.uleb128 0xb
 10916 010a 3B       		.uleb128 0x3b
 10917 010b 0B       		.uleb128 0xb
 10918 010c 01       		.uleb128 0x1
 10919 010d 13       		.uleb128 0x13
 10920 010e 00       		.byte	0
 10921 010f 00       		.byte	0
 10922 0110 17       		.uleb128 0x17
 10923 0111 04       		.uleb128 0x4
ARM GAS  C:\Users\X0217454\AppData\Local\Temp\cc7UAvFx.s 			page 220


 10924 0112 01       		.byte	0x1
 10925 0113 0B       		.uleb128 0xb
 10926 0114 0B       		.uleb128 0xb
 10927 0115 3A       		.uleb128 0x3a
 10928 0116 0B       		.uleb128 0xb
 10929 0117 3B       		.uleb128 0x3b
 10930 0118 0B       		.uleb128 0xb
 10931 0119 01       		.uleb128 0x1
 10932 011a 13       		.uleb128 0x13
 10933 011b 00       		.byte	0
 10934 011c 00       		.byte	0
 10935 011d 18       		.uleb128 0x18
 10936 011e 28       		.uleb128 0x28
 10937 011f 00       		.byte	0
 10938 0120 03       		.uleb128 0x3
 10939 0121 0E       		.uleb128 0xe
 10940 0122 1C       		.uleb128 0x1c
 10941 0123 0D       		.uleb128 0xd
 10942 0124 00       		.byte	0
 10943 0125 00       		.byte	0
 10944 0126 19       		.uleb128 0x19
 10945 0127 13       		.uleb128 0x13
 10946 0128 01       		.byte	0x1
 10947 0129 0B       		.uleb128 0xb
 10948 012a 05       		.uleb128 0x5
 10949 012b 3A       		.uleb128 0x3a
 10950 012c 0B       		.uleb128 0xb
 10951 012d 3B       		.uleb128 0x3b
 10952 012e 0B       		.uleb128 0xb
 10953 012f 01       		.uleb128 0x1
 10954 0130 13       		.uleb128 0x13
 10955 0131 00       		.byte	0
 10956 0132 00       		.byte	0
 10957 0133 1A       		.uleb128 0x1a
 10958 0134 2E       		.uleb128 0x2e
 10959 0135 01       		.byte	0x1
 10960 0136 3F       		.uleb128 0x3f
 10961 0137 0C       		.uleb128 0xc
 10962 0138 03       		.uleb128 0x3
 10963 0139 0E       		.uleb128 0xe
 10964 013a 3A       		.uleb128 0x3a
 10965 013b 0B       		.uleb128 0xb
 10966 013c 3B       		.uleb128 0x3b
 10967 013d 0B       		.uleb128 0xb
 10968 013e 27       		.uleb128 0x27
 10969 013f 0C       		.uleb128 0xc
 10970 0140 11       		.uleb128 0x11
 10971 0141 01       		.uleb128 0x1
 10972 0142 12       		.uleb128 0x12
 10973 0143 01       		.uleb128 0x1
 10974 0144 40       		.uleb128 0x40
 10975 0145 06       		.uleb128 0x6
 10976 0146 9642     		.uleb128 0x2116
 10977 0148 0C       		.uleb128 0xc
 10978 0149 01       		.uleb128 0x1
 10979 014a 13       		.uleb128 0x13
 10980 014b 00       		.byte	0
ARM GAS  C:\Users\X0217454\AppData\Local\Temp\cc7UAvFx.s 			page 221


 10981 014c 00       		.byte	0
 10982 014d 1B       		.uleb128 0x1b
 10983 014e 34       		.uleb128 0x34
 10984 014f 00       		.byte	0
 10985 0150 03       		.uleb128 0x3
 10986 0151 08       		.uleb128 0x8
 10987 0152 3A       		.uleb128 0x3a
 10988 0153 0B       		.uleb128 0xb
 10989 0154 3B       		.uleb128 0x3b
 10990 0155 0B       		.uleb128 0xb
 10991 0156 49       		.uleb128 0x49
 10992 0157 13       		.uleb128 0x13
 10993 0158 02       		.uleb128 0x2
 10994 0159 0A       		.uleb128 0xa
 10995 015a 00       		.byte	0
 10996 015b 00       		.byte	0
 10997 015c 1C       		.uleb128 0x1c
 10998 015d 0B       		.uleb128 0xb
 10999 015e 01       		.byte	0x1
 11000 015f 11       		.uleb128 0x11
 11001 0160 01       		.uleb128 0x1
 11002 0161 12       		.uleb128 0x12
 11003 0162 01       		.uleb128 0x1
 11004 0163 01       		.uleb128 0x1
 11005 0164 13       		.uleb128 0x13
 11006 0165 00       		.byte	0
 11007 0166 00       		.byte	0
 11008 0167 1D       		.uleb128 0x1d
 11009 0168 34       		.uleb128 0x34
 11010 0169 00       		.byte	0
 11011 016a 03       		.uleb128 0x3
 11012 016b 0E       		.uleb128 0xe
 11013 016c 3A       		.uleb128 0x3a
 11014 016d 0B       		.uleb128 0xb
 11015 016e 3B       		.uleb128 0x3b
 11016 016f 0B       		.uleb128 0xb
 11017 0170 49       		.uleb128 0x49
 11018 0171 13       		.uleb128 0x13
 11019 0172 02       		.uleb128 0x2
 11020 0173 0A       		.uleb128 0xa
 11021 0174 00       		.byte	0
 11022 0175 00       		.byte	0
 11023 0176 1E       		.uleb128 0x1e
 11024 0177 0B       		.uleb128 0xb
 11025 0178 01       		.byte	0x1
 11026 0179 11       		.uleb128 0x11
 11027 017a 01       		.uleb128 0x1
 11028 017b 12       		.uleb128 0x12
 11029 017c 01       		.uleb128 0x1
 11030 017d 00       		.byte	0
 11031 017e 00       		.byte	0
 11032 017f 1F       		.uleb128 0x1f
 11033 0180 05       		.uleb128 0x5
 11034 0181 00       		.byte	0
 11035 0182 03       		.uleb128 0x3
 11036 0183 0E       		.uleb128 0xe
 11037 0184 3A       		.uleb128 0x3a
ARM GAS  C:\Users\X0217454\AppData\Local\Temp\cc7UAvFx.s 			page 222


 11038 0185 0B       		.uleb128 0xb
 11039 0186 3B       		.uleb128 0x3b
 11040 0187 0B       		.uleb128 0xb
 11041 0188 49       		.uleb128 0x49
 11042 0189 13       		.uleb128 0x13
 11043 018a 02       		.uleb128 0x2
 11044 018b 0A       		.uleb128 0xa
 11045 018c 00       		.byte	0
 11046 018d 00       		.byte	0
 11047 018e 20       		.uleb128 0x20
 11048 018f 2E       		.uleb128 0x2e
 11049 0190 01       		.byte	0x1
 11050 0191 3F       		.uleb128 0x3f
 11051 0192 0C       		.uleb128 0xc
 11052 0193 03       		.uleb128 0x3
 11053 0194 0E       		.uleb128 0xe
 11054 0195 3A       		.uleb128 0x3a
 11055 0196 0B       		.uleb128 0xb
 11056 0197 3B       		.uleb128 0x3b
 11057 0198 0B       		.uleb128 0xb
 11058 0199 27       		.uleb128 0x27
 11059 019a 0C       		.uleb128 0xc
 11060 019b 49       		.uleb128 0x49
 11061 019c 13       		.uleb128 0x13
 11062 019d 11       		.uleb128 0x11
 11063 019e 01       		.uleb128 0x1
 11064 019f 12       		.uleb128 0x12
 11065 01a0 01       		.uleb128 0x1
 11066 01a1 40       		.uleb128 0x40
 11067 01a2 06       		.uleb128 0x6
 11068 01a3 9642     		.uleb128 0x2116
 11069 01a5 0C       		.uleb128 0xc
 11070 01a6 01       		.uleb128 0x1
 11071 01a7 13       		.uleb128 0x13
 11072 01a8 00       		.byte	0
 11073 01a9 00       		.byte	0
 11074 01aa 21       		.uleb128 0x21
 11075 01ab 05       		.uleb128 0x5
 11076 01ac 00       		.byte	0
 11077 01ad 03       		.uleb128 0x3
 11078 01ae 08       		.uleb128 0x8
 11079 01af 3A       		.uleb128 0x3a
 11080 01b0 0B       		.uleb128 0xb
 11081 01b1 3B       		.uleb128 0x3b
 11082 01b2 0B       		.uleb128 0xb
 11083 01b3 49       		.uleb128 0x49
 11084 01b4 13       		.uleb128 0x13
 11085 01b5 02       		.uleb128 0x2
 11086 01b6 0A       		.uleb128 0xa
 11087 01b7 00       		.byte	0
 11088 01b8 00       		.byte	0
 11089 01b9 22       		.uleb128 0x22
 11090 01ba 05       		.uleb128 0x5
 11091 01bb 00       		.byte	0
 11092 01bc 03       		.uleb128 0x3
 11093 01bd 0E       		.uleb128 0xe
 11094 01be 3A       		.uleb128 0x3a
ARM GAS  C:\Users\X0217454\AppData\Local\Temp\cc7UAvFx.s 			page 223


 11095 01bf 0B       		.uleb128 0xb
 11096 01c0 3B       		.uleb128 0x3b
 11097 01c1 05       		.uleb128 0x5
 11098 01c2 49       		.uleb128 0x49
 11099 01c3 13       		.uleb128 0x13
 11100 01c4 02       		.uleb128 0x2
 11101 01c5 0A       		.uleb128 0xa
 11102 01c6 00       		.byte	0
 11103 01c7 00       		.byte	0
 11104 01c8 23       		.uleb128 0x23
 11105 01c9 34       		.uleb128 0x34
 11106 01ca 00       		.byte	0
 11107 01cb 03       		.uleb128 0x3
 11108 01cc 0E       		.uleb128 0xe
 11109 01cd 3A       		.uleb128 0x3a
 11110 01ce 0B       		.uleb128 0xb
 11111 01cf 3B       		.uleb128 0x3b
 11112 01d0 05       		.uleb128 0x5
 11113 01d1 49       		.uleb128 0x49
 11114 01d2 13       		.uleb128 0x13
 11115 01d3 02       		.uleb128 0x2
 11116 01d4 0A       		.uleb128 0xa
 11117 01d5 00       		.byte	0
 11118 01d6 00       		.byte	0
 11119 01d7 24       		.uleb128 0x24
 11120 01d8 2E       		.uleb128 0x2e
 11121 01d9 01       		.byte	0x1
 11122 01da 3F       		.uleb128 0x3f
 11123 01db 0C       		.uleb128 0xc
 11124 01dc 03       		.uleb128 0x3
 11125 01dd 0E       		.uleb128 0xe
 11126 01de 3A       		.uleb128 0x3a
 11127 01df 0B       		.uleb128 0xb
 11128 01e0 3B       		.uleb128 0x3b
 11129 01e1 05       		.uleb128 0x5
 11130 01e2 27       		.uleb128 0x27
 11131 01e3 0C       		.uleb128 0xc
 11132 01e4 49       		.uleb128 0x49
 11133 01e5 13       		.uleb128 0x13
 11134 01e6 11       		.uleb128 0x11
 11135 01e7 01       		.uleb128 0x1
 11136 01e8 12       		.uleb128 0x12
 11137 01e9 01       		.uleb128 0x1
 11138 01ea 40       		.uleb128 0x40
 11139 01eb 06       		.uleb128 0x6
 11140 01ec 9642     		.uleb128 0x2116
 11141 01ee 0C       		.uleb128 0xc
 11142 01ef 01       		.uleb128 0x1
 11143 01f0 13       		.uleb128 0x13
 11144 01f1 00       		.byte	0
 11145 01f2 00       		.byte	0
 11146 01f3 25       		.uleb128 0x25
 11147 01f4 05       		.uleb128 0x5
 11148 01f5 00       		.byte	0
 11149 01f6 03       		.uleb128 0x3
 11150 01f7 08       		.uleb128 0x8
 11151 01f8 3A       		.uleb128 0x3a
ARM GAS  C:\Users\X0217454\AppData\Local\Temp\cc7UAvFx.s 			page 224


 11152 01f9 0B       		.uleb128 0xb
 11153 01fa 3B       		.uleb128 0x3b
 11154 01fb 05       		.uleb128 0x5
 11155 01fc 49       		.uleb128 0x49
 11156 01fd 13       		.uleb128 0x13
 11157 01fe 02       		.uleb128 0x2
 11158 01ff 0A       		.uleb128 0xa
 11159 0200 00       		.byte	0
 11160 0201 00       		.byte	0
 11161 0202 26       		.uleb128 0x26
 11162 0203 0B       		.uleb128 0xb
 11163 0204 01       		.byte	0x1
 11164 0205 55       		.uleb128 0x55
 11165 0206 06       		.uleb128 0x6
 11166 0207 01       		.uleb128 0x1
 11167 0208 13       		.uleb128 0x13
 11168 0209 00       		.byte	0
 11169 020a 00       		.byte	0
 11170 020b 27       		.uleb128 0x27
 11171 020c 2E       		.uleb128 0x2e
 11172 020d 01       		.byte	0x1
 11173 020e 3F       		.uleb128 0x3f
 11174 020f 0C       		.uleb128 0xc
 11175 0210 03       		.uleb128 0x3
 11176 0211 0E       		.uleb128 0xe
 11177 0212 3A       		.uleb128 0x3a
 11178 0213 0B       		.uleb128 0xb
 11179 0214 3B       		.uleb128 0x3b
 11180 0215 05       		.uleb128 0x5
 11181 0216 27       		.uleb128 0x27
 11182 0217 0C       		.uleb128 0xc
 11183 0218 11       		.uleb128 0x11
 11184 0219 01       		.uleb128 0x1
 11185 021a 12       		.uleb128 0x12
 11186 021b 01       		.uleb128 0x1
 11187 021c 40       		.uleb128 0x40
 11188 021d 06       		.uleb128 0x6
 11189 021e 9642     		.uleb128 0x2116
 11190 0220 0C       		.uleb128 0xc
 11191 0221 01       		.uleb128 0x1
 11192 0222 13       		.uleb128 0x13
 11193 0223 00       		.byte	0
 11194 0224 00       		.byte	0
 11195 0225 28       		.uleb128 0x28
 11196 0226 2E       		.uleb128 0x2e
 11197 0227 01       		.byte	0x1
 11198 0228 3F       		.uleb128 0x3f
 11199 0229 0C       		.uleb128 0xc
 11200 022a 03       		.uleb128 0x3
 11201 022b 0E       		.uleb128 0xe
 11202 022c 3A       		.uleb128 0x3a
 11203 022d 0B       		.uleb128 0xb
 11204 022e 3B       		.uleb128 0x3b
 11205 022f 05       		.uleb128 0x5
 11206 0230 27       		.uleb128 0x27
 11207 0231 0C       		.uleb128 0xc
 11208 0232 11       		.uleb128 0x11
ARM GAS  C:\Users\X0217454\AppData\Local\Temp\cc7UAvFx.s 			page 225


 11209 0233 01       		.uleb128 0x1
 11210 0234 12       		.uleb128 0x12
 11211 0235 01       		.uleb128 0x1
 11212 0236 40       		.uleb128 0x40
 11213 0237 06       		.uleb128 0x6
 11214 0238 9742     		.uleb128 0x2117
 11215 023a 0C       		.uleb128 0xc
 11216 023b 01       		.uleb128 0x1
 11217 023c 13       		.uleb128 0x13
 11218 023d 00       		.byte	0
 11219 023e 00       		.byte	0
 11220 023f 29       		.uleb128 0x29
 11221 0240 34       		.uleb128 0x34
 11222 0241 00       		.byte	0
 11223 0242 03       		.uleb128 0x3
 11224 0243 08       		.uleb128 0x8
 11225 0244 3A       		.uleb128 0x3a
 11226 0245 0B       		.uleb128 0xb
 11227 0246 3B       		.uleb128 0x3b
 11228 0247 05       		.uleb128 0x5
 11229 0248 49       		.uleb128 0x49
 11230 0249 13       		.uleb128 0x13
 11231 024a 02       		.uleb128 0x2
 11232 024b 0A       		.uleb128 0xa
 11233 024c 00       		.byte	0
 11234 024d 00       		.byte	0
 11235 024e 2A       		.uleb128 0x2a
 11236 024f 2E       		.uleb128 0x2e
 11237 0250 00       		.byte	0
 11238 0251 3F       		.uleb128 0x3f
 11239 0252 0C       		.uleb128 0xc
 11240 0253 03       		.uleb128 0x3
 11241 0254 0E       		.uleb128 0xe
 11242 0255 3A       		.uleb128 0x3a
 11243 0256 0B       		.uleb128 0xb
 11244 0257 3B       		.uleb128 0x3b
 11245 0258 05       		.uleb128 0x5
 11246 0259 27       		.uleb128 0x27
 11247 025a 0C       		.uleb128 0xc
 11248 025b 11       		.uleb128 0x11
 11249 025c 01       		.uleb128 0x1
 11250 025d 12       		.uleb128 0x12
 11251 025e 01       		.uleb128 0x1
 11252 025f 40       		.uleb128 0x40
 11253 0260 06       		.uleb128 0x6
 11254 0261 9742     		.uleb128 0x2117
 11255 0263 0C       		.uleb128 0xc
 11256 0264 00       		.byte	0
 11257 0265 00       		.byte	0
 11258 0266 2B       		.uleb128 0x2b
 11259 0267 2E       		.uleb128 0x2e
 11260 0268 01       		.byte	0x1
 11261 0269 3F       		.uleb128 0x3f
 11262 026a 0C       		.uleb128 0xc
 11263 026b 03       		.uleb128 0x3
 11264 026c 0E       		.uleb128 0xe
 11265 026d 3A       		.uleb128 0x3a
ARM GAS  C:\Users\X0217454\AppData\Local\Temp\cc7UAvFx.s 			page 226


 11266 026e 0B       		.uleb128 0xb
 11267 026f 3B       		.uleb128 0x3b
 11268 0270 05       		.uleb128 0x5
 11269 0271 27       		.uleb128 0x27
 11270 0272 0C       		.uleb128 0xc
 11271 0273 49       		.uleb128 0x49
 11272 0274 13       		.uleb128 0x13
 11273 0275 11       		.uleb128 0x11
 11274 0276 01       		.uleb128 0x1
 11275 0277 12       		.uleb128 0x12
 11276 0278 01       		.uleb128 0x1
 11277 0279 40       		.uleb128 0x40
 11278 027a 06       		.uleb128 0x6
 11279 027b 9742     		.uleb128 0x2117
 11280 027d 0C       		.uleb128 0xc
 11281 027e 01       		.uleb128 0x1
 11282 027f 13       		.uleb128 0x13
 11283 0280 00       		.byte	0
 11284 0281 00       		.byte	0
 11285 0282 2C       		.uleb128 0x2c
 11286 0283 34       		.uleb128 0x34
 11287 0284 00       		.byte	0
 11288 0285 03       		.uleb128 0x3
 11289 0286 0E       		.uleb128 0xe
 11290 0287 3A       		.uleb128 0x3a
 11291 0288 0B       		.uleb128 0xb
 11292 0289 3B       		.uleb128 0x3b
 11293 028a 0B       		.uleb128 0xb
 11294 028b 49       		.uleb128 0x49
 11295 028c 13       		.uleb128 0x13
 11296 028d 3F       		.uleb128 0x3f
 11297 028e 0C       		.uleb128 0xc
 11298 028f 02       		.uleb128 0x2
 11299 0290 0A       		.uleb128 0xa
 11300 0291 00       		.byte	0
 11301 0292 00       		.byte	0
 11302 0293 2D       		.uleb128 0x2d
 11303 0294 26       		.uleb128 0x26
 11304 0295 00       		.byte	0
 11305 0296 49       		.uleb128 0x49
 11306 0297 13       		.uleb128 0x13
 11307 0298 00       		.byte	0
 11308 0299 00       		.byte	0
 11309 029a 00       		.byte	0
 11310              		.section	.debug_loc,"",%progbits
 11311              	.Ldebug_loc0:
 11312              	.LLST0:
 11313 0000 00000000 		.4byte	.LFB0
 11314 0004 02000000 		.4byte	.LCFI0
 11315 0008 0200     		.2byte	0x2
 11316 000a 7D       		.byte	0x7d
 11317 000b 00       		.sleb128 0
 11318 000c 02000000 		.4byte	.LCFI0
 11319 0010 04000000 		.4byte	.LCFI1
 11320 0014 0200     		.2byte	0x2
 11321 0016 7D       		.byte	0x7d
 11322 0017 08       		.sleb128 8
ARM GAS  C:\Users\X0217454\AppData\Local\Temp\cc7UAvFx.s 			page 227


 11323 0018 04000000 		.4byte	.LCFI1
 11324 001c 06000000 		.4byte	.LCFI2
 11325 0020 0200     		.2byte	0x2
 11326 0022 7D       		.byte	0x7d
 11327 0023 20       		.sleb128 32
 11328 0024 06000000 		.4byte	.LCFI2
 11329 0028 08010000 		.4byte	.LFE0
 11330 002c 0200     		.2byte	0x2
 11331 002e 77       		.byte	0x77
 11332 002f 20       		.sleb128 32
 11333 0030 00000000 		.4byte	0
 11334 0034 00000000 		.4byte	0
 11335              	.LLST1:
 11336 0038 00000000 		.4byte	.LFB1
 11337 003c 02000000 		.4byte	.LCFI3
 11338 0040 0200     		.2byte	0x2
 11339 0042 7D       		.byte	0x7d
 11340 0043 00       		.sleb128 0
 11341 0044 02000000 		.4byte	.LCFI3
 11342 0048 04000000 		.4byte	.LCFI4
 11343 004c 0200     		.2byte	0x2
 11344 004e 7D       		.byte	0x7d
 11345 004f 08       		.sleb128 8
 11346 0050 04000000 		.4byte	.LCFI4
 11347 0054 06000000 		.4byte	.LCFI5
 11348 0058 0200     		.2byte	0x2
 11349 005a 7D       		.byte	0x7d
 11350 005b 20       		.sleb128 32
 11351 005c 06000000 		.4byte	.LCFI5
 11352 0060 C0000000 		.4byte	.LFE1
 11353 0064 0200     		.2byte	0x2
 11354 0066 77       		.byte	0x77
 11355 0067 20       		.sleb128 32
 11356 0068 00000000 		.4byte	0
 11357 006c 00000000 		.4byte	0
 11358              	.LLST2:
 11359 0070 00000000 		.4byte	.LFB2
 11360 0074 02000000 		.4byte	.LCFI6
 11361 0078 0200     		.2byte	0x2
 11362 007a 7D       		.byte	0x7d
 11363 007b 00       		.sleb128 0
 11364 007c 02000000 		.4byte	.LCFI6
 11365 0080 04000000 		.4byte	.LCFI7
 11366 0084 0200     		.2byte	0x2
 11367 0086 7D       		.byte	0x7d
 11368 0087 08       		.sleb128 8
 11369 0088 04000000 		.4byte	.LCFI7
 11370 008c 06000000 		.4byte	.LCFI8
 11371 0090 0200     		.2byte	0x2
 11372 0092 7D       		.byte	0x7d
 11373 0093 18       		.sleb128 24
 11374 0094 06000000 		.4byte	.LCFI8
 11375 0098 5C000000 		.4byte	.LFE2
 11376 009c 0200     		.2byte	0x2
 11377 009e 77       		.byte	0x77
 11378 009f 18       		.sleb128 24
 11379 00a0 00000000 		.4byte	0
ARM GAS  C:\Users\X0217454\AppData\Local\Temp\cc7UAvFx.s 			page 228


 11380 00a4 00000000 		.4byte	0
 11381              	.LLST3:
 11382 00a8 00000000 		.4byte	.LFB3
 11383 00ac 02000000 		.4byte	.LCFI9
 11384 00b0 0200     		.2byte	0x2
 11385 00b2 7D       		.byte	0x7d
 11386 00b3 00       		.sleb128 0
 11387 00b4 02000000 		.4byte	.LCFI9
 11388 00b8 04000000 		.4byte	.LCFI10
 11389 00bc 0200     		.2byte	0x2
 11390 00be 7D       		.byte	0x7d
 11391 00bf 08       		.sleb128 8
 11392 00c0 04000000 		.4byte	.LCFI10
 11393 00c4 06000000 		.4byte	.LCFI11
 11394 00c8 0200     		.2byte	0x2
 11395 00ca 7D       		.byte	0x7d
 11396 00cb 28       		.sleb128 40
 11397 00cc 06000000 		.4byte	.LCFI11
 11398 00d0 94000000 		.4byte	.LFE3
 11399 00d4 0200     		.2byte	0x2
 11400 00d6 77       		.byte	0x77
 11401 00d7 28       		.sleb128 40
 11402 00d8 00000000 		.4byte	0
 11403 00dc 00000000 		.4byte	0
 11404              	.LLST4:
 11405 00e0 00000000 		.4byte	.LFB4
 11406 00e4 02000000 		.4byte	.LCFI12
 11407 00e8 0200     		.2byte	0x2
 11408 00ea 7D       		.byte	0x7d
 11409 00eb 00       		.sleb128 0
 11410 00ec 02000000 		.4byte	.LCFI12
 11411 00f0 04000000 		.4byte	.LCFI13
 11412 00f4 0200     		.2byte	0x2
 11413 00f6 7D       		.byte	0x7d
 11414 00f7 08       		.sleb128 8
 11415 00f8 04000000 		.4byte	.LCFI13
 11416 00fc 06000000 		.4byte	.LCFI14
 11417 0100 0200     		.2byte	0x2
 11418 0102 7D       		.byte	0x7d
 11419 0103 20       		.sleb128 32
 11420 0104 06000000 		.4byte	.LCFI14
 11421 0108 4C000000 		.4byte	.LFE4
 11422 010c 0200     		.2byte	0x2
 11423 010e 77       		.byte	0x77
 11424 010f 20       		.sleb128 32
 11425 0110 00000000 		.4byte	0
 11426 0114 00000000 		.4byte	0
 11427              	.LLST5:
 11428 0118 00000000 		.4byte	.LFB5
 11429 011c 02000000 		.4byte	.LCFI15
 11430 0120 0200     		.2byte	0x2
 11431 0122 7D       		.byte	0x7d
 11432 0123 00       		.sleb128 0
 11433 0124 02000000 		.4byte	.LCFI15
 11434 0128 04000000 		.4byte	.LCFI16
 11435 012c 0200     		.2byte	0x2
 11436 012e 7D       		.byte	0x7d
ARM GAS  C:\Users\X0217454\AppData\Local\Temp\cc7UAvFx.s 			page 229


 11437 012f 08       		.sleb128 8
 11438 0130 04000000 		.4byte	.LCFI16
 11439 0134 06000000 		.4byte	.LCFI17
 11440 0138 0300     		.2byte	0x3
 11441 013a 7D       		.byte	0x7d
 11442 013b C800     		.sleb128 72
 11443 013d 06000000 		.4byte	.LCFI17
 11444 0141 48020000 		.4byte	.LFE5
 11445 0145 0300     		.2byte	0x3
 11446 0147 77       		.byte	0x77
 11447 0148 C800     		.sleb128 72
 11448 014a 00000000 		.4byte	0
 11449 014e 00000000 		.4byte	0
 11450              	.LLST6:
 11451 0152 00000000 		.4byte	.LFB6
 11452 0156 02000000 		.4byte	.LCFI18
 11453 015a 0200     		.2byte	0x2
 11454 015c 7D       		.byte	0x7d
 11455 015d 00       		.sleb128 0
 11456 015e 02000000 		.4byte	.LCFI18
 11457 0162 04000000 		.4byte	.LCFI19
 11458 0166 0200     		.2byte	0x2
 11459 0168 7D       		.byte	0x7d
 11460 0169 08       		.sleb128 8
 11461 016a 04000000 		.4byte	.LCFI19
 11462 016e 06000000 		.4byte	.LCFI20
 11463 0172 0300     		.2byte	0x3
 11464 0174 7D       		.byte	0x7d
 11465 0175 C000     		.sleb128 64
 11466 0177 06000000 		.4byte	.LCFI20
 11467 017b 04020000 		.4byte	.LFE6
 11468 017f 0300     		.2byte	0x3
 11469 0181 77       		.byte	0x77
 11470 0182 C000     		.sleb128 64
 11471 0184 00000000 		.4byte	0
 11472 0188 00000000 		.4byte	0
 11473              	.LLST7:
 11474 018c 00000000 		.4byte	.LFB7
 11475 0190 02000000 		.4byte	.LCFI21
 11476 0194 0200     		.2byte	0x2
 11477 0196 7D       		.byte	0x7d
 11478 0197 00       		.sleb128 0
 11479 0198 02000000 		.4byte	.LCFI21
 11480 019c 04000000 		.4byte	.LCFI22
 11481 01a0 0200     		.2byte	0x2
 11482 01a2 7D       		.byte	0x7d
 11483 01a3 08       		.sleb128 8
 11484 01a4 04000000 		.4byte	.LCFI22
 11485 01a8 06000000 		.4byte	.LCFI23
 11486 01ac 0200     		.2byte	0x2
 11487 01ae 7D       		.byte	0x7d
 11488 01af 30       		.sleb128 48
 11489 01b0 06000000 		.4byte	.LCFI23
 11490 01b4 1C020000 		.4byte	.LFE7
 11491 01b8 0200     		.2byte	0x2
 11492 01ba 77       		.byte	0x77
 11493 01bb 30       		.sleb128 48
ARM GAS  C:\Users\X0217454\AppData\Local\Temp\cc7UAvFx.s 			page 230


 11494 01bc 00000000 		.4byte	0
 11495 01c0 00000000 		.4byte	0
 11496              	.LLST8:
 11497 01c4 00000000 		.4byte	.LFB8
 11498 01c8 02000000 		.4byte	.LCFI24
 11499 01cc 0200     		.2byte	0x2
 11500 01ce 7D       		.byte	0x7d
 11501 01cf 00       		.sleb128 0
 11502 01d0 02000000 		.4byte	.LCFI24
 11503 01d4 04000000 		.4byte	.LCFI25
 11504 01d8 0200     		.2byte	0x2
 11505 01da 7D       		.byte	0x7d
 11506 01db 08       		.sleb128 8
 11507 01dc 04000000 		.4byte	.LCFI25
 11508 01e0 06000000 		.4byte	.LCFI26
 11509 01e4 0300     		.2byte	0x3
 11510 01e6 7D       		.byte	0x7d
 11511 01e7 9801     		.sleb128 152
 11512 01e9 06000000 		.4byte	.LCFI26
 11513 01ed 64070000 		.4byte	.LFE8
 11514 01f1 0300     		.2byte	0x3
 11515 01f3 77       		.byte	0x77
 11516 01f4 9801     		.sleb128 152
 11517 01f6 00000000 		.4byte	0
 11518 01fa 00000000 		.4byte	0
 11519              	.LLST9:
 11520 01fe 00000000 		.4byte	.LFB9
 11521 0202 02000000 		.4byte	.LCFI27
 11522 0206 0200     		.2byte	0x2
 11523 0208 7D       		.byte	0x7d
 11524 0209 00       		.sleb128 0
 11525 020a 02000000 		.4byte	.LCFI27
 11526 020e 04000000 		.4byte	.LCFI28
 11527 0212 0200     		.2byte	0x2
 11528 0214 7D       		.byte	0x7d
 11529 0215 08       		.sleb128 8
 11530 0216 04000000 		.4byte	.LCFI28
 11531 021a 06000000 		.4byte	.LCFI29
 11532 021e 0300     		.2byte	0x3
 11533 0220 7D       		.byte	0x7d
 11534 0221 D801     		.sleb128 216
 11535 0223 06000000 		.4byte	.LCFI29
 11536 0227 E8070000 		.4byte	.LFE9
 11537 022b 0300     		.2byte	0x3
 11538 022d 77       		.byte	0x77
 11539 022e D801     		.sleb128 216
 11540 0230 00000000 		.4byte	0
 11541 0234 00000000 		.4byte	0
 11542              	.LLST10:
 11543 0238 00000000 		.4byte	.LFB10
 11544 023c 02000000 		.4byte	.LCFI30
 11545 0240 0200     		.2byte	0x2
 11546 0242 7D       		.byte	0x7d
 11547 0243 00       		.sleb128 0
 11548 0244 02000000 		.4byte	.LCFI30
 11549 0248 04000000 		.4byte	.LCFI31
 11550 024c 0200     		.2byte	0x2
ARM GAS  C:\Users\X0217454\AppData\Local\Temp\cc7UAvFx.s 			page 231


 11551 024e 7D       		.byte	0x7d
 11552 024f 08       		.sleb128 8
 11553 0250 04000000 		.4byte	.LCFI31
 11554 0254 06000000 		.4byte	.LCFI32
 11555 0258 0200     		.2byte	0x2
 11556 025a 7D       		.byte	0x7d
 11557 025b 18       		.sleb128 24
 11558 025c 06000000 		.4byte	.LCFI32
 11559 0260 18010000 		.4byte	.LFE10
 11560 0264 0200     		.2byte	0x2
 11561 0266 77       		.byte	0x77
 11562 0267 18       		.sleb128 24
 11563 0268 00000000 		.4byte	0
 11564 026c 00000000 		.4byte	0
 11565              	.LLST11:
 11566 0270 00000000 		.4byte	.LFB11
 11567 0274 02000000 		.4byte	.LCFI33
 11568 0278 0200     		.2byte	0x2
 11569 027a 7D       		.byte	0x7d
 11570 027b 00       		.sleb128 0
 11571 027c 02000000 		.4byte	.LCFI33
 11572 0280 04000000 		.4byte	.LCFI34
 11573 0284 0200     		.2byte	0x2
 11574 0286 7D       		.byte	0x7d
 11575 0287 08       		.sleb128 8
 11576 0288 04000000 		.4byte	.LCFI34
 11577 028c 06000000 		.4byte	.LCFI35
 11578 0290 0200     		.2byte	0x2
 11579 0292 7D       		.byte	0x7d
 11580 0293 20       		.sleb128 32
 11581 0294 06000000 		.4byte	.LCFI35
 11582 0298 F8000000 		.4byte	.LFE11
 11583 029c 0200     		.2byte	0x2
 11584 029e 77       		.byte	0x77
 11585 029f 20       		.sleb128 32
 11586 02a0 00000000 		.4byte	0
 11587 02a4 00000000 		.4byte	0
 11588              	.LLST12:
 11589 02a8 00000000 		.4byte	.LFB12
 11590 02ac 02000000 		.4byte	.LCFI36
 11591 02b0 0200     		.2byte	0x2
 11592 02b2 7D       		.byte	0x7d
 11593 02b3 00       		.sleb128 0
 11594 02b4 02000000 		.4byte	.LCFI36
 11595 02b8 04000000 		.4byte	.LCFI37
 11596 02bc 0200     		.2byte	0x2
 11597 02be 7D       		.byte	0x7d
 11598 02bf 08       		.sleb128 8
 11599 02c0 04000000 		.4byte	.LCFI37
 11600 02c4 06000000 		.4byte	.LCFI38
 11601 02c8 0200     		.2byte	0x2
 11602 02ca 7D       		.byte	0x7d
 11603 02cb 10       		.sleb128 16
 11604 02cc 06000000 		.4byte	.LCFI38
 11605 02d0 34010000 		.4byte	.LFE12
 11606 02d4 0200     		.2byte	0x2
 11607 02d6 77       		.byte	0x77
ARM GAS  C:\Users\X0217454\AppData\Local\Temp\cc7UAvFx.s 			page 232


 11608 02d7 10       		.sleb128 16
 11609 02d8 00000000 		.4byte	0
 11610 02dc 00000000 		.4byte	0
 11611              	.LLST13:
 11612 02e0 00000000 		.4byte	.LFB13
 11613 02e4 02000000 		.4byte	.LCFI39
 11614 02e8 0200     		.2byte	0x2
 11615 02ea 7D       		.byte	0x7d
 11616 02eb 00       		.sleb128 0
 11617 02ec 02000000 		.4byte	.LCFI39
 11618 02f0 04000000 		.4byte	.LCFI40
 11619 02f4 0200     		.2byte	0x2
 11620 02f6 7D       		.byte	0x7d
 11621 02f7 08       		.sleb128 8
 11622 02f8 04000000 		.4byte	.LCFI40
 11623 02fc 06000000 		.4byte	.LCFI41
 11624 0300 0200     		.2byte	0x2
 11625 0302 7D       		.byte	0x7d
 11626 0303 18       		.sleb128 24
 11627 0304 06000000 		.4byte	.LCFI41
 11628 0308 52000000 		.4byte	.LFE13
 11629 030c 0200     		.2byte	0x2
 11630 030e 77       		.byte	0x77
 11631 030f 18       		.sleb128 24
 11632 0310 00000000 		.4byte	0
 11633 0314 00000000 		.4byte	0
 11634              	.LLST14:
 11635 0318 00000000 		.4byte	.LFB14
 11636 031c 02000000 		.4byte	.LCFI42
 11637 0320 0200     		.2byte	0x2
 11638 0322 7D       		.byte	0x7d
 11639 0323 00       		.sleb128 0
 11640 0324 02000000 		.4byte	.LCFI42
 11641 0328 04000000 		.4byte	.LCFI43
 11642 032c 0200     		.2byte	0x2
 11643 032e 7D       		.byte	0x7d
 11644 032f 08       		.sleb128 8
 11645 0330 04000000 		.4byte	.LCFI43
 11646 0334 06000000 		.4byte	.LCFI44
 11647 0338 0300     		.2byte	0x3
 11648 033a 7D       		.byte	0x7d
 11649 033b C800     		.sleb128 72
 11650 033d 06000000 		.4byte	.LCFI44
 11651 0341 0C020000 		.4byte	.LFE14
 11652 0345 0300     		.2byte	0x3
 11653 0347 77       		.byte	0x77
 11654 0348 C800     		.sleb128 72
 11655 034a 00000000 		.4byte	0
 11656 034e 00000000 		.4byte	0
 11657              	.LLST15:
 11658 0352 00000000 		.4byte	.LFB15
 11659 0356 02000000 		.4byte	.LCFI45
 11660 035a 0200     		.2byte	0x2
 11661 035c 7D       		.byte	0x7d
 11662 035d 00       		.sleb128 0
 11663 035e 02000000 		.4byte	.LCFI45
 11664 0362 04000000 		.4byte	.LCFI46
ARM GAS  C:\Users\X0217454\AppData\Local\Temp\cc7UAvFx.s 			page 233


 11665 0366 0200     		.2byte	0x2
 11666 0368 7D       		.byte	0x7d
 11667 0369 08       		.sleb128 8
 11668 036a 04000000 		.4byte	.LCFI46
 11669 036e 06000000 		.4byte	.LCFI47
 11670 0372 0200     		.2byte	0x2
 11671 0374 7D       		.byte	0x7d
 11672 0375 20       		.sleb128 32
 11673 0376 06000000 		.4byte	.LCFI47
 11674 037a 5C000000 		.4byte	.LFE15
 11675 037e 0200     		.2byte	0x2
 11676 0380 77       		.byte	0x77
 11677 0381 20       		.sleb128 32
 11678 0382 00000000 		.4byte	0
 11679 0386 00000000 		.4byte	0
 11680              	.LLST16:
 11681 038a 00000000 		.4byte	.LFB16
 11682 038e 02000000 		.4byte	.LCFI48
 11683 0392 0200     		.2byte	0x2
 11684 0394 7D       		.byte	0x7d
 11685 0395 00       		.sleb128 0
 11686 0396 02000000 		.4byte	.LCFI48
 11687 039a 04000000 		.4byte	.LCFI49
 11688 039e 0200     		.2byte	0x2
 11689 03a0 7D       		.byte	0x7d
 11690 03a1 0C       		.sleb128 12
 11691 03a2 04000000 		.4byte	.LCFI49
 11692 03a6 06000000 		.4byte	.LCFI50
 11693 03aa 0200     		.2byte	0x2
 11694 03ac 7D       		.byte	0x7d
 11695 03ad 38       		.sleb128 56
 11696 03ae 06000000 		.4byte	.LCFI50
 11697 03b2 80020000 		.4byte	.LFE16
 11698 03b6 0200     		.2byte	0x2
 11699 03b8 77       		.byte	0x77
 11700 03b9 38       		.sleb128 56
 11701 03ba 00000000 		.4byte	0
 11702 03be 00000000 		.4byte	0
 11703              	.LLST17:
 11704 03c2 00000000 		.4byte	.LFB17
 11705 03c6 02000000 		.4byte	.LCFI51
 11706 03ca 0200     		.2byte	0x2
 11707 03cc 7D       		.byte	0x7d
 11708 03cd 00       		.sleb128 0
 11709 03ce 02000000 		.4byte	.LCFI51
 11710 03d2 04000000 		.4byte	.LCFI52
 11711 03d6 0200     		.2byte	0x2
 11712 03d8 7D       		.byte	0x7d
 11713 03d9 10       		.sleb128 16
 11714 03da 04000000 		.4byte	.LCFI52
 11715 03de 06000000 		.4byte	.LCFI53
 11716 03e2 0200     		.2byte	0x2
 11717 03e4 7D       		.byte	0x7d
 11718 03e5 28       		.sleb128 40
 11719 03e6 06000000 		.4byte	.LCFI53
 11720 03ea AC020000 		.4byte	.LFE17
 11721 03ee 0200     		.2byte	0x2
ARM GAS  C:\Users\X0217454\AppData\Local\Temp\cc7UAvFx.s 			page 234


 11722 03f0 77       		.byte	0x77
 11723 03f1 28       		.sleb128 40
 11724 03f2 00000000 		.4byte	0
 11725 03f6 00000000 		.4byte	0
 11726              	.LLST18:
 11727 03fa 00000000 		.4byte	.LFB18
 11728 03fe 02000000 		.4byte	.LCFI54
 11729 0402 0200     		.2byte	0x2
 11730 0404 7D       		.byte	0x7d
 11731 0405 00       		.sleb128 0
 11732 0406 02000000 		.4byte	.LCFI54
 11733 040a 04000000 		.4byte	.LCFI55
 11734 040e 0200     		.2byte	0x2
 11735 0410 7D       		.byte	0x7d
 11736 0411 0C       		.sleb128 12
 11737 0412 04000000 		.4byte	.LCFI55
 11738 0416 06000000 		.4byte	.LCFI56
 11739 041a 0200     		.2byte	0x2
 11740 041c 7D       		.byte	0x7d
 11741 041d 18       		.sleb128 24
 11742 041e 06000000 		.4byte	.LCFI56
 11743 0422 94000000 		.4byte	.LFE18
 11744 0426 0200     		.2byte	0x2
 11745 0428 77       		.byte	0x77
 11746 0429 18       		.sleb128 24
 11747 042a 00000000 		.4byte	0
 11748 042e 00000000 		.4byte	0
 11749              	.LLST19:
 11750 0432 00000000 		.4byte	.LFB19
 11751 0436 02000000 		.4byte	.LCFI57
 11752 043a 0200     		.2byte	0x2
 11753 043c 7D       		.byte	0x7d
 11754 043d 00       		.sleb128 0
 11755 043e 02000000 		.4byte	.LCFI57
 11756 0442 04000000 		.4byte	.LCFI58
 11757 0446 0200     		.2byte	0x2
 11758 0448 7D       		.byte	0x7d
 11759 0449 08       		.sleb128 8
 11760 044a 04000000 		.4byte	.LCFI58
 11761 044e 2C000000 		.4byte	.LFE19
 11762 0452 0200     		.2byte	0x2
 11763 0454 77       		.byte	0x77
 11764 0455 08       		.sleb128 8
 11765 0456 00000000 		.4byte	0
 11766 045a 00000000 		.4byte	0
 11767              	.LLST20:
 11768 045e 00000000 		.4byte	.LFB20
 11769 0462 02000000 		.4byte	.LCFI59
 11770 0466 0200     		.2byte	0x2
 11771 0468 7D       		.byte	0x7d
 11772 0469 00       		.sleb128 0
 11773 046a 02000000 		.4byte	.LCFI59
 11774 046e 04000000 		.4byte	.LCFI60
 11775 0472 0200     		.2byte	0x2
 11776 0474 7D       		.byte	0x7d
 11777 0475 10       		.sleb128 16
 11778 0476 04000000 		.4byte	.LCFI60
ARM GAS  C:\Users\X0217454\AppData\Local\Temp\cc7UAvFx.s 			page 235


 11779 047a 06000000 		.4byte	.LCFI61
 11780 047e 0200     		.2byte	0x2
 11781 0480 7D       		.byte	0x7d
 11782 0481 20       		.sleb128 32
 11783 0482 06000000 		.4byte	.LCFI61
 11784 0486 F8000000 		.4byte	.LFE20
 11785 048a 0200     		.2byte	0x2
 11786 048c 77       		.byte	0x77
 11787 048d 20       		.sleb128 32
 11788 048e 00000000 		.4byte	0
 11789 0492 00000000 		.4byte	0
 11790              	.LLST21:
 11791 0496 00000000 		.4byte	.LFB21
 11792 049a 02000000 		.4byte	.LCFI62
 11793 049e 0200     		.2byte	0x2
 11794 04a0 7D       		.byte	0x7d
 11795 04a1 00       		.sleb128 0
 11796 04a2 02000000 		.4byte	.LCFI62
 11797 04a6 04000000 		.4byte	.LCFI63
 11798 04aa 0200     		.2byte	0x2
 11799 04ac 7D       		.byte	0x7d
 11800 04ad 0C       		.sleb128 12
 11801 04ae 04000000 		.4byte	.LCFI63
 11802 04b2 06000000 		.4byte	.LCFI64
 11803 04b6 0200     		.2byte	0x2
 11804 04b8 7D       		.byte	0x7d
 11805 04b9 20       		.sleb128 32
 11806 04ba 06000000 		.4byte	.LCFI64
 11807 04be D0010000 		.4byte	.LFE21
 11808 04c2 0200     		.2byte	0x2
 11809 04c4 77       		.byte	0x77
 11810 04c5 20       		.sleb128 32
 11811 04c6 00000000 		.4byte	0
 11812 04ca 00000000 		.4byte	0
 11813              		.section	.debug_aranges,"",%progbits
 11814 0000 C4000000 		.4byte	0xc4
 11815 0004 0200     		.2byte	0x2
 11816 0006 00000000 		.4byte	.Ldebug_info0
 11817 000a 04       		.byte	0x4
 11818 000b 00       		.byte	0
 11819 000c 0000     		.2byte	0
 11820 000e 0000     		.2byte	0
 11821 0010 00000000 		.4byte	.LFB0
 11822 0014 08010000 		.4byte	.LFE0-.LFB0
 11823 0018 00000000 		.4byte	.LFB1
 11824 001c C0000000 		.4byte	.LFE1-.LFB1
 11825 0020 00000000 		.4byte	.LFB2
 11826 0024 5C000000 		.4byte	.LFE2-.LFB2
 11827 0028 00000000 		.4byte	.LFB3
 11828 002c 94000000 		.4byte	.LFE3-.LFB3
 11829 0030 00000000 		.4byte	.LFB4
 11830 0034 4C000000 		.4byte	.LFE4-.LFB4
 11831 0038 00000000 		.4byte	.LFB5
 11832 003c 48020000 		.4byte	.LFE5-.LFB5
 11833 0040 00000000 		.4byte	.LFB6
 11834 0044 04020000 		.4byte	.LFE6-.LFB6
 11835 0048 00000000 		.4byte	.LFB7
ARM GAS  C:\Users\X0217454\AppData\Local\Temp\cc7UAvFx.s 			page 236


 11836 004c 1C020000 		.4byte	.LFE7-.LFB7
 11837 0050 00000000 		.4byte	.LFB8
 11838 0054 64070000 		.4byte	.LFE8-.LFB8
 11839 0058 00000000 		.4byte	.LFB9
 11840 005c E8070000 		.4byte	.LFE9-.LFB9
 11841 0060 00000000 		.4byte	.LFB10
 11842 0064 18010000 		.4byte	.LFE10-.LFB10
 11843 0068 00000000 		.4byte	.LFB11
 11844 006c F8000000 		.4byte	.LFE11-.LFB11
 11845 0070 00000000 		.4byte	.LFB12
 11846 0074 34010000 		.4byte	.LFE12-.LFB12
 11847 0078 00000000 		.4byte	.LFB13
 11848 007c 52000000 		.4byte	.LFE13-.LFB13
 11849 0080 00000000 		.4byte	.LFB14
 11850 0084 0C020000 		.4byte	.LFE14-.LFB14
 11851 0088 00000000 		.4byte	.LFB15
 11852 008c 5C000000 		.4byte	.LFE15-.LFB15
 11853 0090 00000000 		.4byte	.LFB16
 11854 0094 80020000 		.4byte	.LFE16-.LFB16
 11855 0098 00000000 		.4byte	.LFB17
 11856 009c AC020000 		.4byte	.LFE17-.LFB17
 11857 00a0 00000000 		.4byte	.LFB18
 11858 00a4 94000000 		.4byte	.LFE18-.LFB18
 11859 00a8 00000000 		.4byte	.LFB19
 11860 00ac 2C000000 		.4byte	.LFE19-.LFB19
 11861 00b0 00000000 		.4byte	.LFB20
 11862 00b4 F8000000 		.4byte	.LFE20-.LFB20
 11863 00b8 00000000 		.4byte	.LFB21
 11864 00bc D0010000 		.4byte	.LFE21-.LFB21
 11865 00c0 00000000 		.4byte	0
 11866 00c4 00000000 		.4byte	0
 11867              		.section	.debug_ranges,"",%progbits
 11868              	.Ldebug_ranges0:
 11869 0000 48050000 		.4byte	.LBB50
 11870 0004 8E050000 		.4byte	.LBE50
 11871 0008 90050000 		.4byte	.LBB54
 11872 000c 0E070000 		.4byte	.LBE54
 11873 0010 00000000 		.4byte	0
 11874 0014 00000000 		.4byte	0
 11875 0018 00000000 		.4byte	.LFB0
 11876 001c 08010000 		.4byte	.LFE0
 11877 0020 00000000 		.4byte	.LFB1
 11878 0024 C0000000 		.4byte	.LFE1
 11879 0028 00000000 		.4byte	.LFB2
 11880 002c 5C000000 		.4byte	.LFE2
 11881 0030 00000000 		.4byte	.LFB3
 11882 0034 94000000 		.4byte	.LFE3
 11883 0038 00000000 		.4byte	.LFB4
 11884 003c 4C000000 		.4byte	.LFE4
 11885 0040 00000000 		.4byte	.LFB5
 11886 0044 48020000 		.4byte	.LFE5
 11887 0048 00000000 		.4byte	.LFB6
 11888 004c 04020000 		.4byte	.LFE6
 11889 0050 00000000 		.4byte	.LFB7
 11890 0054 1C020000 		.4byte	.LFE7
 11891 0058 00000000 		.4byte	.LFB8
 11892 005c 64070000 		.4byte	.LFE8
ARM GAS  C:\Users\X0217454\AppData\Local\Temp\cc7UAvFx.s 			page 237


 11893 0060 00000000 		.4byte	.LFB9
 11894 0064 E8070000 		.4byte	.LFE9
 11895 0068 00000000 		.4byte	.LFB10
 11896 006c 18010000 		.4byte	.LFE10
 11897 0070 00000000 		.4byte	.LFB11
 11898 0074 F8000000 		.4byte	.LFE11
 11899 0078 00000000 		.4byte	.LFB12
 11900 007c 34010000 		.4byte	.LFE12
 11901 0080 00000000 		.4byte	.LFB13
 11902 0084 52000000 		.4byte	.LFE13
 11903 0088 00000000 		.4byte	.LFB14
 11904 008c 0C020000 		.4byte	.LFE14
 11905 0090 00000000 		.4byte	.LFB15
 11906 0094 5C000000 		.4byte	.LFE15
 11907 0098 00000000 		.4byte	.LFB16
 11908 009c 80020000 		.4byte	.LFE16
 11909 00a0 00000000 		.4byte	.LFB17
 11910 00a4 AC020000 		.4byte	.LFE17
 11911 00a8 00000000 		.4byte	.LFB18
 11912 00ac 94000000 		.4byte	.LFE18
 11913 00b0 00000000 		.4byte	.LFB19
 11914 00b4 2C000000 		.4byte	.LFE19
 11915 00b8 00000000 		.4byte	.LFB20
 11916 00bc F8000000 		.4byte	.LFE20
 11917 00c0 00000000 		.4byte	.LFB21
 11918 00c4 D0010000 		.4byte	.LFE21
 11919 00c8 00000000 		.4byte	0
 11920 00cc 00000000 		.4byte	0
 11921              		.section	.debug_line,"",%progbits
 11922              	.Ldebug_line0:
 11923 0000 A7080000 		.section	.debug_str,"MS",%progbits,1
 11923      02000001 
 11923      00000201 
 11923      FB0E0D00 
 11923      01010101 
 11924              	.LASF156:
 11925 0000 52784D73 		.ascii	"RxMsgClass\000"
 11925      67436C61 
 11925      737300
 11926              	.LASF168:
 11927 000b 46726565 		.ascii	"FreePoolIdx\000"
 11927      506F6F6C 
 11927      49647800 
 11928              	.LASF227:
 11929 0017 53686966 		.ascii	"ShiftIdx\000"
 11929      74496478 
 11929      00
 11930              	.LASF247:
 11931 0020 675F4832 		.ascii	"g_H2NCnysPattern\000"
 11931      4E436E79 
 11931      73506174 
 11931      7465726E 
 11931      00
 11932              	.LASF19:
 11933 0031 73697A65 		.ascii	"sizetype\000"
 11933      74797065 
 11933      00
ARM GAS  C:\Users\X0217454\AppData\Local\Temp\cc7UAvFx.s 			page 238


 11934              	.LASF64:
 11935 003a 736C5F70 		.ascii	"sl_protocol_wlanConnectAsyncResponse_t\000"
 11935      726F746F 
 11935      636F6C5F 
 11935      776C616E 
 11935      436F6E6E 
 11936              	.LASF209:
 11937 0061 416C6967 		.ascii	"AlignSize\000"
 11937      6E53697A 
 11937      6500
 11938              	.LASF48:
 11939 006b 54657374 		.ascii	"TestTime\000"
 11939      54696D65 
 11939      00
 11940              	.LASF240:
 11941 0074 4C697374 		.ascii	"ListIndex\000"
 11941      496E6465 
 11941      7800
 11942              	.LASF208:
 11943 007e 416C6967 		.ascii	"AlignedLengthRecv\000"
 11943      6E65644C 
 11943      656E6774 
 11943      68526563 
 11943      7600
 11944              	.LASF25:
 11945 0090 4576656E 		.ascii	"EventData\000"
 11945      74446174 
 11945      6100
 11946              	.LASF243:
 11947 009a 41637469 		.ascii	"ActiveIndex\000"
 11947      7665496E 
 11947      64657800 
 11948              	.LASF235:
 11949 00a6 43757272 		.ascii	"CurrObjIndex\000"
 11949      4F626A49 
 11949      6E646578 
 11949      00
 11950              	.LASF115:
 11951 00b3 5F536C43 		.ascii	"_SlCmdExt_t\000"
 11951      6D644578 
 11951      745F7400 
 11952              	.LASF223:
 11953 00bf 5F536C44 		.ascii	"_SlDrvMsgReadSpawnCtx\000"
 11953      72764D73 
 11953      67526561 
 11953      64537061 
 11953      776E4374 
 11954              	.LASF232:
 11955 00d5 436D6443 		.ascii	"CmdCtrl\000"
 11955      74726C00 
 11956              	.LASF197:
 11957 00dd 70417267 		.ascii	"pArgsData\000"
 11957      73446174 
 11957      6100
 11958              	.LASF97:
 11959 00e7 5F536F63 		.ascii	"_SocketResponse_t\000"
 11959      6B657452 
ARM GAS  C:\Users\X0217454\AppData\Local\Temp\cc7UAvFx.s 			page 239


 11959      6573706F 
 11959      6E73655F 
 11959      7400
 11960              	.LASF233:
 11961 00f9 5F536C44 		.ascii	"_SlDrvWaitForPoolObj\000"
 11961      72765761 
 11961      6974466F 
 11961      72506F6F 
 11961      6C4F626A 
 11962              	.LASF123:
 11963 010e 41646469 		.ascii	"AdditionalData\000"
 11963      74696F6E 
 11963      616C4461 
 11963      746100
 11964              	.LASF194:
 11965 011d 5F536C44 		.ascii	"_SlDrvCmdSend\000"
 11965      7276436D 
 11965      6453656E 
 11965      6400
 11966              	.LASF77:
 11967 012b 5032504D 		.ascii	"P2PModewlanConnectionFailure\000"
 11967      6F646577 
 11967      6C616E43 
 11967      6F6E6E65 
 11967      6374696F 
 11968              	.LASF189:
 11969 0148 5F536C44 		.ascii	"_SlDrvDriverCBDeinit\000"
 11969      72764472 
 11969      69766572 
 11969      43424465 
 11969      696E6974 
 11970              	.LASF68:
 11971 015d 736C5065 		.ascii	"slPeerInfoAsyncResponse_t\000"
 11971      6572496E 
 11971      666F4173 
 11971      796E6352 
 11971      6573706F 
 11972              	.LASF192:
 11973 0177 52657456 		.ascii	"RetVal\000"
 11973      616C00
 11974              	.LASF253:
 11975 017e 5F536C44 		.ascii	"_SlDrvObjDeInit\000"
 11975      72764F62 
 11975      6A446549 
 11975      6E697400 
 11976              	.LASF119:
 11977 018e 5F536C50 		.ascii	"_SlPoolObj_t\000"
 11977      6F6F6C4F 
 11977      626A5F74 
 11977      00
 11978              	.LASF29:
 11979 019b 74797065 		.ascii	"type\000"
 11979      00
 11980              	.LASF190:
 11981 01a0 5F536C44 		.ascii	"_SlDrvRxIrqHandler\000"
 11981      72765278 
 11981      49727148 
ARM GAS  C:\Users\X0217454\AppData\Local\Temp\cc7UAvFx.s 			page 240


 11981      616E646C 
 11981      657200
 11982              	.LASF206:
 11983 01b3 5461696C 		.ascii	"TailBuffer\000"
 11983      42756666 
 11983      657200
 11984              	.LASF111:
 11985 01be 52785061 		.ascii	"RxPayloadLen\000"
 11985      796C6F61 
 11985      644C656E 
 11985      00
 11986              	.LASF20:
 11987 01cb 5F536C53 		.ascii	"_SlSpawnEntryFunc_t\000"
 11987      7061776E 
 11987      456E7472 
 11987      7946756E 
 11987      635F7400 
 11988              	.LASF177:
 11989 01df 52784972 		.ascii	"RxIrqCnt\000"
 11989      71436E74 
 11989      00
 11990              	.LASF211:
 11991 01e8 41637444 		.ascii	"ActDataSize\000"
 11991      61746153 
 11991      697A6500 
 11992              	.LASF139:
 11993 01f4 50494E47 		.ascii	"PING_ID\000"
 11993      5F494400 
 11994              	.LASF95:
 11995 01fc 5F426173 		.ascii	"_BasicResponse_t\000"
 11995      69635265 
 11995      73706F6E 
 11995      73655F74 
 11995      00
 11996              	.LASF210:
 11997 020d 45787041 		.ascii	"ExpArgSize\000"
 11997      72675369 
 11997      7A6500
 11998              	.LASF248:
 11999 0218 5F536C41 		.ascii	"_SlActionLookupTable\000"
 11999      6374696F 
 11999      6E4C6F6F 
 11999      6B757054 
 11999      61626C65 
 12000              	.LASF196:
 12001 022d 704F626A 		.ascii	"pObjIdx\000"
 12001      49647800 
 12002              	.LASF52:
 12003 0235 73736964 		.ascii	"ssid\000"
 12003      00
 12004              	.LASF62:
 12005 023a 62737369 		.ascii	"bssid\000"
 12005      6400
 12006              	.LASF7:
 12007 0240 6C6F6E67 		.ascii	"long int\000"
 12007      20696E74 
 12007      00
ARM GAS  C:\Users\X0217454\AppData\Local\Temp\cc7UAvFx.s 			page 241


 12008              	.LASF204:
 12009 0249 44756D6D 		.ascii	"DummyBuf\000"
 12009      79427566 
 12009      00
 12010              	.LASF176:
 12011 0252 54785365 		.ascii	"TxSeqNum\000"
 12011      714E756D 
 12011      00
 12012              	.LASF49:
 12013 025b 536C5069 		.ascii	"SlPingReport_t\000"
 12013      6E675265 
 12013      706F7274 
 12013      5F7400
 12014              	.LASF118:
 12015 026a 5F536C41 		.ascii	"_SlArgsData_t\000"
 12015      72677344 
 12015      6174615F 
 12015      7400
 12016              	.LASF121:
 12017 0278 70526573 		.ascii	"pRespArgs\000"
 12017      70417267 
 12017      7300
 12018              	.LASF60:
 12019 0282 676F5F70 		.ascii	"go_peer_device_name_len\000"
 12019      6565725F 
 12019      64657669 
 12019      63655F6E 
 12019      616D655F 
 12020              	.LASF158:
 12021 029a 5F536C53 		.ascii	"_SlSd_t\000"
 12021      645F7400 
 12022              	.LASF200:
 12023 02a2 52657453 		.ascii	"RetSize\000"
 12023      697A6500 
 12024              	.LASF85:
 12025 02aa 42797465 		.ascii	"Byte1\000"
 12025      3100
 12026              	.LASF86:
 12027 02b0 42797465 		.ascii	"Byte2\000"
 12027      3200
 12028              	.LASF178:
 12029 02b6 5278446F 		.ascii	"RxDoneCnt\000"
 12029      6E65436E 
 12029      7400
 12030              	.LASF161:
 12031 02c0 70436D64 		.ascii	"pCmdExt\000"
 12031      45787400 
 12032              	.LASF36:
 12033 02c8 536C4970 		.ascii	"SlIpReleasedAsync_t\000"
 12033      52656C65 
 12033      61736564 
 12033      4173796E 
 12033      635F7400 
 12034              	.LASF229:
 12035 02dc 70416C69 		.ascii	"pAlignSize\000"
 12035      676E5369 
 12035      7A6500
ARM GAS  C:\Users\X0217454\AppData\Local\Temp\cc7UAvFx.s 			page 242


 12036              	.LASF0:
 12037 02e7 7369676E 		.ascii	"signed char\000"
 12037      65642063 
 12037      68617200 
 12038              	.LASF188:
 12039 02f3 5F536C44 		.ascii	"_SlDrvDriverCBInit\000"
 12039      72764472 
 12039      69766572 
 12039      4342496E 
 12039      697400
 12040              	.LASF160:
 12041 0306 70547852 		.ascii	"pTxRxDescBuff\000"
 12041      78446573 
 12041      63427566 
 12041      6600
 12042              	.LASF70:
 12043 0314 736D6172 		.ascii	"smartConfigStopResponse\000"
 12043      74436F6E 
 12043      66696753 
 12043      746F7052 
 12043      6573706F 
 12044              	.LASF14:
 12045 032c 5F536C4F 		.ascii	"_SlOpcode_t\000"
 12045      70636F64 
 12045      655F7400 
 12046              	.LASF3:
 12047 0338 494E5431 		.ascii	"INT16\000"
 12047      3600
 12048              	.LASF1:
 12049 033e 756E7369 		.ascii	"unsigned char\000"
 12049      676E6564 
 12049      20636861 
 12049      7200
 12050              	.LASF107:
 12051 034c 54784465 		.ascii	"TxDescLen\000"
 12051      73634C65 
 12051      6E00
 12052              	.LASF224:
 12053 0356 5F536C44 		.ascii	"_SlDrvClassifyRxMsg\000"
 12053      7276436C 
 12053      61737369 
 12053      66795278 
 12053      4D736700 
 12054              	.LASF28:
 12055 036a 536C4970 		.ascii	"SlIpV4AcquiredAsync_t\000"
 12055      56344163 
 12055      71756972 
 12055      65644173 
 12055      796E635F 
 12056              	.LASF71:
 12057 0380 41504D6F 		.ascii	"APModeStaConnected\000"
 12057      64655374 
 12057      61436F6E 
 12057      6E656374 
 12057      656400
 12058              	.LASF199:
 12059 0393 5F536C44 		.ascii	"_SlDrvMsgWrite\000"
ARM GAS  C:\Users\X0217454\AppData\Local\Temp\cc7UAvFx.s 			page 243


 12059      72764D73 
 12059      67577269 
 12059      746500
 12060              	.LASF250:
 12061 03a2 474E5520 		.ascii	"GNU C 4.7.3 20130312 (release) [ARM/embedded-4_7-br"
 12061      4320342E 
 12061      372E3320 
 12061      32303133 
 12061      30333132 
 12062 03d5 616E6368 		.ascii	"anch revision 196615]\000"
 12062      20726576 
 12062      6973696F 
 12062      6E203139 
 12062      36363135 
 12063              	.LASF185:
 12064 03eb 5F536C53 		.ascii	"_SlStatMem_t\000"
 12064      7461744D 
 12064      656D5F74 
 12064      00
 12065              	.LASF215:
 12066 03f8 6E657441 		.ascii	"netAppEvent\000"
 12066      70704576 
 12066      656E7400 
 12067              	.LASF155:
 12068 0404 4173796E 		.ascii	"AsyncEvtHandler\000"
 12068      63457674 
 12068      48616E64 
 12068      6C657200 
 12069              	.LASF242:
 12070 0414 5F536C46 		.ascii	"_SlFindAndSetActiveObj\000"
 12070      696E6441 
 12070      6E645365 
 12070      74416374 
 12070      6976654F 
 12071              	.LASF92:
 12072 042b 536F636B 		.ascii	"SocketTXFailure\000"
 12072      65745458 
 12072      4661696C 
 12072      75726500 
 12073              	.LASF149:
 12074 043b 434D445F 		.ascii	"CMD_RESP_CLASS\000"
 12074      52455350 
 12074      5F434C41 
 12074      535300
 12075              	.LASF124:
 12076 044a 4E657874 		.ascii	"NextIndex\000"
 12076      496E6465 
 12076      7800
 12077              	.LASF172:
 12078 0454 50726F74 		.ascii	"ProtectionLockObj\000"
 12078      65637469 
 12078      6F6E4C6F 
 12078      636B4F62 
 12078      6A00
 12079              	.LASF179:
 12080 0466 52656C61 		.ascii	"RelayFlagsViaRxPayload\000"
 12080      79466C61 
ARM GAS  C:\Users\X0217454\AppData\Local\Temp\cc7UAvFx.s 			page 244


 12080      67735669 
 12080      61527850 
 12080      61796C6F 
 12081              	.LASF236:
 12082 047d 5F536C44 		.ascii	"_SlDrvReleasePoolObj\000"
 12082      72765265 
 12082      6C656173 
 12082      65506F6F 
 12082      6C4F626A 
 12083              	.LASF11:
 12084 0492 63686172 		.ascii	"char\000"
 12084      00
 12085              	.LASF193:
 12086 0497 5F536C44 		.ascii	"_SlDrvCmdOp\000"
 12086      7276436D 
 12086      644F7000 
 12087              	.LASF221:
 12088 04a3 74786661 		.ascii	"txfailparams\000"
 12088      696C7061 
 12088      72616D73 
 12088      00
 12089              	.LASF237:
 12090 04b0 50656E64 		.ascii	"PendingIndex\000"
 12090      696E6749 
 12090      6E646578 
 12090      00
 12091              	.LASF191:
 12092 04bd 7056616C 		.ascii	"pValue\000"
 12092      756500
 12093              	.LASF45:
 12094 04c4 4D696E52 		.ascii	"MinRoundTime\000"
 12094      6F756E64 
 12094      54696D65 
 12094      00
 12095              	.LASF125:
 12096 04d1 534F434B 		.ascii	"SOCKET_0\000"
 12096      45545F30 
 12096      00
 12097              	.LASF126:
 12098 04da 534F434B 		.ascii	"SOCKET_1\000"
 12098      45545F31 
 12098      00
 12099              	.LASF127:
 12100 04e3 534F434B 		.ascii	"SOCKET_2\000"
 12100      45545F32 
 12100      00
 12101              	.LASF128:
 12102 04ec 534F434B 		.ascii	"SOCKET_3\000"
 12102      45545F33 
 12102      00
 12103              	.LASF129:
 12104 04f5 534F434B 		.ascii	"SOCKET_4\000"
 12104      45545F34 
 12104      00
 12105              	.LASF130:
 12106 04fe 534F434B 		.ascii	"SOCKET_5\000"
 12106      45545F35 
ARM GAS  C:\Users\X0217454\AppData\Local\Temp\cc7UAvFx.s 			page 245


 12106      00
 12107              	.LASF131:
 12108 0507 534F434B 		.ascii	"SOCKET_6\000"
 12108      45545F36 
 12108      00
 12109              	.LASF132:
 12110 0510 534F434B 		.ascii	"SOCKET_7\000"
 12110      45545F37 
 12110      00
 12111              	.LASF114:
 12112 0519 70527850 		.ascii	"pRxPayload\000"
 12112      61796C6F 
 12112      616400
 12113              	.LASF173:
 12114 0524 436D6453 		.ascii	"CmdSyncObj\000"
 12114      796E634F 
 12114      626A00
 12115              	.LASF78:
 12116 052f 536C576C 		.ascii	"SlWlanEventData_u\000"
 12116      616E4576 
 12116      656E7444 
 12116      6174615F 
 12116      7500
 12117              	.LASF138:
 12118 0541 47455448 		.ascii	"GETHOSYBYSERVICE_ID\000"
 12118      4F535942 
 12118      59534552 
 12118      56494345 
 12118      5F494400 
 12119              	.LASF46:
 12120 0555 4D617852 		.ascii	"MaxRoundTime\000"
 12120      6F756E64 
 12120      54696D65 
 12120      00
 12121              	.LASF34:
 12122 0562 536C4970 		.ascii	"SlIpLeasedAsync_t\000"
 12122      4C656173 
 12122      65644173 
 12122      796E635F 
 12122      7400
 12123              	.LASF104:
 12124 0574 49705634 		.ascii	"IpV4\000"
 12124      00
 12125              	.LASF214:
 12126 0579 776C616E 		.ascii	"wlanEvent\000"
 12126      4576656E 
 12126      7400
 12127              	.LASF47:
 12128 0583 41766752 		.ascii	"AvgRoundTime\000"
 12128      6F756E64 
 12128      54696D65 
 12128      00
 12129              	.LASF79:
 12130 0590 536C576C 		.ascii	"SlWlanEvent_t\000"
 12130      616E4576 
 12130      656E745F 
 12130      7400
ARM GAS  C:\Users\X0217454\AppData\Local\Temp\cc7UAvFx.s 			page 246


 12131              	.LASF87:
 12132 059e 5F536C53 		.ascii	"_SlSyncPattern_t\000"
 12132      796E6350 
 12132      61747465 
 12132      726E5F74 
 12132      00
 12133              	.LASF15:
 12134 05af 5F536C41 		.ascii	"_SlArgSize_t\000"
 12134      72675369 
 12134      7A655F74 
 12134      00
 12135              	.LASF5:
 12136 05bc 55494E54 		.ascii	"UINT16\000"
 12136      313600
 12137              	.LASF82:
 12138 05c3 5F536C47 		.ascii	"_SlGenericHeader_t\000"
 12138      656E6572 
 12138      69634865 
 12138      61646572 
 12138      5F7400
 12139              	.LASF32:
 12140 05d6 6C656173 		.ascii	"lease_time\000"
 12140      655F7469 
 12140      6D6500
 12141              	.LASF30:
 12142 05e1 536C4970 		.ascii	"SlIpV6AcquiredAsync_t\000"
 12142      56364163 
 12142      71756972 
 12142      65644173 
 12142      796E635F 
 12143              	.LASF244:
 12144 05f7 675F7043 		.ascii	"g_pCB\000"
 12144      4200
 12145              	.LASF159:
 12146 05fd 70436D64 		.ascii	"pCmdCtrl\000"
 12146      4374726C 
 12146      00
 12147              	.LASF106:
 12148 0606 5F536F63 		.ascii	"_SocketAddrResponse_u\000"
 12148      6B657441 
 12148      64647252 
 12148      6573706F 
 12148      6E73655F 
 12149              	.LASF84:
 12150 061c 53686F72 		.ascii	"Short\000"
 12150      7400
 12151              	.LASF9:
 12152 0622 6C6F6E67 		.ascii	"long unsigned int\000"
 12152      20756E73 
 12152      69676E65 
 12152      6420696E 
 12152      7400
 12153              	.LASF234:
 12154 0634 536F636B 		.ascii	"SocketID\000"
 12154      65744944 
 12154      00
 12155              	.LASF22:
ARM GAS  C:\Users\X0217454\AppData\Local\Temp\cc7UAvFx.s 			page 247


 12156 063d 73746174 		.ascii	"status\000"
 12156      757300
 12157              	.LASF61:
 12158 0644 676F5F70 		.ascii	"go_peer_device_name\000"
 12158      6565725F 
 12158      64657669 
 12158      63655F6E 
 12158      616D6500 
 12159              	.LASF101:
 12160 0658 61646472 		.ascii	"address\000"
 12160      65737300 
 12161              	.LASF180:
 12162 0660 46756E63 		.ascii	"FunctionParams\000"
 12162      74696F6E 
 12162      50617261 
 12162      6D7300
 12163              	.LASF23:
 12164 066f 536C536F 		.ascii	"SlSockEventData_t\000"
 12164      636B4576 
 12164      656E7444 
 12164      6174615F 
 12164      7400
 12165              	.LASF252:
 12166 0681 433A5C55 		.ascii	"C:\\Users\\X0217454\\Desktop\\CC31xx\\CC3100 - 0.5\\"
 12166      73657273 
 12166      5C583032 
 12166      31373435 
 12166      345C4465 
 12167 06af 43433331 		.ascii	"CC3100 SDK 0.5\\cc3100-sdk\\platform\\cypress_SDK.5"
 12167      30302053 
 12167      444B2030 
 12167      2E355C63 
 12167      63333130 
 12168 06df 5C657861 		.ascii	"\\example\\wlan_station_spi\\wlan_station_spi.cydsn"
 12168      6D706C65 
 12168      5C776C61 
 12168      6E5F7374 
 12168      6174696F 
 12169 070f 00       		.ascii	"\000"
 12170              	.LASF41:
 12171 0710 536C4E65 		.ascii	"SlNetAppEventData_u\000"
 12171      74417070 
 12171      4576656E 
 12171      74446174 
 12171      615F7500 
 12172              	.LASF8:
 12173 0724 55494E54 		.ascii	"UINT32\000"
 12173      333200
 12174              	.LASF230:
 12175 072b 53796E63 		.ascii	"SyncCnt\000"
 12175      436E7400 
 12176              	.LASF198:
 12177 0733 5F536C44 		.ascii	"_SlDrvDataWriteOp\000"
 12177      72764461 
 12177      74615772 
 12177      6974654F 
 12177      7000
ARM GAS  C:\Users\X0217454\AppData\Local\Temp\cc7UAvFx.s 			page 248


 12178              	.LASF216:
 12179 0745 736F636B 		.ascii	"sockAppEvent\000"
 12179      41707045 
 12179      76656E74 
 12179      00
 12180              	.LASF116:
 12181 0752 70417267 		.ascii	"pArgs\000"
 12181      7300
 12182              	.LASF96:
 12183 0758 73746174 		.ascii	"statusOrLen\000"
 12183      75734F72 
 12183      4C656E00 
 12184              	.LASF75:
 12185 0764 5032504D 		.ascii	"P2PModeDevFound\000"
 12185      6F646544 
 12185      6576466F 
 12185      756E6400 
 12186              	.LASF201:
 12187 0774 45787053 		.ascii	"ExpSize\000"
 12187      697A6500 
 12188              	.LASF120:
 12189 077c 53796E63 		.ascii	"SyncObj\000"
 12189      4F626A00 
 12190              	.LASF57:
 12191 0784 736C576C 		.ascii	"slWlanConnFailureAsyncResponse_t\000"
 12191      616E436F 
 12191      6E6E4661 
 12191      696C7572 
 12191      65417379 
 12192              	.LASF174:
 12193 07a5 4973436D 		.ascii	"IsCmdRespWaited\000"
 12193      64526573 
 12193      70576169 
 12193      74656400 
 12194              	.LASF83:
 12195 07b5 4C6F6E67 		.ascii	"Long\000"
 12195      00
 12196              	.LASF213:
 12197 07ba 70486472 		.ascii	"pHdr\000"
 12197      00
 12198              	.LASF150:
 12199 07bf 4153594E 		.ascii	"ASYNC_EVT_CLASS\000"
 12199      435F4556 
 12199      545F434C 
 12199      41535300 
 12200              	.LASF157:
 12201 07cf 4173796E 		.ascii	"AsyncExt_t\000"
 12201      63457874 
 12201      5F7400
 12202              	.LASF18:
 12203 07da 6C6F6E67 		.ascii	"long long int\000"
 12203      206C6F6E 
 12203      6720696E 
 12203      7400
 12204              	.LASF88:
 12205 07e8 5F536C43 		.ascii	"_SlCommandHeader_t\000"
 12205      6F6D6D61 
ARM GAS  C:\Users\X0217454\AppData\Local\Temp\cc7UAvFx.s 			page 249


 12205      6E644865 
 12205      61646572 
 12205      5F7400
 12206              	.LASF65:
 12207 07fb 7770735F 		.ascii	"wps_dev_password_id\000"
 12207      6465765F 
 12207      70617373 
 12207      776F7264 
 12207      5F696400 
 12208              	.LASF166:
 12209 080f 70496E69 		.ascii	"pInitCallback\000"
 12209      7443616C 
 12209      6C626163 
 12209      6B00
 12210              	.LASF24:
 12211 081d 4576656E 		.ascii	"Event\000"
 12211      7400
 12212              	.LASF202:
 12213 0823 5F536C44 		.ascii	"_SlDrvMsgRead\000"
 12213      72764D73 
 12213      67526561 
 12213      6400
 12214              	.LASF219:
 12215 0831 70497056 		.ascii	"pIpV4\000"
 12215      3400
 12216              	.LASF220:
 12217 0837 70497056 		.ascii	"pIpV6\000"
 12217      3600
 12218              	.LASF13:
 12219 083d 646F7562 		.ascii	"double\000"
 12219      6C6500
 12220              	.LASF164:
 12221 0844 476C6F62 		.ascii	"GlobalLockObj\000"
 12221      616C4C6F 
 12221      636B4F62 
 12221      6A00
 12222              	.LASF186:
 12223 0852 5F536C42 		.ascii	"_SlBasicCmdMsg_u\000"
 12223      61736963 
 12223      436D644D 
 12223      73675F75 
 12223      00
 12224              	.LASF67:
 12225 0863 6F776E5F 		.ascii	"own_ssid_len\000"
 12225      73736964 
 12225      5F6C656E 
 12225      00
 12226              	.LASF12:
 12227 0870 666C6F61 		.ascii	"float\000"
 12227      7400
 12228              	.LASF76:
 12229 0876 5032504D 		.ascii	"P2PModeNegReqReceived\000"
 12229      6F64654E 
 12229      65675265 
 12229      71526563 
 12229      65697665 
 12230              	.LASF103:
ARM GAS  C:\Users\X0217454\AppData\Local\Temp\cc7UAvFx.s 			page 250


 12231 088c 5F536F63 		.ascii	"_SocketAddrAsyncIPv6EUI48Response_t\000"
 12231      6B657441 
 12231      64647241 
 12231      73796E63 
 12231      49507636 
 12232              	.LASF17:
 12233 08b0 756E7369 		.ascii	"unsigned int\000"
 12233      676E6564 
 12233      20696E74 
 12233      00
 12234              	.LASF151:
 12235 08bd 44554D4D 		.ascii	"DUMMY_MSG_CLASS\000"
 12235      595F4D53 
 12235      475F434C 
 12235      41535300 
 12236              	.LASF245:
 12237 08cd 7050696E 		.ascii	"pPingCallBackFunc\000"
 12237      6743616C 
 12237      6C426163 
 12237      6B46756E 
 12237      6300
 12238              	.LASF73:
 12239 08df 53544161 		.ascii	"STAandP2PModeWlanConnected\000"
 12239      6E645032 
 12239      504D6F64 
 12239      65576C61 
 12239      6E436F6E 
 12240              	.LASF144:
 12241 08fa 4173796E 		.ascii	"AsyncEventHandler\000"
 12241      63457665 
 12241      6E744861 
 12241      6E646C65 
 12241      7200
 12242              	.LASF93:
 12243 090c 536F636B 		.ascii	"SocketNonBlocking\000"
 12243      65744E6F 
 12243      6E426C6F 
 12243      636B696E 
 12243      6700
 12244              	.LASF165:
 12245 091e 54656D70 		.ascii	"TempProtocolHeader\000"
 12245      50726F74 
 12245      6F636F6C 
 12245      48656164 
 12245      657200
 12246              	.LASF89:
 12247 0931 47656E48 		.ascii	"GenHeader\000"
 12247      65616465 
 12247      7200
 12248              	.LASF238:
 12249 093b 5F536C44 		.ascii	"_SlDrvObjInit\000"
 12249      72764F62 
 12249      6A496E69 
 12249      7400
 12250              	.LASF147:
 12251 0949 5F536C46 		.ascii	"_SlFlowContCB_t\000"
 12251      6C6F7743 
ARM GAS  C:\Users\X0217454\AppData\Local\Temp\cc7UAvFx.s 			page 251


 12251      6F6E7443 
 12251      425F7400 
 12252              	.LASF59:
 12253 0959 73736964 		.ascii	"ssid_name\000"
 12253      5F6E616D 
 12253      6500
 12254              	.LASF99:
 12255 0963 706F7274 		.ascii	"port\000"
 12255      00
 12256              	.LASF37:
 12257 0968 69704163 		.ascii	"ipAcquiredV4\000"
 12257      71756972 
 12257      65645634 
 12257      00
 12258              	.LASF38:
 12259 0975 69704163 		.ascii	"ipAcquiredV6\000"
 12259      71756972 
 12259      65645636 
 12259      00
 12260              	.LASF143:
 12261 0982 41637469 		.ascii	"ActionAsyncOpcode\000"
 12261      6F6E4173 
 12261      796E634F 
 12261      70636F64 
 12261      6500
 12262              	.LASF98:
 12263 0994 66616D69 		.ascii	"family\000"
 12263      6C7900
 12264              	.LASF154:
 12265 099b 41637469 		.ascii	"ActionIndex\000"
 12265      6F6E496E 
 12265      64657800 
 12266              	.LASF142:
 12267 09a7 5F536C41 		.ascii	"_SlActionLookup_t\000"
 12267      6374696F 
 12267      6E4C6F6F 
 12267      6B75705F 
 12267      7400
 12268              	.LASF105:
 12269 09b9 49705636 		.ascii	"IpV6EUI48\000"
 12269      45554934 
 12269      3800
 12270              	.LASF74:
 12271 09c3 53544161 		.ascii	"STAandP2PModeDisconnected\000"
 12271      6E645032 
 12271      504D6F64 
 12271      65446973 
 12271      636F6E6E 
 12272              	.LASF110:
 12273 09dd 54785061 		.ascii	"TxPayloadLen\000"
 12273      796C6F61 
 12273      644C656E 
 12273      00
 12274              	.LASF167:
 12275 09ea 4F626A50 		.ascii	"ObjPool\000"
 12275      6F6F6C00 
 12276              	.LASF54:
ARM GAS  C:\Users\X0217454\AppData\Local\Temp\cc7UAvFx.s 			page 252


 12277 09f2 70726976 		.ascii	"private_token\000"
 12277      6174655F 
 12277      746F6B65 
 12277      6E00
 12278              	.LASF182:
 12279 0a00 416C6967 		.ascii	"Align\000"
 12279      6E00
 12280              	.LASF39:
 12281 0a06 69704C65 		.ascii	"ipLeased\000"
 12281      61736564 
 12281      00
 12282              	.LASF175:
 12283 0a0f 466C6F77 		.ascii	"FlowContCB\000"
 12283      436F6E74 
 12283      434200
 12284              	.LASF40:
 12285 0a1a 69705265 		.ascii	"ipReleased\000"
 12285      6C656173 
 12285      656400
 12286              	.LASF170:
 12287 0a25 41637469 		.ascii	"ActivePoolIdx\000"
 12287      7665506F 
 12287      6F6C4964 
 12287      7800
 12288              	.LASF56:
 12289 0a33 736C536D 		.ascii	"slSmartConfigStopAsyncResponse_t\000"
 12289      61727443 
 12289      6F6E6669 
 12289      6753746F 
 12289      70417379 
 12290              	.LASF205:
 12291 0a54 75427566 		.ascii	"uBuf\000"
 12291      00
 12292              	.LASF218:
 12293 0a59 70576C61 		.ascii	"pWlanResp\000"
 12293      6E526573 
 12293      7000
 12294              	.LASF43:
 12295 0a63 5061636B 		.ascii	"PacketsSent\000"
 12295      65747353 
 12295      656E7400 
 12296              	.LASF135:
 12297 0a6f 434F4E4E 		.ascii	"CONNECT_ID\000"
 12297      4543545F 
 12297      494400
 12298              	.LASF109:
 12299 0a7a 5F536C43 		.ascii	"_SlCmdCtrl_t\000"
 12299      6D644374 
 12299      726C5F74 
 12299      00
 12300              	.LASF10:
 12301 0a87 6C6F6E67 		.ascii	"long long unsigned int\000"
 12301      206C6F6E 
 12301      6720756E 
 12301      7369676E 
 12301      65642069 
 12302              	.LASF169:
ARM GAS  C:\Users\X0217454\AppData\Local\Temp\cc7UAvFx.s 			page 253


 12303 0a9e 50656E64 		.ascii	"PendingPoolIdx\000"
 12303      696E6750 
 12303      6F6F6C49 
 12303      647800
 12304              	.LASF141:
 12305 0aad 52454356 		.ascii	"RECV_ID\000"
 12305      5F494400 
 12306              	.LASF251:
 12307 0ab5 2E2E5C2E 		.ascii	"..\\..\\..\\..\\..\\simplelink\\source\\driver.c\000"
 12307      2E5C2E2E 
 12307      5C2E2E5C 
 12307      2E2E5C73 
 12307      696D706C 
 12308              	.LASF50:
 12309 0adf 505F534C 		.ascii	"P_SL_DEV_PING_CALLBACK\000"
 12309      5F444556 
 12309      5F50494E 
 12309      475F4341 
 12309      4C4C4241 
 12310              	.LASF35:
 12311 0af6 72656173 		.ascii	"reason\000"
 12311      6F6E00
 12312              	.LASF183:
 12313 0afd 44726976 		.ascii	"DriverCB\000"
 12313      65724342 
 12313      00
 12314              	.LASF148:
 12315 0b06 52454356 		.ascii	"RECV_RESP_CLASS\000"
 12315      5F524553 
 12315      505F434C 
 12315      41535300 
 12316              	.LASF249:
 12317 0b16 675F5374 		.ascii	"g_StatMem\000"
 12317      61744D65 
 12317      6D00
 12318              	.LASF246:
 12319 0b20 675F4832 		.ascii	"g_H2NSyncPattern\000"
 12319      4E53796E 
 12319      63506174 
 12319      7465726E 
 12319      00
 12320              	.LASF239:
 12321 0b31 5F536C52 		.ascii	"_SlRemoveFromList\000"
 12321      656D6F76 
 12321      6546726F 
 12321      6D4C6973 
 12321      7400
 12322              	.LASF102:
 12323 0b43 5F536F63 		.ascii	"_SocketAddrAsyncIPv4Response_t\000"
 12323      6B657441 
 12323      64647241 
 12323      73796E63 
 12323      49507634 
 12324              	.LASF181:
 12325 0b62 5F536C44 		.ascii	"_SlDriverCb_t\000"
 12325      72697665 
 12325      7243625F 
ARM GAS  C:\Users\X0217454\AppData\Local\Temp\cc7UAvFx.s 			page 254


 12325      7400
 12326              	.LASF112:
 12327 0b70 41637475 		.ascii	"ActualRxPayloadLen\000"
 12327      616C5278 
 12327      5061796C 
 12327      6F61644C 
 12327      656E00
 12328              	.LASF53:
 12329 0b83 70726976 		.ascii	"private_token_len\000"
 12329      6174655F 
 12329      746F6B65 
 12329      6E5F6C65 
 12329      6E00
 12330              	.LASF81:
 12331 0b95 4F70636F 		.ascii	"Opcode\000"
 12331      646500
 12332              	.LASF184:
 12333 0b9c 4173796E 		.ascii	"AsyncRespBuf\000"
 12333      63526573 
 12333      70427566 
 12333      00
 12334              	.LASF113:
 12335 0ba9 70547850 		.ascii	"pTxPayload\000"
 12335      61796C6F 
 12335      616400
 12336              	.LASF212:
 12337 0bb4 5F536C41 		.ascii	"_SlAsyncEventGenericHandler\000"
 12337      73796E63 
 12337      4576656E 
 12337      7447656E 
 12337      65726963 
 12338              	.LASF195:
 12339 0bd0 5F536C44 		.ascii	"_SlDrvDataReadOp\000"
 12339      72764461 
 12339      74615265 
 12339      61644F70 
 12339      00
 12340              	.LASF228:
 12341 0be1 5F536C44 		.ascii	"_SlDrvRxHdrRead\000"
 12341      72765278 
 12341      48647252 
 12341      65616400 
 12342              	.LASF2:
 12343 0bf1 55494E54 		.ascii	"UINT8\000"
 12343      3800
 12344              	.LASF145:
 12345 0bf7 54784C6F 		.ascii	"TxLockObj\000"
 12345      636B4F62 
 12345      6A00
 12346              	.LASF134:
 12347 0c01 41434345 		.ascii	"ACCEPT_ID\000"
 12347      50545F49 
 12347      4400
 12348              	.LASF108:
 12349 0c0b 52784465 		.ascii	"RxDescLen\000"
 12349      73634C65 
 12349      6E00
ARM GAS  C:\Users\X0217454\AppData\Local\Temp\cc7UAvFx.s 			page 255


 12350              	.LASF66:
 12351 0c15 6F776E5F 		.ascii	"own_ssid\000"
 12351      73736964 
 12351      00
 12352              	.LASF231:
 12353 0c1e 5F536C44 		.ascii	"_SlDrvBasicCmd\000"
 12353      72764261 
 12353      73696343 
 12353      6D6400
 12354              	.LASF42:
 12355 0c2d 536C4E65 		.ascii	"SlNetAppEvent_t\000"
 12355      74417070 
 12355      4576656E 
 12355      745F7400 
 12356              	.LASF225:
 12357 0c3d 5F536C44 		.ascii	"_SlDrvShiftDWord\000"
 12357      72765368 
 12357      69667444 
 12357      576F7264 
 12357      00
 12358              	.LASF26:
 12359 0c4e 536C536F 		.ascii	"SlSockEvent_t\000"
 12359      636B4576 
 12359      656E745F 
 12359      7400
 12360              	.LASF72:
 12361 0c5c 41504D6F 		.ascii	"APModestaDisconnected\000"
 12361      64657374 
 12361      61446973 
 12361      636F6E6E 
 12361      65637465 
 12362              	.LASF63:
 12363 0c72 72656173 		.ascii	"reason_code\000"
 12363      6F6E5F63 
 12363      6F646500 
 12364              	.LASF4:
 12365 0c7e 73686F72 		.ascii	"short int\000"
 12365      7420696E 
 12365      7400
 12366              	.LASF91:
 12367 0c88 44657653 		.ascii	"DevStatus\000"
 12367      74617475 
 12367      7300
 12368              	.LASF217:
 12369 0c92 70526573 		.ascii	"pResp\000"
 12369      7000
 12370              	.LASF226:
 12371 0c98 70427566 		.ascii	"pBuf\000"
 12371      00
 12372              	.LASF69:
 12373 0c9d 736D6172 		.ascii	"smartConfigStartResponse\000"
 12373      74436F6E 
 12373      66696753 
 12373      74617274 
 12373      52657370 
 12374              	.LASF100:
 12375 0cb6 70616464 		.ascii	"paddingOrAddr\000"
ARM GAS  C:\Users\X0217454\AppData\Local\Temp\cc7UAvFx.s 			page 256


 12375      696E674F 
 12375      72416464 
 12375      7200
 12376              	.LASF146:
 12377 0cc4 54785379 		.ascii	"TxSyncObj\000"
 12377      6E634F62 
 12377      6A00
 12378              	.LASF137:
 12379 0cce 47455448 		.ascii	"GETHOSYBYNAME_ID\000"
 12379      4F535942 
 12379      594E414D 
 12379      455F4944 
 12379      00
 12380              	.LASF44:
 12381 0cdf 5061636B 		.ascii	"PacketsReceived\000"
 12381      65747352 
 12381      65636569 
 12381      76656400 
 12382              	.LASF90:
 12383 0cef 5478506F 		.ascii	"TxPoolCnt\000"
 12383      6F6C436E 
 12383      7400
 12384              	.LASF187:
 12385 0cf9 5F526574 		.ascii	"_RetVal\000"
 12385      56616C00 
 12386              	.LASF31:
 12387 0d01 69705F61 		.ascii	"ip_address\000"
 12387      64647265 
 12387      737300
 12388              	.LASF27:
 12389 0d0c 67617465 		.ascii	"gateway\000"
 12389      77617900 
 12390              	.LASF140:
 12391 0d14 53544152 		.ascii	"START_STOP_ID\000"
 12391      545F5354 
 12391      4F505F49 
 12391      4400
 12392              	.LASF80:
 12393 0d22 505F494E 		.ascii	"P_INIT_CALLBACK\000"
 12393      49545F43 
 12393      414C4C42 
 12393      41434B00 
 12394              	.LASF33:
 12395 0d32 70616464 		.ascii	"padding\000"
 12395      696E6700 
 12396              	.LASF207:
 12397 0d3a 4C656E67 		.ascii	"LengthToCopy\000"
 12397      7468546F 
 12397      436F7079 
 12397      00
 12398              	.LASF21:
 12399 0d47 5F536C4E 		.ascii	"_SlNonOsSemObj_t\000"
 12399      6F6E4F73 
 12399      53656D4F 
 12399      626A5F74 
 12399      00
 12400              	.LASF222:
ARM GAS  C:\Users\X0217454\AppData\Local\Temp\cc7UAvFx.s 			page 257


 12401 0d58 5F536C44 		.ascii	"_SlDrvMsgReadCmdCtx\000"
 12401      72764D73 
 12401      67526561 
 12401      64436D64 
 12401      43747800 
 12402              	.LASF153:
 12403 0d6c 70417379 		.ascii	"pAsyncBuf\000"
 12403      6E634275 
 12403      6600
 12404              	.LASF55:
 12405 0d76 736C536D 		.ascii	"slSmartConfigStartAsyncResponse_t\000"
 12405      61727443 
 12405      6F6E6669 
 12405      67537461 
 12405      72744173 
 12406              	.LASF133:
 12407 0d98 4D41585F 		.ascii	"MAX_SOCKET_ENUM_IDX\000"
 12407      534F434B 
 12407      45545F45 
 12407      4E554D5F 
 12407      49445800 
 12408              	.LASF171:
 12409 0dac 41637469 		.ascii	"ActiveActionsBitmap\000"
 12409      76654163 
 12409      74696F6E 
 12409      73426974 
 12409      6D617000 
 12410              	.LASF6:
 12411 0dc0 73686F72 		.ascii	"short unsigned int\000"
 12411      7420756E 
 12411      7369676E 
 12411      65642069 
 12411      6E7400
 12412              	.LASF94:
 12413 0dd3 5F536C52 		.ascii	"_SlResponseHeader_t\000"
 12413      6573706F 
 12413      6E736548 
 12413      65616465 
 12413      725F7400 
 12414              	.LASF16:
 12415 0de7 5F536C52 		.ascii	"_SlReturnVal_t\000"
 12415      65747572 
 12415      6E56616C 
 12415      5F7400
 12416              	.LASF241:
 12417 0df6 4974656D 		.ascii	"ItemIndex\000"
 12417      496E6465 
 12417      7800
 12418              	.LASF162:
 12419 0e00 4173796E 		.ascii	"AsyncExt\000"
 12419      63457874 
 12419      00
 12420              	.LASF152:
 12421 0e09 5F536C52 		.ascii	"_SlRxMsgClass_e\000"
 12421      784D7367 
 12421      436C6173 
 12421      735F6500 
ARM GAS  C:\Users\X0217454\AppData\Local\Temp\cc7UAvFx.s 			page 258


 12422              	.LASF122:
 12423 0e19 41637469 		.ascii	"ActionID\000"
 12423      6F6E4944 
 12423      00
 12424              	.LASF136:
 12425 0e22 53454C45 		.ascii	"SELECT_ID\000"
 12425      43545F49 
 12425      4400
 12426              	.LASF117:
 12427 0e2c 70446174 		.ascii	"pData\000"
 12427      6100
 12428              	.LASF58:
 12429 0e32 636F6E6E 		.ascii	"connection_type\000"
 12429      65637469 
 12429      6F6E5F74 
 12429      79706500 
 12430              	.LASF163:
 12431 0e42 5F536C46 		.ascii	"_SlFunctionParams_t\000"
 12431      756E6374 
 12431      696F6E50 
 12431      6172616D 
 12431      735F7400 
 12432              	.LASF203:
 12433 0e56 54656D70 		.ascii	"TempBuf\000"
 12433      42756600 
 12434              	.LASF51:
 12435 0e5e 73736964 		.ascii	"ssid_len\000"
 12435      5F6C656E 
 12435      00
 12436              		.ident	"GCC: (GNU Tools for ARM Embedded Processors) 4.7.3 20130312 (release) [ARM/embedded-4_7-br
