ARM GAS  C:\Users\X0217454\AppData\Local\Temp\cc7UAvFx.s 			page 1


   1              		.cpu cortex-m0
   2              		.fpu softvfp
   3              		.eabi_attribute 20, 1
   4              		.eabi_attribute 21, 1
   5              		.eabi_attribute 23, 3
   6              		.eabi_attribute 24, 1
   7              		.eabi_attribute 25, 1
   8              		.eabi_attribute 26, 1
   9              		.eabi_attribute 30, 6
  10              		.eabi_attribute 34, 0
  11              		.eabi_attribute 18, 4
  12              		.code	16
  13              		.file	"driver.c"
  14              		.text
  15              	.Ltext0:
  16              		.cfi_sections	.debug_frame
  17              		.global	g_pCB
  18              		.bss
  19              		.align	2
  20              		.type	g_pCB, %object
  21              		.size	g_pCB, 4
  22              	g_pCB:
  23 0000 00000000 		.space	4
  24              		.global	pPingCallBackFunc
  25              		.align	2
  26              		.type	pPingCallBackFunc, %object
  27              		.size	pPingCallBackFunc, 4
  28              	pPingCallBackFunc:
  29 0004 00000000 		.space	4
  30              		.global	g_H2NSyncPattern
  31              		.section	.rodata
  32              		.align	2
  33              		.type	g_H2NSyncPattern, %object
  34              		.size	g_H2NSyncPattern, 8
  35              	g_H2NSyncPattern:
  36 0000 FFEEDDBB 		.word	-1143083265
  37 0004 2143     		.short	17185
  38 0006 34       		.byte	52
  39 0007 12       		.byte	18
  40              		.global	g_H2NCnysPattern
  41              		.align	2
  42              		.type	g_H2NCnysPattern, %object
  43              		.size	g_H2NCnysPattern, 8
  44              	g_H2NCnysPattern:
  45 0008 FFEEDDBB 		.word	-1143083265
  46 000c 6587     		.short	-30875
  47 000e 78       		.byte	120
  48 000f 56       		.byte	86
  49              		.global	_SlActionLookupTable
  50              		.align	2
  51              		.type	_SlActionLookupTable, %object
  52              		.size	_SlActionLookupTable, 56
  53              	_SlActionLookupTable:
  54 0010 08       		.byte	8
  55 0011 00       		.space	1
  56 0012 0310     		.short	4099
  57 0014 00000000 		.word	_sl_HandleAsync_Accept
ARM GAS  C:\Users\X0217454\AppData\Local\Temp\cc7UAvFx.s 			page 2


  58 0018 09       		.byte	9
  59 0019 00       		.space	1
  60 001a 0610     		.short	4102
  61 001c 00000000 		.word	_sl_HandleAsync_Connect
  62 0020 0A       		.byte	10
  63 0021 00       		.space	1
  64 0022 0710     		.short	4103
  65 0024 00000000 		.word	_sl_HandleAsync_Select
  66 0028 0B       		.byte	11
  67 0029 00       		.space	1
  68 002a 2018     		.short	6176
  69 002c 00000000 		.word	_sl_HandleAsync_DnsGetHostByName
  70 0030 0C       		.byte	12
  71 0031 00       		.space	1
  72 0032 3518     		.short	6197
  73 0034 00000000 		.word	_sl_HandleAsync_DnsGetHostByService
  74 0038 0D       		.byte	13
  75 0039 00       		.space	1
  76 003a 2218     		.short	6178
  77 003c 00000000 		.word	_sl_HandleAsync_PingResponse
  78 0040 0E       		.byte	14
  79 0041 00       		.space	1
  80 0042 7300     		.short	115
  81 0044 00000000 		.word	_sl_HandleAsync_Stop
  82              		.comm	g_StatMem,356,4
  83              		.section	.text._SlDrvDriverCBInit,"ax",%progbits
  84              		.align	2
  85              		.global	_SlDrvDriverCBInit
  86              		.code	16
  87              		.thumb_func
  88              		.type	_SlDrvDriverCBInit, %function
  89              	_SlDrvDriverCBInit:
  90              	.LFB0:
  91              		.file 1 "..\\..\\..\\..\\..\\simplelink\\source\\driver.c"
   1:..\..\..\..\..\simplelink\source/driver.c **** /*
   2:..\..\..\..\..\simplelink\source/driver.c ****  * driver.c - CC31xx/CC32xx Host Driver Implementation
   3:..\..\..\..\..\simplelink\source/driver.c ****  *
   4:..\..\..\..\..\simplelink\source/driver.c ****  * Copyright (C) 2014 Texas Instruments Incorporated - http://www.ti.com/ 
   5:..\..\..\..\..\simplelink\source/driver.c ****  * 
   6:..\..\..\..\..\simplelink\source/driver.c ****  * 
   7:..\..\..\..\..\simplelink\source/driver.c ****  *  Redistribution and use in source and binary forms, with or without 
   8:..\..\..\..\..\simplelink\source/driver.c ****  *  modification, are permitted provided that the following conditions 
   9:..\..\..\..\..\simplelink\source/driver.c ****  *  are met:
  10:..\..\..\..\..\simplelink\source/driver.c ****  *
  11:..\..\..\..\..\simplelink\source/driver.c ****  *    Redistributions of source code must retain the above copyright 
  12:..\..\..\..\..\simplelink\source/driver.c ****  *    notice, this list of conditions and the following disclaimer.
  13:..\..\..\..\..\simplelink\source/driver.c ****  *
  14:..\..\..\..\..\simplelink\source/driver.c ****  *    Redistributions in binary form must reproduce the above copyright
  15:..\..\..\..\..\simplelink\source/driver.c ****  *    notice, this list of conditions and the following disclaimer in the 
  16:..\..\..\..\..\simplelink\source/driver.c ****  *    documentation and/or other materials provided with the   
  17:..\..\..\..\..\simplelink\source/driver.c ****  *    distribution.
  18:..\..\..\..\..\simplelink\source/driver.c ****  *
  19:..\..\..\..\..\simplelink\source/driver.c ****  *    Neither the name of Texas Instruments Incorporated nor the names of
  20:..\..\..\..\..\simplelink\source/driver.c ****  *    its contributors may be used to endorse or promote products derived
  21:..\..\..\..\..\simplelink\source/driver.c ****  *    from this software without specific prior written permission.
  22:..\..\..\..\..\simplelink\source/driver.c ****  *
  23:..\..\..\..\..\simplelink\source/driver.c ****  *  THIS SOFTWARE IS PROVIDED BY THE COPYRIGHT HOLDERS AND CONTRIBUTORS 
ARM GAS  C:\Users\X0217454\AppData\Local\Temp\cc7UAvFx.s 			page 3


  24:..\..\..\..\..\simplelink\source/driver.c ****  *  "AS IS" AND ANY EXPRESS OR IMPLIED WARRANTIES, INCLUDING, BUT NOT 
  25:..\..\..\..\..\simplelink\source/driver.c ****  *  LIMITED TO, THE IMPLIED WARRANTIES OF MERCHANTABILITY AND FITNESS FOR
  26:..\..\..\..\..\simplelink\source/driver.c ****  *  A PARTICULAR PURPOSE ARE DISCLAIMED. IN NO EVENT SHALL THE COPYRIGHT 
  27:..\..\..\..\..\simplelink\source/driver.c ****  *  OWNER OR CONTRIBUTORS BE LIABLE FOR ANY DIRECT, INDIRECT, INCIDENTAL, 
  28:..\..\..\..\..\simplelink\source/driver.c ****  *  SPECIAL, EXEMPLARY, OR CONSEQUENTIAL DAMAGES (INCLUDING, BUT NOT 
  29:..\..\..\..\..\simplelink\source/driver.c ****  *  LIMITED TO, PROCUREMENT OF SUBSTITUTE GOODS OR SERVICES; LOSS OF USE,
  30:..\..\..\..\..\simplelink\source/driver.c ****  *  DATA, OR PROFITS; OR BUSINESS INTERRUPTION) HOWEVER CAUSED AND ON ANY
  31:..\..\..\..\..\simplelink\source/driver.c ****  *  THEORY OF LIABILITY, WHETHER IN CONTRACT, STRICT LIABILITY, OR TORT 
  32:..\..\..\..\..\simplelink\source/driver.c ****  *  (INCLUDING NEGLIGENCE OR OTHERWISE) ARISING IN ANY WAY OUT OF THE USE 
  33:..\..\..\..\..\simplelink\source/driver.c ****  *  OF THIS SOFTWARE, EVEN IF ADVISED OF THE POSSIBILITY OF SUCH DAMAGE.
  34:..\..\..\..\..\simplelink\source/driver.c ****  *
  35:..\..\..\..\..\simplelink\source/driver.c **** */
  36:..\..\..\..\..\simplelink\source/driver.c **** 
  37:..\..\..\..\..\simplelink\source/driver.c **** #include "datatypes.h"
  38:..\..\..\..\..\simplelink\source/driver.c **** #include "simplelink.h"
  39:..\..\..\..\..\simplelink\source/driver.c **** #include "protocol.h"
  40:..\..\..\..\..\simplelink\source/driver.c **** #include "driver.h"
  41:..\..\..\..\..\simplelink\source/driver.c **** #include "flowcont.h"
  42:..\..\..\..\..\simplelink\source/driver.c **** 
  43:..\..\..\..\..\simplelink\source/driver.c **** #define          _SL_PENDING_RX_MSG(pDriverCB)   ((pDriverCB)->RxIrqCnt != (pDriverCB)->RxDoneCnt)
  44:..\..\..\..\..\simplelink\source/driver.c **** _SlReturnVal_t   _SlDrvMsgRead(void);
  45:..\..\..\..\..\simplelink\source/driver.c **** _SlReturnVal_t   _SlDrvMsgWrite(void);
  46:..\..\..\..\..\simplelink\source/driver.c **** _SlReturnVal_t   _SlDrvMsgReadCmdCtx(void);
  47:..\..\..\..\..\simplelink\source/driver.c **** _SlReturnVal_t   _SlDrvMsgReadSpawnCtx(void *pValue);
  48:..\..\..\..\..\simplelink\source/driver.c **** void             _SlDrvClassifyRxMsg(_SlOpcode_t Opcode );
  49:..\..\..\..\..\simplelink\source/driver.c **** _SlReturnVal_t   _SlDrvRxHdrRead(UINT8 *pBuf, UINT8 *pAlignSize);
  50:..\..\..\..\..\simplelink\source/driver.c **** void             _SlDrvShiftDWord(UINT8 *pBuf);
  51:..\..\..\..\..\simplelink\source/driver.c **** void             _SlDrvDriverCBInit(void);
  52:..\..\..\..\..\simplelink\source/driver.c **** void             _SlAsyncEventGenericHandler(void);
  53:..\..\..\..\..\simplelink\source/driver.c **** int				 _SlDrvWaitForPoolObj(UINT32 ActionID, UINT8 SocketID);
  54:..\..\..\..\..\simplelink\source/driver.c **** void			 _SlDrvReleasePoolObj(UINT8 pObj);
  55:..\..\..\..\..\simplelink\source/driver.c **** void			 _SlDrvObjInit(void);
  56:..\..\..\..\..\simplelink\source/driver.c **** void			 _SlDrvObjDeInit(void);
  57:..\..\..\..\..\simplelink\source/driver.c **** void			 _SlRemoveFromList(UINT8* ListIndex, UINT8 ItemIndex);
  58:..\..\..\..\..\simplelink\source/driver.c **** _SlReturnVal_t	 _SlFindAndSetActiveObj(_SlOpcode_t  Opcode, UINT8 Sd);
  59:..\..\..\..\..\simplelink\source/driver.c **** _SlDriverCb_t* g_pCB = NULL;
  60:..\..\..\..\..\simplelink\source/driver.c **** P_SL_DEV_PING_CALLBACK  pPingCallBackFunc = NULL;
  61:..\..\..\..\..\simplelink\source/driver.c **** 
  62:..\..\..\..\..\simplelink\source/driver.c **** const _SlSyncPattern_t g_H2NSyncPattern = H2N_SYNC_PATTERN;
  63:..\..\..\..\..\simplelink\source/driver.c **** const _SlSyncPattern_t g_H2NCnysPattern = H2N_CNYS_PATTERN;
  64:..\..\..\..\..\simplelink\source/driver.c **** const _SlActionLookup_t _SlActionLookupTable[7] = 
  65:..\..\..\..\..\simplelink\source/driver.c **** {
  66:..\..\..\..\..\simplelink\source/driver.c ****     {ACCEPT_ID, SL_OPCODE_SOCKET_ACCEPTASYNCRESPONSE, (_SlSpawnEntryFunc_t)_sl_HandleAsync_Accept},
  67:..\..\..\..\..\simplelink\source/driver.c ****     {CONNECT_ID, SL_OPCODE_SOCKET_CONNECTASYNCRESPONSE,(_SlSpawnEntryFunc_t)_sl_HandleAsync_Connect
  68:..\..\..\..\..\simplelink\source/driver.c **** 	{SELECT_ID, SL_OPCODE_SOCKET_SELECTASYNCRESPONSE,(_SlSpawnEntryFunc_t)_sl_HandleAsync_Select},
  69:..\..\..\..\..\simplelink\source/driver.c **** 	{GETHOSYBYNAME_ID, SL_OPCODE_NETAPP_DNSGETHOSTBYNAMEASYNCRESPONSE,(_SlSpawnEntryFunc_t)_sl_HandleA
  70:..\..\..\..\..\simplelink\source/driver.c **** 	{GETHOSYBYSERVICE_ID, SL_OPCODE_NETAPP_MDNSGETHOSTBYSERVICEASYNCRESPONSE,(_SlSpawnEntryFunc_t)_sl_
  71:..\..\..\..\..\simplelink\source/driver.c ****     {PING_ID, SL_OPCODE_NETAPP_PINGREPORTREQUESTRESPONSE, (_SlSpawnEntryFunc_t)_sl_HandleAsync_Ping
  72:..\..\..\..\..\simplelink\source/driver.c **** 	{START_STOP_ID, SL_OPCODE_DEVICE_STOP_ASYNC_RESPONSE,(_SlSpawnEntryFunc_t)_sl_HandleAsync_Stop}
  73:..\..\..\..\..\simplelink\source/driver.c ****     
  74:..\..\..\..\..\simplelink\source/driver.c **** };
  75:..\..\..\..\..\simplelink\source/driver.c **** 
  76:..\..\..\..\..\simplelink\source/driver.c **** 
  77:..\..\..\..\..\simplelink\source/driver.c **** 
  78:..\..\..\..\..\simplelink\source/driver.c **** /*  2 LSB of the N2H_SYNC_PATTERN are for sequence number 
  79:..\..\..\..\..\simplelink\source/driver.c ****     only in SPI interface
  80:..\..\..\..\..\simplelink\source/driver.c ****     support backward sync pattern */
ARM GAS  C:\Users\X0217454\AppData\Local\Temp\cc7UAvFx.s 			page 4


  81:..\..\..\..\..\simplelink\source/driver.c **** #define N2H_SYNC_PATTERN_SEQ_NUM_BITS            ((UINT32)0x00000003) /* Bits 0..1    - use the 2 L
  82:..\..\..\..\..\simplelink\source/driver.c **** #define N2H_SYNC_PATTERN_SEQ_NUM_EXISTS          ((UINT32)0x00000004) /* Bit  2       - sign that s
  83:..\..\..\..\..\simplelink\source/driver.c **** #define N2H_SYNC_PATTERN_MASK                    ((UINT32)0xFFFFFFF8) /* Bits 3..31   - constant SY
  84:..\..\..\..\..\simplelink\source/driver.c **** #define N2H_SYNC_SPI_BUGS_MASK                   ((UINT32)0x7FFF7F7F) /* Bits 7,15,31 - ignore the 
  85:..\..\..\..\..\simplelink\source/driver.c **** #define BUF_SYNC_SPIM(pBuf)                      ((*(UINT32 *)(pBuf)) & N2H_SYNC_SPI_BUGS_MASK)
  86:..\..\..\..\..\simplelink\source/driver.c **** #define N2H_SYNC_SPIM                            (N2H_SYNC_PATTERN    & N2H_SYNC_SPI_BUGS_MASK)
  87:..\..\..\..\..\simplelink\source/driver.c **** #define N2H_SYNC_SPIM_WITH_SEQ(TxSeqNum)         ((N2H_SYNC_SPIM & N2H_SYNC_PATTERN_MASK) | N2H_SYN
  88:..\..\..\..\..\simplelink\source/driver.c **** #define MATCH_WOUT_SEQ_NUM(pBuf)                 ( BUF_SYNC_SPIM(pBuf) ==  N2H_SYNC_SPIM )
  89:..\..\..\..\..\simplelink\source/driver.c **** #define MATCH_WITH_SEQ_NUM(pBuf, TxSeqNum)       ( BUF_SYNC_SPIM(pBuf) == (N2H_SYNC_SPIM_WITH_SEQ(T
  90:..\..\..\..\..\simplelink\source/driver.c **** #define N2H_SYNC_PATTERN_MATCH(pBuf, TxSeqNum) \
  91:..\..\..\..\..\simplelink\source/driver.c ****             ( \
  92:..\..\..\..\..\simplelink\source/driver.c ****                  (  (*((UINT32 *)pBuf) & N2H_SYNC_PATTERN_SEQ_NUM_EXISTS) && ( MATCH_WITH_SEQ_NUM(p
  93:..\..\..\..\..\simplelink\source/driver.c ****                  ( !(*((UINT32 *)pBuf) & N2H_SYNC_PATTERN_SEQ_NUM_EXISTS) && ( MATCH_WOUT_SEQ_NUM(p
  94:..\..\..\..\..\simplelink\source/driver.c ****             )
  95:..\..\..\..\..\simplelink\source/driver.c **** 
  96:..\..\..\..\..\simplelink\source/driver.c **** #if (SL_MEMORY_MGMT == SL_MEMORY_MGMT_STATIC)
  97:..\..\..\..\..\simplelink\source/driver.c **** typedef struct
  98:..\..\..\..\..\simplelink\source/driver.c **** {
  99:..\..\..\..\..\simplelink\source/driver.c **** 	UINT32 Align;
 100:..\..\..\..\..\simplelink\source/driver.c ****     _SlDriverCb_t DriverCB;
 101:..\..\..\..\..\simplelink\source/driver.c ****     UINT8 AsyncRespBuf[SL_ASYNC_MAX_MSG_LEN];
 102:..\..\..\..\..\simplelink\source/driver.c **** }_SlStatMem_t;
 103:..\..\..\..\..\simplelink\source/driver.c **** 
 104:..\..\..\..\..\simplelink\source/driver.c **** _SlStatMem_t g_StatMem;
 105:..\..\..\..\..\simplelink\source/driver.c **** #endif
 106:..\..\..\..\..\simplelink\source/driver.c **** 
 107:..\..\..\..\..\simplelink\source/driver.c **** /*****************************************************************************
 108:..\..\..\..\..\simplelink\source/driver.c ****  _SlDrvDriverCBInit
 109:..\..\..\..\..\simplelink\source/driver.c **** *****************************************************************************/
 110:..\..\..\..\..\simplelink\source/driver.c **** 
 111:..\..\..\..\..\simplelink\source/driver.c **** void _SlDrvDriverCBInit(void)
 112:..\..\..\..\..\simplelink\source/driver.c **** {
  92              		.loc 1 112 0
  93              		.cfi_startproc
  94 0000 80B5     		push	{r7, lr}
  95              	.LCFI0:
  96              		.cfi_def_cfa_offset 8
  97              		.cfi_offset 7, -8
  98              		.cfi_offset 14, -4
  99 0002 86B0     		sub	sp, sp, #24
 100              	.LCFI1:
 101              		.cfi_def_cfa_offset 32
 102 0004 00AF     		add	r7, sp, #0
 103              	.LCFI2:
 104              		.cfi_def_cfa_register 7
 113:..\..\..\..\..\simplelink\source/driver.c ****     UINT8          Idx;
 114:..\..\..\..\..\simplelink\source/driver.c **** 
 115:..\..\..\..\..\simplelink\source/driver.c **** #if (SL_MEMORY_MGMT == SL_MEMORY_MGMT_STATIC)
 116:..\..\..\..\..\simplelink\source/driver.c ****     g_pCB = &(g_StatMem.DriverCB);
 105              		.loc 1 116 0
 106 0006 3E4B     		ldr	r3, .L14
 107 0008 3E4A     		ldr	r2, .L14+4
 108 000a 1A60     		str	r2, [r3]
 117:..\..\..\..\..\simplelink\source/driver.c **** #else
 118:..\..\..\..\..\simplelink\source/driver.c ****     g_pCB = sl_Malloc(sizeof(_SlDriverCb_t));
 119:..\..\..\..\..\simplelink\source/driver.c **** #endif
 120:..\..\..\..\..\simplelink\source/driver.c ****     MALLOC_OK_CHECK(g_pCB);
ARM GAS  C:\Users\X0217454\AppData\Local\Temp\cc7UAvFx.s 			page 5


 109              		.loc 1 120 0
 110 000c 3C4B     		ldr	r3, .L14
 111 000e 1B68     		ldr	r3, [r3]
 112 0010 002B     		cmp	r3, #0
 113 0012 00D1     		bne	.L2
 114              	.L3:
 115              		.loc 1 120 0 is_stmt 0 discriminator 1
 116 0014 FEE7     		b	.L3
 117              	.L2:
 121:..\..\..\..\..\simplelink\source/driver.c **** 
 122:..\..\..\..\..\simplelink\source/driver.c ****     sl_Memset((g_pCB), 0, sizeof(_SlDriverCb_t));
 118              		.loc 1 122 0 is_stmt 1
 119 0016 3A4B     		ldr	r3, .L14
 120 0018 1B68     		ldr	r3, [r3]
 121 001a 181C     		mov	r0, r3
 122 001c 0021     		mov	r1, #0
 123 001e B822     		mov	r2, #184
 124 0020 FFF7FEFF 		bl	memset
 125              	.LBB2:
 123:..\..\..\..\..\simplelink\source/driver.c **** 
 124:..\..\..\..\..\simplelink\source/driver.c ****     OSI_RET_OK_CHECK( sl_SyncObjCreate(&g_pCB->CmdSyncObj, "CmdSyncObj") );
 126              		.loc 1 124 0
 127 0024 364B     		ldr	r3, .L14
 128 0026 1B68     		ldr	r3, [r3]
 129 0028 9133     		add	r3, r3, #145
 130 002a 181C     		mov	r0, r3
 131 002c 1121     		mov	r1, #17
 132 002e FFF7FEFF 		bl	_SlNonOsSemSet
 133 0032 031C     		mov	r3, r0
 134 0034 3B61     		str	r3, [r7, #16]
 135 0036 3B69     		ldr	r3, [r7, #16]
 136 0038 002B     		cmp	r3, #0
 137 003a 00D0     		beq	.L4
 138              	.L5:
 139              		.loc 1 124 0 is_stmt 0 discriminator 1
 140 003c FEE7     		b	.L5
 141              	.L4:
 142              	.LBE2:
 125:..\..\..\..\..\simplelink\source/driver.c ****     sl_SyncObjClear(&g_pCB->CmdSyncObj);
 143              		.loc 1 125 0 is_stmt 1
 144 003e 304B     		ldr	r3, .L14
 145 0040 1B68     		ldr	r3, [r3]
 146 0042 9133     		add	r3, r3, #145
 147 0044 181C     		mov	r0, r3
 148 0046 2221     		mov	r1, #34
 149 0048 1122     		mov	r2, #17
 150 004a 0123     		mov	r3, #1
 151 004c FFF7FEFF 		bl	_SlNonOsSemGet
 152              	.LBB3:
 126:..\..\..\..\..\simplelink\source/driver.c ****     
 127:..\..\..\..\..\simplelink\source/driver.c ****     OSI_RET_OK_CHECK( sl_LockObjCreate(&g_pCB->GlobalLockObj, "GlobalLockObj") );
 153              		.loc 1 127 0
 154 0050 2B4B     		ldr	r3, .L14
 155 0052 1B68     		ldr	r3, [r3]
 156 0054 0433     		add	r3, r3, #4
 157 0056 181C     		mov	r0, r3
 158 0058 3321     		mov	r1, #51
ARM GAS  C:\Users\X0217454\AppData\Local\Temp\cc7UAvFx.s 			page 6


 159 005a FFF7FEFF 		bl	_SlNonOsSemSet
 160 005e 031C     		mov	r3, r0
 161 0060 FB60     		str	r3, [r7, #12]
 162 0062 FB68     		ldr	r3, [r7, #12]
 163 0064 002B     		cmp	r3, #0
 164 0066 00D0     		beq	.L6
 165              	.L7:
 166              		.loc 1 127 0 is_stmt 0 discriminator 1
 167 0068 FEE7     		b	.L7
 168              	.L6:
 169              	.LBE3:
 170              	.LBB4:
 128:..\..\..\..\..\simplelink\source/driver.c **** 
 129:..\..\..\..\..\simplelink\source/driver.c **** 	OSI_RET_OK_CHECK( sl_LockObjCreate(&g_pCB->ProtectionLockObj, "ProtectionLockObj") );
 171              		.loc 1 129 0 is_stmt 1
 172 006a 254B     		ldr	r3, .L14
 173 006c 1B68     		ldr	r3, [r3]
 174 006e 9033     		add	r3, r3, #144
 175 0070 181C     		mov	r0, r3
 176 0072 3321     		mov	r1, #51
 177 0074 FFF7FEFF 		bl	_SlNonOsSemSet
 178 0078 031C     		mov	r3, r0
 179 007a BB60     		str	r3, [r7, #8]
 180 007c BB68     		ldr	r3, [r7, #8]
 181 007e 002B     		cmp	r3, #0
 182 0080 00D0     		beq	.L8
 183              	.L9:
 184              		.loc 1 129 0 is_stmt 0 discriminator 1
 185 0082 FEE7     		b	.L9
 186              	.L8:
 187              	.LBE4:
 130:..\..\..\..\..\simplelink\source/driver.c **** 	
 131:..\..\..\..\..\simplelink\source/driver.c **** 	_SlDrvObjInit();
 188              		.loc 1 131 0 is_stmt 1
 189 0084 FFF7FEFF 		bl	_SlDrvObjInit
 132:..\..\..\..\..\simplelink\source/driver.c **** 
 133:..\..\..\..\..\simplelink\source/driver.c ****     for (Idx = 0; Idx < MAX_CONCURRENT_ACTIONS; Idx++)
 190              		.loc 1 133 0
 191 0088 3B1C     		mov	r3, r7
 192 008a 1733     		add	r3, r3, #23
 193 008c 0022     		mov	r2, #0
 194 008e 1A70     		strb	r2, [r3]
 195 0090 2CE0     		b	.L10
 196              	.L13:
 197              	.LBB5:
 134:..\..\..\..\..\simplelink\source/driver.c ****     {
 135:..\..\..\..\..\simplelink\source/driver.c **** 		OSI_RET_OK_CHECK( sl_SyncObjCreate(&g_pCB->ObjPool[Idx].SyncObj, "SyncObj") );  
 198              		.loc 1 135 0
 199 0092 1B4B     		ldr	r3, .L14
 200 0094 1968     		ldr	r1, [r3]
 201 0096 3B1C     		mov	r3, r7
 202 0098 1733     		add	r3, r3, #23
 203 009a 1A78     		ldrb	r2, [r3]
 204 009c 131C     		mov	r3, r2
 205 009e 5B00     		lsl	r3, r3, #1
 206 00a0 9B18     		add	r3, r3, r2
 207 00a2 9B00     		lsl	r3, r3, #2
ARM GAS  C:\Users\X0217454\AppData\Local\Temp\cc7UAvFx.s 			page 7


 208 00a4 1033     		add	r3, r3, #16
 209 00a6 CB18     		add	r3, r1, r3
 210 00a8 181C     		mov	r0, r3
 211 00aa 1121     		mov	r1, #17
 212 00ac FFF7FEFF 		bl	_SlNonOsSemSet
 213 00b0 031C     		mov	r3, r0
 214 00b2 7B60     		str	r3, [r7, #4]
 215 00b4 7B68     		ldr	r3, [r7, #4]
 216 00b6 002B     		cmp	r3, #0
 217 00b8 00D0     		beq	.L11
 218              	.L12:
 219              		.loc 1 135 0 is_stmt 0 discriminator 1
 220 00ba FEE7     		b	.L12
 221              	.L11:
 222              	.LBE5:
 136:..\..\..\..\..\simplelink\source/driver.c ****         sl_SyncObjClear(&g_pCB->ObjPool[Idx].SyncObj);     
 223              		.loc 1 136 0 is_stmt 1
 224 00bc 104B     		ldr	r3, .L14
 225 00be 1968     		ldr	r1, [r3]
 226 00c0 3B1C     		mov	r3, r7
 227 00c2 1733     		add	r3, r3, #23
 228 00c4 1A78     		ldrb	r2, [r3]
 229 00c6 131C     		mov	r3, r2
 230 00c8 5B00     		lsl	r3, r3, #1
 231 00ca 9B18     		add	r3, r3, r2
 232 00cc 9B00     		lsl	r3, r3, #2
 233 00ce 1033     		add	r3, r3, #16
 234 00d0 CB18     		add	r3, r1, r3
 235 00d2 181C     		mov	r0, r3
 236 00d4 2221     		mov	r1, #34
 237 00d6 1122     		mov	r2, #17
 238 00d8 0123     		mov	r3, #1
 239 00da FFF7FEFF 		bl	_SlNonOsSemGet
 133:..\..\..\..\..\simplelink\source/driver.c ****     for (Idx = 0; Idx < MAX_CONCURRENT_ACTIONS; Idx++)
 240              		.loc 1 133 0
 241 00de 3B1C     		mov	r3, r7
 242 00e0 1733     		add	r3, r3, #23
 243 00e2 3A1C     		mov	r2, r7
 244 00e4 1732     		add	r2, r2, #23
 245 00e6 1278     		ldrb	r2, [r2]
 246 00e8 0132     		add	r2, r2, #1
 247 00ea 1A70     		strb	r2, [r3]
 248              	.L10:
 133:..\..\..\..\..\simplelink\source/driver.c ****     for (Idx = 0; Idx < MAX_CONCURRENT_ACTIONS; Idx++)
 249              		.loc 1 133 0 is_stmt 0 discriminator 1
 250 00ec 3B1C     		mov	r3, r7
 251 00ee 1733     		add	r3, r3, #23
 252 00f0 1B78     		ldrb	r3, [r3]
 253 00f2 092B     		cmp	r3, #9
 254 00f4 CDD9     		bls	.L13
 137:..\..\..\..\..\simplelink\source/driver.c ****     }
 138:..\..\..\..\..\simplelink\source/driver.c ****     _SlDrvFlowContInit();
 255              		.loc 1 138 0 is_stmt 1
 256 00f6 FFF7FEFF 		bl	_SlDrvFlowContInit
 139:..\..\..\..\..\simplelink\source/driver.c **** }
 257              		.loc 1 139 0
 258 00fa BD46     		mov	sp, r7
ARM GAS  C:\Users\X0217454\AppData\Local\Temp\cc7UAvFx.s 			page 8


 259 00fc 06B0     		add	sp, sp, #24
 260              		@ sp needed for prologue
 261 00fe 80BD     		pop	{r7, pc}
 262              	.L15:
 263              		.align	2
 264              	.L14:
 265 0100 00000000 		.word	g_pCB
 266 0104 04000000 		.word	g_StatMem+4
 267              		.cfi_endproc
 268              	.LFE0:
 269              		.size	_SlDrvDriverCBInit, .-_SlDrvDriverCBInit
 270              		.section	.text._SlDrvDriverCBDeinit,"ax",%progbits
 271              		.align	2
 272              		.global	_SlDrvDriverCBDeinit
 273              		.code	16
 274              		.thumb_func
 275              		.type	_SlDrvDriverCBDeinit, %function
 276              	_SlDrvDriverCBDeinit:
 277              	.LFB1:
 140:..\..\..\..\..\simplelink\source/driver.c **** 
 141:..\..\..\..\..\simplelink\source/driver.c **** /*****************************************************************************
 142:..\..\..\..\..\simplelink\source/driver.c ****  _SlDrvDriverCBDeinit
 143:..\..\..\..\..\simplelink\source/driver.c **** *****************************************************************************/
 144:..\..\..\..\..\simplelink\source/driver.c **** void _SlDrvDriverCBDeinit()
 145:..\..\..\..\..\simplelink\source/driver.c **** {
 278              		.loc 1 145 0
 279              		.cfi_startproc
 280 0000 80B5     		push	{r7, lr}
 281              	.LCFI3:
 282              		.cfi_def_cfa_offset 8
 283              		.cfi_offset 7, -8
 284              		.cfi_offset 14, -4
 285 0002 86B0     		sub	sp, sp, #24
 286              	.LCFI4:
 287              		.cfi_def_cfa_offset 32
 288 0004 00AF     		add	r7, sp, #0
 289              	.LCFI5:
 290              		.cfi_def_cfa_register 7
 146:..\..\..\..\..\simplelink\source/driver.c **** 	UINT8        Idx;
 147:..\..\..\..\..\simplelink\source/driver.c **** 
 148:..\..\..\..\..\simplelink\source/driver.c ****     _SlDrvFlowContDeinit();
 291              		.loc 1 148 0
 292 0006 FFF7FEFF 		bl	_SlDrvFlowContDeinit
 293              	.LBB6:
 149:..\..\..\..\..\simplelink\source/driver.c **** 
 150:..\..\..\..\..\simplelink\source/driver.c ****     OSI_RET_OK_CHECK( sl_SyncObjDelete(&g_pCB->CmdSyncObj) );
 294              		.loc 1 150 0
 295 000a 2C4B     		ldr	r3, .L27
 296 000c 1B68     		ldr	r3, [r3]
 297 000e 9133     		add	r3, r3, #145
 298 0010 181C     		mov	r0, r3
 299 0012 0021     		mov	r1, #0
 300 0014 FFF7FEFF 		bl	_SlNonOsSemSet
 301 0018 031C     		mov	r3, r0
 302 001a 3B61     		str	r3, [r7, #16]
 303 001c 3B69     		ldr	r3, [r7, #16]
 304 001e 002B     		cmp	r3, #0
ARM GAS  C:\Users\X0217454\AppData\Local\Temp\cc7UAvFx.s 			page 9


 305 0020 00D0     		beq	.L17
 306              	.L18:
 307              		.loc 1 150 0 is_stmt 0 discriminator 1
 308 0022 FEE7     		b	.L18
 309              	.L17:
 310              	.LBE6:
 311              	.LBB7:
 151:..\..\..\..\..\simplelink\source/driver.c **** 
 152:..\..\..\..\..\simplelink\source/driver.c ****     OSI_RET_OK_CHECK( sl_LockObjDelete(&g_pCB->GlobalLockObj) );
 312              		.loc 1 152 0 is_stmt 1
 313 0024 254B     		ldr	r3, .L27
 314 0026 1B68     		ldr	r3, [r3]
 315 0028 0433     		add	r3, r3, #4
 316 002a 181C     		mov	r0, r3
 317 002c 0021     		mov	r1, #0
 318 002e FFF7FEFF 		bl	_SlNonOsSemSet
 319 0032 031C     		mov	r3, r0
 320 0034 FB60     		str	r3, [r7, #12]
 321 0036 FB68     		ldr	r3, [r7, #12]
 322 0038 002B     		cmp	r3, #0
 323 003a 00D0     		beq	.L19
 324              	.L20:
 325              		.loc 1 152 0 is_stmt 0 discriminator 1
 326 003c FEE7     		b	.L20
 327              	.L19:
 328              	.LBE7:
 329              	.LBB8:
 153:..\..\..\..\..\simplelink\source/driver.c **** 
 154:..\..\..\..\..\simplelink\source/driver.c **** 	OSI_RET_OK_CHECK( sl_LockObjDelete(&g_pCB->ProtectionLockObj) );
 330              		.loc 1 154 0 is_stmt 1
 331 003e 1F4B     		ldr	r3, .L27
 332 0040 1B68     		ldr	r3, [r3]
 333 0042 9033     		add	r3, r3, #144
 334 0044 181C     		mov	r0, r3
 335 0046 0021     		mov	r1, #0
 336 0048 FFF7FEFF 		bl	_SlNonOsSemSet
 337 004c 031C     		mov	r3, r0
 338 004e BB60     		str	r3, [r7, #8]
 339 0050 BB68     		ldr	r3, [r7, #8]
 340 0052 002B     		cmp	r3, #0
 341 0054 00D0     		beq	.L21
 342              	.L22:
 343              		.loc 1 154 0 is_stmt 0 discriminator 1
 344 0056 FEE7     		b	.L22
 345              	.L21:
 346              	.LBE8:
 155:..\..\..\..\..\simplelink\source/driver.c ****     for (Idx = 0; Idx < MAX_CONCURRENT_ACTIONS; Idx++)
 347              		.loc 1 155 0 is_stmt 1
 348 0058 3B1C     		mov	r3, r7
 349 005a 1733     		add	r3, r3, #23
 350 005c 0022     		mov	r2, #0
 351 005e 1A70     		strb	r2, [r3]
 352 0060 1BE0     		b	.L23
 353              	.L26:
 354              	.LBB9:
 156:..\..\..\..\..\simplelink\source/driver.c ****     {
 157:..\..\..\..\..\simplelink\source/driver.c **** 		OSI_RET_OK_CHECK( sl_SyncObjDelete(&g_pCB->ObjPool[Idx].SyncObj) );   
ARM GAS  C:\Users\X0217454\AppData\Local\Temp\cc7UAvFx.s 			page 10


 355              		.loc 1 157 0
 356 0062 164B     		ldr	r3, .L27
 357 0064 1968     		ldr	r1, [r3]
 358 0066 3B1C     		mov	r3, r7
 359 0068 1733     		add	r3, r3, #23
 360 006a 1A78     		ldrb	r2, [r3]
 361 006c 131C     		mov	r3, r2
 362 006e 5B00     		lsl	r3, r3, #1
 363 0070 9B18     		add	r3, r3, r2
 364 0072 9B00     		lsl	r3, r3, #2
 365 0074 1033     		add	r3, r3, #16
 366 0076 CB18     		add	r3, r1, r3
 367 0078 181C     		mov	r0, r3
 368 007a 0021     		mov	r1, #0
 369 007c FFF7FEFF 		bl	_SlNonOsSemSet
 370 0080 031C     		mov	r3, r0
 371 0082 7B60     		str	r3, [r7, #4]
 372 0084 7B68     		ldr	r3, [r7, #4]
 373 0086 002B     		cmp	r3, #0
 374 0088 00D0     		beq	.L24
 375              	.L25:
 376              		.loc 1 157 0 is_stmt 0 discriminator 1
 377 008a FEE7     		b	.L25
 378              	.L24:
 379              	.LBE9:
 155:..\..\..\..\..\simplelink\source/driver.c ****     for (Idx = 0; Idx < MAX_CONCURRENT_ACTIONS; Idx++)
 380              		.loc 1 155 0 is_stmt 1
 381 008c 3B1C     		mov	r3, r7
 382 008e 1733     		add	r3, r3, #23
 383 0090 3A1C     		mov	r2, r7
 384 0092 1732     		add	r2, r2, #23
 385 0094 1278     		ldrb	r2, [r2]
 386 0096 0132     		add	r2, r2, #1
 387 0098 1A70     		strb	r2, [r3]
 388              	.L23:
 155:..\..\..\..\..\simplelink\source/driver.c ****     for (Idx = 0; Idx < MAX_CONCURRENT_ACTIONS; Idx++)
 389              		.loc 1 155 0 is_stmt 0 discriminator 1
 390 009a 3B1C     		mov	r3, r7
 391 009c 1733     		add	r3, r3, #23
 392 009e 1B78     		ldrb	r3, [r3]
 393 00a0 092B     		cmp	r3, #9
 394 00a2 DED9     		bls	.L26
 158:..\..\..\..\..\simplelink\source/driver.c ****     }
 159:..\..\..\..\..\simplelink\source/driver.c **** 
 160:..\..\..\..\..\simplelink\source/driver.c **** 	_SlDrvObjDeInit();
 395              		.loc 1 160 0 is_stmt 1
 396 00a4 FFF7FEFF 		bl	_SlDrvObjDeInit
 161:..\..\..\..\..\simplelink\source/driver.c **** 
 162:..\..\..\..\..\simplelink\source/driver.c **** #if (SL_MEMORY_MGMT == SL_MEMORY_MGMT_STATIC)
 163:..\..\..\..\..\simplelink\source/driver.c ****     g_pCB = NULL;
 397              		.loc 1 163 0
 398 00a8 044B     		ldr	r3, .L27
 399 00aa 0022     		mov	r2, #0
 400 00ac 1A60     		str	r2, [r3]
 164:..\..\..\..\..\simplelink\source/driver.c **** #else
 165:..\..\..\..\..\simplelink\source/driver.c ****     sl_Free(g_pCB);
 166:..\..\..\..\..\simplelink\source/driver.c **** #endif
ARM GAS  C:\Users\X0217454\AppData\Local\Temp\cc7UAvFx.s 			page 11


 167:..\..\..\..\..\simplelink\source/driver.c ****     
 168:..\..\..\..\..\simplelink\source/driver.c ****     g_pCB = NULL;
 401              		.loc 1 168 0
 402 00ae 034B     		ldr	r3, .L27
 403 00b0 0022     		mov	r2, #0
 404 00b2 1A60     		str	r2, [r3]
 169:..\..\..\..\..\simplelink\source/driver.c **** }
 405              		.loc 1 169 0
 406 00b4 BD46     		mov	sp, r7
 407 00b6 06B0     		add	sp, sp, #24
 408              		@ sp needed for prologue
 409 00b8 80BD     		pop	{r7, pc}
 410              	.L28:
 411 00ba C046     		.align	2
 412              	.L27:
 413 00bc 00000000 		.word	g_pCB
 414              		.cfi_endproc
 415              	.LFE1:
 416              		.size	_SlDrvDriverCBDeinit, .-_SlDrvDriverCBDeinit
 417              		.section	.text._SlDrvRxIrqHandler,"ax",%progbits
 418              		.align	2
 419              		.global	_SlDrvRxIrqHandler
 420              		.code	16
 421              		.thumb_func
 422              		.type	_SlDrvRxIrqHandler, %function
 423              	_SlDrvRxIrqHandler:
 424              	.LFB2:
 170:..\..\..\..\..\simplelink\source/driver.c **** 
 171:..\..\..\..\..\simplelink\source/driver.c **** /*****************************************************************************
 172:..\..\..\..\..\simplelink\source/driver.c ****  _SlDrvRxIrqHandler
 173:..\..\..\..\..\simplelink\source/driver.c **** *****************************************************************************/
 174:..\..\..\..\..\simplelink\source/driver.c **** void _SlDrvRxIrqHandler(void *pValue)
 175:..\..\..\..\..\simplelink\source/driver.c **** {
 425              		.loc 1 175 0
 426              		.cfi_startproc
 427 0000 80B5     		push	{r7, lr}
 428              	.LCFI6:
 429              		.cfi_def_cfa_offset 8
 430              		.cfi_offset 7, -8
 431              		.cfi_offset 14, -4
 432 0002 84B0     		sub	sp, sp, #16
 433              	.LCFI7:
 434              		.cfi_def_cfa_offset 24
 435 0004 00AF     		add	r7, sp, #0
 436              	.LCFI8:
 437              		.cfi_def_cfa_register 7
 438 0006 7860     		str	r0, [r7, #4]
 176:..\..\..\..\..\simplelink\source/driver.c ****     sl_IfMaskIntHdlr();
 439              		.loc 1 176 0
 440 0008 FFF7FEFF 		bl	MaskIntHdlr
 177:..\..\..\..\..\simplelink\source/driver.c ****     g_pCB->RxIrqCnt++;
 441              		.loc 1 177 0
 442 000c 114B     		ldr	r3, .L33
 443 000e 1B68     		ldr	r3, [r3]
 444 0010 9722     		mov	r2, #151
 445 0012 9A5C     		ldrb	r2, [r3, r2]
 446 0014 0132     		add	r2, r2, #1
ARM GAS  C:\Users\X0217454\AppData\Local\Temp\cc7UAvFx.s 			page 12


 447 0016 D1B2     		uxtb	r1, r2
 448 0018 9722     		mov	r2, #151
 449 001a 9954     		strb	r1, [r3, r2]
 178:..\..\..\..\..\simplelink\source/driver.c **** 
 179:..\..\..\..\..\simplelink\source/driver.c ****     if (TRUE == g_pCB->IsCmdRespWaited)
 450              		.loc 1 179 0
 451 001c 0D4B     		ldr	r3, .L33
 452 001e 1A68     		ldr	r2, [r3]
 453 0020 9223     		mov	r3, #146
 454 0022 D35C     		ldrb	r3, [r2, r3]
 455 0024 012B     		cmp	r3, #1
 456 0026 0CD1     		bne	.L30
 457              	.LBB10:
 180:..\..\..\..\..\simplelink\source/driver.c ****     {
 181:..\..\..\..\..\simplelink\source/driver.c ****         OSI_RET_OK_CHECK( sl_SyncObjSignalFromIRQ(&g_pCB->CmdSyncObj) );
 458              		.loc 1 181 0
 459 0028 0A4B     		ldr	r3, .L33
 460 002a 1B68     		ldr	r3, [r3]
 461 002c 9133     		add	r3, r3, #145
 462 002e 181C     		mov	r0, r3
 463 0030 2221     		mov	r1, #34
 464 0032 FFF7FEFF 		bl	_SlNonOsSemSet
 465 0036 031C     		mov	r3, r0
 466 0038 FB60     		str	r3, [r7, #12]
 467 003a FB68     		ldr	r3, [r7, #12]
 468 003c 002B     		cmp	r3, #0
 469 003e 06D0     		beq	.L29
 470              	.L32:
 471              		.loc 1 181 0 is_stmt 0 discriminator 1
 472 0040 FEE7     		b	.L32
 473              	.L30:
 474              	.LBE10:
 182:..\..\..\..\..\simplelink\source/driver.c ****     }
 183:..\..\..\..\..\simplelink\source/driver.c ****     else
 184:..\..\..\..\..\simplelink\source/driver.c ****     {
 185:..\..\..\..\..\simplelink\source/driver.c ****         sl_Spawn((_SlSpawnEntryFunc_t)_SlDrvMsgReadSpawnCtx, NULL, 0);
 475              		.loc 1 185 0 is_stmt 1
 476 0042 054B     		ldr	r3, .L33+4
 477 0044 181C     		mov	r0, r3
 478 0046 0021     		mov	r1, #0
 479 0048 0022     		mov	r2, #0
 480 004a FFF7FEFF 		bl	_SlNonOsSpawn
 481              	.L29:
 186:..\..\..\..\..\simplelink\source/driver.c ****     }
 187:..\..\..\..\..\simplelink\source/driver.c **** }
 482              		.loc 1 187 0
 483 004e BD46     		mov	sp, r7
 484 0050 04B0     		add	sp, sp, #16
 485              		@ sp needed for prologue
 486 0052 80BD     		pop	{r7, pc}
 487              	.L34:
 488              		.align	2
 489              	.L33:
 490 0054 00000000 		.word	g_pCB
 491 0058 00000000 		.word	_SlDrvMsgReadSpawnCtx
 492              		.cfi_endproc
 493              	.LFE2:
ARM GAS  C:\Users\X0217454\AppData\Local\Temp\cc7UAvFx.s 			page 13


 494              		.size	_SlDrvRxIrqHandler, .-_SlDrvRxIrqHandler
 495              		.section	.text._SlDrvCmdOp,"ax",%progbits
 496              		.align	2
 497              		.global	_SlDrvCmdOp
 498              		.code	16
 499              		.thumb_func
 500              		.type	_SlDrvCmdOp, %function
 501              	_SlDrvCmdOp:
 502              	.LFB3:
 188:..\..\..\..\..\simplelink\source/driver.c **** 
 189:..\..\..\..\..\simplelink\source/driver.c **** /*****************************************************************************
 190:..\..\..\..\..\simplelink\source/driver.c ****   _SlDrvCmdOp
 191:..\..\..\..\..\simplelink\source/driver.c **** *****************************************************************************/
 192:..\..\..\..\..\simplelink\source/driver.c **** _SlReturnVal_t _SlDrvCmdOp(
 193:..\..\..\..\..\simplelink\source/driver.c ****     _SlCmdCtrl_t  *pCmdCtrl ,
 194:..\..\..\..\..\simplelink\source/driver.c ****     void          *pTxRxDescBuff ,
 195:..\..\..\..\..\simplelink\source/driver.c ****     _SlCmdExt_t   *pCmdExt)
 196:..\..\..\..\..\simplelink\source/driver.c **** {
 503              		.loc 1 196 0
 504              		.cfi_startproc
 505 0000 80B5     		push	{r7, lr}
 506              	.LCFI9:
 507              		.cfi_def_cfa_offset 8
 508              		.cfi_offset 7, -8
 509              		.cfi_offset 14, -4
 510 0002 88B0     		sub	sp, sp, #32
 511              	.LCFI10:
 512              		.cfi_def_cfa_offset 40
 513 0004 00AF     		add	r7, sp, #0
 514              	.LCFI11:
 515              		.cfi_def_cfa_register 7
 516 0006 F860     		str	r0, [r7, #12]
 517 0008 B960     		str	r1, [r7, #8]
 518 000a 7A60     		str	r2, [r7, #4]
 519              	.LBB11:
 197:..\..\..\..\..\simplelink\source/driver.c ****     _SlReturnVal_t RetVal;
 198:..\..\..\..\..\simplelink\source/driver.c ****     
 199:..\..\..\..\..\simplelink\source/driver.c ****     OSI_RET_OK_CHECK(sl_LockObjLock(&g_pCB->GlobalLockObj, SL_OS_WAIT_FOREVER));
 520              		.loc 1 199 0
 521 000c 204B     		ldr	r3, .L42
 522 000e 1B68     		ldr	r3, [r3]
 523 0010 0433     		add	r3, r3, #4
 524 0012 181C     		mov	r0, r3
 525 0014 3321     		mov	r1, #51
 526 0016 4422     		mov	r2, #68
 527 0018 FF23     		mov	r3, #255
 528 001a FFF7FEFF 		bl	_SlNonOsSemGet
 529 001e 031C     		mov	r3, r0
 530 0020 BB61     		str	r3, [r7, #24]
 531 0022 BB69     		ldr	r3, [r7, #24]
 532 0024 002B     		cmp	r3, #0
 533 0026 00D0     		beq	.L36
 534              	.L37:
 535              		.loc 1 199 0 is_stmt 0 discriminator 1
 536 0028 FEE7     		b	.L37
 537              	.L36:
 538              	.LBE11:
ARM GAS  C:\Users\X0217454\AppData\Local\Temp\cc7UAvFx.s 			page 14


 200:..\..\..\..\..\simplelink\source/driver.c ****     g_pCB->IsCmdRespWaited = TRUE;
 539              		.loc 1 200 0 is_stmt 1
 540 002a 194B     		ldr	r3, .L42
 541 002c 1A68     		ldr	r2, [r3]
 542 002e 9223     		mov	r3, #146
 543 0030 0121     		mov	r1, #1
 544 0032 D154     		strb	r1, [r2, r3]
 201:..\..\..\..\..\simplelink\source/driver.c ****   
 202:..\..\..\..\..\simplelink\source/driver.c ****     SL_TRACE0(DBG_MSG, MSG_312, "_SlDrvCmdOp: call _SlDrvMsgWrite");
 203:..\..\..\..\..\simplelink\source/driver.c ****     /* send the message */
 204:..\..\..\..\..\simplelink\source/driver.c ****     g_pCB->FunctionParams.pCmdCtrl = pCmdCtrl;
 545              		.loc 1 204 0
 546 0034 164B     		ldr	r3, .L42
 547 0036 1A68     		ldr	r2, [r3]
 548 0038 9C23     		mov	r3, #156
 549 003a F968     		ldr	r1, [r7, #12]
 550 003c D150     		str	r1, [r2, r3]
 205:..\..\..\..\..\simplelink\source/driver.c ****     g_pCB->FunctionParams.pTxRxDescBuff = pTxRxDescBuff;
 551              		.loc 1 205 0
 552 003e 144B     		ldr	r3, .L42
 553 0040 1A68     		ldr	r2, [r3]
 554 0042 A023     		mov	r3, #160
 555 0044 B968     		ldr	r1, [r7, #8]
 556 0046 D150     		str	r1, [r2, r3]
 206:..\..\..\..\..\simplelink\source/driver.c ****     g_pCB->FunctionParams.pCmdExt = pCmdExt;
 557              		.loc 1 206 0
 558 0048 114B     		ldr	r3, .L42
 559 004a 1A68     		ldr	r2, [r3]
 560 004c A423     		mov	r3, #164
 561 004e 7968     		ldr	r1, [r7, #4]
 562 0050 D150     		str	r1, [r2, r3]
 207:..\..\..\..\..\simplelink\source/driver.c **** 
 208:..\..\..\..\..\simplelink\source/driver.c ****     RetVal = _SlDrvMsgWrite();
 563              		.loc 1 208 0
 564 0052 FFF7FEFF 		bl	_SlDrvMsgWrite
 565 0056 031C     		mov	r3, r0
 566 0058 FB61     		str	r3, [r7, #28]
 209:..\..\..\..\..\simplelink\source/driver.c **** 
 210:..\..\..\..\..\simplelink\source/driver.c ****     if(SL_OS_RET_CODE_OK == RetVal)
 567              		.loc 1 210 0
 568 005a FB69     		ldr	r3, [r7, #28]
 569 005c 002B     		cmp	r3, #0
 570 005e 04D1     		bne	.L38
 211:..\..\..\..\..\simplelink\source/driver.c ****     {
 212:..\..\..\..\..\simplelink\source/driver.c ****         /* wait for respond */
 213:..\..\..\..\..\simplelink\source/driver.c ****         RetVal = _SlDrvMsgReadCmdCtx(); /* will free global lock */
 571              		.loc 1 213 0
 572 0060 FFF7FEFF 		bl	_SlDrvMsgReadCmdCtx
 573 0064 031C     		mov	r3, r0
 574 0066 FB61     		str	r3, [r7, #28]
 575 0068 0CE0     		b	.L39
 576              	.L38:
 577              	.LBB12:
 214:..\..\..\..\..\simplelink\source/driver.c ****         SL_TRACE0(DBG_MSG, MSG_314, "_SlDrvCmdOp: exited _SlDrvMsgReadCmdCtx");
 215:..\..\..\..\..\simplelink\source/driver.c ****         
 216:..\..\..\..\..\simplelink\source/driver.c ****     }
 217:..\..\..\..\..\simplelink\source/driver.c ****     else
ARM GAS  C:\Users\X0217454\AppData\Local\Temp\cc7UAvFx.s 			page 15


 218:..\..\..\..\..\simplelink\source/driver.c ****     {
 219:..\..\..\..\..\simplelink\source/driver.c ****         OSI_RET_OK_CHECK(sl_LockObjUnlock(&g_pCB->GlobalLockObj));
 578              		.loc 1 219 0
 579 006a 094B     		ldr	r3, .L42
 580 006c 1B68     		ldr	r3, [r3]
 581 006e 0433     		add	r3, r3, #4
 582 0070 181C     		mov	r0, r3
 583 0072 3321     		mov	r1, #51
 584 0074 FFF7FEFF 		bl	_SlNonOsSemSet
 585 0078 031C     		mov	r3, r0
 586 007a 7B61     		str	r3, [r7, #20]
 587 007c 7B69     		ldr	r3, [r7, #20]
 588 007e 002B     		cmp	r3, #0
 589 0080 00D0     		beq	.L39
 590              	.L40:
 591              		.loc 1 219 0 is_stmt 0 discriminator 1
 592 0082 FEE7     		b	.L40
 593              	.L39:
 594              	.LBE12:
 220:..\..\..\..\..\simplelink\source/driver.c ****     }
 221:..\..\..\..\..\simplelink\source/driver.c ****     
 222:..\..\..\..\..\simplelink\source/driver.c ****     return RetVal;
 595              		.loc 1 222 0 is_stmt 1
 596 0084 FB69     		ldr	r3, [r7, #28]
 223:..\..\..\..\..\simplelink\source/driver.c **** }
 597              		.loc 1 223 0
 598 0086 181C     		mov	r0, r3
 599 0088 BD46     		mov	sp, r7
 600 008a 08B0     		add	sp, sp, #32
 601              		@ sp needed for prologue
 602 008c 80BD     		pop	{r7, pc}
 603              	.L43:
 604 008e C046     		.align	2
 605              	.L42:
 606 0090 00000000 		.word	g_pCB
 607              		.cfi_endproc
 608              	.LFE3:
 609              		.size	_SlDrvCmdOp, .-_SlDrvCmdOp
 610              		.section	.text._SlDrvCmdSend,"ax",%progbits
 611              		.align	2
 612              		.global	_SlDrvCmdSend
 613              		.code	16
 614              		.thumb_func
 615              		.type	_SlDrvCmdSend, %function
 616              	_SlDrvCmdSend:
 617              	.LFB4:
 224:..\..\..\..\..\simplelink\source/driver.c **** 
 225:..\..\..\..\..\simplelink\source/driver.c **** /*****************************************************************************
 226:..\..\..\..\..\simplelink\source/driver.c ****   _SlDrvCmdSend 
 227:..\..\..\..\..\simplelink\source/driver.c ****   Send SL command without waiting for command response - This function is unprotected and the calle
 228:..\..\..\..\..\simplelink\source/driver.c **** *****************************************************************************/
 229:..\..\..\..\..\simplelink\source/driver.c **** _SlReturnVal_t _SlDrvCmdSend(
 230:..\..\..\..\..\simplelink\source/driver.c ****     _SlCmdCtrl_t  *pCmdCtrl ,
 231:..\..\..\..\..\simplelink\source/driver.c ****     void          *pTxRxDescBuff ,
 232:..\..\..\..\..\simplelink\source/driver.c ****     _SlCmdExt_t   *pCmdExt)
 233:..\..\..\..\..\simplelink\source/driver.c **** {
 618              		.loc 1 233 0
ARM GAS  C:\Users\X0217454\AppData\Local\Temp\cc7UAvFx.s 			page 16


 619              		.cfi_startproc
 620 0000 80B5     		push	{r7, lr}
 621              	.LCFI12:
 622              		.cfi_def_cfa_offset 8
 623              		.cfi_offset 7, -8
 624              		.cfi_offset 14, -4
 625 0002 86B0     		sub	sp, sp, #24
 626              	.LCFI13:
 627              		.cfi_def_cfa_offset 32
 628 0004 00AF     		add	r7, sp, #0
 629              	.LCFI14:
 630              		.cfi_def_cfa_register 7
 631 0006 F860     		str	r0, [r7, #12]
 632 0008 B960     		str	r1, [r7, #8]
 633 000a 7A60     		str	r2, [r7, #4]
 234:..\..\..\..\..\simplelink\source/driver.c ****     _SlReturnVal_t RetVal;
 235:..\..\..\..\..\simplelink\source/driver.c **** 
 236:..\..\..\..\..\simplelink\source/driver.c ****     g_pCB->IsCmdRespWaited = FALSE;
 634              		.loc 1 236 0
 635 000c 0E4B     		ldr	r3, .L46
 636 000e 1A68     		ldr	r2, [r3]
 637 0010 9223     		mov	r3, #146
 638 0012 0021     		mov	r1, #0
 639 0014 D154     		strb	r1, [r2, r3]
 237:..\..\..\..\..\simplelink\source/driver.c ****   
 238:..\..\..\..\..\simplelink\source/driver.c ****     SL_TRACE0(DBG_MSG, MSG_312, "_SlDrvCmdSend: call _SlDrvMsgWrite");
 239:..\..\..\..\..\simplelink\source/driver.c ****     /*  send the message */
 240:..\..\..\..\..\simplelink\source/driver.c ****     g_pCB->FunctionParams.pCmdCtrl = pCmdCtrl;
 640              		.loc 1 240 0
 641 0016 0C4B     		ldr	r3, .L46
 642 0018 1A68     		ldr	r2, [r3]
 643 001a 9C23     		mov	r3, #156
 644 001c F968     		ldr	r1, [r7, #12]
 645 001e D150     		str	r1, [r2, r3]
 241:..\..\..\..\..\simplelink\source/driver.c ****     g_pCB->FunctionParams.pTxRxDescBuff = pTxRxDescBuff;
 646              		.loc 1 241 0
 647 0020 094B     		ldr	r3, .L46
 648 0022 1A68     		ldr	r2, [r3]
 649 0024 A023     		mov	r3, #160
 650 0026 B968     		ldr	r1, [r7, #8]
 651 0028 D150     		str	r1, [r2, r3]
 242:..\..\..\..\..\simplelink\source/driver.c ****     g_pCB->FunctionParams.pCmdExt = pCmdExt;
 652              		.loc 1 242 0
 653 002a 074B     		ldr	r3, .L46
 654 002c 1A68     		ldr	r2, [r3]
 655 002e A423     		mov	r3, #164
 656 0030 7968     		ldr	r1, [r7, #4]
 657 0032 D150     		str	r1, [r2, r3]
 243:..\..\..\..\..\simplelink\source/driver.c **** 
 244:..\..\..\..\..\simplelink\source/driver.c ****     RetVal = _SlDrvMsgWrite();
 658              		.loc 1 244 0
 659 0034 FFF7FEFF 		bl	_SlDrvMsgWrite
 660 0038 031C     		mov	r3, r0
 661 003a 7B61     		str	r3, [r7, #20]
 245:..\..\..\..\..\simplelink\source/driver.c ****     
 246:..\..\..\..\..\simplelink\source/driver.c ****     return RetVal;
 662              		.loc 1 246 0
ARM GAS  C:\Users\X0217454\AppData\Local\Temp\cc7UAvFx.s 			page 17


 663 003c 7B69     		ldr	r3, [r7, #20]
 247:..\..\..\..\..\simplelink\source/driver.c **** }
 664              		.loc 1 247 0
 665 003e 181C     		mov	r0, r3
 666 0040 BD46     		mov	sp, r7
 667 0042 06B0     		add	sp, sp, #24
 668              		@ sp needed for prologue
 669 0044 80BD     		pop	{r7, pc}
 670              	.L47:
 671 0046 C046     		.align	2
 672              	.L46:
 673 0048 00000000 		.word	g_pCB
 674              		.cfi_endproc
 675              	.LFE4:
 676              		.size	_SlDrvCmdSend, .-_SlDrvCmdSend
 677              		.section	.text._SlDrvDataReadOp,"ax",%progbits
 678              		.align	2
 679              		.global	_SlDrvDataReadOp
 680              		.code	16
 681              		.thumb_func
 682              		.type	_SlDrvDataReadOp, %function
 683              	_SlDrvDataReadOp:
 684              	.LFB5:
 248:..\..\..\..\..\simplelink\source/driver.c **** 
 249:..\..\..\..\..\simplelink\source/driver.c **** /*****************************************************************************
 250:..\..\..\..\..\simplelink\source/driver.c ****   _SlDrvDataReadOp
 251:..\..\..\..\..\simplelink\source/driver.c **** *****************************************************************************/
 252:..\..\..\..\..\simplelink\source/driver.c **** _SlReturnVal_t _SlDrvDataReadOp(
 253:..\..\..\..\..\simplelink\source/driver.c ****     _SlSd_t             Sd,
 254:..\..\..\..\..\simplelink\source/driver.c ****     _SlCmdCtrl_t        *pCmdCtrl ,
 255:..\..\..\..\..\simplelink\source/driver.c ****     void                *pTxRxDescBuff ,
 256:..\..\..\..\..\simplelink\source/driver.c ****     _SlCmdExt_t         *pCmdExt)
 257:..\..\..\..\..\simplelink\source/driver.c **** {
 685              		.loc 1 257 0
 686              		.cfi_startproc
 687 0000 80B5     		push	{r7, lr}
 688              	.LCFI15:
 689              		.cfi_def_cfa_offset 8
 690              		.cfi_offset 7, -8
 691              		.cfi_offset 14, -4
 692 0002 90B0     		sub	sp, sp, #64
 693              	.LCFI16:
 694              		.cfi_def_cfa_offset 72
 695 0004 00AF     		add	r7, sp, #0
 696              	.LCFI17:
 697              		.cfi_def_cfa_register 7
 698 0006 B960     		str	r1, [r7, #8]
 699 0008 7A60     		str	r2, [r7, #4]
 700 000a 3B60     		str	r3, [r7]
 701 000c 3B1C     		mov	r3, r7
 702 000e 0F33     		add	r3, r3, #15
 703 0010 021C     		add	r2, r0, #0
 704 0012 1A70     		strb	r2, [r3]
 258:..\..\..\..\..\simplelink\source/driver.c ****     _SlReturnVal_t RetVal;
 259:..\..\..\..\..\simplelink\source/driver.c **** 	UINT8 pObjIdx = MAX_CONCURRENT_ACTIONS;
 705              		.loc 1 259 0
 706 0014 3B1C     		mov	r3, r7
ARM GAS  C:\Users\X0217454\AppData\Local\Temp\cc7UAvFx.s 			page 18


 707 0016 3F33     		add	r3, r3, #63
 708 0018 0A22     		mov	r2, #10
 709 001a 1A70     		strb	r2, [r3]
 260:..\..\..\..\..\simplelink\source/driver.c **** 	_SlArgsData_t pArgsData;
 261:..\..\..\..\..\simplelink\source/driver.c ****     
 262:..\..\..\..\..\simplelink\source/driver.c ****     /* Validate input arguments */
 263:..\..\..\..\..\simplelink\source/driver.c ****     VERIFY_PROTOCOL(NULL != pCmdExt->pRxPayload);
 710              		.loc 1 263 0
 711 001c 3B68     		ldr	r3, [r7]
 712 001e DB68     		ldr	r3, [r3, #12]
 713 0020 002B     		cmp	r3, #0
 714 0022 00D1     		bne	.L49
 715              	.L50:
 716              		.loc 1 263 0 is_stmt 0 discriminator 1
 717 0024 FEE7     		b	.L50
 718              	.L49:
 264:..\..\..\..\..\simplelink\source/driver.c **** 
 265:..\..\..\..\..\simplelink\source/driver.c ****     /* If zero bytes is requested, return error. */
 266:..\..\..\..\..\simplelink\source/driver.c ****     /*  This allows us not to fill remote socket's IP address in return arguments */
 267:..\..\..\..\..\simplelink\source/driver.c ****     VERIFY_PROTOCOL(0 != pCmdExt->RxPayloadLen);
 719              		.loc 1 267 0 is_stmt 1
 720 0026 3B68     		ldr	r3, [r7]
 721 0028 5B88     		ldrh	r3, [r3, #2]
 722 002a 002B     		cmp	r3, #0
 723 002c 00D1     		bne	.L51
 724              	.L52:
 725              		.loc 1 267 0 is_stmt 0 discriminator 1
 726 002e FEE7     		b	.L52
 727              	.L51:
 268:..\..\..\..\..\simplelink\source/driver.c **** 
 269:..\..\..\..\..\simplelink\source/driver.c **** 	/*Use Obj to issue the command, if not available try later*/
 270:..\..\..\..\..\simplelink\source/driver.c **** 	pObjIdx = _SlDrvWaitForPoolObj(RECV_ID, Sd & BSD_SOCKET_ID_MASK);
 728              		.loc 1 270 0 is_stmt 1
 729 0030 3B1C     		mov	r3, r7
 730 0032 0F33     		add	r3, r3, #15
 731 0034 1A78     		ldrb	r2, [r3]
 732 0036 0F23     		mov	r3, #15
 733 0038 1340     		and	r3, r2
 734 003a DBB2     		uxtb	r3, r3
 735 003c 0F20     		mov	r0, #15
 736 003e 191C     		mov	r1, r3
 737 0040 FFF7FEFF 		bl	_SlDrvWaitForPoolObj
 738 0044 021C     		mov	r2, r0
 739 0046 3B1C     		mov	r3, r7
 740 0048 3F33     		add	r3, r3, #63
 741 004a 1A70     		strb	r2, [r3]
 271:..\..\..\..\..\simplelink\source/driver.c **** 
 272:..\..\..\..\..\simplelink\source/driver.c **** 	if (MAX_CONCURRENT_ACTIONS == pObjIdx)
 742              		.loc 1 272 0
 743 004c 3B1C     		mov	r3, r7
 744 004e 3F33     		add	r3, r3, #63
 745 0050 1B78     		ldrb	r3, [r3]
 746 0052 0A2B     		cmp	r3, #10
 747 0054 01D1     		bne	.L53
 273:..\..\..\..\..\simplelink\source/driver.c **** 	{
 274:..\..\..\..\..\simplelink\source/driver.c **** 		return SL_POOL_IS_EMPTY;
 748              		.loc 1 274 0
ARM GAS  C:\Users\X0217454\AppData\Local\Temp\cc7UAvFx.s 			page 19


 749 0056 7A4B     		ldr	r3, .L76
 750 0058 EEE0     		b	.L75
 751              	.L53:
 752              	.LBB13:
 275:..\..\..\..\..\simplelink\source/driver.c **** 	}
 276:..\..\..\..\..\simplelink\source/driver.c **** 
 277:..\..\..\..\..\simplelink\source/driver.c ****     OSI_RET_OK_CHECK(sl_LockObjLock(&g_pCB->ProtectionLockObj, SL_OS_WAIT_FOREVER));
 753              		.loc 1 277 0
 754 005a 7A4B     		ldr	r3, .L76+4
 755 005c 1B68     		ldr	r3, [r3]
 756 005e 9033     		add	r3, r3, #144
 757 0060 181C     		mov	r0, r3
 758 0062 3321     		mov	r1, #51
 759 0064 4422     		mov	r2, #68
 760 0066 FF23     		mov	r3, #255
 761 0068 FFF7FEFF 		bl	_SlNonOsSemGet
 762 006c 031C     		mov	r3, r0
 763 006e BB63     		str	r3, [r7, #56]
 764 0070 BB6B     		ldr	r3, [r7, #56]
 765 0072 002B     		cmp	r3, #0
 766 0074 00D0     		beq	.L55
 767              	.L56:
 768              		.loc 1 277 0 is_stmt 0 discriminator 1
 769 0076 FEE7     		b	.L56
 770              	.L55:
 771              	.LBE13:
 278:..\..\..\..\..\simplelink\source/driver.c **** 
 279:..\..\..\..\..\simplelink\source/driver.c **** 	pArgsData.pData = pCmdExt->pRxPayload;
 772              		.loc 1 279 0 is_stmt 1
 773 0078 3B68     		ldr	r3, [r7]
 774 007a DA68     		ldr	r2, [r3, #12]
 775 007c 3B1C     		mov	r3, r7
 776 007e 1033     		add	r3, r3, #16
 777 0080 5A60     		str	r2, [r3, #4]
 280:..\..\..\..\..\simplelink\source/driver.c **** 	pArgsData.pArgs =  (UINT8 *)pTxRxDescBuff;
 778              		.loc 1 280 0
 779 0082 3B1C     		mov	r3, r7
 780 0084 1033     		add	r3, r3, #16
 781 0086 7A68     		ldr	r2, [r7, #4]
 782 0088 1A60     		str	r2, [r3]
 281:..\..\..\..\..\simplelink\source/driver.c **** 	g_pCB->ObjPool[pObjIdx].pRespArgs =  (UINT8 *)&pArgsData;
 783              		.loc 1 281 0
 784 008a 6E4B     		ldr	r3, .L76+4
 785 008c 1968     		ldr	r1, [r3]
 786 008e 3B1C     		mov	r3, r7
 787 0090 3F33     		add	r3, r3, #63
 788 0092 1A78     		ldrb	r2, [r3]
 789 0094 131C     		mov	r3, r2
 790 0096 5B00     		lsl	r3, r3, #1
 791 0098 9B18     		add	r3, r3, r2
 792 009a 9B00     		lsl	r3, r3, #2
 793 009c CB18     		add	r3, r1, r3
 794 009e 1433     		add	r3, r3, #20
 795 00a0 3A1C     		mov	r2, r7
 796 00a2 1032     		add	r2, r2, #16
 797 00a4 1A60     		str	r2, [r3]
 798              	.LBB14:
ARM GAS  C:\Users\X0217454\AppData\Local\Temp\cc7UAvFx.s 			page 20


 282:..\..\..\..\..\simplelink\source/driver.c ****     OSI_RET_OK_CHECK(sl_LockObjUnlock(&g_pCB->ProtectionLockObj));
 799              		.loc 1 282 0
 800 00a6 674B     		ldr	r3, .L76+4
 801 00a8 1B68     		ldr	r3, [r3]
 802 00aa 9033     		add	r3, r3, #144
 803 00ac 181C     		mov	r0, r3
 804 00ae 3321     		mov	r1, #51
 805 00b0 FFF7FEFF 		bl	_SlNonOsSemSet
 806 00b4 031C     		mov	r3, r0
 807 00b6 7B63     		str	r3, [r7, #52]
 808 00b8 7B6B     		ldr	r3, [r7, #52]
 809 00ba 002B     		cmp	r3, #0
 810 00bc 00D0     		beq	.L57
 811              	.L58:
 812              		.loc 1 282 0 is_stmt 0 discriminator 1
 813 00be FEE7     		b	.L58
 814              	.L57:
 815              	.LBE14:
 816              	.LBB15:
 283:..\..\..\..\..\simplelink\source/driver.c **** 
 284:..\..\..\..\..\simplelink\source/driver.c **** 
 285:..\..\..\..\..\simplelink\source/driver.c ****     /* Do Flow Control check/update for DataWrite operation */
 286:..\..\..\..\..\simplelink\source/driver.c ****     OSI_RET_OK_CHECK( sl_LockObjLock(&g_pCB->FlowContCB.TxLockObj, SL_OS_WAIT_FOREVER) );
 817              		.loc 1 286 0 is_stmt 1
 818 00c0 604B     		ldr	r3, .L76+4
 819 00c2 1B68     		ldr	r3, [r3]
 820 00c4 9433     		add	r3, r3, #148
 821 00c6 181C     		mov	r0, r3
 822 00c8 3321     		mov	r1, #51
 823 00ca 4422     		mov	r2, #68
 824 00cc FF23     		mov	r3, #255
 825 00ce FFF7FEFF 		bl	_SlNonOsSemGet
 826 00d2 031C     		mov	r3, r0
 827 00d4 3B63     		str	r3, [r7, #48]
 828 00d6 3B6B     		ldr	r3, [r7, #48]
 829 00d8 002B     		cmp	r3, #0
 830 00da 00D0     		beq	.L59
 831              	.L60:
 832              		.loc 1 286 0 is_stmt 0 discriminator 1
 833 00dc FEE7     		b	.L60
 834              	.L59:
 835              	.LBE15:
 287:..\..\..\..\..\simplelink\source/driver.c **** 
 288:..\..\..\..\..\simplelink\source/driver.c ****     /* Clear SyncObj for the case it was signaled before TxPoolCnt */
 289:..\..\..\..\..\simplelink\source/driver.c ****     /* dropped below '1' (last Data buffer was taken)  */
 290:..\..\..\..\..\simplelink\source/driver.c **** 	/* OSI_RET_OK_CHECK( sl_SyncObjClear(&g_pCB->FlowContCB.TxSyncObj) ); */
 291:..\..\..\..\..\simplelink\source/driver.c **** 	sl_SyncObjClear(&g_pCB->FlowContCB.TxSyncObj);
 836              		.loc 1 291 0 is_stmt 1
 837 00de 594B     		ldr	r3, .L76+4
 838 00e0 1B68     		ldr	r3, [r3]
 839 00e2 9533     		add	r3, r3, #149
 840 00e4 181C     		mov	r0, r3
 841 00e6 2221     		mov	r1, #34
 842 00e8 1122     		mov	r2, #17
 843 00ea 0123     		mov	r3, #1
 844 00ec FFF7FEFF 		bl	_SlNonOsSemGet
 292:..\..\..\..\..\simplelink\source/driver.c **** 
ARM GAS  C:\Users\X0217454\AppData\Local\Temp\cc7UAvFx.s 			page 21


 293:..\..\..\..\..\simplelink\source/driver.c ****     if(g_pCB->FlowContCB.TxPoolCnt <= FLOW_CONT_MIN)
 845              		.loc 1 293 0
 846 00f0 544B     		ldr	r3, .L76+4
 847 00f2 1A68     		ldr	r2, [r3]
 848 00f4 9323     		mov	r3, #147
 849 00f6 D35C     		ldrb	r3, [r2, r3]
 850 00f8 012B     		cmp	r3, #1
 851 00fa 0ED8     		bhi	.L61
 852              	.LBB16:
 294:..\..\..\..\..\simplelink\source/driver.c ****     {
 295:..\..\..\..\..\simplelink\source/driver.c **** 
 296:..\..\..\..\..\simplelink\source/driver.c ****         /* If TxPoolCnt was increased by other thread at this moment,
 297:..\..\..\..\..\simplelink\source/driver.c ****            TxSyncObj won't wait here */
 298:..\..\..\..\..\simplelink\source/driver.c ****     	OSI_RET_OK_CHECK( sl_SyncObjWait(&g_pCB->FlowContCB.TxSyncObj, SL_OS_WAIT_FOREVER) );
 853              		.loc 1 298 0
 854 00fc 514B     		ldr	r3, .L76+4
 855 00fe 1B68     		ldr	r3, [r3]
 856 0100 9533     		add	r3, r3, #149
 857 0102 181C     		mov	r0, r3
 858 0104 2221     		mov	r1, #34
 859 0106 1122     		mov	r2, #17
 860 0108 FF23     		mov	r3, #255
 861 010a FFF7FEFF 		bl	_SlNonOsSemGet
 862 010e 031C     		mov	r3, r0
 863 0110 FB62     		str	r3, [r7, #44]
 864 0112 FB6A     		ldr	r3, [r7, #44]
 865 0114 002B     		cmp	r3, #0
 866 0116 00D0     		beq	.L61
 867              	.L62:
 868              		.loc 1 298 0 is_stmt 0 discriminator 1
 869 0118 FEE7     		b	.L62
 870              	.L61:
 871              	.LBE16:
 872              	.LBB17:
 299:..\..\..\..\..\simplelink\source/driver.c ****     }
 300:..\..\..\..\..\simplelink\source/driver.c **** 
 301:..\..\..\..\..\simplelink\source/driver.c ****     OSI_RET_OK_CHECK(sl_LockObjLock(&g_pCB->GlobalLockObj, SL_OS_WAIT_FOREVER));
 873              		.loc 1 301 0 is_stmt 1
 874 011a 4A4B     		ldr	r3, .L76+4
 875 011c 1B68     		ldr	r3, [r3]
 876 011e 0433     		add	r3, r3, #4
 877 0120 181C     		mov	r0, r3
 878 0122 3321     		mov	r1, #51
 879 0124 4422     		mov	r2, #68
 880 0126 FF23     		mov	r3, #255
 881 0128 FFF7FEFF 		bl	_SlNonOsSemGet
 882 012c 031C     		mov	r3, r0
 883 012e BB62     		str	r3, [r7, #40]
 884 0130 BB6A     		ldr	r3, [r7, #40]
 885 0132 002B     		cmp	r3, #0
 886 0134 00D0     		beq	.L63
 887              	.L64:
 888              		.loc 1 301 0 is_stmt 0 discriminator 1
 889 0136 FEE7     		b	.L64
 890              	.L63:
 891              	.LBE17:
 302:..\..\..\..\..\simplelink\source/driver.c **** 
ARM GAS  C:\Users\X0217454\AppData\Local\Temp\cc7UAvFx.s 			page 22


 303:..\..\..\..\..\simplelink\source/driver.c ****     VERIFY_PROTOCOL(g_pCB->FlowContCB.TxPoolCnt > FLOW_CONT_MIN);
 892              		.loc 1 303 0 is_stmt 1
 893 0138 424B     		ldr	r3, .L76+4
 894 013a 1A68     		ldr	r2, [r3]
 895 013c 9323     		mov	r3, #147
 896 013e D35C     		ldrb	r3, [r2, r3]
 897 0140 012B     		cmp	r3, #1
 898 0142 00D8     		bhi	.L65
 899              	.L66:
 900              		.loc 1 303 0 is_stmt 0 discriminator 1
 901 0144 FEE7     		b	.L66
 902              	.L65:
 304:..\..\..\..\..\simplelink\source/driver.c ****     g_pCB->FlowContCB.TxPoolCnt--;
 903              		.loc 1 304 0 is_stmt 1
 904 0146 3F4B     		ldr	r3, .L76+4
 905 0148 1B68     		ldr	r3, [r3]
 906 014a 9322     		mov	r2, #147
 907 014c 9A5C     		ldrb	r2, [r3, r2]
 908 014e 013A     		sub	r2, r2, #1
 909 0150 D1B2     		uxtb	r1, r2
 910 0152 9322     		mov	r2, #147
 911 0154 9954     		strb	r1, [r3, r2]
 912              	.LBB18:
 305:..\..\..\..\..\simplelink\source/driver.c **** 
 306:..\..\..\..\..\simplelink\source/driver.c ****     OSI_RET_OK_CHECK( sl_LockObjUnlock(&g_pCB->FlowContCB.TxLockObj) );
 913              		.loc 1 306 0
 914 0156 3B4B     		ldr	r3, .L76+4
 915 0158 1B68     		ldr	r3, [r3]
 916 015a 9433     		add	r3, r3, #148
 917 015c 181C     		mov	r0, r3
 918 015e 3321     		mov	r1, #51
 919 0160 FFF7FEFF 		bl	_SlNonOsSemSet
 920 0164 031C     		mov	r3, r0
 921 0166 7B62     		str	r3, [r7, #36]
 922 0168 7B6A     		ldr	r3, [r7, #36]
 923 016a 002B     		cmp	r3, #0
 924 016c 00D0     		beq	.L67
 925              	.L68:
 926              		.loc 1 306 0 is_stmt 0 discriminator 1
 927 016e FEE7     		b	.L68
 928              	.L67:
 929              	.LBE18:
 307:..\..\..\..\..\simplelink\source/driver.c **** 
 308:..\..\..\..\..\simplelink\source/driver.c ****     /* send the message */
 309:..\..\..\..\..\simplelink\source/driver.c ****     g_pCB->TempProtocolHeader.Opcode 	= pCmdCtrl->Opcode;
 930              		.loc 1 309 0 is_stmt 1
 931 0170 344B     		ldr	r3, .L76+4
 932 0172 1B68     		ldr	r3, [r3]
 933 0174 BA68     		ldr	r2, [r7, #8]
 934 0176 1288     		ldrh	r2, [r2]
 935 0178 DA80     		strh	r2, [r3, #6]
 310:..\..\..\..\..\simplelink\source/driver.c ****     g_pCB->TempProtocolHeader.Len	= _SL_PROTOCOL_CALC_LEN(pCmdCtrl,pCmdExt);
 936              		.loc 1 310 0
 937 017a 324B     		ldr	r3, .L76+4
 938 017c 1A68     		ldr	r2, [r3]
 939 017e 3B68     		ldr	r3, [r7]
 940 0180 002B     		cmp	r3, #0
ARM GAS  C:\Users\X0217454\AppData\Local\Temp\cc7UAvFx.s 			page 23


 941 0182 10D0     		beq	.L69
 942              		.loc 1 310 0 is_stmt 0 discriminator 1
 943 0184 BB68     		ldr	r3, [r7, #8]
 944 0186 9B78     		ldrb	r3, [r3, #2]
 945 0188 0333     		add	r3, r3, #3
 946 018a 9BB2     		uxth	r3, r3
 947 018c 0321     		mov	r1, #3
 948 018e 8B43     		bic	r3, r1
 949 0190 99B2     		uxth	r1, r3
 950 0192 3B68     		ldr	r3, [r7]
 951 0194 1B88     		ldrh	r3, [r3]
 952 0196 0333     		add	r3, r3, #3
 953 0198 9BB2     		uxth	r3, r3
 954 019a 0320     		mov	r0, #3
 955 019c 8343     		bic	r3, r0
 956 019e 9BB2     		uxth	r3, r3
 957 01a0 CB18     		add	r3, r1, r3
 958 01a2 9BB2     		uxth	r3, r3
 959 01a4 06E0     		b	.L70
 960              	.L69:
 961              		.loc 1 310 0 discriminator 2
 962 01a6 BB68     		ldr	r3, [r7, #8]
 963 01a8 9B78     		ldrb	r3, [r3, #2]
 964 01aa 0333     		add	r3, r3, #3
 965 01ac 9BB2     		uxth	r3, r3
 966 01ae 0321     		mov	r1, #3
 967 01b0 8B43     		bic	r3, r1
 968 01b2 9BB2     		uxth	r3, r3
 969              	.L70:
 970              		.loc 1 310 0 discriminator 3
 971 01b4 1381     		strh	r3, [r2, #8]
 311:..\..\..\..\..\simplelink\source/driver.c ****     g_pCB->FunctionParams.pCmdCtrl      = pCmdCtrl;
 972              		.loc 1 311 0 is_stmt 1 discriminator 3
 973 01b6 234B     		ldr	r3, .L76+4
 974 01b8 1A68     		ldr	r2, [r3]
 975 01ba 9C23     		mov	r3, #156
 976 01bc B968     		ldr	r1, [r7, #8]
 977 01be D150     		str	r1, [r2, r3]
 312:..\..\..\..\..\simplelink\source/driver.c ****     g_pCB->FunctionParams.pTxRxDescBuff = (UINT8 *)pTxRxDescBuff;
 978              		.loc 1 312 0 discriminator 3
 979 01c0 204B     		ldr	r3, .L76+4
 980 01c2 1A68     		ldr	r2, [r3]
 981 01c4 A023     		mov	r3, #160
 982 01c6 7968     		ldr	r1, [r7, #4]
 983 01c8 D150     		str	r1, [r2, r3]
 313:..\..\..\..\..\simplelink\source/driver.c ****     g_pCB->FunctionParams.pCmdExt       = pCmdExt;
 984              		.loc 1 313 0 discriminator 3
 985 01ca 1E4B     		ldr	r3, .L76+4
 986 01cc 1A68     		ldr	r2, [r3]
 987 01ce A423     		mov	r3, #164
 988 01d0 3968     		ldr	r1, [r7]
 989 01d2 D150     		str	r1, [r2, r3]
 314:..\..\..\..\..\simplelink\source/driver.c ****     RetVal =  _SlDrvMsgWrite();
 990              		.loc 1 314 0 discriminator 3
 991 01d4 FFF7FEFF 		bl	_SlDrvMsgWrite
 992 01d8 031C     		mov	r3, r0
 993 01da 3B62     		str	r3, [r7, #32]
ARM GAS  C:\Users\X0217454\AppData\Local\Temp\cc7UAvFx.s 			page 24


 994              	.LBB19:
 315:..\..\..\..\..\simplelink\source/driver.c **** 
 316:..\..\..\..\..\simplelink\source/driver.c ****     OSI_RET_OK_CHECK(sl_LockObjUnlock(&g_pCB->GlobalLockObj));
 995              		.loc 1 316 0 discriminator 3
 996 01dc 194B     		ldr	r3, .L76+4
 997 01de 1B68     		ldr	r3, [r3]
 998 01e0 0433     		add	r3, r3, #4
 999 01e2 181C     		mov	r0, r3
 1000 01e4 3321     		mov	r1, #51
 1001 01e6 FFF7FEFF 		bl	_SlNonOsSemSet
 1002 01ea 031C     		mov	r3, r0
 1003 01ec FB61     		str	r3, [r7, #28]
 1004 01ee FB69     		ldr	r3, [r7, #28]
 1005 01f0 002B     		cmp	r3, #0
 1006 01f2 00D0     		beq	.L71
 1007              	.L72:
 1008              		.loc 1 316 0 is_stmt 0 discriminator 1
 1009 01f4 FEE7     		b	.L72
 1010              	.L71:
 1011              	.LBE19:
 317:..\..\..\..\..\simplelink\source/driver.c **** 
 318:..\..\..\..\..\simplelink\source/driver.c ****     if(SL_OS_RET_CODE_OK == RetVal)
 1012              		.loc 1 318 0 is_stmt 1
 1013 01f6 3B6A     		ldr	r3, [r7, #32]
 1014 01f8 002B     		cmp	r3, #0
 1015 01fa 16D1     		bne	.L73
 1016              	.LBB20:
 319:..\..\..\..\..\simplelink\source/driver.c ****     {
 320:..\..\..\..\..\simplelink\source/driver.c ****         /* Wait for response message. Will be signaled by _SlDrvMsgRead. */
 321:..\..\..\..\..\simplelink\source/driver.c **** 		OSI_RET_OK_CHECK(sl_SyncObjWait(&g_pCB->ObjPool[pObjIdx].SyncObj, SL_OS_WAIT_FOREVER));
 1017              		.loc 1 321 0
 1018 01fc 114B     		ldr	r3, .L76+4
 1019 01fe 1968     		ldr	r1, [r3]
 1020 0200 3B1C     		mov	r3, r7
 1021 0202 3F33     		add	r3, r3, #63
 1022 0204 1A78     		ldrb	r2, [r3]
 1023 0206 131C     		mov	r3, r2
 1024 0208 5B00     		lsl	r3, r3, #1
 1025 020a 9B18     		add	r3, r3, r2
 1026 020c 9B00     		lsl	r3, r3, #2
 1027 020e 1033     		add	r3, r3, #16
 1028 0210 CB18     		add	r3, r1, r3
 1029 0212 181C     		mov	r0, r3
 1030 0214 2221     		mov	r1, #34
 1031 0216 1122     		mov	r2, #17
 1032 0218 FF23     		mov	r3, #255
 1033 021a FFF7FEFF 		bl	_SlNonOsSemGet
 1034 021e 031C     		mov	r3, r0
 1035 0220 BB61     		str	r3, [r7, #24]
 1036 0222 BB69     		ldr	r3, [r7, #24]
 1037 0224 002B     		cmp	r3, #0
 1038 0226 00D0     		beq	.L73
 1039              	.L74:
 1040              		.loc 1 321 0 is_stmt 0 discriminator 1
 1041 0228 FEE7     		b	.L74
 1042              	.L73:
 1043              	.LBE20:
ARM GAS  C:\Users\X0217454\AppData\Local\Temp\cc7UAvFx.s 			page 25


 322:..\..\..\..\..\simplelink\source/driver.c ****     }
 323:..\..\..\..\..\simplelink\source/driver.c **** 
 324:..\..\..\..\..\simplelink\source/driver.c ****     _SlDrvReleasePoolObj(pObjIdx);
 1044              		.loc 1 324 0 is_stmt 1
 1045 022a 3B1C     		mov	r3, r7
 1046 022c 3F33     		add	r3, r3, #63
 1047 022e 1B78     		ldrb	r3, [r3]
 1048 0230 181C     		mov	r0, r3
 1049 0232 FFF7FEFF 		bl	_SlDrvReleasePoolObj
 325:..\..\..\..\..\simplelink\source/driver.c ****     return (int)RetVal;
 1050              		.loc 1 325 0
 1051 0236 3B6A     		ldr	r3, [r7, #32]
 1052              	.L75:
 326:..\..\..\..\..\simplelink\source/driver.c **** }
 1053              		.loc 1 326 0
 1054 0238 181C     		mov	r0, r3
 1055 023a BD46     		mov	sp, r7
 1056 023c 10B0     		add	sp, sp, #64
 1057              		@ sp needed for prologue
 1058 023e 80BD     		pop	{r7, pc}
 1059              	.L77:
 1060              		.align	2
 1061              	.L76:
 1062 0240 30F8FFFF 		.word	-2000
 1063 0244 00000000 		.word	g_pCB
 1064              		.cfi_endproc
 1065              	.LFE5:
 1066              		.size	_SlDrvDataReadOp, .-_SlDrvDataReadOp
 1067              		.section	.text._SlDrvDataWriteOp,"ax",%progbits
 1068              		.align	2
 1069              		.global	_SlDrvDataWriteOp
 1070              		.code	16
 1071              		.thumb_func
 1072              		.type	_SlDrvDataWriteOp, %function
 1073              	_SlDrvDataWriteOp:
 1074              	.LFB6:
 327:..\..\..\..\..\simplelink\source/driver.c **** 
 328:..\..\..\..\..\simplelink\source/driver.c **** /* ******************************************************************************/
 329:..\..\..\..\..\simplelink\source/driver.c **** /*   _SlDrvDataWriteOp                                                          */
 330:..\..\..\..\..\simplelink\source/driver.c **** /* ******************************************************************************/
 331:..\..\..\..\..\simplelink\source/driver.c **** _SlReturnVal_t _SlDrvDataWriteOp(
 332:..\..\..\..\..\simplelink\source/driver.c ****     _SlSd_t             Sd,
 333:..\..\..\..\..\simplelink\source/driver.c ****     _SlCmdCtrl_t  *pCmdCtrl ,
 334:..\..\..\..\..\simplelink\source/driver.c ****     void                *pTxRxDescBuff ,
 335:..\..\..\..\..\simplelink\source/driver.c ****     _SlCmdExt_t         *pCmdExt)
 336:..\..\..\..\..\simplelink\source/driver.c **** {
 1075              		.loc 1 336 0
 1076              		.cfi_startproc
 1077 0000 80B5     		push	{r7, lr}
 1078              	.LCFI18:
 1079              		.cfi_def_cfa_offset 8
 1080              		.cfi_offset 7, -8
 1081              		.cfi_offset 14, -4
 1082 0002 8EB0     		sub	sp, sp, #56
 1083              	.LCFI19:
 1084              		.cfi_def_cfa_offset 64
 1085 0004 00AF     		add	r7, sp, #0
ARM GAS  C:\Users\X0217454\AppData\Local\Temp\cc7UAvFx.s 			page 26


 1086              	.LCFI20:
 1087              		.cfi_def_cfa_register 7
 1088 0006 B960     		str	r1, [r7, #8]
 1089 0008 7A60     		str	r2, [r7, #4]
 1090 000a 3B60     		str	r3, [r7]
 1091 000c 3B1C     		mov	r3, r7
 1092 000e 0F33     		add	r3, r3, #15
 1093 0010 021C     		add	r2, r0, #0
 1094 0012 1A70     		strb	r2, [r3]
 337:..\..\..\..\..\simplelink\source/driver.c ****     _SlReturnVal_t  RetVal = SL_EAGAIN; /*  initiated as SL_EAGAIN for the non blocking mode */
 1095              		.loc 1 337 0
 1096 0014 0B23     		mov	r3, #11
 1097 0016 5B42     		neg	r3, r3
 1098 0018 7B63     		str	r3, [r7, #52]
 1099 001a 00E0     		b	.L94
 1100              	.L107:
 338:..\..\..\..\..\simplelink\source/driver.c **** 	while( 1 )
 339:..\..\..\..\..\simplelink\source/driver.c **** 	{
 340:..\..\..\..\..\simplelink\source/driver.c ****     /*  Do Flow Control check/update for DataWrite operation */
 341:..\..\..\..\..\simplelink\source/driver.c ****     OSI_RET_OK_CHECK( sl_LockObjLock(&g_pCB->FlowContCB.TxLockObj, SL_OS_WAIT_FOREVER) );
 342:..\..\..\..\..\simplelink\source/driver.c **** 
 343:..\..\..\..\..\simplelink\source/driver.c ****     /*  Clear SyncObj for the case it was signaled before TxPoolCnt */
 344:..\..\..\..\..\simplelink\source/driver.c ****     /*  dropped below '1' (last Data buffer was taken) */
 345:..\..\..\..\..\simplelink\source/driver.c **** 	/* OSI_RET_OK_CHECK( sl_SyncObjClear(&g_pCB->FlowContCB.TxSyncObj) ); */
 346:..\..\..\..\..\simplelink\source/driver.c **** 	sl_SyncObjClear(&g_pCB->FlowContCB.TxSyncObj);
 347:..\..\..\..\..\simplelink\source/driver.c **** 
 348:..\..\..\..\..\simplelink\source/driver.c **** 	/*  we have indication that the last send has failed - socket is no longer valid for operations  *
 349:..\..\..\..\..\simplelink\source/driver.c **** 	if(g_pCB->SocketTXFailure & (1<<(Sd & BSD_SOCKET_ID_MASK)))
 350:..\..\..\..\..\simplelink\source/driver.c **** 	{
 351:..\..\..\..\..\simplelink\source/driver.c **** 		OSI_RET_OK_CHECK( sl_LockObjUnlock(&g_pCB->FlowContCB.TxLockObj) );
 352:..\..\..\..\..\simplelink\source/driver.c ****         return SL_SOC_ERROR;
 353:..\..\..\..\..\simplelink\source/driver.c **** 	}
 354:..\..\..\..\..\simplelink\source/driver.c **** 		if(g_pCB->FlowContCB.TxPoolCnt <= FLOW_CONT_MIN + 1)
 355:..\..\..\..\..\simplelink\source/driver.c ****     {
 356:..\..\..\..\..\simplelink\source/driver.c ****         /*  we have indication that this socket is set as blocking and we try to  */
 357:..\..\..\..\..\simplelink\source/driver.c ****         /*  unblock it - return an error */
 358:..\..\..\..\..\simplelink\source/driver.c ****         if( g_pCB->SocketNonBlocking >> (Sd & BSD_SOCKET_ID_MASK) )
 359:..\..\..\..\..\simplelink\source/driver.c ****         {
 360:..\..\..\..\..\simplelink\source/driver.c ****             OSI_RET_OK_CHECK( sl_LockObjUnlock(&g_pCB->FlowContCB.TxLockObj) );
 361:..\..\..\..\..\simplelink\source/driver.c ****             return RetVal;
 362:..\..\..\..\..\simplelink\source/driver.c ****         }
 363:..\..\..\..\..\simplelink\source/driver.c ****         /*  If TxPoolCnt was increased by other thread at this moment, */
 364:..\..\..\..\..\simplelink\source/driver.c ****         /*  TxSyncObj won't wait here */
 365:..\..\..\..\..\simplelink\source/driver.c ****     	OSI_RET_OK_CHECK( sl_SyncObjWait(&g_pCB->FlowContCB.TxSyncObj, SL_OS_WAIT_FOREVER) );
 366:..\..\..\..\..\simplelink\source/driver.c ****     }
 367:..\..\..\..\..\simplelink\source/driver.c **** 		if(g_pCB->FlowContCB.TxPoolCnt > FLOW_CONT_MIN + 1 )
 368:..\..\..\..\..\simplelink\source/driver.c **** 		{
 369:..\..\..\..\..\simplelink\source/driver.c **** 			break;
 370:..\..\..\..\..\simplelink\source/driver.c **** 		}
 371:..\..\..\..\..\simplelink\source/driver.c **** 		else
 372:..\..\..\..\..\simplelink\source/driver.c **** 		{
 373:..\..\..\..\..\simplelink\source/driver.c **** 			OSI_RET_OK_CHECK( sl_LockObjUnlock(&g_pCB->FlowContCB.TxLockObj) );
 374:..\..\..\..\..\simplelink\source/driver.c **** 		}
 375:..\..\..\..\..\simplelink\source/driver.c **** 	}
 1101              		.loc 1 375 0
 1102 001c C046     		mov	r8, r8
 1103              	.L94:
ARM GAS  C:\Users\X0217454\AppData\Local\Temp\cc7UAvFx.s 			page 27


 1104              	.LBB21:
 341:..\..\..\..\..\simplelink\source/driver.c ****     OSI_RET_OK_CHECK( sl_LockObjLock(&g_pCB->FlowContCB.TxLockObj, SL_OS_WAIT_FOREVER) );
 1105              		.loc 1 341 0
 1106 001e 784B     		ldr	r3, .L108
 1107 0020 1B68     		ldr	r3, [r3]
 1108 0022 9433     		add	r3, r3, #148
 1109 0024 181C     		mov	r0, r3
 1110 0026 3321     		mov	r1, #51
 1111 0028 4422     		mov	r2, #68
 1112 002a FF23     		mov	r3, #255
 1113 002c FFF7FEFF 		bl	_SlNonOsSemGet
 1114 0030 031C     		mov	r3, r0
 1115 0032 3B63     		str	r3, [r7, #48]
 1116 0034 3B6B     		ldr	r3, [r7, #48]
 1117 0036 002B     		cmp	r3, #0
 1118 0038 00D0     		beq	.L79
 1119              	.L80:
 341:..\..\..\..\..\simplelink\source/driver.c ****     OSI_RET_OK_CHECK( sl_LockObjLock(&g_pCB->FlowContCB.TxLockObj, SL_OS_WAIT_FOREVER) );
 1120              		.loc 1 341 0 is_stmt 0 discriminator 1
 1121 003a FEE7     		b	.L80
 1122              	.L79:
 1123              	.LBE21:
 346:..\..\..\..\..\simplelink\source/driver.c **** 	sl_SyncObjClear(&g_pCB->FlowContCB.TxSyncObj);
 1124              		.loc 1 346 0 is_stmt 1
 1125 003c 704B     		ldr	r3, .L108
 1126 003e 1B68     		ldr	r3, [r3]
 1127 0040 9533     		add	r3, r3, #149
 1128 0042 181C     		mov	r0, r3
 1129 0044 2221     		mov	r1, #34
 1130 0046 1122     		mov	r2, #17
 1131 0048 0123     		mov	r3, #1
 1132 004a FFF7FEFF 		bl	_SlNonOsSemGet
 349:..\..\..\..\..\simplelink\source/driver.c **** 	if(g_pCB->SocketTXFailure & (1<<(Sd & BSD_SOCKET_ID_MASK)))
 1133              		.loc 1 349 0
 1134 004e 6C4B     		ldr	r3, .L108
 1135 0050 1A68     		ldr	r2, [r3]
 1136 0052 9A23     		mov	r3, #154
 1137 0054 D35C     		ldrb	r3, [r2, r3]
 1138 0056 1A1C     		mov	r2, r3
 1139 0058 3B1C     		mov	r3, r7
 1140 005a 0F33     		add	r3, r3, #15
 1141 005c 1978     		ldrb	r1, [r3]
 1142 005e 0F23     		mov	r3, #15
 1143 0060 0B40     		and	r3, r1
 1144 0062 1A41     		asr	r2, r2, r3
 1145 0064 0123     		mov	r3, #1
 1146 0066 1340     		and	r3, r2
 1147 0068 0FD0     		beq	.L81
 1148              	.LBB22:
 351:..\..\..\..\..\simplelink\source/driver.c **** 		OSI_RET_OK_CHECK( sl_LockObjUnlock(&g_pCB->FlowContCB.TxLockObj) );
 1149              		.loc 1 351 0
 1150 006a 654B     		ldr	r3, .L108
 1151 006c 1B68     		ldr	r3, [r3]
 1152 006e 9433     		add	r3, r3, #148
 1153 0070 181C     		mov	r0, r3
 1154 0072 3321     		mov	r1, #51
 1155 0074 FFF7FEFF 		bl	_SlNonOsSemSet
ARM GAS  C:\Users\X0217454\AppData\Local\Temp\cc7UAvFx.s 			page 28


 1156 0078 031C     		mov	r3, r0
 1157 007a FB62     		str	r3, [r7, #44]
 1158 007c FB6A     		ldr	r3, [r7, #44]
 1159 007e 002B     		cmp	r3, #0
 1160 0080 00D0     		beq	.L82
 1161              	.L83:
 351:..\..\..\..\..\simplelink\source/driver.c **** 		OSI_RET_OK_CHECK( sl_LockObjUnlock(&g_pCB->FlowContCB.TxLockObj) );
 1162              		.loc 1 351 0 is_stmt 0 discriminator 1
 1163 0082 FEE7     		b	.L83
 1164              	.L82:
 1165              	.LBE22:
 352:..\..\..\..\..\simplelink\source/driver.c ****         return SL_SOC_ERROR;
 1166              		.loc 1 352 0 is_stmt 1
 1167 0084 0123     		mov	r3, #1
 1168 0086 5B42     		neg	r3, r3
 1169 0088 B5E0     		b	.L84
 1170              	.L81:
 354:..\..\..\..\..\simplelink\source/driver.c **** 		if(g_pCB->FlowContCB.TxPoolCnt <= FLOW_CONT_MIN + 1)
 1171              		.loc 1 354 0
 1172 008a 5D4B     		ldr	r3, .L108
 1173 008c 1A68     		ldr	r2, [r3]
 1174 008e 9323     		mov	r3, #147
 1175 0090 D35C     		ldrb	r3, [r2, r3]
 1176 0092 022B     		cmp	r3, #2
 1177 0094 2CD8     		bhi	.L85
 358:..\..\..\..\..\simplelink\source/driver.c ****         if( g_pCB->SocketNonBlocking >> (Sd & BSD_SOCKET_ID_MASK) )
 1178              		.loc 1 358 0
 1179 0096 5A4B     		ldr	r3, .L108
 1180 0098 1A68     		ldr	r2, [r3]
 1181 009a 9923     		mov	r3, #153
 1182 009c D35C     		ldrb	r3, [r2, r3]
 1183 009e 1A1C     		mov	r2, r3
 1184 00a0 3B1C     		mov	r3, r7
 1185 00a2 0F33     		add	r3, r3, #15
 1186 00a4 1978     		ldrb	r1, [r3]
 1187 00a6 0F23     		mov	r3, #15
 1188 00a8 0B40     		and	r3, r1
 1189 00aa 111C     		mov	r1, r2
 1190 00ac 1941     		asr	r1, r1, r3
 1191 00ae 0B1C     		mov	r3, r1
 1192 00b0 002B     		cmp	r3, #0
 1193 00b2 0ED0     		beq	.L86
 1194              	.LBB23:
 360:..\..\..\..\..\simplelink\source/driver.c ****             OSI_RET_OK_CHECK( sl_LockObjUnlock(&g_pCB->FlowContCB.TxLockObj) );
 1195              		.loc 1 360 0
 1196 00b4 524B     		ldr	r3, .L108
 1197 00b6 1B68     		ldr	r3, [r3]
 1198 00b8 9433     		add	r3, r3, #148
 1199 00ba 181C     		mov	r0, r3
 1200 00bc 3321     		mov	r1, #51
 1201 00be FFF7FEFF 		bl	_SlNonOsSemSet
 1202 00c2 031C     		mov	r3, r0
 1203 00c4 BB62     		str	r3, [r7, #40]
 1204 00c6 BB6A     		ldr	r3, [r7, #40]
 1205 00c8 002B     		cmp	r3, #0
 1206 00ca 00D0     		beq	.L87
 1207              	.L88:
ARM GAS  C:\Users\X0217454\AppData\Local\Temp\cc7UAvFx.s 			page 29


 360:..\..\..\..\..\simplelink\source/driver.c ****             OSI_RET_OK_CHECK( sl_LockObjUnlock(&g_pCB->FlowContCB.TxLockObj) );
 1208              		.loc 1 360 0 is_stmt 0 discriminator 1
 1209 00cc FEE7     		b	.L88
 1210              	.L87:
 1211              	.LBE23:
 361:..\..\..\..\..\simplelink\source/driver.c ****             return RetVal;
 1212              		.loc 1 361 0 is_stmt 1
 1213 00ce 7B6B     		ldr	r3, [r7, #52]
 1214 00d0 91E0     		b	.L84
 1215              	.L86:
 1216              	.LBB24:
 365:..\..\..\..\..\simplelink\source/driver.c ****     	OSI_RET_OK_CHECK( sl_SyncObjWait(&g_pCB->FlowContCB.TxSyncObj, SL_OS_WAIT_FOREVER) );
 1217              		.loc 1 365 0
 1218 00d2 4B4B     		ldr	r3, .L108
 1219 00d4 1B68     		ldr	r3, [r3]
 1220 00d6 9533     		add	r3, r3, #149
 1221 00d8 181C     		mov	r0, r3
 1222 00da 2221     		mov	r1, #34
 1223 00dc 1122     		mov	r2, #17
 1224 00de FF23     		mov	r3, #255
 1225 00e0 FFF7FEFF 		bl	_SlNonOsSemGet
 1226 00e4 031C     		mov	r3, r0
 1227 00e6 7B62     		str	r3, [r7, #36]
 1228 00e8 7B6A     		ldr	r3, [r7, #36]
 1229 00ea 002B     		cmp	r3, #0
 1230 00ec 00D0     		beq	.L85
 1231              	.L89:
 365:..\..\..\..\..\simplelink\source/driver.c ****     	OSI_RET_OK_CHECK( sl_SyncObjWait(&g_pCB->FlowContCB.TxSyncObj, SL_OS_WAIT_FOREVER) );
 1232              		.loc 1 365 0 is_stmt 0 discriminator 1
 1233 00ee FEE7     		b	.L89
 1234              	.L85:
 1235              	.LBE24:
 367:..\..\..\..\..\simplelink\source/driver.c **** 		if(g_pCB->FlowContCB.TxPoolCnt > FLOW_CONT_MIN + 1 )
 1236              		.loc 1 367 0 is_stmt 1
 1237 00f0 434B     		ldr	r3, .L108
 1238 00f2 1A68     		ldr	r2, [r3]
 1239 00f4 9323     		mov	r3, #147
 1240 00f6 D35C     		ldrb	r3, [r2, r3]
 1241 00f8 022B     		cmp	r3, #2
 1242 00fa 0CD8     		bhi	.L106
 1243              	.L90:
 1244              	.LBB25:
 373:..\..\..\..\..\simplelink\source/driver.c **** 			OSI_RET_OK_CHECK( sl_LockObjUnlock(&g_pCB->FlowContCB.TxLockObj) );
 1245              		.loc 1 373 0
 1246 00fc 404B     		ldr	r3, .L108
 1247 00fe 1B68     		ldr	r3, [r3]
 1248 0100 9433     		add	r3, r3, #148
 1249 0102 181C     		mov	r0, r3
 1250 0104 3321     		mov	r1, #51
 1251 0106 FFF7FEFF 		bl	_SlNonOsSemSet
 1252 010a 031C     		mov	r3, r0
 1253 010c 7B61     		str	r3, [r7, #20]
 1254 010e 7B69     		ldr	r3, [r7, #20]
 1255 0110 002B     		cmp	r3, #0
 1256 0112 83D0     		beq	.L107
 1257              	.L93:
 373:..\..\..\..\..\simplelink\source/driver.c **** 			OSI_RET_OK_CHECK( sl_LockObjUnlock(&g_pCB->FlowContCB.TxLockObj) );
ARM GAS  C:\Users\X0217454\AppData\Local\Temp\cc7UAvFx.s 			page 30


 1258              		.loc 1 373 0 is_stmt 0 discriminator 1
 1259 0114 FEE7     		b	.L93
 1260              	.L106:
 1261              	.LBE25:
 369:..\..\..\..\..\simplelink\source/driver.c **** 			break;
 1262              		.loc 1 369 0 is_stmt 1
 1263 0116 C046     		mov	r8, r8
 1264              	.L105:
 1265              	.LBB26:
 376:..\..\..\..\..\simplelink\source/driver.c ****     OSI_RET_OK_CHECK( sl_LockObjLock(&g_pCB->GlobalLockObj, SL_OS_WAIT_FOREVER) );
 1266              		.loc 1 376 0
 1267 0118 394B     		ldr	r3, .L108
 1268 011a 1B68     		ldr	r3, [r3]
 1269 011c 0433     		add	r3, r3, #4
 1270 011e 181C     		mov	r0, r3
 1271 0120 3321     		mov	r1, #51
 1272 0122 4422     		mov	r2, #68
 1273 0124 FF23     		mov	r3, #255
 1274 0126 FFF7FEFF 		bl	_SlNonOsSemGet
 1275 012a 031C     		mov	r3, r0
 1276 012c 3B62     		str	r3, [r7, #32]
 1277 012e 3B6A     		ldr	r3, [r7, #32]
 1278 0130 002B     		cmp	r3, #0
 1279 0132 00D0     		beq	.L95
 1280              	.L96:
 1281              		.loc 1 376 0 is_stmt 0 discriminator 1
 1282 0134 FEE7     		b	.L96
 1283              	.L95:
 1284              	.LBE26:
 377:..\..\..\..\..\simplelink\source/driver.c **** 
 378:..\..\..\..\..\simplelink\source/driver.c ****     VERIFY_PROTOCOL(g_pCB->FlowContCB.TxPoolCnt > FLOW_CONT_MIN + 1 );
 1285              		.loc 1 378 0 is_stmt 1
 1286 0136 324B     		ldr	r3, .L108
 1287 0138 1A68     		ldr	r2, [r3]
 1288 013a 9323     		mov	r3, #147
 1289 013c D35C     		ldrb	r3, [r2, r3]
 1290 013e 022B     		cmp	r3, #2
 1291 0140 00D8     		bhi	.L97
 1292              	.L98:
 1293              		.loc 1 378 0 is_stmt 0 discriminator 1
 1294 0142 FEE7     		b	.L98
 1295              	.L97:
 379:..\..\..\..\..\simplelink\source/driver.c ****     g_pCB->FlowContCB.TxPoolCnt--;
 1296              		.loc 1 379 0 is_stmt 1
 1297 0144 2E4B     		ldr	r3, .L108
 1298 0146 1B68     		ldr	r3, [r3]
 1299 0148 9322     		mov	r2, #147
 1300 014a 9A5C     		ldrb	r2, [r3, r2]
 1301 014c 013A     		sub	r2, r2, #1
 1302 014e D1B2     		uxtb	r1, r2
 1303 0150 9322     		mov	r2, #147
 1304 0152 9954     		strb	r1, [r3, r2]
 1305              	.LBB27:
 380:..\..\..\..\..\simplelink\source/driver.c **** 
 381:..\..\..\..\..\simplelink\source/driver.c ****     OSI_RET_OK_CHECK( sl_LockObjUnlock(&g_pCB->FlowContCB.TxLockObj) );
 1306              		.loc 1 381 0
 1307 0154 2A4B     		ldr	r3, .L108
ARM GAS  C:\Users\X0217454\AppData\Local\Temp\cc7UAvFx.s 			page 31


 1308 0156 1B68     		ldr	r3, [r3]
 1309 0158 9433     		add	r3, r3, #148
 1310 015a 181C     		mov	r0, r3
 1311 015c 3321     		mov	r1, #51
 1312 015e FFF7FEFF 		bl	_SlNonOsSemSet
 1313 0162 031C     		mov	r3, r0
 1314 0164 FB61     		str	r3, [r7, #28]
 1315 0166 FB69     		ldr	r3, [r7, #28]
 1316 0168 002B     		cmp	r3, #0
 1317 016a 00D0     		beq	.L99
 1318              	.L100:
 1319              		.loc 1 381 0 is_stmt 0 discriminator 1
 1320 016c FEE7     		b	.L100
 1321              	.L99:
 1322              	.LBE27:
 382:..\..\..\..\..\simplelink\source/driver.c **** 
 383:..\..\..\..\..\simplelink\source/driver.c ****     /*  send the message */
 384:..\..\..\..\..\simplelink\source/driver.c ****     g_pCB->TempProtocolHeader.Opcode 	= pCmdCtrl->Opcode;
 1323              		.loc 1 384 0 is_stmt 1
 1324 016e 244B     		ldr	r3, .L108
 1325 0170 1B68     		ldr	r3, [r3]
 1326 0172 BA68     		ldr	r2, [r7, #8]
 1327 0174 1288     		ldrh	r2, [r2]
 1328 0176 DA80     		strh	r2, [r3, #6]
 385:..\..\..\..\..\simplelink\source/driver.c ****     g_pCB->TempProtocolHeader.Len	= _SL_PROTOCOL_CALC_LEN(pCmdCtrl,pCmdExt);
 1329              		.loc 1 385 0
 1330 0178 214B     		ldr	r3, .L108
 1331 017a 1A68     		ldr	r2, [r3]
 1332 017c 3B68     		ldr	r3, [r7]
 1333 017e 002B     		cmp	r3, #0
 1334 0180 10D0     		beq	.L101
 1335              		.loc 1 385 0 is_stmt 0 discriminator 1
 1336 0182 BB68     		ldr	r3, [r7, #8]
 1337 0184 9B78     		ldrb	r3, [r3, #2]
 1338 0186 0333     		add	r3, r3, #3
 1339 0188 9BB2     		uxth	r3, r3
 1340 018a 0321     		mov	r1, #3
 1341 018c 8B43     		bic	r3, r1
 1342 018e 99B2     		uxth	r1, r3
 1343 0190 3B68     		ldr	r3, [r7]
 1344 0192 1B88     		ldrh	r3, [r3]
 1345 0194 0333     		add	r3, r3, #3
 1346 0196 9BB2     		uxth	r3, r3
 1347 0198 0320     		mov	r0, #3
 1348 019a 8343     		bic	r3, r0
 1349 019c 9BB2     		uxth	r3, r3
 1350 019e CB18     		add	r3, r1, r3
 1351 01a0 9BB2     		uxth	r3, r3
 1352 01a2 06E0     		b	.L102
 1353              	.L101:
 1354              		.loc 1 385 0 discriminator 2
 1355 01a4 BB68     		ldr	r3, [r7, #8]
 1356 01a6 9B78     		ldrb	r3, [r3, #2]
 1357 01a8 0333     		add	r3, r3, #3
 1358 01aa 9BB2     		uxth	r3, r3
 1359 01ac 0321     		mov	r1, #3
 1360 01ae 8B43     		bic	r3, r1
ARM GAS  C:\Users\X0217454\AppData\Local\Temp\cc7UAvFx.s 			page 32


 1361 01b0 9BB2     		uxth	r3, r3
 1362              	.L102:
 1363              		.loc 1 385 0 discriminator 3
 1364 01b2 1381     		strh	r3, [r2, #8]
 386:..\..\..\..\..\simplelink\source/driver.c **** 
 387:..\..\..\..\..\simplelink\source/driver.c ****     g_pCB->FunctionParams.pCmdCtrl = pCmdCtrl;
 1365              		.loc 1 387 0 is_stmt 1 discriminator 3
 1366 01b4 124B     		ldr	r3, .L108
 1367 01b6 1A68     		ldr	r2, [r3]
 1368 01b8 9C23     		mov	r3, #156
 1369 01ba B968     		ldr	r1, [r7, #8]
 1370 01bc D150     		str	r1, [r2, r3]
 388:..\..\..\..\..\simplelink\source/driver.c ****     g_pCB->FunctionParams.pTxRxDescBuff = pTxRxDescBuff;
 1371              		.loc 1 388 0 discriminator 3
 1372 01be 104B     		ldr	r3, .L108
 1373 01c0 1A68     		ldr	r2, [r3]
 1374 01c2 A023     		mov	r3, #160
 1375 01c4 7968     		ldr	r1, [r7, #4]
 1376 01c6 D150     		str	r1, [r2, r3]
 389:..\..\..\..\..\simplelink\source/driver.c ****     g_pCB->FunctionParams.pCmdExt = pCmdExt;
 1377              		.loc 1 389 0 discriminator 3
 1378 01c8 0D4B     		ldr	r3, .L108
 1379 01ca 1A68     		ldr	r2, [r3]
 1380 01cc A423     		mov	r3, #164
 1381 01ce 3968     		ldr	r1, [r7]
 1382 01d0 D150     		str	r1, [r2, r3]
 390:..\..\..\..\..\simplelink\source/driver.c ****     RetVal =  _SlDrvMsgWrite();
 1383              		.loc 1 390 0 discriminator 3
 1384 01d2 FFF7FEFF 		bl	_SlDrvMsgWrite
 1385 01d6 031C     		mov	r3, r0
 1386 01d8 7B63     		str	r3, [r7, #52]
 1387              	.LBB28:
 391:..\..\..\..\..\simplelink\source/driver.c **** 
 392:..\..\..\..\..\simplelink\source/driver.c ****     OSI_RET_OK_CHECK( sl_LockObjUnlock(&g_pCB->GlobalLockObj) );
 1388              		.loc 1 392 0 discriminator 3
 1389 01da 094B     		ldr	r3, .L108
 1390 01dc 1B68     		ldr	r3, [r3]
 1391 01de 0433     		add	r3, r3, #4
 1392 01e0 181C     		mov	r0, r3
 1393 01e2 3321     		mov	r1, #51
 1394 01e4 FFF7FEFF 		bl	_SlNonOsSemSet
 1395 01e8 031C     		mov	r3, r0
 1396 01ea BB61     		str	r3, [r7, #24]
 1397 01ec BB69     		ldr	r3, [r7, #24]
 1398 01ee 002B     		cmp	r3, #0
 1399 01f0 00D0     		beq	.L103
 1400              	.L104:
 1401              		.loc 1 392 0 is_stmt 0 discriminator 1
 1402 01f2 FEE7     		b	.L104
 1403              	.L103:
 1404              	.LBE28:
 393:..\..\..\..\..\simplelink\source/driver.c **** 
 394:..\..\..\..\..\simplelink\source/driver.c ****     return(RetVal);
 1405              		.loc 1 394 0 is_stmt 1
 1406 01f4 7B6B     		ldr	r3, [r7, #52]
 1407              	.L84:
 395:..\..\..\..\..\simplelink\source/driver.c **** }
ARM GAS  C:\Users\X0217454\AppData\Local\Temp\cc7UAvFx.s 			page 33


 1408              		.loc 1 395 0
 1409 01f6 181C     		mov	r0, r3
 1410 01f8 BD46     		mov	sp, r7
 1411 01fa 0EB0     		add	sp, sp, #56
 1412              		@ sp needed for prologue
 1413 01fc 80BD     		pop	{r7, pc}
 1414              	.L109:
 1415 01fe C046     		.align	2
 1416              	.L108:
 1417 0200 00000000 		.word	g_pCB
 1418              		.cfi_endproc
 1419              	.LFE6:
 1420              		.size	_SlDrvDataWriteOp, .-_SlDrvDataWriteOp
 1421              		.section	.text._SlDrvMsgWrite,"ax",%progbits
 1422              		.align	2
 1423              		.global	_SlDrvMsgWrite
 1424              		.code	16
 1425              		.thumb_func
 1426              		.type	_SlDrvMsgWrite, %function
 1427              	_SlDrvMsgWrite:
 1428              	.LFB7:
 396:..\..\..\..\..\simplelink\source/driver.c **** 
 397:..\..\..\..\..\simplelink\source/driver.c **** /* ******************************************************************************/
 398:..\..\..\..\..\simplelink\source/driver.c **** /*  _SlDrvMsgWrite */
 399:..\..\..\..\..\simplelink\source/driver.c **** /* ******************************************************************************/
 400:..\..\..\..\..\simplelink\source/driver.c **** _SlReturnVal_t _SlDrvMsgWrite(void)
 401:..\..\..\..\..\simplelink\source/driver.c **** {
 1429              		.loc 1 401 0
 1430              		.cfi_startproc
 1431 0000 80B5     		push	{r7, lr}
 1432              	.LCFI21:
 1433              		.cfi_def_cfa_offset 8
 1434              		.cfi_offset 7, -8
 1435              		.cfi_offset 14, -4
 1436 0002 8AB0     		sub	sp, sp, #40
 1437              	.LCFI22:
 1438              		.cfi_def_cfa_offset 48
 1439 0004 00AF     		add	r7, sp, #0
 1440              	.LCFI23:
 1441              		.cfi_def_cfa_register 7
 402:..\..\..\..\..\simplelink\source/driver.c ****     VERIFY_PROTOCOL(NULL != g_pCB->FunctionParams.pCmdCtrl);
 1442              		.loc 1 402 0
 1443 0006 834B     		ldr	r3, .L129
 1444 0008 1A68     		ldr	r2, [r3]
 1445 000a 9C23     		mov	r3, #156
 1446 000c D358     		ldr	r3, [r2, r3]
 1447 000e 002B     		cmp	r3, #0
 1448 0010 00D1     		bne	.L111
 1449              	.L112:
 1450              		.loc 1 402 0 is_stmt 0 discriminator 1
 1451 0012 FEE7     		b	.L112
 1452              	.L111:
 403:..\..\..\..\..\simplelink\source/driver.c **** 
 404:..\..\..\..\..\simplelink\source/driver.c ****     g_pCB->TempProtocolHeader.Opcode 	= g_pCB->FunctionParams.pCmdCtrl->Opcode;
 1453              		.loc 1 404 0 is_stmt 1
 1454 0014 7F4B     		ldr	r3, .L129
 1455 0016 1A68     		ldr	r2, [r3]
ARM GAS  C:\Users\X0217454\AppData\Local\Temp\cc7UAvFx.s 			page 34


 1456 0018 7E4B     		ldr	r3, .L129
 1457 001a 1968     		ldr	r1, [r3]
 1458 001c 9C23     		mov	r3, #156
 1459 001e CB58     		ldr	r3, [r1, r3]
 1460 0020 1B88     		ldrh	r3, [r3]
 1461 0022 D380     		strh	r3, [r2, #6]
 405:..\..\..\..\..\simplelink\source/driver.c ****     g_pCB->TempProtocolHeader.Len	= _SL_PROTOCOL_CALC_LEN(g_pCB->FunctionParams.pCmdCtrl,
 1462              		.loc 1 405 0
 1463 0024 7B4B     		ldr	r3, .L129
 1464 0026 1A68     		ldr	r2, [r3]
 1465 0028 7A4B     		ldr	r3, .L129
 1466 002a 1968     		ldr	r1, [r3]
 1467 002c A423     		mov	r3, #164
 1468 002e CB58     		ldr	r3, [r1, r3]
 1469 0030 002B     		cmp	r3, #0
 1470 0032 16D0     		beq	.L113
 1471              		.loc 1 405 0 is_stmt 0 discriminator 1
 1472 0034 774B     		ldr	r3, .L129
 1473 0036 1968     		ldr	r1, [r3]
 1474 0038 9C23     		mov	r3, #156
 1475 003a CB58     		ldr	r3, [r1, r3]
 1476 003c 9B78     		ldrb	r3, [r3, #2]
 1477 003e 0333     		add	r3, r3, #3
 1478 0040 9BB2     		uxth	r3, r3
 1479 0042 0321     		mov	r1, #3
 1480 0044 8B43     		bic	r3, r1
 1481 0046 99B2     		uxth	r1, r3
 1482 0048 724B     		ldr	r3, .L129
 1483 004a 1868     		ldr	r0, [r3]
 1484 004c A423     		mov	r3, #164
 1485 004e C358     		ldr	r3, [r0, r3]
 1486 0050 1B88     		ldrh	r3, [r3]
 1487 0052 0333     		add	r3, r3, #3
 1488 0054 9BB2     		uxth	r3, r3
 1489 0056 0320     		mov	r0, #3
 1490 0058 8343     		bic	r3, r0
 1491 005a 9BB2     		uxth	r3, r3
 1492 005c CB18     		add	r3, r1, r3
 1493 005e 9BB2     		uxth	r3, r3
 1494 0060 09E0     		b	.L114
 1495              	.L113:
 1496              		.loc 1 405 0 discriminator 2
 1497 0062 6C4B     		ldr	r3, .L129
 1498 0064 1968     		ldr	r1, [r3]
 1499 0066 9C23     		mov	r3, #156
 1500 0068 CB58     		ldr	r3, [r1, r3]
 1501 006a 9B78     		ldrb	r3, [r3, #2]
 1502 006c 0333     		add	r3, r3, #3
 1503 006e 9BB2     		uxth	r3, r3
 1504 0070 0321     		mov	r1, #3
 1505 0072 8B43     		bic	r3, r1
 1506 0074 9BB2     		uxth	r3, r3
 1507              	.L114:
 1508              		.loc 1 405 0 discriminator 3
 1509 0076 1381     		strh	r3, [r2, #8]
 406:..\..\..\..\..\simplelink\source/driver.c ****                                                                 g_pCB->FunctionParams.pCmdExt);
 407:..\..\..\..\..\simplelink\source/driver.c ****     /*  */
ARM GAS  C:\Users\X0217454\AppData\Local\Temp\cc7UAvFx.s 			page 35


 408:..\..\..\..\..\simplelink\source/driver.c **** 	if (g_pCB->RelayFlagsViaRxPayload == TRUE)
 1510              		.loc 1 408 0 is_stmt 1 discriminator 3
 1511 0078 664B     		ldr	r3, .L129
 1512 007a 1A68     		ldr	r2, [r3]
 1513 007c 9B23     		mov	r3, #155
 1514 007e D35C     		ldrb	r3, [r2, r3]
 1515 0080 012B     		cmp	r3, #1
 1516 0082 0CD1     		bne	.L115
 409:..\..\..\..\..\simplelink\source/driver.c **** 	{
 410:..\..\..\..\..\simplelink\source/driver.c **** 		g_pCB->TempProtocolHeader.Len = g_pCB->TempProtocolHeader.Len + g_pCB->FunctionParams.pCmdExt->Rx
 1517              		.loc 1 410 0
 1518 0084 634B     		ldr	r3, .L129
 1519 0086 1A68     		ldr	r2, [r3]
 1520 0088 624B     		ldr	r3, .L129
 1521 008a 1B68     		ldr	r3, [r3]
 1522 008c 1989     		ldrh	r1, [r3, #8]
 1523 008e 614B     		ldr	r3, .L129
 1524 0090 1868     		ldr	r0, [r3]
 1525 0092 A423     		mov	r3, #164
 1526 0094 C358     		ldr	r3, [r0, r3]
 1527 0096 5B88     		ldrh	r3, [r3, #2]
 1528 0098 CB18     		add	r3, r1, r3
 1529 009a 9BB2     		uxth	r3, r3
 1530 009c 1381     		strh	r3, [r2, #8]
 1531              	.L115:
 1532              	.LBB29:
 411:..\..\..\..\..\simplelink\source/driver.c ****     }
 412:..\..\..\..\..\simplelink\source/driver.c **** 
 413:..\..\..\..\..\simplelink\source/driver.c **** #ifdef SL_START_WRITE_STAT
 414:..\..\..\..\..\simplelink\source/driver.c ****     sl_IfStartWriteSequence(g_pCB->FD);
 415:..\..\..\..\..\simplelink\source/driver.c **** #endif
 416:..\..\..\..\..\simplelink\source/driver.c **** 	
 417:..\..\..\..\..\simplelink\source/driver.c **** #ifdef SL_IF_TYPE_UART
 418:..\..\..\..\..\simplelink\source/driver.c **** 	/*  Write long sync pattern */
 419:..\..\..\..\..\simplelink\source/driver.c ****     NWP_IF_WRITE_CHECK(g_pCB->FD, (unsigned char *)&g_H2NSyncPattern.Long, 2*SYNC_PATTERN_LEN);
 1533              		.loc 1 419 0
 1534 009e 0823     		mov	r3, #8
 1535 00a0 7B62     		str	r3, [r7, #36]
 1536 00a2 5C4B     		ldr	r3, .L129
 1537 00a4 1B68     		ldr	r3, [r3]
 1538 00a6 1B68     		ldr	r3, [r3]
 1539 00a8 191C     		mov	r1, r3
 1540 00aa 5B4A     		ldr	r2, .L129+4
 1541 00ac 7B6A     		ldr	r3, [r7, #36]
 1542 00ae 081C     		mov	r0, r1
 1543 00b0 111C     		mov	r1, r2
 1544 00b2 1A1C     		mov	r2, r3
 1545 00b4 FFF7FEFF 		bl	uart_Write
 1546 00b8 031C     		mov	r3, r0
 1547 00ba 3B62     		str	r3, [r7, #32]
 1548 00bc 7A6A     		ldr	r2, [r7, #36]
 1549 00be 3B6A     		ldr	r3, [r7, #32]
 1550 00c0 9A42     		cmp	r2, r3
 1551 00c2 00D0     		beq	.L116
 1552              	.L117:
 1553              		.loc 1 419 0 is_stmt 0 discriminator 1
 1554 00c4 FEE7     		b	.L117
ARM GAS  C:\Users\X0217454\AppData\Local\Temp\cc7UAvFx.s 			page 36


 1555              	.L116:
 1556              	.LBE29:
 1557              	.LBB30:
 420:..\..\..\..\..\simplelink\source/driver.c **** #else
 421:..\..\..\..\..\simplelink\source/driver.c **** 	/*  Write short sync pattern */
 422:..\..\..\..\..\simplelink\source/driver.c **** 	NWP_IF_WRITE_CHECK(g_pCB->FD, (unsigned char *)&g_H2NSyncPattern.Short, SYNC_PATTERN_LEN);
 423:..\..\..\..\..\simplelink\source/driver.c **** #endif
 424:..\..\..\..\..\simplelink\source/driver.c **** 
 425:..\..\..\..\..\simplelink\source/driver.c ****     /*  Header */
 426:..\..\..\..\..\simplelink\source/driver.c ****     NWP_IF_WRITE_CHECK(g_pCB->FD, (unsigned char *)&g_pCB->TempProtocolHeader, _SL_CMD_HDR_SIZE);
 1558              		.loc 1 426 0 is_stmt 1
 1559 00c6 0423     		mov	r3, #4
 1560 00c8 FB61     		str	r3, [r7, #28]
 1561 00ca 524B     		ldr	r3, .L129
 1562 00cc 1B68     		ldr	r3, [r3]
 1563 00ce 1B68     		ldr	r3, [r3]
 1564 00d0 191C     		mov	r1, r3
 1565 00d2 504B     		ldr	r3, .L129
 1566 00d4 1B68     		ldr	r3, [r3]
 1567 00d6 9A1D     		add	r2, r3, #6
 1568 00d8 FB69     		ldr	r3, [r7, #28]
 1569 00da 081C     		mov	r0, r1
 1570 00dc 111C     		mov	r1, r2
 1571 00de 1A1C     		mov	r2, r3
 1572 00e0 FFF7FEFF 		bl	uart_Write
 1573 00e4 031C     		mov	r3, r0
 1574 00e6 BB61     		str	r3, [r7, #24]
 1575 00e8 FA69     		ldr	r2, [r7, #28]
 1576 00ea BB69     		ldr	r3, [r7, #24]
 1577 00ec 9A42     		cmp	r2, r3
 1578 00ee 00D0     		beq	.L118
 1579              	.L119:
 1580              		.loc 1 426 0 is_stmt 0 discriminator 1
 1581 00f0 FEE7     		b	.L119
 1582              	.L118:
 1583              	.LBE30:
 427:..\..\..\..\..\simplelink\source/driver.c **** 
 428:..\..\..\..\..\simplelink\source/driver.c ****     /*  Descriptors */
 429:..\..\..\..\..\simplelink\source/driver.c ****     if (g_pCB->FunctionParams.pTxRxDescBuff && g_pCB->FunctionParams.pCmdCtrl->TxDescLen > 0)
 1584              		.loc 1 429 0 is_stmt 1
 1585 00f2 484B     		ldr	r3, .L129
 1586 00f4 1A68     		ldr	r2, [r3]
 1587 00f6 A023     		mov	r3, #160
 1588 00f8 D358     		ldr	r3, [r2, r3]
 1589 00fa 002B     		cmp	r3, #0
 1590 00fc 24D0     		beq	.L120
 1591              		.loc 1 429 0 is_stmt 0 discriminator 1
 1592 00fe 454B     		ldr	r3, .L129
 1593 0100 1A68     		ldr	r2, [r3]
 1594 0102 9C23     		mov	r3, #156
 1595 0104 D358     		ldr	r3, [r2, r3]
 1596 0106 9B78     		ldrb	r3, [r3, #2]
 1597 0108 002B     		cmp	r3, #0
 1598 010a 1DD0     		beq	.L120
 1599              	.LBB31:
 430:..\..\..\..\..\simplelink\source/driver.c ****     {
 431:..\..\..\..\..\simplelink\source/driver.c ****     	NWP_IF_WRITE_CHECK(g_pCB->FD, g_pCB->FunctionParams.pTxRxDescBuff, 
ARM GAS  C:\Users\X0217454\AppData\Local\Temp\cc7UAvFx.s 			page 37


 1600              		.loc 1 431 0 is_stmt 1
 1601 010c 414B     		ldr	r3, .L129
 1602 010e 1A68     		ldr	r2, [r3]
 1603 0110 9C23     		mov	r3, #156
 1604 0112 D358     		ldr	r3, [r2, r3]
 1605 0114 9B78     		ldrb	r3, [r3, #2]
 1606 0116 0333     		add	r3, r3, #3
 1607 0118 0322     		mov	r2, #3
 1608 011a 9343     		bic	r3, r2
 1609 011c 7B61     		str	r3, [r7, #20]
 1610 011e 3D4B     		ldr	r3, .L129
 1611 0120 1B68     		ldr	r3, [r3]
 1612 0122 1B68     		ldr	r3, [r3]
 1613 0124 191C     		mov	r1, r3
 1614 0126 3B4B     		ldr	r3, .L129
 1615 0128 1A68     		ldr	r2, [r3]
 1616 012a A023     		mov	r3, #160
 1617 012c D258     		ldr	r2, [r2, r3]
 1618 012e 7B69     		ldr	r3, [r7, #20]
 1619 0130 081C     		mov	r0, r1
 1620 0132 111C     		mov	r1, r2
 1621 0134 1A1C     		mov	r2, r3
 1622 0136 FFF7FEFF 		bl	uart_Write
 1623 013a 031C     		mov	r3, r0
 1624 013c 3B61     		str	r3, [r7, #16]
 1625 013e 7A69     		ldr	r2, [r7, #20]
 1626 0140 3B69     		ldr	r3, [r7, #16]
 1627 0142 9A42     		cmp	r2, r3
 1628 0144 00D0     		beq	.L120
 1629              	.L121:
 1630              		.loc 1 431 0 is_stmt 0 discriminator 1
 1631 0146 FEE7     		b	.L121
 1632              	.L120:
 1633              	.LBE31:
 432:..\..\..\..\..\simplelink\source/driver.c ****                            _SL_PROTOCOL_ALIGN_SIZE(g_pCB->FunctionParams.pCmdCtrl->TxDescLen));
 433:..\..\..\..\..\simplelink\source/driver.c ****     }
 434:..\..\..\..\..\simplelink\source/driver.c **** 
 435:..\..\..\..\..\simplelink\source/driver.c **** 	/*  A special mode where Rx payload and Rx length are used as Tx as well */
 436:..\..\..\..\..\simplelink\source/driver.c **** 	/*  This mode requires no Rx payload on the response and currently used by fs_Close and sl_Send on
 437:..\..\..\..\..\simplelink\source/driver.c **** 	/*  tranceiver mode */
 438:..\..\..\..\..\simplelink\source/driver.c ****     if (g_pCB->RelayFlagsViaRxPayload == TRUE )
 1634              		.loc 1 438 0 is_stmt 1
 1635 0148 324B     		ldr	r3, .L129
 1636 014a 1A68     		ldr	r2, [r3]
 1637 014c 9B23     		mov	r3, #155
 1638 014e D35C     		ldrb	r3, [r2, r3]
 1639 0150 012B     		cmp	r3, #1
 1640 0152 23D1     		bne	.L122
 439:..\..\..\..\..\simplelink\source/driver.c ****     {
 440:..\..\..\..\..\simplelink\source/driver.c ****         g_pCB->RelayFlagsViaRxPayload = FALSE;
 1641              		.loc 1 440 0
 1642 0154 2F4B     		ldr	r3, .L129
 1643 0156 1A68     		ldr	r2, [r3]
 1644 0158 9B23     		mov	r3, #155
 1645 015a 0021     		mov	r1, #0
 1646 015c D154     		strb	r1, [r2, r3]
 1647              	.LBB32:
ARM GAS  C:\Users\X0217454\AppData\Local\Temp\cc7UAvFx.s 			page 38


 441:..\..\..\..\..\simplelink\source/driver.c ****      	NWP_IF_WRITE_CHECK(g_pCB->FD, g_pCB->FunctionParams.pCmdExt->pRxPayload, 
 1648              		.loc 1 441 0
 1649 015e 2D4B     		ldr	r3, .L129
 1650 0160 1A68     		ldr	r2, [r3]
 1651 0162 A423     		mov	r3, #164
 1652 0164 D358     		ldr	r3, [r2, r3]
 1653 0166 5B88     		ldrh	r3, [r3, #2]
 1654 0168 0333     		add	r3, r3, #3
 1655 016a 0322     		mov	r2, #3
 1656 016c 9343     		bic	r3, r2
 1657 016e FB60     		str	r3, [r7, #12]
 1658 0170 284B     		ldr	r3, .L129
 1659 0172 1B68     		ldr	r3, [r3]
 1660 0174 1B68     		ldr	r3, [r3]
 1661 0176 191C     		mov	r1, r3
 1662 0178 264B     		ldr	r3, .L129
 1663 017a 1A68     		ldr	r2, [r3]
 1664 017c A423     		mov	r3, #164
 1665 017e D358     		ldr	r3, [r2, r3]
 1666 0180 DA68     		ldr	r2, [r3, #12]
 1667 0182 FB68     		ldr	r3, [r7, #12]
 1668 0184 081C     		mov	r0, r1
 1669 0186 111C     		mov	r1, r2
 1670 0188 1A1C     		mov	r2, r3
 1671 018a FFF7FEFF 		bl	uart_Write
 1672 018e 031C     		mov	r3, r0
 1673 0190 BB60     		str	r3, [r7, #8]
 1674 0192 FA68     		ldr	r2, [r7, #12]
 1675 0194 BB68     		ldr	r3, [r7, #8]
 1676 0196 9A42     		cmp	r2, r3
 1677 0198 00D0     		beq	.L122
 1678              	.L123:
 1679              		.loc 1 441 0 is_stmt 0 discriminator 1
 1680 019a FEE7     		b	.L123
 1681              	.L122:
 1682              	.LBE32:
 442:..\..\..\..\..\simplelink\source/driver.c ****                            _SL_PROTOCOL_ALIGN_SIZE(g_pCB->FunctionParams.pCmdExt->RxPayloadLen));
 443:..\..\..\..\..\simplelink\source/driver.c ****     }
 444:..\..\..\..\..\simplelink\source/driver.c **** 	
 445:..\..\..\..\..\simplelink\source/driver.c ****     /*  Payload */
 446:..\..\..\..\..\simplelink\source/driver.c ****     if (g_pCB->FunctionParams.pCmdExt && g_pCB->FunctionParams.pCmdExt->TxPayloadLen > 0)
 1683              		.loc 1 446 0 is_stmt 1
 1684 019c 1D4B     		ldr	r3, .L129
 1685 019e 1A68     		ldr	r2, [r3]
 1686 01a0 A423     		mov	r3, #164
 1687 01a2 D358     		ldr	r3, [r2, r3]
 1688 01a4 002B     		cmp	r3, #0
 1689 01a6 2FD0     		beq	.L124
 1690              		.loc 1 446 0 is_stmt 0 discriminator 1
 1691 01a8 1A4B     		ldr	r3, .L129
 1692 01aa 1A68     		ldr	r2, [r3]
 1693 01ac A423     		mov	r3, #164
 1694 01ae D358     		ldr	r3, [r2, r3]
 1695 01b0 1B88     		ldrh	r3, [r3]
 1696 01b2 002B     		cmp	r3, #0
 1697 01b4 28D0     		beq	.L124
 447:..\..\..\..\..\simplelink\source/driver.c ****     {
ARM GAS  C:\Users\X0217454\AppData\Local\Temp\cc7UAvFx.s 			page 39


 448:..\..\..\..\..\simplelink\source/driver.c ****         /*  If the message has payload, it is mandatory that the message's arguments are protocol a
 449:..\..\..\..\..\simplelink\source/driver.c ****         /*  Otherwise the alignning of arguments will create a gap between argumants and payload. *
 450:..\..\..\..\..\simplelink\source/driver.c ****         VERIFY_PROTOCOL(_SL_IS_PROTOCOL_ALIGNED_SIZE(g_pCB->FunctionParams.pCmdCtrl->TxDescLen));
 1698              		.loc 1 450 0 is_stmt 1
 1699 01b6 174B     		ldr	r3, .L129
 1700 01b8 1A68     		ldr	r2, [r3]
 1701 01ba 9C23     		mov	r3, #156
 1702 01bc D358     		ldr	r3, [r2, r3]
 1703 01be 9B78     		ldrb	r3, [r3, #2]
 1704 01c0 1A1C     		mov	r2, r3
 1705 01c2 0323     		mov	r3, #3
 1706 01c4 1340     		and	r3, r2
 1707 01c6 00D0     		beq	.L125
 1708              	.L126:
 1709              		.loc 1 450 0 is_stmt 0 discriminator 1
 1710 01c8 FEE7     		b	.L126
 1711              	.L125:
 1712              	.LBB33:
 451:..\..\..\..\..\simplelink\source/driver.c **** 
 452:..\..\..\..\..\simplelink\source/driver.c ****     	NWP_IF_WRITE_CHECK(g_pCB->FD, g_pCB->FunctionParams.pCmdExt->pTxPayload, 
 1713              		.loc 1 452 0 is_stmt 1
 1714 01ca 124B     		ldr	r3, .L129
 1715 01cc 1A68     		ldr	r2, [r3]
 1716 01ce A423     		mov	r3, #164
 1717 01d0 D358     		ldr	r3, [r2, r3]
 1718 01d2 1B88     		ldrh	r3, [r3]
 1719 01d4 0333     		add	r3, r3, #3
 1720 01d6 0322     		mov	r2, #3
 1721 01d8 9343     		bic	r3, r2
 1722 01da 7B60     		str	r3, [r7, #4]
 1723 01dc 0D4B     		ldr	r3, .L129
 1724 01de 1B68     		ldr	r3, [r3]
 1725 01e0 1B68     		ldr	r3, [r3]
 1726 01e2 191C     		mov	r1, r3
 1727 01e4 0B4B     		ldr	r3, .L129
 1728 01e6 1A68     		ldr	r2, [r3]
 1729 01e8 A423     		mov	r3, #164
 1730 01ea D358     		ldr	r3, [r2, r3]
 1731 01ec 9A68     		ldr	r2, [r3, #8]
 1732 01ee 7B68     		ldr	r3, [r7, #4]
 1733 01f0 081C     		mov	r0, r1
 1734 01f2 111C     		mov	r1, r2
 1735 01f4 1A1C     		mov	r2, r3
 1736 01f6 FFF7FEFF 		bl	uart_Write
 1737 01fa 031C     		mov	r3, r0
 1738 01fc 3B60     		str	r3, [r7]
 1739 01fe 7A68     		ldr	r2, [r7, #4]
 1740 0200 3B68     		ldr	r3, [r7]
 1741 0202 9A42     		cmp	r2, r3
 1742 0204 00D0     		beq	.L124
 1743              	.L127:
 1744              		.loc 1 452 0 is_stmt 0 discriminator 1
 1745 0206 FEE7     		b	.L127
 1746              	.L124:
 1747              	.LBE33:
 453:..\..\..\..\..\simplelink\source/driver.c ****                            _SL_PROTOCOL_ALIGN_SIZE(g_pCB->FunctionParams.pCmdExt->TxPayloadLen));
 454:..\..\..\..\..\simplelink\source/driver.c ****     }
ARM GAS  C:\Users\X0217454\AppData\Local\Temp\cc7UAvFx.s 			page 40


 455:..\..\..\..\..\simplelink\source/driver.c **** 
 456:..\..\..\..\..\simplelink\source/driver.c **** 
 457:..\..\..\..\..\simplelink\source/driver.c ****     _SL_DBG_CNT_INC(MsgCnt.Write);
 458:..\..\..\..\..\simplelink\source/driver.c **** 
 459:..\..\..\..\..\simplelink\source/driver.c **** #ifdef SL_START_WRITE_STAT
 460:..\..\..\..\..\simplelink\source/driver.c ****     sl_IfEndWriteSequence(g_pCB->FD);
 461:..\..\..\..\..\simplelink\source/driver.c **** #endif
 462:..\..\..\..\..\simplelink\source/driver.c **** 
 463:..\..\..\..\..\simplelink\source/driver.c ****     return SL_OS_RET_CODE_OK;
 1748              		.loc 1 463 0 is_stmt 1
 1749 0208 0023     		mov	r3, #0
 464:..\..\..\..\..\simplelink\source/driver.c **** }
 1750              		.loc 1 464 0
 1751 020a 181C     		mov	r0, r3
 1752 020c BD46     		mov	sp, r7
 1753 020e 0AB0     		add	sp, sp, #40
 1754              		@ sp needed for prologue
 1755 0210 80BD     		pop	{r7, pc}
 1756              	.L130:
 1757 0212 C046     		.align	2
 1758              	.L129:
 1759 0214 00000000 		.word	g_pCB
 1760 0218 00000000 		.word	g_H2NSyncPattern
 1761              		.cfi_endproc
 1762              	.LFE7:
 1763              		.size	_SlDrvMsgWrite, .-_SlDrvMsgWrite
 1764              		.section	.text._SlDrvMsgRead,"ax",%progbits
 1765              		.align	2
 1766              		.global	_SlDrvMsgRead
 1767              		.code	16
 1768              		.thumb_func
 1769              		.type	_SlDrvMsgRead, %function
 1770              	_SlDrvMsgRead:
 1771              	.LFB8:
 465:..\..\..\..\..\simplelink\source/driver.c **** 
 466:..\..\..\..\..\simplelink\source/driver.c **** /* ******************************************************************************/
 467:..\..\..\..\..\simplelink\source/driver.c **** /*  _SlDrvMsgRead  */
 468:..\..\..\..\..\simplelink\source/driver.c **** /* ******************************************************************************/
 469:..\..\..\..\..\simplelink\source/driver.c **** #define OPCODE(_ptr)          (((_SlResponseHeader_t *)(_ptr))->GenHeader.Opcode)         
 470:..\..\..\..\..\simplelink\source/driver.c **** #define RSP_PAYLOAD_LEN(_ptr) (((_SlResponseHeader_t *)(_ptr))->GenHeader.Len - _SL_RESP_SPEC_HDR_S
 471:..\..\..\..\..\simplelink\source/driver.c **** #define SD(_ptr)              (((_SocketAddrResponse_u *)(_ptr))->IpV4.sd)
 472:..\..\..\..\..\simplelink\source/driver.c **** /*  Actual size of Recv/Recvfrom response data  */
 473:..\..\..\..\..\simplelink\source/driver.c **** #define ACT_DATA_SIZE(_ptr)   (((_SocketAddrResponse_u *)(_ptr))->IpV4.statusOrLen)
 474:..\..\..\..\..\simplelink\source/driver.c **** 
 475:..\..\..\..\..\simplelink\source/driver.c **** _SlReturnVal_t _SlDrvMsgRead(void)
 476:..\..\..\..\..\simplelink\source/driver.c **** {
 1772              		.loc 1 476 0
 1773              		.cfi_startproc
 1774 0000 80B5     		push	{r7, lr}
 1775              	.LCFI24:
 1776              		.cfi_def_cfa_offset 8
 1777              		.cfi_offset 7, -8
 1778              		.cfi_offset 14, -4
 1779 0002 A4B0     		sub	sp, sp, #144
 1780              	.LCFI25:
 1781              		.cfi_def_cfa_offset 152
 1782 0004 00AF     		add	r7, sp, #0
ARM GAS  C:\Users\X0217454\AppData\Local\Temp\cc7UAvFx.s 			page 41


 1783              	.LCFI26:
 1784              		.cfi_def_cfa_register 7
 1785              	.LBB34:
 477:..\..\..\..\..\simplelink\source/driver.c ****     /*  aligment for small memory models */
 478:..\..\..\..\..\simplelink\source/driver.c ****     union
 479:..\..\..\..\..\simplelink\source/driver.c ****     {      
 480:..\..\..\..\..\simplelink\source/driver.c ****       UINT8                TempBuf[_SL_RESP_HDR_SIZE];
 481:..\..\..\..\..\simplelink\source/driver.c ****       UINT32               DummyBuf[2];
 482:..\..\..\..\..\simplelink\source/driver.c ****     } uBuf;
 483:..\..\..\..\..\simplelink\source/driver.c ****     UINT8                TailBuffer[4];
 484:..\..\..\..\..\simplelink\source/driver.c ****     UINT16               LengthToCopy;
 485:..\..\..\..\..\simplelink\source/driver.c ****     UINT16               AlignedLengthRecv;
 486:..\..\..\..\..\simplelink\source/driver.c ****     UINT8                AlignSize;
 487:..\..\..\..\..\simplelink\source/driver.c **** 
 488:..\..\..\..\..\simplelink\source/driver.c ****     VERIFY_RET_OK(_SlDrvRxHdrRead((UINT8*)(uBuf.TempBuf), &AlignSize));
 1786              		.loc 1 488 0
 1787 0006 3A1C     		mov	r2, r7
 1788 0008 0832     		add	r2, r2, #8
 1789 000a FB1C     		add	r3, r7, #3
 1790 000c 101C     		mov	r0, r2
 1791 000e 191C     		mov	r1, r3
 1792 0010 FFF7FEFF 		bl	_SlDrvRxHdrRead
 1793 0014 031C     		mov	r3, r0
 1794 0016 8421     		mov	r1, #132
 1795 0018 C919     		add	r1, r1, r7
 1796 001a 0B60     		str	r3, [r1]
 1797 001c 8422     		mov	r2, #132
 1798 001e D219     		add	r2, r2, r7
 1799 0020 1368     		ldr	r3, [r2]
 1800 0022 002B     		cmp	r3, #0
 1801 0024 00D0     		beq	.L132
 1802              	.L133:
 1803              		.loc 1 488 0 is_stmt 0 discriminator 1
 1804 0026 FEE7     		b	.L133
 1805              	.L132:
 1806              	.LBE34:
 489:..\..\..\..\..\simplelink\source/driver.c **** 
 490:..\..\..\..\..\simplelink\source/driver.c ****     /* 'Init Compelete' message bears no valid FlowControl info */
 491:..\..\..\..\..\simplelink\source/driver.c ****     if(SL_OPCODE_DEVICE_INITCOMPLETE != OPCODE(uBuf.TempBuf))
 1807              		.loc 1 491 0 is_stmt 1
 1808 0028 3B1C     		mov	r3, r7
 1809 002a 0833     		add	r3, r3, #8
 1810 002c 1B88     		ldrh	r3, [r3]
 1811 002e 082B     		cmp	r3, #8
 1812 0030 2BD0     		beq	.L134
 492:..\..\..\..\..\simplelink\source/driver.c ****     {
 493:..\..\..\..\..\simplelink\source/driver.c ****         g_pCB->FlowContCB.TxPoolCnt = ((_SlResponseHeader_t *)uBuf.TempBuf)->TxPoolCnt;
 1813              		.loc 1 493 0
 1814 0032 B74B     		ldr	r3, .L207
 1815 0034 1A68     		ldr	r2, [r3]
 1816 0036 3B1C     		mov	r3, r7
 1817 0038 0833     		add	r3, r3, #8
 1818 003a 1979     		ldrb	r1, [r3, #4]
 1819 003c 9323     		mov	r3, #147
 1820 003e D154     		strb	r1, [r2, r3]
 494:..\..\..\..\..\simplelink\source/driver.c ****         g_pCB->SocketNonBlocking = ((_SlResponseHeader_t *)uBuf.TempBuf)->SocketNonBlocking;
 1821              		.loc 1 494 0
ARM GAS  C:\Users\X0217454\AppData\Local\Temp\cc7UAvFx.s 			page 42


 1822 0040 B34B     		ldr	r3, .L207
 1823 0042 1A68     		ldr	r2, [r3]
 1824 0044 3B1C     		mov	r3, r7
 1825 0046 0833     		add	r3, r3, #8
 1826 0048 D979     		ldrb	r1, [r3, #7]
 1827 004a 9923     		mov	r3, #153
 1828 004c D154     		strb	r1, [r2, r3]
 495:..\..\..\..\..\simplelink\source/driver.c **** 		g_pCB->SocketTXFailure = ((_SlResponseHeader_t *)uBuf.TempBuf)->SocketTXFailure;
 1829              		.loc 1 495 0
 1830 004e B04B     		ldr	r3, .L207
 1831 0050 1A68     		ldr	r2, [r3]
 1832 0052 3B1C     		mov	r3, r7
 1833 0054 0833     		add	r3, r3, #8
 1834 0056 9979     		ldrb	r1, [r3, #6]
 1835 0058 9A23     		mov	r3, #154
 1836 005a D154     		strb	r1, [r2, r3]
 496:..\..\..\..\..\simplelink\source/driver.c ****    
 497:..\..\..\..\..\simplelink\source/driver.c ****         if(g_pCB->FlowContCB.TxPoolCnt > FLOW_CONT_MIN)
 1837              		.loc 1 497 0
 1838 005c AC4B     		ldr	r3, .L207
 1839 005e 1A68     		ldr	r2, [r3]
 1840 0060 9323     		mov	r3, #147
 1841 0062 D35C     		ldrb	r3, [r2, r3]
 1842 0064 012B     		cmp	r3, #1
 1843 0066 10D9     		bls	.L134
 1844              	.LBB35:
 498:..\..\..\..\..\simplelink\source/driver.c ****         {
 499:..\..\..\..\..\simplelink\source/driver.c ****             OSI_RET_OK_CHECK(sl_SyncObjSignal(&g_pCB->FlowContCB.TxSyncObj));
 1845              		.loc 1 499 0
 1846 0068 A94B     		ldr	r3, .L207
 1847 006a 1B68     		ldr	r3, [r3]
 1848 006c 9533     		add	r3, r3, #149
 1849 006e 181C     		mov	r0, r3
 1850 0070 2221     		mov	r1, #34
 1851 0072 FFF7FEFF 		bl	_SlNonOsSemSet
 1852 0076 031C     		mov	r3, r0
 1853 0078 8021     		mov	r1, #128
 1854 007a C919     		add	r1, r1, r7
 1855 007c 0B60     		str	r3, [r1]
 1856 007e 8022     		mov	r2, #128
 1857 0080 D219     		add	r2, r2, r7
 1858 0082 1368     		ldr	r3, [r2]
 1859 0084 002B     		cmp	r3, #0
 1860 0086 00D0     		beq	.L134
 1861              	.L135:
 1862              		.loc 1 499 0 is_stmt 0 discriminator 1
 1863 0088 FEE7     		b	.L135
 1864              	.L134:
 1865              	.LBE35:
 500:..\..\..\..\..\simplelink\source/driver.c ****         }
 501:..\..\..\..\..\simplelink\source/driver.c ****     }
 502:..\..\..\..\..\simplelink\source/driver.c **** 
 503:..\..\..\..\..\simplelink\source/driver.c ****     _SlDrvClassifyRxMsg(OPCODE(uBuf.TempBuf));
 1866              		.loc 1 503 0 is_stmt 1
 1867 008a 3B1C     		mov	r3, r7
 1868 008c 0833     		add	r3, r3, #8
 1869 008e 1B88     		ldrh	r3, [r3]
ARM GAS  C:\Users\X0217454\AppData\Local\Temp\cc7UAvFx.s 			page 43


 1870 0090 181C     		mov	r0, r3
 1871 0092 FFF7FEFF 		bl	_SlDrvClassifyRxMsg
 504:..\..\..\..\..\simplelink\source/driver.c **** 
 505:..\..\..\..\..\simplelink\source/driver.c ****     switch(g_pCB->FunctionParams.AsyncExt.RxMsgClass)
 1872              		.loc 1 505 0
 1873 0096 9E4B     		ldr	r3, .L207
 1874 0098 1A68     		ldr	r2, [r3]
 1875 009a B423     		mov	r3, #180
 1876 009c D35C     		ldrb	r3, [r2, r3]
 1877 009e 012B     		cmp	r3, #1
 1878 00a0 00D1     		bne	.LCB1704
 1879 00a2 24E2     		b	.L138	@long jump
 1880              	.LCB1704:
 1881 00a4 022B     		cmp	r3, #2
 1882 00a6 03D0     		beq	.L139
 1883 00a8 002B     		cmp	r3, #0
 1884 00aa 00D1     		bne	.LCB1708
 1885 00ac D4E0     		b	.L137	@long jump
 1886              	.LCB1708:
 1887 00ae 2FE3     		b	.L202
 1888              	.L139:
 506:..\..\..\..\..\simplelink\source/driver.c ****     {
 507:..\..\..\..\..\simplelink\source/driver.c ****         case ASYNC_EVT_CLASS:
 508:..\..\..\..\..\simplelink\source/driver.c **** 
 509:..\..\..\..\..\simplelink\source/driver.c ****             VERIFY_PROTOCOL(NULL == g_pCB->FunctionParams.AsyncExt.pAsyncBuf);
 1889              		.loc 1 509 0
 1890 00b0 974B     		ldr	r3, .L207
 1891 00b2 1A68     		ldr	r2, [r3]
 1892 00b4 A823     		mov	r3, #168
 1893 00b6 D358     		ldr	r3, [r2, r3]
 1894 00b8 002B     		cmp	r3, #0
 1895 00ba 00D0     		beq	.L140
 1896              	.L141:
 1897              		.loc 1 509 0 is_stmt 0 discriminator 1
 1898 00bc FEE7     		b	.L141
 1899              	.L140:
 510:..\..\..\..\..\simplelink\source/driver.c **** 
 511:..\..\..\..\..\simplelink\source/driver.c **** #if (SL_MEMORY_MGMT == SL_MEMORY_MGMT_STATIC)
 512:..\..\..\..\..\simplelink\source/driver.c ****             g_pCB->FunctionParams.AsyncExt.pAsyncBuf = g_StatMem.AsyncRespBuf;
 1900              		.loc 1 512 0 is_stmt 1
 1901 00be 944B     		ldr	r3, .L207
 1902 00c0 1A68     		ldr	r2, [r3]
 1903 00c2 A823     		mov	r3, #168
 1904 00c4 9349     		ldr	r1, .L207+4
 1905 00c6 D150     		str	r1, [r2, r3]
 513:..\..\..\..\..\simplelink\source/driver.c **** #else
 514:..\..\..\..\..\simplelink\source/driver.c ****             g_pCB->FunctionParams.AsyncExt.pAsyncBuf = sl_Malloc(SL_ASYNC_MAX_MSG_LEN);
 515:..\..\..\..\..\simplelink\source/driver.c **** #endif
 516:..\..\..\..\..\simplelink\source/driver.c ****             MALLOC_OK_CHECK(g_pCB->FunctionParams.AsyncExt.pAsyncBuf);
 1906              		.loc 1 516 0
 1907 00c8 914B     		ldr	r3, .L207
 1908 00ca 1A68     		ldr	r2, [r3]
 1909 00cc A823     		mov	r3, #168
 1910 00ce D358     		ldr	r3, [r2, r3]
 1911 00d0 002B     		cmp	r3, #0
 1912 00d2 00D1     		bne	.L142
 1913              	.L143:
ARM GAS  C:\Users\X0217454\AppData\Local\Temp\cc7UAvFx.s 			page 44


 1914              		.loc 1 516 0 is_stmt 0 discriminator 1
 1915 00d4 FEE7     		b	.L143
 1916              	.L142:
 517:..\..\..\..\..\simplelink\source/driver.c **** 
 518:..\..\..\..\..\simplelink\source/driver.c ****             sl_Memcpy(g_pCB->FunctionParams.AsyncExt.pAsyncBuf, uBuf.TempBuf, _SL_RESP_HDR_SIZE);
 1917              		.loc 1 518 0 is_stmt 1
 1918 00d6 8E4B     		ldr	r3, .L207
 1919 00d8 1A68     		ldr	r2, [r3]
 1920 00da A823     		mov	r3, #168
 1921 00dc D258     		ldr	r2, [r2, r3]
 1922 00de 3B1C     		mov	r3, r7
 1923 00e0 0833     		add	r3, r3, #8
 1924 00e2 111C     		mov	r1, r2
 1925 00e4 1A1C     		mov	r2, r3
 1926 00e6 0823     		mov	r3, #8
 1927 00e8 081C     		mov	r0, r1
 1928 00ea 111C     		mov	r1, r2
 1929 00ec 1A1C     		mov	r2, r3
 1930 00ee FFF7FEFF 		bl	memcpy
 519:..\..\..\..\..\simplelink\source/driver.c **** 
 520:..\..\..\..\..\simplelink\source/driver.c ****             /*  This is an Async message. Read the rest of it. */
 521:..\..\..\..\..\simplelink\source/driver.c **** 			if (_SL_PROTOCOL_ALIGN_SIZE(RSP_PAYLOAD_LEN(uBuf.TempBuf)) <= SL_ASYNC_MAX_PAYLOAD_LEN)
 1931              		.loc 1 521 0
 1932 00f2 3B1C     		mov	r3, r7
 1933 00f4 0833     		add	r3, r3, #8
 1934 00f6 5B88     		ldrh	r3, [r3, #2]
 1935 00f8 013B     		sub	r3, r3, #1
 1936 00fa 0322     		mov	r2, #3
 1937 00fc 9343     		bic	r3, r2
 1938 00fe A02B     		cmp	r3, #160
 1939 0100 0AD8     		bhi	.L144
 522:..\..\..\..\..\simplelink\source/driver.c **** 			{
 523:..\..\..\..\..\simplelink\source/driver.c **** 				AlignedLengthRecv = _SL_PROTOCOL_ALIGN_SIZE(RSP_PAYLOAD_LEN(uBuf.TempBuf));
 1940              		.loc 1 523 0
 1941 0102 3B1C     		mov	r3, r7
 1942 0104 0833     		add	r3, r3, #8
 1943 0106 5B88     		ldrh	r3, [r3, #2]
 1944 0108 013B     		sub	r3, r3, #1
 1945 010a 9AB2     		uxth	r2, r3
 1946 010c 3B1C     		mov	r3, r7
 1947 010e 8C33     		add	r3, r3, #140
 1948 0110 0321     		mov	r1, #3
 1949 0112 8A43     		bic	r2, r1
 1950 0114 1A80     		strh	r2, [r3]
 1951 0116 03E0     		b	.L145
 1952              	.L144:
 524:..\..\..\..\..\simplelink\source/driver.c **** 			}
 525:..\..\..\..\..\simplelink\source/driver.c **** 			else
 526:..\..\..\..\..\simplelink\source/driver.c **** 			{
 527:..\..\..\..\..\simplelink\source/driver.c **** 				AlignedLengthRecv = _SL_PROTOCOL_ALIGN_SIZE(SL_ASYNC_MAX_PAYLOAD_LEN);
 1953              		.loc 1 527 0
 1954 0118 3B1C     		mov	r3, r7
 1955 011a 8C33     		add	r3, r3, #140
 1956 011c A022     		mov	r2, #160
 1957 011e 1A80     		strh	r2, [r3]
 1958              	.L145:
 528:..\..\..\..\..\simplelink\source/driver.c **** 			}
ARM GAS  C:\Users\X0217454\AppData\Local\Temp\cc7UAvFx.s 			page 45


 529:..\..\..\..\..\simplelink\source/driver.c **** 
 530:..\..\..\..\..\simplelink\source/driver.c ****             if (RSP_PAYLOAD_LEN(uBuf.TempBuf) > 0)
 1959              		.loc 1 530 0
 1960 0120 3B1C     		mov	r3, r7
 1961 0122 0833     		add	r3, r3, #8
 1962 0124 5B88     		ldrh	r3, [r3, #2]
 1963 0126 042B     		cmp	r3, #4
 1964 0128 1AD0     		beq	.L146
 1965              	.LBB36:
 531:..\..\..\..\..\simplelink\source/driver.c ****             {
 532:..\..\..\..\..\simplelink\source/driver.c ****                 NWP_IF_READ_CHECK(g_pCB->FD,
 1966              		.loc 1 532 0
 1967 012a 3B1C     		mov	r3, r7
 1968 012c 8C33     		add	r3, r3, #140
 1969 012e 1B88     		ldrh	r3, [r3]
 1970 0130 FB67     		str	r3, [r7, #124]
 1971 0132 774B     		ldr	r3, .L207
 1972 0134 1B68     		ldr	r3, [r3]
 1973 0136 1B68     		ldr	r3, [r3]
 1974 0138 191C     		mov	r1, r3
 1975 013a 754B     		ldr	r3, .L207
 1976 013c 1A68     		ldr	r2, [r3]
 1977 013e A823     		mov	r3, #168
 1978 0140 D358     		ldr	r3, [r2, r3]
 1979 0142 1A1C     		mov	r2, r3
 1980 0144 0832     		add	r2, r2, #8
 1981 0146 FB6F     		ldr	r3, [r7, #124]
 1982 0148 081C     		mov	r0, r1
 1983 014a 111C     		mov	r1, r2
 1984 014c 1A1C     		mov	r2, r3
 1985 014e FFF7FEFF 		bl	uart_Read
 1986 0152 031C     		mov	r3, r0
 1987 0154 BB67     		str	r3, [r7, #120]
 1988 0156 FA6F     		ldr	r2, [r7, #124]
 1989 0158 BB6F     		ldr	r3, [r7, #120]
 1990 015a 9A42     		cmp	r2, r3
 1991 015c 00D0     		beq	.L146
 1992              	.L147:
 1993              		.loc 1 532 0 is_stmt 0 discriminator 1
 1994 015e FEE7     		b	.L147
 1995              	.L146:
 1996              	.LBE36:
 533:..\..\..\..\..\simplelink\source/driver.c ****                                    g_pCB->FunctionParams.AsyncExt.pAsyncBuf + _SL_RESP_HDR_SIZE,
 534:..\..\..\..\..\simplelink\source/driver.c ****                                    AlignedLengthRecv);
 535:..\..\..\..\..\simplelink\source/driver.c ****             }
 536:..\..\..\..\..\simplelink\source/driver.c **** 			/* In case ASYNC RX buffer length is smaller then the received data length, dump the rest */
 537:..\..\..\..\..\simplelink\source/driver.c **** 			if ((_SL_PROTOCOL_ALIGN_SIZE(RSP_PAYLOAD_LEN(uBuf.TempBuf)) > SL_ASYNC_MAX_PAYLOAD_LEN))
 1997              		.loc 1 537 0 is_stmt 1
 1998 0160 3B1C     		mov	r3, r7
 1999 0162 0833     		add	r3, r3, #8
 2000 0164 5B88     		ldrh	r3, [r3, #2]
 2001 0166 013B     		sub	r3, r3, #1
 2002 0168 0322     		mov	r2, #3
 2003 016a 9343     		bic	r3, r2
 2004 016c A02B     		cmp	r3, #160
 2005 016e 2CD9     		bls	.L148
 538:..\..\..\..\..\simplelink\source/driver.c **** 			{
ARM GAS  C:\Users\X0217454\AppData\Local\Temp\cc7UAvFx.s 			page 46


 539:..\..\..\..\..\simplelink\source/driver.c **** 				AlignedLengthRecv = _SL_PROTOCOL_ALIGN_SIZE(RSP_PAYLOAD_LEN(uBuf.TempBuf)) - SL_ASYNC_MAX_PAYLO
 2006              		.loc 1 539 0
 2007 0170 3B1C     		mov	r3, r7
 2008 0172 0833     		add	r3, r3, #8
 2009 0174 5B88     		ldrh	r3, [r3, #2]
 2010 0176 013B     		sub	r3, r3, #1
 2011 0178 9BB2     		uxth	r3, r3
 2012 017a 0322     		mov	r2, #3
 2013 017c 9343     		bic	r3, r2
 2014 017e 9AB2     		uxth	r2, r3
 2015 0180 3B1C     		mov	r3, r7
 2016 0182 8C33     		add	r3, r3, #140
 2017 0184 A03A     		sub	r2, r2, #160
 2018 0186 1A80     		strh	r2, [r3]
 540:..\..\..\..\..\simplelink\source/driver.c **** 				while (AlignedLengthRecv > 0)
 2019              		.loc 1 540 0
 2020 0188 1AE0     		b	.L149
 2021              	.L152:
 2022              	.LBB37:
 541:..\..\..\..\..\simplelink\source/driver.c **** 				{
 542:..\..\..\..\..\simplelink\source/driver.c **** 					NWP_IF_READ_CHECK(g_pCB->FD,TailBuffer,4);
 2023              		.loc 1 542 0
 2024 018a 0423     		mov	r3, #4
 2025 018c 7B67     		str	r3, [r7, #116]
 2026 018e 604B     		ldr	r3, .L207
 2027 0190 1B68     		ldr	r3, [r3]
 2028 0192 1B68     		ldr	r3, [r3]
 2029 0194 191C     		mov	r1, r3
 2030 0196 3A1D     		add	r2, r7, #4
 2031 0198 7B6F     		ldr	r3, [r7, #116]
 2032 019a 081C     		mov	r0, r1
 2033 019c 111C     		mov	r1, r2
 2034 019e 1A1C     		mov	r2, r3
 2035 01a0 FFF7FEFF 		bl	uart_Read
 2036 01a4 031C     		mov	r3, r0
 2037 01a6 3B67     		str	r3, [r7, #112]
 2038 01a8 7A6F     		ldr	r2, [r7, #116]
 2039 01aa 3B6F     		ldr	r3, [r7, #112]
 2040 01ac 9A42     		cmp	r2, r3
 2041 01ae 00D0     		beq	.L150
 2042              	.L151:
 2043              		.loc 1 542 0 is_stmt 0 discriminator 1
 2044 01b0 FEE7     		b	.L151
 2045              	.L150:
 2046              	.LBE37:
 543:..\..\..\..\..\simplelink\source/driver.c **** 					AlignedLengthRecv = AlignedLengthRecv - 4;
 2047              		.loc 1 543 0 is_stmt 1
 2048 01b2 3B1C     		mov	r3, r7
 2049 01b4 8C33     		add	r3, r3, #140
 2050 01b6 3A1C     		mov	r2, r7
 2051 01b8 8C32     		add	r2, r2, #140
 2052 01ba 1288     		ldrh	r2, [r2]
 2053 01bc 043A     		sub	r2, r2, #4
 2054 01be 1A80     		strh	r2, [r3]
 2055              	.L149:
 540:..\..\..\..\..\simplelink\source/driver.c **** 				while (AlignedLengthRecv > 0)
 2056              		.loc 1 540 0 discriminator 1
ARM GAS  C:\Users\X0217454\AppData\Local\Temp\cc7UAvFx.s 			page 47


 2057 01c0 3B1C     		mov	r3, r7
 2058 01c2 8C33     		add	r3, r3, #140
 2059 01c4 1B88     		ldrh	r3, [r3]
 2060 01c6 002B     		cmp	r3, #0
 2061 01c8 DFD1     		bne	.L152
 2062              	.L148:
 2063              	.LBB38:
 544:..\..\..\..\..\simplelink\source/driver.c **** 				}
 545:..\..\..\..\..\simplelink\source/driver.c **** 			}
 546:..\..\..\..\..\simplelink\source/driver.c ****             OSI_RET_OK_CHECK(sl_LockObjLock(&g_pCB->ProtectionLockObj, SL_OS_WAIT_FOREVER)); 
 2064              		.loc 1 546 0
 2065 01ca 514B     		ldr	r3, .L207
 2066 01cc 1B68     		ldr	r3, [r3]
 2067 01ce 9033     		add	r3, r3, #144
 2068 01d0 181C     		mov	r0, r3
 2069 01d2 3321     		mov	r1, #51
 2070 01d4 4422     		mov	r2, #68
 2071 01d6 FF23     		mov	r3, #255
 2072 01d8 FFF7FEFF 		bl	_SlNonOsSemGet
 2073 01dc 031C     		mov	r3, r0
 2074 01de FB66     		str	r3, [r7, #108]
 2075 01e0 FB6E     		ldr	r3, [r7, #108]
 2076 01e2 002B     		cmp	r3, #0
 2077 01e4 00D0     		beq	.L153
 2078              	.L154:
 2079              		.loc 1 546 0 is_stmt 0 discriminator 1
 2080 01e6 FEE7     		b	.L154
 2081              	.L153:
 2082              	.LBE38:
 547:..\..\..\..\..\simplelink\source/driver.c **** 
 548:..\..\..\..\..\simplelink\source/driver.c **** 			if ((SL_OPCODE_SOCKET_ACCEPTASYNCRESPONSE == OPCODE(uBuf.TempBuf)) || (SL_OPCODE_SOCKET_ACCEPTAS
 2083              		.loc 1 548 0 is_stmt 1
 2084 01e8 3B1C     		mov	r3, r7
 2085 01ea 0833     		add	r3, r3, #8
 2086 01ec 1A88     		ldrh	r2, [r3]
 2087 01ee 4A4B     		ldr	r3, .L207+8
 2088 01f0 9A42     		cmp	r2, r3
 2089 01f2 0BD0     		beq	.L155
 2090              		.loc 1 548 0 is_stmt 0 discriminator 1
 2091 01f4 3B1C     		mov	r3, r7
 2092 01f6 0833     		add	r3, r3, #8
 2093 01f8 1A88     		ldrh	r2, [r3]
 2094 01fa 484B     		ldr	r3, .L207+12
 2095 01fc 9A42     		cmp	r2, r3
 2096 01fe 05D0     		beq	.L155
 2097 0200 3B1C     		mov	r3, r7
 2098 0202 0833     		add	r3, r3, #8
 2099 0204 1A88     		ldrh	r2, [r3]
 2100 0206 464B     		ldr	r3, .L207+16
 2101 0208 9A42     		cmp	r2, r3
 2102 020a 10D1     		bne	.L156
 2103              	.L155:
 549:..\..\..\..\..\simplelink\source/driver.c **** 			{
 550:..\..\..\..\..\simplelink\source/driver.c **** 				/* go over the active list if exist to find obj waiting for this Async event */
 551:..\..\..\..\..\simplelink\source/driver.c **** 				_SlFindAndSetActiveObj(OPCODE(uBuf.TempBuf),(((_SocketResponse_t *)(g_pCB->FunctionParams.Async
 2104              		.loc 1 551 0 is_stmt 1
 2105 020c 3B1C     		mov	r3, r7
ARM GAS  C:\Users\X0217454\AppData\Local\Temp\cc7UAvFx.s 			page 48


 2106 020e 0833     		add	r3, r3, #8
 2107 0210 1A88     		ldrh	r2, [r3]
 2108 0212 3F4B     		ldr	r3, .L207
 2109 0214 1968     		ldr	r1, [r3]
 2110 0216 A823     		mov	r3, #168
 2111 0218 CB58     		ldr	r3, [r1, r3]
 2112 021a 0833     		add	r3, r3, #8
 2113 021c 9978     		ldrb	r1, [r3, #2]
 2114 021e 0F23     		mov	r3, #15
 2115 0220 0B40     		and	r3, r1
 2116 0222 DBB2     		uxtb	r3, r3
 2117 0224 101C     		mov	r0, r2
 2118 0226 191C     		mov	r1, r3
 2119 0228 FFF7FEFF 		bl	_SlFindAndSetActiveObj
 2120 022c 06E0     		b	.L157
 2121              	.L156:
 552:..\..\..\..\..\simplelink\source/driver.c **** 			}
 553:..\..\..\..\..\simplelink\source/driver.c **** 			else
 554:..\..\..\..\..\simplelink\source/driver.c **** 			{
 555:..\..\..\..\..\simplelink\source/driver.c **** 				_SlFindAndSetActiveObj(OPCODE(uBuf.TempBuf),SL_MAX_SOCKETS);
 2122              		.loc 1 555 0
 2123 022e 3B1C     		mov	r3, r7
 2124 0230 0833     		add	r3, r3, #8
 2125 0232 1B88     		ldrh	r3, [r3]
 2126 0234 181C     		mov	r0, r3
 2127 0236 0821     		mov	r1, #8
 2128 0238 FFF7FEFF 		bl	_SlFindAndSetActiveObj
 2129              	.L157:
 2130              	.LBB39:
 556:..\..\..\..\..\simplelink\source/driver.c **** 			}
 557:..\..\..\..\..\simplelink\source/driver.c ****             OSI_RET_OK_CHECK(sl_LockObjUnlock(&g_pCB->ProtectionLockObj));
 2131              		.loc 1 557 0
 2132 023c 344B     		ldr	r3, .L207
 2133 023e 1B68     		ldr	r3, [r3]
 2134 0240 9033     		add	r3, r3, #144
 2135 0242 181C     		mov	r0, r3
 2136 0244 3321     		mov	r1, #51
 2137 0246 FFF7FEFF 		bl	_SlNonOsSemSet
 2138 024a 031C     		mov	r3, r0
 2139 024c BB66     		str	r3, [r7, #104]
 2140 024e BB6E     		ldr	r3, [r7, #104]
 2141 0250 002B     		cmp	r3, #0
 2142 0252 00D1     		bne	.LCB1959
 2143 0254 5DE2     		b	.L204	@long jump
 2144              	.LCB1959:
 2145              	.L159:
 2146              		.loc 1 557 0 is_stmt 0 discriminator 1
 2147 0256 FEE7     		b	.L159
 2148              	.L137:
 2149              	.LBE39:
 2150              	.LBB40:
 558:..\..\..\..\..\simplelink\source/driver.c **** 
 559:..\..\..\..\..\simplelink\source/driver.c ****             break;
 560:..\..\..\..\..\simplelink\source/driver.c **** 
 561:..\..\..\..\..\simplelink\source/driver.c ****         case RECV_RESP_CLASS:
 562:..\..\..\..\..\simplelink\source/driver.c ****             {
 563:..\..\..\..\..\simplelink\source/driver.c ****                 UINT8   ExpArgSize; /*  Expected size of Recv/Recvfrom arguments */
ARM GAS  C:\Users\X0217454\AppData\Local\Temp\cc7UAvFx.s 			page 49


 564:..\..\..\..\..\simplelink\source/driver.c **** 
 565:..\..\..\..\..\simplelink\source/driver.c ****                 switch(OPCODE(uBuf.TempBuf))
 2151              		.loc 1 565 0 is_stmt 1
 2152 0258 3B1C     		mov	r3, r7
 2153 025a 0833     		add	r3, r3, #8
 2154 025c 1B88     		ldrh	r3, [r3]
 2155 025e 314A     		ldr	r2, .L207+20
 2156 0260 9342     		cmp	r3, r2
 2157 0262 03D0     		beq	.L162
 2158 0264 304A     		ldr	r2, .L207+24
 2159 0266 9342     		cmp	r3, r2
 2160 0268 05D0     		beq	.L163
 2161 026a 09E0     		b	.L203
 2162              	.L162:
 566:..\..\..\..\..\simplelink\source/driver.c ****                 {
 567:..\..\..\..\..\simplelink\source/driver.c ****                     case SL_OPCODE_SOCKET_RECVFROMASYNCRESPONSE:
 568:..\..\..\..\..\simplelink\source/driver.c ****                         ExpArgSize = RECVFROM_IPV4_ARGS_SIZE;
 2163              		.loc 1 568 0
 2164 026c 3B1C     		mov	r3, r7
 2165 026e 8B33     		add	r3, r3, #139
 2166 0270 0C22     		mov	r2, #12
 2167 0272 1A70     		strb	r2, [r3]
 569:..\..\..\..\..\simplelink\source/driver.c ****                         break;
 2168              		.loc 1 569 0
 2169 0274 08E0     		b	.L164
 2170              	.L163:
 570:..\..\..\..\..\simplelink\source/driver.c ****                     case SL_OPCODE_SOCKET_RECVFROMASYNCRESPONSE_V6:
 571:..\..\..\..\..\simplelink\source/driver.c ****                         ExpArgSize = RECVFROM_IPV6_ARGS_SIZE;
 2171              		.loc 1 571 0
 2172 0276 3B1C     		mov	r3, r7
 2173 0278 8B33     		add	r3, r3, #139
 2174 027a 1822     		mov	r2, #24
 2175 027c 1A70     		strb	r2, [r3]
 572:..\..\..\..\..\simplelink\source/driver.c ****                         break;
 2176              		.loc 1 572 0
 2177 027e 03E0     		b	.L164
 2178              	.L203:
 573:..\..\..\..\..\simplelink\source/driver.c ****                     default:
 574:..\..\..\..\..\simplelink\source/driver.c ****                         /* SL_OPCODE_SOCKET_RECVASYNCRESPONSE: */
 575:..\..\..\..\..\simplelink\source/driver.c ****                         ExpArgSize = RECV_ARGS_SIZE;
 2179              		.loc 1 575 0
 2180 0280 3B1C     		mov	r3, r7
 2181 0282 8B33     		add	r3, r3, #139
 2182 0284 0422     		mov	r2, #4
 2183 0286 1A70     		strb	r2, [r3]
 2184              	.L164:
 2185              	.LBB41:
 576:..\..\..\..\..\simplelink\source/driver.c ****                 }              
 577:..\..\..\..\..\simplelink\source/driver.c ****                 
 578:..\..\..\..\..\simplelink\source/driver.c ****                 /*  Read first 4 bytes of Recv/Recvfrom response to get SocketId and actual  */
 579:..\..\..\..\..\simplelink\source/driver.c ****                 /*  response data length */
 580:..\..\..\..\..\simplelink\source/driver.c ****                 NWP_IF_READ_CHECK(g_pCB->FD, &uBuf.TempBuf[4], RECV_ARGS_SIZE);
 2186              		.loc 1 580 0
 2187 0288 0423     		mov	r3, #4
 2188 028a 7B66     		str	r3, [r7, #100]
 2189 028c 204B     		ldr	r3, .L207
 2190 028e 1B68     		ldr	r3, [r3]
ARM GAS  C:\Users\X0217454\AppData\Local\Temp\cc7UAvFx.s 			page 50


 2191 0290 1B68     		ldr	r3, [r3]
 2192 0292 191C     		mov	r1, r3
 2193 0294 3B1C     		mov	r3, r7
 2194 0296 0833     		add	r3, r3, #8
 2195 0298 1A1D     		add	r2, r3, #4
 2196 029a 7B6E     		ldr	r3, [r7, #100]
 2197 029c 081C     		mov	r0, r1
 2198 029e 111C     		mov	r1, r2
 2199 02a0 1A1C     		mov	r2, r3
 2200 02a2 FFF7FEFF 		bl	uart_Read
 2201 02a6 031C     		mov	r3, r0
 2202 02a8 3B66     		str	r3, [r7, #96]
 2203 02aa 7A6E     		ldr	r2, [r7, #100]
 2204 02ac 3B6E     		ldr	r3, [r7, #96]
 2205 02ae 9A42     		cmp	r2, r3
 2206 02b0 00D0     		beq	.L165
 2207              	.L166:
 2208              		.loc 1 580 0 is_stmt 0 discriminator 1
 2209 02b2 FEE7     		b	.L166
 2210              	.L165:
 2211              	.LBE41:
 581:..\..\..\..\..\simplelink\source/driver.c **** 
 582:..\..\..\..\..\simplelink\source/driver.c ****                 /*  Validate Socket ID and Received Length value.  */
 583:..\..\..\..\..\simplelink\source/driver.c ****                 VERIFY_PROTOCOL((SD(&uBuf.TempBuf[4])& BSD_SOCKET_ID_MASK) < SL_MAX_SOCKETS);
 2212              		.loc 1 583 0 is_stmt 1
 2213 02b4 3B1C     		mov	r3, r7
 2214 02b6 0833     		add	r3, r3, #8
 2215 02b8 0433     		add	r3, r3, #4
 2216 02ba 9B78     		ldrb	r3, [r3, #2]
 2217 02bc 1A1C     		mov	r2, r3
 2218 02be 0F23     		mov	r3, #15
 2219 02c0 1340     		and	r3, r2
 2220 02c2 072B     		cmp	r3, #7
 2221 02c4 00DD     		ble	.L167
 2222              	.L168:
 2223              		.loc 1 583 0 is_stmt 0 discriminator 1
 2224 02c6 FEE7     		b	.L168
 2225              	.L167:
 2226              	.LBB42:
 584:..\..\..\..\..\simplelink\source/driver.c **** 
 585:..\..\..\..\..\simplelink\source/driver.c ****                  OSI_RET_OK_CHECK(sl_LockObjLock(&g_pCB->ProtectionLockObj, SL_OS_WAIT_FOREVER)); 
 2227              		.loc 1 585 0 is_stmt 1
 2228 02c8 114B     		ldr	r3, .L207
 2229 02ca 1B68     		ldr	r3, [r3]
 2230 02cc 9033     		add	r3, r3, #144
 2231 02ce 181C     		mov	r0, r3
 2232 02d0 3321     		mov	r1, #51
 2233 02d2 4422     		mov	r2, #68
 2234 02d4 FF23     		mov	r3, #255
 2235 02d6 FFF7FEFF 		bl	_SlNonOsSemGet
 2236 02da 031C     		mov	r3, r0
 2237 02dc FB65     		str	r3, [r7, #92]
 2238 02de FB6D     		ldr	r3, [r7, #92]
 2239 02e0 002B     		cmp	r3, #0
 2240 02e2 00D0     		beq	.L169
 2241              	.L170:
 2242              		.loc 1 585 0 is_stmt 0 discriminator 1
ARM GAS  C:\Users\X0217454\AppData\Local\Temp\cc7UAvFx.s 			page 51


 2243 02e4 FEE7     		b	.L170
 2244              	.L169:
 2245              	.LBE42:
 2246              	.LBB43:
 586:..\..\..\..\..\simplelink\source/driver.c **** 
 587:..\..\..\..\..\simplelink\source/driver.c **** 				/* go over the active list if exist to find obj waiting for this Async event */
 588:..\..\..\..\..\simplelink\source/driver.c **** 				VERIFY_RET_OK(_SlFindAndSetActiveObj(OPCODE(uBuf.TempBuf),SD(&uBuf.TempBuf[4]) & BSD_SOCKET_ID_
 2247              		.loc 1 588 0 is_stmt 1
 2248 02e6 3B1C     		mov	r3, r7
 2249 02e8 0833     		add	r3, r3, #8
 2250 02ea 1A88     		ldrh	r2, [r3]
 2251 02ec 3B1C     		mov	r3, r7
 2252 02ee 0833     		add	r3, r3, #8
 2253 02f0 0433     		add	r3, r3, #4
 2254 02f2 9978     		ldrb	r1, [r3, #2]
 2255 02f4 0F23     		mov	r3, #15
 2256 02f6 0B40     		and	r3, r1
 2257 02f8 DBB2     		uxtb	r3, r3
 2258 02fa 101C     		mov	r0, r2
 2259 02fc 191C     		mov	r1, r3
 2260 02fe FFF7FEFF 		bl	_SlFindAndSetActiveObj
 2261 0302 031C     		mov	r3, r0
 2262 0304 BB65     		str	r3, [r7, #88]
 2263 0306 BB6D     		ldr	r3, [r7, #88]
 2264 0308 002B     		cmp	r3, #0
 2265 030a 0FD0     		beq	.L171
 2266              	.L172:
 2267              		.loc 1 588 0 is_stmt 0 discriminator 1
 2268 030c FEE7     		b	.L172
 2269              	.L208:
 2270 030e C046     		.align	2
 2271              	.L207:
 2272 0310 00000000 		.word	g_pCB
 2273 0314 BC000000 		.word	g_StatMem+188
 2274 0318 03100000 		.word	4099
 2275 031c 03120000 		.word	4611
 2276 0320 06100000 		.word	4102
 2277 0324 0B100000 		.word	4107
 2278 0328 0B120000 		.word	4619
 2279              	.L171:
 2280              	.LBE43:
 589:..\..\..\..\..\simplelink\source/driver.c **** 
 590:..\..\..\..\..\simplelink\source/driver.c ****                 /*  Verify data is waited on this socket. The pArgs should have been set by _SlDrvD
 591:..\..\..\..\..\simplelink\source/driver.c **** 				VERIFY_SOCKET_CB(NULL !=  ((_SlArgsData_t *)(g_pCB->ObjPool[g_pCB->FunctionParams.AsyncExt.Acti
 592:..\..\..\..\..\simplelink\source/driver.c **** 
 593:..\..\..\..\..\simplelink\source/driver.c **** 				sl_Memcpy( ((_SlArgsData_t *)(g_pCB->ObjPool[g_pCB->FunctionParams.AsyncExt.ActionIndex].pRespA
 2281              		.loc 1 593 0 is_stmt 1
 2282 032c CC4B     		ldr	r3, .L209
 2283 032e 1968     		ldr	r1, [r3]
 2284 0330 CB4B     		ldr	r3, .L209
 2285 0332 1A68     		ldr	r2, [r3]
 2286 0334 AC23     		mov	r3, #172
 2287 0336 D35C     		ldrb	r3, [r2, r3]
 2288 0338 1A1C     		mov	r2, r3
 2289 033a 131C     		mov	r3, r2
 2290 033c 5B00     		lsl	r3, r3, #1
 2291 033e 9B18     		add	r3, r3, r2
ARM GAS  C:\Users\X0217454\AppData\Local\Temp\cc7UAvFx.s 			page 52


 2292 0340 9B00     		lsl	r3, r3, #2
 2293 0342 CB18     		add	r3, r1, r3
 2294 0344 1433     		add	r3, r3, #20
 2295 0346 1B68     		ldr	r3, [r3]
 2296 0348 1A68     		ldr	r2, [r3]
 2297 034a 3B1C     		mov	r3, r7
 2298 034c 0833     		add	r3, r3, #8
 2299 034e 0433     		add	r3, r3, #4
 2300 0350 101C     		mov	r0, r2
 2301 0352 191C     		mov	r1, r3
 2302 0354 0422     		mov	r2, #4
 2303 0356 FFF7FEFF 		bl	memcpy
 594:..\..\..\..\..\simplelink\source/driver.c **** 
 595:..\..\..\..\..\simplelink\source/driver.c ****               if(ExpArgSize > RECV_ARGS_SIZE)
 2304              		.loc 1 595 0
 2305 035a 3B1C     		mov	r3, r7
 2306 035c 8B33     		add	r3, r3, #139
 2307 035e 1B78     		ldrb	r3, [r3]
 2308 0360 042B     		cmp	r3, #4
 2309 0362 25D9     		bls	.L173
 2310              	.LBB44:
 596:..\..\..\..\..\simplelink\source/driver.c ****                 {
 597:..\..\..\..\..\simplelink\source/driver.c ****                     NWP_IF_READ_CHECK(g_pCB->FD,
 2311              		.loc 1 597 0
 2312 0364 3B1C     		mov	r3, r7
 2313 0366 8B33     		add	r3, r3, #139
 2314 0368 1B78     		ldrb	r3, [r3]
 2315 036a 043B     		sub	r3, r3, #4
 2316 036c 7B65     		str	r3, [r7, #84]
 2317 036e BC4B     		ldr	r3, .L209
 2318 0370 1B68     		ldr	r3, [r3]
 2319 0372 1B68     		ldr	r3, [r3]
 2320 0374 191C     		mov	r1, r3
 2321 0376 BA4B     		ldr	r3, .L209
 2322 0378 1868     		ldr	r0, [r3]
 2323 037a B94B     		ldr	r3, .L209
 2324 037c 1A68     		ldr	r2, [r3]
 2325 037e AC23     		mov	r3, #172
 2326 0380 D35C     		ldrb	r3, [r2, r3]
 2327 0382 1A1C     		mov	r2, r3
 2328 0384 131C     		mov	r3, r2
 2329 0386 5B00     		lsl	r3, r3, #1
 2330 0388 9B18     		add	r3, r3, r2
 2331 038a 9B00     		lsl	r3, r3, #2
 2332 038c C318     		add	r3, r0, r3
 2333 038e 1433     		add	r3, r3, #20
 2334 0390 1B68     		ldr	r3, [r3]
 2335 0392 1B68     		ldr	r3, [r3]
 2336 0394 1A1D     		add	r2, r3, #4
 2337 0396 7B6D     		ldr	r3, [r7, #84]
 2338 0398 081C     		mov	r0, r1
 2339 039a 111C     		mov	r1, r2
 2340 039c 1A1C     		mov	r2, r3
 2341 039e FFF7FEFF 		bl	uart_Read
 2342 03a2 031C     		mov	r3, r0
 2343 03a4 3B65     		str	r3, [r7, #80]
 2344 03a6 7A6D     		ldr	r2, [r7, #84]
ARM GAS  C:\Users\X0217454\AppData\Local\Temp\cc7UAvFx.s 			page 53


 2345 03a8 3B6D     		ldr	r3, [r7, #80]
 2346 03aa 9A42     		cmp	r2, r3
 2347 03ac 00D0     		beq	.L173
 2348              	.L174:
 2349              		.loc 1 597 0 is_stmt 0 discriminator 1
 2350 03ae FEE7     		b	.L174
 2351              	.L173:
 2352              	.LBE44:
 598:..\..\..\..\..\simplelink\source/driver.c ****                                         ((_SlArgsData_t *)(g_pCB->ObjPool[g_pCB->FunctionParams.Asy
 599:..\..\..\..\..\simplelink\source/driver.c ****                                        ExpArgSize - RECV_ARGS_SIZE);
 600:..\..\..\..\..\simplelink\source/driver.c ****                 }
 601:..\..\..\..\..\simplelink\source/driver.c **** 
 602:..\..\..\..\..\simplelink\source/driver.c **** 
 603:..\..\..\..\..\simplelink\source/driver.c ****                 /*  Here g_pCB->ObjPool[g_pCB->FunctionParams.AsyncExt.ActionIndex].pData contains 
 604:..\..\..\..\..\simplelink\source/driver.c ****                 /*  Overwrite requested DataSize with actual one. */
 605:..\..\..\..\..\simplelink\source/driver.c ****                 /*  If error is received, this information will be read from arguments. */
 606:..\..\..\..\..\simplelink\source/driver.c ****                 if(ACT_DATA_SIZE(&uBuf.TempBuf[4]) > 0)
 2353              		.loc 1 606 0 is_stmt 1
 2354 03b0 3B1C     		mov	r3, r7
 2355 03b2 0833     		add	r3, r3, #8
 2356 03b4 0433     		add	r3, r3, #4
 2357 03b6 1B88     		ldrh	r3, [r3]
 2358 03b8 1BB2     		sxth	r3, r3
 2359 03ba 002B     		cmp	r3, #0
 2360 03bc 00DC     		bgt	.LCB2176
 2361 03be 71E0     		b	.L175	@long jump
 2362              	.LCB2176:
 607:..\..\..\..\..\simplelink\source/driver.c ****                 {       
 608:..\..\..\..\..\simplelink\source/driver.c **** 					VERIFY_SOCKET_CB(NULL != ((_SlArgsData_t *)(g_pCB->ObjPool[g_pCB->FunctionParams.AsyncExt.Acti
 609:..\..\..\..\..\simplelink\source/driver.c ****                     
 610:..\..\..\..\..\simplelink\source/driver.c ****                     /*  Read 4 bytes aligned from interface */
 611:..\..\..\..\..\simplelink\source/driver.c ****                     /*  therefore check the requested length and read only  */
 612:..\..\..\..\..\simplelink\source/driver.c ****                     /*  4 bytes aligned data. The rest unaligned (if any) will be read */
 613:..\..\..\..\..\simplelink\source/driver.c ****                     /*  and copied to a TailBuffer  */
 614:..\..\..\..\..\simplelink\source/driver.c ****                     LengthToCopy = ACT_DATA_SIZE(&uBuf.TempBuf[4]) & (3);
 2363              		.loc 1 614 0
 2364 03c0 3B1C     		mov	r3, r7
 2365 03c2 0833     		add	r3, r3, #8
 2366 03c4 0433     		add	r3, r3, #4
 2367 03c6 1B88     		ldrh	r3, [r3]
 2368 03c8 99B2     		uxth	r1, r3
 2369 03ca 3B1C     		mov	r3, r7
 2370 03cc 8E33     		add	r3, r3, #142
 2371 03ce 0322     		mov	r2, #3
 2372 03d0 0A40     		and	r2, r1
 2373 03d2 1A80     		strh	r2, [r3]
 615:..\..\..\..\..\simplelink\source/driver.c ****                     AlignedLengthRecv = ACT_DATA_SIZE(&uBuf.TempBuf[4]) & (~3);
 2374              		.loc 1 615 0
 2375 03d4 3B1C     		mov	r3, r7
 2376 03d6 0833     		add	r3, r3, #8
 2377 03d8 0433     		add	r3, r3, #4
 2378 03da 1B88     		ldrh	r3, [r3]
 2379 03dc 9AB2     		uxth	r2, r3
 2380 03de 3B1C     		mov	r3, r7
 2381 03e0 8C33     		add	r3, r3, #140
 2382 03e2 0321     		mov	r1, #3
 2383 03e4 8A43     		bic	r2, r1
ARM GAS  C:\Users\X0217454\AppData\Local\Temp\cc7UAvFx.s 			page 54


 2384 03e6 1A80     		strh	r2, [r3]
 616:..\..\..\..\..\simplelink\source/driver.c ****                     if( AlignedLengthRecv >= 4)
 2385              		.loc 1 616 0
 2386 03e8 3B1C     		mov	r3, r7
 2387 03ea 8C33     		add	r3, r3, #140
 2388 03ec 1B88     		ldrh	r3, [r3]
 2389 03ee 032B     		cmp	r3, #3
 2390 03f0 23D9     		bls	.L176
 2391              	.LBB45:
 617:..\..\..\..\..\simplelink\source/driver.c ****                     {
 618:..\..\..\..\..\simplelink\source/driver.c ****                     NWP_IF_READ_CHECK(g_pCB->FD,((_SlArgsData_t *)(g_pCB->ObjPool[g_pCB->FunctionPa
 2392              		.loc 1 618 0
 2393 03f2 3B1C     		mov	r3, r7
 2394 03f4 8C33     		add	r3, r3, #140
 2395 03f6 1B88     		ldrh	r3, [r3]
 2396 03f8 FB64     		str	r3, [r7, #76]
 2397 03fa 994B     		ldr	r3, .L209
 2398 03fc 1B68     		ldr	r3, [r3]
 2399 03fe 1B68     		ldr	r3, [r3]
 2400 0400 191C     		mov	r1, r3
 2401 0402 974B     		ldr	r3, .L209
 2402 0404 1868     		ldr	r0, [r3]
 2403 0406 964B     		ldr	r3, .L209
 2404 0408 1A68     		ldr	r2, [r3]
 2405 040a AC23     		mov	r3, #172
 2406 040c D35C     		ldrb	r3, [r2, r3]
 2407 040e 1A1C     		mov	r2, r3
 2408 0410 131C     		mov	r3, r2
 2409 0412 5B00     		lsl	r3, r3, #1
 2410 0414 9B18     		add	r3, r3, r2
 2411 0416 9B00     		lsl	r3, r3, #2
 2412 0418 C318     		add	r3, r0, r3
 2413 041a 1433     		add	r3, r3, #20
 2414 041c 1B68     		ldr	r3, [r3]
 2415 041e 5A68     		ldr	r2, [r3, #4]
 2416 0420 FB6C     		ldr	r3, [r7, #76]
 2417 0422 081C     		mov	r0, r1
 2418 0424 111C     		mov	r1, r2
 2419 0426 1A1C     		mov	r2, r3
 2420 0428 FFF7FEFF 		bl	uart_Read
 2421 042c 031C     		mov	r3, r0
 2422 042e BB64     		str	r3, [r7, #72]
 2423 0430 FA6C     		ldr	r2, [r7, #76]
 2424 0432 BB6C     		ldr	r3, [r7, #72]
 2425 0434 9A42     		cmp	r2, r3
 2426 0436 00D0     		beq	.L176
 2427              	.L177:
 2428              		.loc 1 618 0 is_stmt 0 discriminator 1
 2429 0438 FEE7     		b	.L177
 2430              	.L176:
 2431              	.LBE45:
 619:..\..\..\..\..\simplelink\source/driver.c ****                     }
 620:..\..\..\..\..\simplelink\source/driver.c ****                     /*  copy the unaligned part, if any */
 621:..\..\..\..\..\simplelink\source/driver.c ****                     if( LengthToCopy > 0) 
 2432              		.loc 1 621 0 is_stmt 1
 2433 043a 3B1C     		mov	r3, r7
 2434 043c 8E33     		add	r3, r3, #142
ARM GAS  C:\Users\X0217454\AppData\Local\Temp\cc7UAvFx.s 			page 55


 2435 043e 1B88     		ldrh	r3, [r3]
 2436 0440 002B     		cmp	r3, #0
 2437 0442 2FD0     		beq	.L175
 2438              	.LBB46:
 622:..\..\..\..\..\simplelink\source/driver.c ****                     {
 623:..\..\..\..\..\simplelink\source/driver.c ****                        NWP_IF_READ_CHECK(g_pCB->FD,TailBuffer,4);
 2439              		.loc 1 623 0
 2440 0444 0423     		mov	r3, #4
 2441 0446 7B64     		str	r3, [r7, #68]
 2442 0448 854B     		ldr	r3, .L209
 2443 044a 1B68     		ldr	r3, [r3]
 2444 044c 1B68     		ldr	r3, [r3]
 2445 044e 191C     		mov	r1, r3
 2446 0450 3A1D     		add	r2, r7, #4
 2447 0452 7B6C     		ldr	r3, [r7, #68]
 2448 0454 081C     		mov	r0, r1
 2449 0456 111C     		mov	r1, r2
 2450 0458 1A1C     		mov	r2, r3
 2451 045a FFF7FEFF 		bl	uart_Read
 2452 045e 031C     		mov	r3, r0
 2453 0460 3B64     		str	r3, [r7, #64]
 2454 0462 7A6C     		ldr	r2, [r7, #68]
 2455 0464 3B6C     		ldr	r3, [r7, #64]
 2456 0466 9A42     		cmp	r2, r3
 2457 0468 00D0     		beq	.L178
 2458              	.L179:
 2459              		.loc 1 623 0 is_stmt 0 discriminator 1
 2460 046a FEE7     		b	.L179
 2461              	.L178:
 2462              	.LBE46:
 624:..\..\..\..\..\simplelink\source/driver.c ****                        /*  copy TailBuffer unaligned part (1/2/3 bytes) */
 625:..\..\..\..\..\simplelink\source/driver.c ****                        memcpy(((_SlArgsData_t *)(g_pCB->ObjPool[g_pCB->FunctionParams.AsyncExt.Acti
 2463              		.loc 1 625 0 is_stmt 1
 2464 046c 7C4B     		ldr	r3, .L209
 2465 046e 1968     		ldr	r1, [r3]
 2466 0470 7B4B     		ldr	r3, .L209
 2467 0472 1A68     		ldr	r2, [r3]
 2468 0474 AC23     		mov	r3, #172
 2469 0476 D35C     		ldrb	r3, [r2, r3]
 2470 0478 1A1C     		mov	r2, r3
 2471 047a 131C     		mov	r3, r2
 2472 047c 5B00     		lsl	r3, r3, #1
 2473 047e 9B18     		add	r3, r3, r2
 2474 0480 9B00     		lsl	r3, r3, #2
 2475 0482 CB18     		add	r3, r1, r3
 2476 0484 1433     		add	r3, r3, #20
 2477 0486 1B68     		ldr	r3, [r3]
 2478 0488 5A68     		ldr	r2, [r3, #4]
 2479 048a 3B1C     		mov	r3, r7
 2480 048c 8C33     		add	r3, r3, #140
 2481 048e 1B88     		ldrh	r3, [r3]
 2482 0490 D118     		add	r1, r2, r3
 2483 0492 3B1C     		mov	r3, r7
 2484 0494 8E33     		add	r3, r3, #142
 2485 0496 1B88     		ldrh	r3, [r3]
 2486 0498 3A1D     		add	r2, r7, #4
 2487 049a 081C     		mov	r0, r1
ARM GAS  C:\Users\X0217454\AppData\Local\Temp\cc7UAvFx.s 			page 56


 2488 049c 111C     		mov	r1, r2
 2489 049e 1A1C     		mov	r2, r3
 2490 04a0 FFF7FEFF 		bl	memcpy
 2491              	.L175:
 2492              	.LBB47:
 626:..\..\..\..\..\simplelink\source/driver.c ****                 }
 627:..\..\..\..\..\simplelink\source/driver.c ****                  OSI_RET_OK_CHECK(sl_SyncObjSignal(&(g_pCB->ObjPool[g_pCB->FunctionParams.AsyncExt.
 2493              		.loc 1 627 0
 2494 04a4 6E4B     		ldr	r3, .L209
 2495 04a6 1968     		ldr	r1, [r3]
 2496 04a8 6D4B     		ldr	r3, .L209
 2497 04aa 1A68     		ldr	r2, [r3]
 2498 04ac AC23     		mov	r3, #172
 2499 04ae D35C     		ldrb	r3, [r2, r3]
 2500 04b0 1A1C     		mov	r2, r3
 2501 04b2 131C     		mov	r3, r2
 2502 04b4 5B00     		lsl	r3, r3, #1
 2503 04b6 9B18     		add	r3, r3, r2
 2504 04b8 9B00     		lsl	r3, r3, #2
 2505 04ba 1033     		add	r3, r3, #16
 2506 04bc CB18     		add	r3, r1, r3
 2507 04be 181C     		mov	r0, r3
 2508 04c0 2221     		mov	r1, #34
 2509 04c2 FFF7FEFF 		bl	_SlNonOsSemSet
 2510 04c6 031C     		mov	r3, r0
 2511 04c8 FB63     		str	r3, [r7, #60]
 2512 04ca FB6B     		ldr	r3, [r7, #60]
 2513 04cc 002B     		cmp	r3, #0
 2514 04ce 00D0     		beq	.L180
 2515              	.L181:
 2516              		.loc 1 627 0 is_stmt 0 discriminator 1
 2517 04d0 FEE7     		b	.L181
 2518              	.L180:
 2519              	.LBE47:
 2520              	.LBB48:
 628:..\..\..\..\..\simplelink\source/driver.c ****                  OSI_RET_OK_CHECK(sl_LockObjUnlock(&g_pCB->ProtectionLockObj)); 
 2521              		.loc 1 628 0 is_stmt 1
 2522 04d2 634B     		ldr	r3, .L209
 2523 04d4 1B68     		ldr	r3, [r3]
 2524 04d6 9033     		add	r3, r3, #144
 2525 04d8 181C     		mov	r0, r3
 2526 04da 3321     		mov	r1, #51
 2527 04dc FFF7FEFF 		bl	_SlNonOsSemSet
 2528 04e0 031C     		mov	r3, r0
 2529 04e2 BB63     		str	r3, [r7, #56]
 2530 04e4 BB6B     		ldr	r3, [r7, #56]
 2531 04e6 002B     		cmp	r3, #0
 2532 04e8 00D1     		bne	.LCB2341
 2533 04ea 14E1     		b	.L205	@long jump
 2534              	.LCB2341:
 2535              	.L183:
 2536              		.loc 1 628 0 is_stmt 0 discriminator 1
 2537 04ec FEE7     		b	.L183
 2538              	.L138:
 2539              	.LBE48:
 2540              	.LBE40:
 2541              	.LBB49:
ARM GAS  C:\Users\X0217454\AppData\Local\Temp\cc7UAvFx.s 			page 57


 629:..\..\..\..\..\simplelink\source/driver.c ****             }
 630:..\..\..\..\..\simplelink\source/driver.c ****             break;
 631:..\..\..\..\..\simplelink\source/driver.c **** 
 632:..\..\..\..\..\simplelink\source/driver.c ****         case CMD_RESP_CLASS:
 633:..\..\..\..\..\simplelink\source/driver.c **** 
 634:..\..\..\..\..\simplelink\source/driver.c ****             /*  Some commands pass a maximum arguments size. */
 635:..\..\..\..\..\simplelink\source/driver.c ****             /*  In this case Driver will send extra dummy patterns to NWP if */
 636:..\..\..\..\..\simplelink\source/driver.c ****             /*  the response message is smaller than maximum. */
 637:..\..\..\..\..\simplelink\source/driver.c ****             /*  When RxDescLen is not exact, using RxPayloadLen is forbidden! */
 638:..\..\..\..\..\simplelink\source/driver.c ****             /*  If such case cannot be avoided - parse message here to detect */
 639:..\..\..\..\..\simplelink\source/driver.c ****             /*  arguments/payload border. */
 640:..\..\..\..\..\simplelink\source/driver.c ****             NWP_IF_READ_CHECK(g_pCB->FD,
 2542              		.loc 1 640 0 is_stmt 1
 2543 04ee 5C4B     		ldr	r3, .L209
 2544 04f0 1A68     		ldr	r2, [r3]
 2545 04f2 9C23     		mov	r3, #156
 2546 04f4 D358     		ldr	r3, [r2, r3]
 2547 04f6 DB78     		ldrb	r3, [r3, #3]
 2548 04f8 0333     		add	r3, r3, #3
 2549 04fa 0322     		mov	r2, #3
 2550 04fc 9343     		bic	r3, r2
 2551 04fe 7B63     		str	r3, [r7, #52]
 2552 0500 574B     		ldr	r3, .L209
 2553 0502 1B68     		ldr	r3, [r3]
 2554 0504 1B68     		ldr	r3, [r3]
 2555 0506 191C     		mov	r1, r3
 2556 0508 554B     		ldr	r3, .L209
 2557 050a 1A68     		ldr	r2, [r3]
 2558 050c A023     		mov	r3, #160
 2559 050e D258     		ldr	r2, [r2, r3]
 2560 0510 7B6B     		ldr	r3, [r7, #52]
 2561 0512 081C     		mov	r0, r1
 2562 0514 111C     		mov	r1, r2
 2563 0516 1A1C     		mov	r2, r3
 2564 0518 FFF7FEFF 		bl	uart_Read
 2565 051c 031C     		mov	r3, r0
 2566 051e 3B63     		str	r3, [r7, #48]
 2567 0520 7A6B     		ldr	r2, [r7, #52]
 2568 0522 3B6B     		ldr	r3, [r7, #48]
 2569 0524 9A42     		cmp	r2, r3
 2570 0526 00D0     		beq	.L184
 2571              	.L185:
 2572              		.loc 1 640 0 is_stmt 0 discriminator 1
 2573 0528 FEE7     		b	.L185
 2574              	.L184:
 2575              	.LBE49:
 641:..\..\..\..\..\simplelink\source/driver.c ****             g_pCB->FunctionParams.pTxRxDescBuff,
 642:..\..\..\..\..\simplelink\source/driver.c ****             _SL_PROTOCOL_ALIGN_SIZE(g_pCB->FunctionParams.pCmdCtrl->RxDescLen));
 643:..\..\..\..\..\simplelink\source/driver.c **** 
 644:..\..\..\..\..\simplelink\source/driver.c ****             if((NULL != g_pCB->FunctionParams.pCmdExt) && (0 != g_pCB->FunctionParams.pCmdExt->RxPa
 2576              		.loc 1 644 0 is_stmt 1
 2577 052a 4D4B     		ldr	r3, .L209
 2578 052c 1A68     		ldr	r2, [r3]
 2579 052e A423     		mov	r3, #164
 2580 0530 D358     		ldr	r3, [r2, r3]
 2581 0532 002B     		cmp	r3, #0
 2582 0534 00D1     		bne	.LCB2389
ARM GAS  C:\Users\X0217454\AppData\Local\Temp\cc7UAvFx.s 			page 58


 2583 0536 F0E0     		b	.L206	@long jump
 2584              	.LCB2389:
 2585              		.loc 1 644 0 is_stmt 0 discriminator 1
 2586 0538 494B     		ldr	r3, .L209
 2587 053a 1A68     		ldr	r2, [r3]
 2588 053c A423     		mov	r3, #164
 2589 053e D358     		ldr	r3, [r2, r3]
 2590 0540 5B88     		ldrh	r3, [r3, #2]
 2591 0542 002B     		cmp	r3, #0
 2592 0544 00D1     		bne	.LCB2396
 2593 0546 E8E0     		b	.L206	@long jump
 2594              	.LCB2396:
 2595              	.LBB50:
 645:..\..\..\..\..\simplelink\source/driver.c ****             {
 646:..\..\..\..\..\simplelink\source/driver.c ****                 /*  Actual size of command's response payload: <msg_payload_len> - <rsp_args_len> *
 647:..\..\..\..\..\simplelink\source/driver.c ****                 INT16    ActDataSize = RSP_PAYLOAD_LEN(uBuf.TempBuf) - g_pCB->FunctionParams.pCmdCt
 2596              		.loc 1 647 0 is_stmt 1
 2597 0548 3B1C     		mov	r3, r7
 2598 054a 0833     		add	r3, r3, #8
 2599 054c 5A88     		ldrh	r2, [r3, #2]
 2600 054e 444B     		ldr	r3, .L209
 2601 0550 1968     		ldr	r1, [r3]
 2602 0552 9C23     		mov	r3, #156
 2603 0554 CB58     		ldr	r3, [r1, r3]
 2604 0556 DB78     		ldrb	r3, [r3, #3]
 2605 0558 D31A     		sub	r3, r2, r3
 2606 055a 9BB2     		uxth	r3, r3
 2607 055c 043B     		sub	r3, r3, #4
 2608 055e 9AB2     		uxth	r2, r3
 2609 0560 3B1C     		mov	r3, r7
 2610 0562 8833     		add	r3, r3, #136
 2611 0564 1A80     		strh	r2, [r3]
 648:..\..\..\..\..\simplelink\source/driver.c **** 
 649:..\..\..\..\..\simplelink\source/driver.c ****                 g_pCB->FunctionParams.pCmdExt->ActualRxPayloadLen = ActDataSize;
 2612              		.loc 1 649 0
 2613 0566 3E4B     		ldr	r3, .L209
 2614 0568 1A68     		ldr	r2, [r3]
 2615 056a A423     		mov	r3, #164
 2616 056c D358     		ldr	r3, [r2, r3]
 2617 056e 3A1C     		mov	r2, r7
 2618 0570 8832     		add	r2, r2, #136
 2619 0572 1288     		ldrh	r2, [r2]
 2620 0574 9A80     		strh	r2, [r3, #4]
 650:..\..\..\..\..\simplelink\source/driver.c **** 
 651:..\..\..\..\..\simplelink\source/driver.c ****                 /* Check that the space prepared by user for the response data is sufficient. */
 652:..\..\..\..\..\simplelink\source/driver.c ****                 if(ActDataSize <= 0)
 2621              		.loc 1 652 0
 2622 0576 3B1C     		mov	r3, r7
 2623 0578 8833     		add	r3, r3, #136
 2624 057a 0021     		mov	r1, #0
 2625 057c 5B5E     		ldrsh	r3, [r3, r1]
 2626 057e 002B     		cmp	r3, #0
 2627 0580 06DC     		bgt	.L187
 653:..\..\..\..\..\simplelink\source/driver.c ****                 {
 654:..\..\..\..\..\simplelink\source/driver.c ****                     g_pCB->FunctionParams.pCmdExt->RxPayloadLen = 0;
 2628              		.loc 1 654 0
 2629 0582 374B     		ldr	r3, .L209
ARM GAS  C:\Users\X0217454\AppData\Local\Temp\cc7UAvFx.s 			page 59


 2630 0584 1A68     		ldr	r2, [r3]
 2631 0586 A423     		mov	r3, #164
 2632 0588 D358     		ldr	r3, [r2, r3]
 2633 058a 0022     		mov	r2, #0
 2634 058c 5A80     		strh	r2, [r3, #2]
 2635              	.LBE50:
 655:..\..\..\..\..\simplelink\source/driver.c ****                 }
 656:..\..\..\..\..\simplelink\source/driver.c ****                 else
 657:..\..\..\..\..\simplelink\source/driver.c ****                 {
 658:..\..\..\..\..\simplelink\source/driver.c **** 					/* In case the user supplied Rx buffer length which is smaller then the received data length, 
 659:..\..\..\..\..\simplelink\source/driver.c **** 					if (ActDataSize > g_pCB->FunctionParams.pCmdExt->RxPayloadLen)
 660:..\..\..\..\..\simplelink\source/driver.c **** 					{
 661:..\..\..\..\..\simplelink\source/driver.c **** 						LengthToCopy = g_pCB->FunctionParams.pCmdExt->RxPayloadLen & (3);
 662:..\..\..\..\..\simplelink\source/driver.c **** 						AlignedLengthRecv = g_pCB->FunctionParams.pCmdExt->RxPayloadLen & (~3);
 663:..\..\..\..\..\simplelink\source/driver.c **** 					}
 664:..\..\..\..\..\simplelink\source/driver.c **** 					else
 665:..\..\..\..\..\simplelink\source/driver.c **** 					{
 666:..\..\..\..\..\simplelink\source/driver.c **** 						LengthToCopy = ActDataSize & (3);
 667:..\..\..\..\..\simplelink\source/driver.c **** 						AlignedLengthRecv = ActDataSize & (~3);
 668:..\..\..\..\..\simplelink\source/driver.c **** 					}
 669:..\..\..\..\..\simplelink\source/driver.c ****                     /*  Read 4 bytes aligned from interface */
 670:..\..\..\..\..\simplelink\source/driver.c ****                     /*  therefore check the requested length and read only  */
 671:..\..\..\..\..\simplelink\source/driver.c ****                     /*  4 bytes aligned data. The rest unaligned (if any) will be read */
 672:..\..\..\..\..\simplelink\source/driver.c ****                     /*  and copied to a TailBuffer  */
 673:..\..\..\..\..\simplelink\source/driver.c **** 
 674:..\..\..\..\..\simplelink\source/driver.c ****                     if( AlignedLengthRecv >= 4)
 675:..\..\..\..\..\simplelink\source/driver.c ****                     {
 676:..\..\..\..\..\simplelink\source/driver.c ****                     NWP_IF_READ_CHECK(g_pCB->FD,
 677:..\..\..\..\..\simplelink\source/driver.c ****                                        g_pCB->FunctionParams.pCmdExt->pRxPayload,
 678:..\..\..\..\..\simplelink\source/driver.c ****                                         AlignedLengthRecv );
 679:..\..\..\..\..\simplelink\source/driver.c **** 
 680:..\..\..\..\..\simplelink\source/driver.c ****                     }
 681:..\..\..\..\..\simplelink\source/driver.c ****                     /*  copy the unaligned part, if any */
 682:..\..\..\..\..\simplelink\source/driver.c ****                     if( LengthToCopy > 0) 
 683:..\..\..\..\..\simplelink\source/driver.c ****                     {
 684:..\..\..\..\..\simplelink\source/driver.c ****                        NWP_IF_READ_CHECK(g_pCB->FD,TailBuffer,4);
 685:..\..\..\..\..\simplelink\source/driver.c ****                        /*  copy TailBuffer unaligned part (1/2/3 bytes) */
 686:..\..\..\..\..\simplelink\source/driver.c ****                        memcpy(g_pCB->FunctionParams.pCmdExt->pRxPayload + AlignedLengthRecv,
 687:..\..\..\..\..\simplelink\source/driver.c ****                               TailBuffer,
 688:..\..\..\..\..\simplelink\source/driver.c ****                               LengthToCopy);
 689:..\..\..\..\..\simplelink\source/driver.c ****                        ActDataSize = ActDataSize-4;
 690:..\..\..\..\..\simplelink\source/driver.c ****                     }
 691:..\..\..\..\..\simplelink\source/driver.c **** 					/* In case the user supplied Rx buffer length which is smaller then the received data length, 
 692:..\..\..\..\..\simplelink\source/driver.c **** 					if (ActDataSize > g_pCB->FunctionParams.pCmdExt->RxPayloadLen)
 693:..\..\..\..\..\simplelink\source/driver.c **** 					{
 694:..\..\..\..\..\simplelink\source/driver.c **** 						/* calculate the rest of the data size to dump */
 695:..\..\..\..\..\simplelink\source/driver.c **** 						AlignedLengthRecv = ActDataSize - (g_pCB->FunctionParams.pCmdExt->RxPayloadLen & (~3));
 696:..\..\..\..\..\simplelink\source/driver.c **** 						while( AlignedLengthRecv > 0)
 697:..\..\..\..\..\simplelink\source/driver.c **** 						{
 698:..\..\..\..\..\simplelink\source/driver.c **** 							 NWP_IF_READ_CHECK(g_pCB->FD,TailBuffer, 4 );
 699:..\..\..\..\..\simplelink\source/driver.c **** 							 AlignedLengthRecv = AlignedLengthRecv - 4;
 700:..\..\..\..\..\simplelink\source/driver.c **** 						}
 701:..\..\..\..\..\simplelink\source/driver.c ****                     }
 702:..\..\..\..\..\simplelink\source/driver.c **** 
 703:..\..\..\..\..\simplelink\source/driver.c **** 					
 704:..\..\..\..\..\simplelink\source/driver.c **** 					
 705:..\..\..\..\..\simplelink\source/driver.c ****                 }
ARM GAS  C:\Users\X0217454\AppData\Local\Temp\cc7UAvFx.s 			page 60


 706:..\..\..\..\..\simplelink\source/driver.c ****             }
 707:..\..\..\..\..\simplelink\source/driver.c ****             break;
 2636              		.loc 1 707 0
 2637 058e C4E0     		b	.L206
 2638              	.L187:
 2639              	.LBB54:
 659:..\..\..\..\..\simplelink\source/driver.c **** 					if (ActDataSize > g_pCB->FunctionParams.pCmdExt->RxPayloadLen)
 2640              		.loc 1 659 0
 2641 0590 3B1C     		mov	r3, r7
 2642 0592 8833     		add	r3, r3, #136
 2643 0594 0021     		mov	r1, #0
 2644 0596 5A5E     		ldrsh	r2, [r3, r1]
 2645 0598 314B     		ldr	r3, .L209
 2646 059a 1968     		ldr	r1, [r3]
 2647 059c A423     		mov	r3, #164
 2648 059e CB58     		ldr	r3, [r1, r3]
 2649 05a0 5B88     		ldrh	r3, [r3, #2]
 2650 05a2 9A42     		cmp	r2, r3
 2651 05a4 14DD     		ble	.L188
 661:..\..\..\..\..\simplelink\source/driver.c **** 						LengthToCopy = g_pCB->FunctionParams.pCmdExt->RxPayloadLen & (3);
 2652              		.loc 1 661 0
 2653 05a6 2E4B     		ldr	r3, .L209
 2654 05a8 1A68     		ldr	r2, [r3]
 2655 05aa A423     		mov	r3, #164
 2656 05ac D358     		ldr	r3, [r2, r3]
 2657 05ae 5988     		ldrh	r1, [r3, #2]
 2658 05b0 3B1C     		mov	r3, r7
 2659 05b2 8E33     		add	r3, r3, #142
 2660 05b4 0322     		mov	r2, #3
 2661 05b6 0A40     		and	r2, r1
 2662 05b8 1A80     		strh	r2, [r3]
 662:..\..\..\..\..\simplelink\source/driver.c **** 						AlignedLengthRecv = g_pCB->FunctionParams.pCmdExt->RxPayloadLen & (~3);
 2663              		.loc 1 662 0
 2664 05ba 294B     		ldr	r3, .L209
 2665 05bc 1A68     		ldr	r2, [r3]
 2666 05be A423     		mov	r3, #164
 2667 05c0 D358     		ldr	r3, [r2, r3]
 2668 05c2 5A88     		ldrh	r2, [r3, #2]
 2669 05c4 3B1C     		mov	r3, r7
 2670 05c6 8C33     		add	r3, r3, #140
 2671 05c8 0321     		mov	r1, #3
 2672 05ca 8A43     		bic	r2, r1
 2673 05cc 1A80     		strh	r2, [r3]
 2674 05ce 0FE0     		b	.L189
 2675              	.L188:
 666:..\..\..\..\..\simplelink\source/driver.c **** 						LengthToCopy = ActDataSize & (3);
 2676              		.loc 1 666 0
 2677 05d0 3B1C     		mov	r3, r7
 2678 05d2 8833     		add	r3, r3, #136
 2679 05d4 1988     		ldrh	r1, [r3]
 2680 05d6 3B1C     		mov	r3, r7
 2681 05d8 8E33     		add	r3, r3, #142
 2682 05da 0322     		mov	r2, #3
 2683 05dc 0A40     		and	r2, r1
 2684 05de 1A80     		strh	r2, [r3]
 667:..\..\..\..\..\simplelink\source/driver.c **** 						AlignedLengthRecv = ActDataSize & (~3);
 2685              		.loc 1 667 0
ARM GAS  C:\Users\X0217454\AppData\Local\Temp\cc7UAvFx.s 			page 61


 2686 05e0 3B1C     		mov	r3, r7
 2687 05e2 8833     		add	r3, r3, #136
 2688 05e4 1A88     		ldrh	r2, [r3]
 2689 05e6 3B1C     		mov	r3, r7
 2690 05e8 8C33     		add	r3, r3, #140
 2691 05ea 0321     		mov	r1, #3
 2692 05ec 8A43     		bic	r2, r1
 2693 05ee 1A80     		strh	r2, [r3]
 2694              	.L189:
 674:..\..\..\..\..\simplelink\source/driver.c ****                     if( AlignedLengthRecv >= 4)
 2695              		.loc 1 674 0
 2696 05f0 3B1C     		mov	r3, r7
 2697 05f2 8C33     		add	r3, r3, #140
 2698 05f4 1B88     		ldrh	r3, [r3]
 2699 05f6 032B     		cmp	r3, #3
 2700 05f8 19D9     		bls	.L190
 2701              	.LBB51:
 676:..\..\..\..\..\simplelink\source/driver.c ****                     NWP_IF_READ_CHECK(g_pCB->FD,
 2702              		.loc 1 676 0
 2703 05fa 3B1C     		mov	r3, r7
 2704 05fc 8C33     		add	r3, r3, #140
 2705 05fe 1B88     		ldrh	r3, [r3]
 2706 0600 FB62     		str	r3, [r7, #44]
 2707 0602 174B     		ldr	r3, .L209
 2708 0604 1B68     		ldr	r3, [r3]
 2709 0606 1B68     		ldr	r3, [r3]
 2710 0608 191C     		mov	r1, r3
 2711 060a 154B     		ldr	r3, .L209
 2712 060c 1A68     		ldr	r2, [r3]
 2713 060e A423     		mov	r3, #164
 2714 0610 D358     		ldr	r3, [r2, r3]
 2715 0612 DA68     		ldr	r2, [r3, #12]
 2716 0614 FB6A     		ldr	r3, [r7, #44]
 2717 0616 081C     		mov	r0, r1
 2718 0618 111C     		mov	r1, r2
 2719 061a 1A1C     		mov	r2, r3
 2720 061c FFF7FEFF 		bl	uart_Read
 2721 0620 031C     		mov	r3, r0
 2722 0622 BB62     		str	r3, [r7, #40]
 2723 0624 FA6A     		ldr	r2, [r7, #44]
 2724 0626 BB6A     		ldr	r3, [r7, #40]
 2725 0628 9A42     		cmp	r2, r3
 2726 062a 00D0     		beq	.L190
 2727              	.L191:
 676:..\..\..\..\..\simplelink\source/driver.c ****                     NWP_IF_READ_CHECK(g_pCB->FD,
 2728              		.loc 1 676 0 is_stmt 0 discriminator 1
 2729 062c FEE7     		b	.L191
 2730              	.L190:
 2731              	.LBE51:
 682:..\..\..\..\..\simplelink\source/driver.c ****                     if( LengthToCopy > 0) 
 2732              		.loc 1 682 0 is_stmt 1
 2733 062e 3B1C     		mov	r3, r7
 2734 0630 8E33     		add	r3, r3, #142
 2735 0632 1B88     		ldrh	r3, [r3]
 2736 0634 002B     		cmp	r3, #0
 2737 0636 2FD0     		beq	.L192
 2738              	.LBB52:
ARM GAS  C:\Users\X0217454\AppData\Local\Temp\cc7UAvFx.s 			page 62


 684:..\..\..\..\..\simplelink\source/driver.c ****                        NWP_IF_READ_CHECK(g_pCB->FD,TailBuffer,4);
 2739              		.loc 1 684 0
 2740 0638 0423     		mov	r3, #4
 2741 063a 7B62     		str	r3, [r7, #36]
 2742 063c 084B     		ldr	r3, .L209
 2743 063e 1B68     		ldr	r3, [r3]
 2744 0640 1B68     		ldr	r3, [r3]
 2745 0642 191C     		mov	r1, r3
 2746 0644 3A1D     		add	r2, r7, #4
 2747 0646 7B6A     		ldr	r3, [r7, #36]
 2748 0648 081C     		mov	r0, r1
 2749 064a 111C     		mov	r1, r2
 2750 064c 1A1C     		mov	r2, r3
 2751 064e FFF7FEFF 		bl	uart_Read
 2752 0652 031C     		mov	r3, r0
 2753 0654 3B62     		str	r3, [r7, #32]
 2754 0656 7A6A     		ldr	r2, [r7, #36]
 2755 0658 3B6A     		ldr	r3, [r7, #32]
 2756 065a 9A42     		cmp	r2, r3
 2757 065c 02D0     		beq	.L193
 2758              	.L194:
 684:..\..\..\..\..\simplelink\source/driver.c ****                        NWP_IF_READ_CHECK(g_pCB->FD,TailBuffer,4);
 2759              		.loc 1 684 0 is_stmt 0 discriminator 1
 2760 065e FEE7     		b	.L194
 2761              	.L210:
 2762              		.align	2
 2763              	.L209:
 2764 0660 00000000 		.word	g_pCB
 2765              	.L193:
 2766              	.LBE52:
 686:..\..\..\..\..\simplelink\source/driver.c ****                        memcpy(g_pCB->FunctionParams.pCmdExt->pRxPayload + AlignedLengthRecv,
 2767              		.loc 1 686 0 is_stmt 1
 2768 0664 3E4B     		ldr	r3, .L211
 2769 0666 1A68     		ldr	r2, [r3]
 2770 0668 A423     		mov	r3, #164
 2771 066a D358     		ldr	r3, [r2, r3]
 2772 066c DA68     		ldr	r2, [r3, #12]
 2773 066e 3B1C     		mov	r3, r7
 2774 0670 8C33     		add	r3, r3, #140
 2775 0672 1B88     		ldrh	r3, [r3]
 2776 0674 D118     		add	r1, r2, r3
 2777 0676 3B1C     		mov	r3, r7
 2778 0678 8E33     		add	r3, r3, #142
 2779 067a 1B88     		ldrh	r3, [r3]
 687:..\..\..\..\..\simplelink\source/driver.c ****                               TailBuffer,
 2780              		.loc 1 687 0
 2781 067c 3A1D     		add	r2, r7, #4
 686:..\..\..\..\..\simplelink\source/driver.c ****                        memcpy(g_pCB->FunctionParams.pCmdExt->pRxPayload + AlignedLengthRecv,
 2782              		.loc 1 686 0
 2783 067e 081C     		mov	r0, r1
 2784 0680 111C     		mov	r1, r2
 2785 0682 1A1C     		mov	r2, r3
 2786 0684 FFF7FEFF 		bl	memcpy
 689:..\..\..\..\..\simplelink\source/driver.c ****                        ActDataSize = ActDataSize-4;
 2787              		.loc 1 689 0
 2788 0688 3B1C     		mov	r3, r7
 2789 068a 8833     		add	r3, r3, #136
ARM GAS  C:\Users\X0217454\AppData\Local\Temp\cc7UAvFx.s 			page 63


 2790 068c 1B88     		ldrh	r3, [r3]
 2791 068e 043B     		sub	r3, r3, #4
 2792 0690 9AB2     		uxth	r2, r3
 2793 0692 3B1C     		mov	r3, r7
 2794 0694 8833     		add	r3, r3, #136
 2795 0696 1A80     		strh	r2, [r3]
 2796              	.L192:
 692:..\..\..\..\..\simplelink\source/driver.c **** 					if (ActDataSize > g_pCB->FunctionParams.pCmdExt->RxPayloadLen)
 2797              		.loc 1 692 0
 2798 0698 3B1C     		mov	r3, r7
 2799 069a 8833     		add	r3, r3, #136
 2800 069c 0021     		mov	r1, #0
 2801 069e 5A5E     		ldrsh	r2, [r3, r1]
 2802 06a0 2F4B     		ldr	r3, .L211
 2803 06a2 1968     		ldr	r1, [r3]
 2804 06a4 A423     		mov	r3, #164
 2805 06a6 CB58     		ldr	r3, [r1, r3]
 2806 06a8 5B88     		ldrh	r3, [r3, #2]
 2807 06aa 9A42     		cmp	r2, r3
 2808 06ac 35DD     		ble	.L206
 695:..\..\..\..\..\simplelink\source/driver.c **** 						AlignedLengthRecv = ActDataSize - (g_pCB->FunctionParams.pCmdExt->RxPayloadLen & (~3));
 2809              		.loc 1 695 0
 2810 06ae 3B1C     		mov	r3, r7
 2811 06b0 8833     		add	r3, r3, #136
 2812 06b2 1988     		ldrh	r1, [r3]
 2813 06b4 2A4B     		ldr	r3, .L211
 2814 06b6 1A68     		ldr	r2, [r3]
 2815 06b8 A423     		mov	r3, #164
 2816 06ba D358     		ldr	r3, [r2, r3]
 2817 06bc 5B88     		ldrh	r3, [r3, #2]
 2818 06be 0322     		mov	r2, #3
 2819 06c0 9343     		bic	r3, r2
 2820 06c2 9AB2     		uxth	r2, r3
 2821 06c4 3B1C     		mov	r3, r7
 2822 06c6 8C33     		add	r3, r3, #140
 2823 06c8 8A1A     		sub	r2, r1, r2
 2824 06ca 1A80     		strh	r2, [r3]
 696:..\..\..\..\..\simplelink\source/driver.c **** 						while( AlignedLengthRecv > 0)
 2825              		.loc 1 696 0
 2826 06cc 1AE0     		b	.L195
 2827              	.L198:
 2828              	.LBB53:
 698:..\..\..\..\..\simplelink\source/driver.c **** 							 NWP_IF_READ_CHECK(g_pCB->FD,TailBuffer, 4 );
 2829              		.loc 1 698 0
 2830 06ce 0423     		mov	r3, #4
 2831 06d0 FB61     		str	r3, [r7, #28]
 2832 06d2 234B     		ldr	r3, .L211
 2833 06d4 1B68     		ldr	r3, [r3]
 2834 06d6 1B68     		ldr	r3, [r3]
 2835 06d8 191C     		mov	r1, r3
 2836 06da 3A1D     		add	r2, r7, #4
 2837 06dc FB69     		ldr	r3, [r7, #28]
 2838 06de 081C     		mov	r0, r1
 2839 06e0 111C     		mov	r1, r2
 2840 06e2 1A1C     		mov	r2, r3
 2841 06e4 FFF7FEFF 		bl	uart_Read
 2842 06e8 031C     		mov	r3, r0
ARM GAS  C:\Users\X0217454\AppData\Local\Temp\cc7UAvFx.s 			page 64


 2843 06ea BB61     		str	r3, [r7, #24]
 2844 06ec FA69     		ldr	r2, [r7, #28]
 2845 06ee BB69     		ldr	r3, [r7, #24]
 2846 06f0 9A42     		cmp	r2, r3
 2847 06f2 00D0     		beq	.L196
 2848              	.L197:
 698:..\..\..\..\..\simplelink\source/driver.c **** 							 NWP_IF_READ_CHECK(g_pCB->FD,TailBuffer, 4 );
 2849              		.loc 1 698 0 is_stmt 0 discriminator 1
 2850 06f4 FEE7     		b	.L197
 2851              	.L196:
 2852              	.LBE53:
 699:..\..\..\..\..\simplelink\source/driver.c **** 							 AlignedLengthRecv = AlignedLengthRecv - 4;
 2853              		.loc 1 699 0 is_stmt 1
 2854 06f6 3B1C     		mov	r3, r7
 2855 06f8 8C33     		add	r3, r3, #140
 2856 06fa 3A1C     		mov	r2, r7
 2857 06fc 8C32     		add	r2, r2, #140
 2858 06fe 1288     		ldrh	r2, [r2]
 2859 0700 043A     		sub	r2, r2, #4
 2860 0702 1A80     		strh	r2, [r3]
 2861              	.L195:
 696:..\..\..\..\..\simplelink\source/driver.c **** 						while( AlignedLengthRecv > 0)
 2862              		.loc 1 696 0 discriminator 1
 2863 0704 3B1C     		mov	r3, r7
 2864 0706 8C33     		add	r3, r3, #140
 2865 0708 1B88     		ldrh	r3, [r3]
 2866 070a 002B     		cmp	r3, #0
 2867 070c DFD1     		bne	.L198
 2868              	.LBE54:
 2869              		.loc 1 707 0
 2870 070e 04E0     		b	.L206
 2871              	.L202:
 708:..\..\..\..\..\simplelink\source/driver.c **** 
 709:..\..\..\..\..\simplelink\source/driver.c ****         default:
 710:..\..\..\..\..\simplelink\source/driver.c ****             /*  DUMMY_MSG_CLASS: Flow control message has no payload. */
 711:..\..\..\..\..\simplelink\source/driver.c ****             break;
 2872              		.loc 1 711 0
 2873 0710 04E0     		b	.L160
 2874              	.L204:
 559:..\..\..\..\..\simplelink\source/driver.c ****             break;
 2875              		.loc 1 559 0
 2876 0712 C046     		mov	r8, r8
 2877 0714 02E0     		b	.L160
 2878              	.L205:
 630:..\..\..\..\..\simplelink\source/driver.c ****             break;
 2879              		.loc 1 630 0
 2880 0716 C046     		mov	r8, r8
 2881 0718 00E0     		b	.L160
 2882              	.L206:
 707:..\..\..\..\..\simplelink\source/driver.c ****             break;
 2883              		.loc 1 707 0
 2884 071a C046     		mov	r8, r8
 2885              	.L160:
 712:..\..\..\..\..\simplelink\source/driver.c ****     }
 713:..\..\..\..\..\simplelink\source/driver.c **** 
 714:..\..\..\..\..\simplelink\source/driver.c ****     if(AlignSize > 0)
 2886              		.loc 1 714 0
ARM GAS  C:\Users\X0217454\AppData\Local\Temp\cc7UAvFx.s 			page 65


 2887 071c FB1C     		add	r3, r7, #3
 2888 071e 1B78     		ldrb	r3, [r3]
 2889 0720 002B     		cmp	r3, #0
 2890 0722 15D0     		beq	.L199
 2891              	.LBB55:
 715:..\..\..\..\..\simplelink\source/driver.c ****     {
 716:..\..\..\..\..\simplelink\source/driver.c ****         NWP_IF_READ_CHECK(g_pCB->FD, uBuf.TempBuf, AlignSize);
 2892              		.loc 1 716 0
 2893 0724 FB1C     		add	r3, r7, #3
 2894 0726 1B78     		ldrb	r3, [r3]
 2895 0728 7B61     		str	r3, [r7, #20]
 2896 072a 0D4B     		ldr	r3, .L211
 2897 072c 1B68     		ldr	r3, [r3]
 2898 072e 1B68     		ldr	r3, [r3]
 2899 0730 191C     		mov	r1, r3
 2900 0732 3A1C     		mov	r2, r7
 2901 0734 0832     		add	r2, r2, #8
 2902 0736 7B69     		ldr	r3, [r7, #20]
 2903 0738 081C     		mov	r0, r1
 2904 073a 111C     		mov	r1, r2
 2905 073c 1A1C     		mov	r2, r3
 2906 073e FFF7FEFF 		bl	uart_Read
 2907 0742 031C     		mov	r3, r0
 2908 0744 3B61     		str	r3, [r7, #16]
 2909 0746 7A69     		ldr	r2, [r7, #20]
 2910 0748 3B69     		ldr	r3, [r7, #16]
 2911 074a 9A42     		cmp	r2, r3
 2912 074c 00D0     		beq	.L199
 2913              	.L200:
 2914              		.loc 1 716 0 is_stmt 0 discriminator 1
 2915 074e FEE7     		b	.L200
 2916              	.L199:
 2917              	.LBE55:
 717:..\..\..\..\..\simplelink\source/driver.c ****     }
 718:..\..\..\..\..\simplelink\source/driver.c **** 
 719:..\..\..\..\..\simplelink\source/driver.c ****     _SL_DBG_CNT_INC(MsgCnt.Read);
 720:..\..\..\..\..\simplelink\source/driver.c ****     
 721:..\..\..\..\..\simplelink\source/driver.c ****     /*  Unmask Interrupt call */
 722:..\..\..\..\..\simplelink\source/driver.c ****     sl_IfUnMaskIntHdlr();
 2918              		.loc 1 722 0 is_stmt 1
 2919 0750 FFF7FEFF 		bl	UnMaskIntHdlr
 723:..\..\..\..\..\simplelink\source/driver.c **** 
 724:..\..\..\..\..\simplelink\source/driver.c ****     return SL_OS_RET_CODE_OK;
 2920              		.loc 1 724 0
 2921 0754 0023     		mov	r3, #0
 725:..\..\..\..\..\simplelink\source/driver.c **** }
 2922              		.loc 1 725 0
 2923 0756 181C     		mov	r0, r3
 2924 0758 BD46     		mov	sp, r7
 2925 075a 24B0     		add	sp, sp, #144
 2926              		@ sp needed for prologue
 2927 075c 80BD     		pop	{r7, pc}
 2928              	.L212:
 2929 075e C046     		.align	2
 2930              	.L211:
 2931 0760 00000000 		.word	g_pCB
 2932              		.cfi_endproc
ARM GAS  C:\Users\X0217454\AppData\Local\Temp\cc7UAvFx.s 			page 66


 2933              	.LFE8:
 2934              		.size	_SlDrvMsgRead, .-_SlDrvMsgRead
 2935              		.section	.text._SlAsyncEventGenericHandler,"ax",%progbits
 2936              		.align	2
 2937              		.global	_SlAsyncEventGenericHandler
 2938              		.code	16
 2939              		.thumb_func
 2940              		.type	_SlAsyncEventGenericHandler, %function
 2941              	_SlAsyncEventGenericHandler:
 2942              	.LFB9:
 726:..\..\..\..\..\simplelink\source/driver.c **** 
 727:..\..\..\..\..\simplelink\source/driver.c **** /* ******************************************************************************/
 728:..\..\..\..\..\simplelink\source/driver.c **** /*  _SlAsyncEventGenericHandler */
 729:..\..\..\..\..\simplelink\source/driver.c **** /* ******************************************************************************/
 730:..\..\..\..\..\simplelink\source/driver.c **** void _SlAsyncEventGenericHandler(void)
 731:..\..\..\..\..\simplelink\source/driver.c **** {
 2943              		.loc 1 731 0
 2944              		.cfi_startproc
 2945 0000 80B5     		push	{r7, lr}
 2946              	.LCFI27:
 2947              		.cfi_def_cfa_offset 8
 2948              		.cfi_offset 7, -8
 2949              		.cfi_offset 14, -4
 2950 0002 B4B0     		sub	sp, sp, #208
 2951              	.LCFI28:
 2952              		.cfi_def_cfa_offset 216
 2953 0004 00AF     		add	r7, sp, #0
 2954              	.LCFI29:
 2955              		.cfi_def_cfa_register 7
 732:..\..\..\..\..\simplelink\source/driver.c ****    _SlResponseHeader_t      *pHdr       = (_SlResponseHeader_t *)g_pCB->FunctionParams.AsyncExt.pAs
 2956              		.loc 1 732 0
 2957 0006 E64B     		ldr	r3, .L235
 2958 0008 1A68     		ldr	r2, [r3]
 2959 000a A823     		mov	r3, #168
 2960 000c D358     		ldr	r3, [r2, r3]
 2961 000e CC21     		mov	r1, #204
 2962 0010 C919     		add	r1, r1, r7
 2963 0012 0B60     		str	r3, [r1]
 733:..\..\..\..\..\simplelink\source/driver.c ****    SlWlanEvent_t            wlanEvent;
 734:..\..\..\..\..\simplelink\source/driver.c ****    SlNetAppEvent_t          netAppEvent;
 735:..\..\..\..\..\simplelink\source/driver.c ****    SlSockEvent_t            sockAppEvent;
 736:..\..\..\..\..\simplelink\source/driver.c **** 
 737:..\..\..\..\..\simplelink\source/driver.c ****    if (NULL != g_pCB->FunctionParams.AsyncExt.AsyncEvtHandler)
 2964              		.loc 1 737 0
 2965 0014 E24B     		ldr	r3, .L235
 2966 0016 1A68     		ldr	r2, [r3]
 2967 0018 B023     		mov	r3, #176
 2968 001a D358     		ldr	r3, [r2, r3]
 2969 001c 002B     		cmp	r3, #0
 2970 001e 01D1     		bne	.LCB2756
 2971 0020 00F0DDFB 		bl	.L213	@far jump
 2972              	.LCB2756:
 738:..\..\..\..\..\simplelink\source/driver.c ****    {
 739:..\..\..\..\..\simplelink\source/driver.c ****       switch(pHdr->GenHeader.Opcode)
 2973              		.loc 1 739 0
 2974 0024 CC22     		mov	r2, #204
 2975 0026 D219     		add	r2, r2, r7
ARM GAS  C:\Users\X0217454\AppData\Local\Temp\cc7UAvFx.s 			page 67


 2976 0028 1368     		ldr	r3, [r2]
 2977 002a 1B88     		ldrh	r3, [r3]
 2978 002c DD4A     		ldr	r2, .L235+4
 2979 002e 9342     		cmp	r3, r2
 2980 0030 00D1     		bne	.LCB2763
 2981 0032 9CE2     		b	.L223	@long jump
 2982              	.LCB2763:
 2983 0034 DB4A     		ldr	r2, .L235+4
 2984 0036 9342     		cmp	r3, r2
 2985 0038 1FDC     		bgt	.L231
 2986 003a DB4A     		ldr	r2, .L235+8
 2987 003c 9342     		cmp	r3, r2
 2988 003e 00D1     		bne	.LCB2769
 2989 0040 BFE0     		b	.L219	@long jump
 2990              	.LCB2769:
 2991 0042 D94A     		ldr	r2, .L235+8
 2992 0044 9342     		cmp	r3, r2
 2993 0046 0BDC     		bgt	.L232
 2994 0048 D84A     		ldr	r2, .L235+12
 2995 004a 9342     		cmp	r3, r2
 2996 004c 00D1     		bne	.LCB2775
 2997 004e 6CE3     		b	.L217	@long jump
 2998              	.LCB2775:
 2999 0050 D64A     		ldr	r2, .L235+12
 3000 0052 9342     		cmp	r3, r2
 3001 0054 32DC     		bgt	.L218
 3002 0056 D64A     		ldr	r2, .L235+16
 3003 0058 9342     		cmp	r3, r2
 3004 005a 00D1     		bne	.LCB2781
 3005 005c 05E3     		b	.L216	@long jump
 3006              	.LCB2781:
 3007 005e B3E3     		b	.L215
 3008              	.L232:
 3009 0060 8822     		mov	r2, #136
 3010 0062 1201     		lsl	r2, r2, #4
 3011 0064 9342     		cmp	r3, r2
 3012 0066 00D1     		bne	.LCB2789
 3013 0068 C7E0     		b	.L221	@long jump
 3014              	.LCB2789:
 3015 006a D24A     		ldr	r2, .L235+20
 3016 006c 9342     		cmp	r3, r2
 3017 006e 00D1     		bne	.LCB2792
 3018 0070 28E1     		b	.L222	@long jump
 3019              	.LCB2792:
 3020 0072 D14A     		ldr	r2, .L235+24
 3021 0074 9342     		cmp	r3, r2
 3022 0076 5ED0     		beq	.L220
 3023 0078 A6E3     		b	.L215
 3024              	.L231:
 3025 007a D04A     		ldr	r2, .L235+28
 3026 007c 9342     		cmp	r3, r2
 3027 007e 00D1     		bne	.LCB2802
 3028 0080 AAE1     		b	.L227	@long jump
 3029              	.LCB2802:
 3030 0082 CE4A     		ldr	r2, .L235+28
 3031 0084 9342     		cmp	r3, r2
 3032 0086 0CDC     		bgt	.L233
ARM GAS  C:\Users\X0217454\AppData\Local\Temp\cc7UAvFx.s 			page 68


 3033 0088 CD4A     		ldr	r2, .L235+32
 3034 008a 9342     		cmp	r3, r2
 3035 008c 00D1     		bne	.LCB2808
 3036 008e 51E2     		b	.L225	@long jump
 3037              	.LCB2808:
 3038 0090 CC4A     		ldr	r2, .L235+36
 3039 0092 9342     		cmp	r3, r2
 3040 0094 00D1     		bne	.LCB2811
 3041 0096 8FE3     		b	.L226	@long jump
 3042              	.LCB2811:
 3043 0098 CB4A     		ldr	r2, .L235+40
 3044 009a 9342     		cmp	r3, r2
 3045 009c 00D1     		bne	.LCB2814
 3046 009e C8E2     		b	.L224	@long jump
 3047              	.LCB2814:
 3048 00a0 92E3     		b	.L215
 3049              	.L233:
 3050 00a2 CA4A     		ldr	r2, .L235+44
 3051 00a4 9342     		cmp	r3, r2
 3052 00a6 00D1     		bne	.LCB2821
 3053 00a8 13E2     		b	.L229	@long jump
 3054              	.LCB2821:
 3055 00aa C94A     		ldr	r2, .L235+48
 3056 00ac 9342     		cmp	r3, r2
 3057 00ae 00D1     		bne	.LCB2824
 3058 00b0 BCE1     		b	.L230	@long jump
 3059              	.LCB2824:
 3060 00b2 C84A     		ldr	r2, .L235+52
 3061 00b4 9342     		cmp	r3, r2
 3062 00b6 00D1     		bne	.LCB2827
 3063 00b8 D9E1     		b	.L228	@long jump
 3064              	.LCB2827:
 3065 00ba 85E3     		b	.L215
 3066              	.L218:
 3067              	.LBB56:
 740:..\..\..\..\..\simplelink\source/driver.c ****       {
 741:..\..\..\..\..\simplelink\source/driver.c **** 		  case  SL_OPCODE_WLAN_P2P_DEV_FOUND:
 742:..\..\..\..\..\simplelink\source/driver.c **** 			  {
 743:..\..\..\..\..\simplelink\source/driver.c **** 				  slPeerInfoAsyncResponse_t* pResp = (slPeerInfoAsyncResponse_t*)_SL_RESP_ARGS_START(g_pCB->Fun
 3068              		.loc 1 743 0
 3069 00bc B84B     		ldr	r3, .L235
 3070 00be 1A68     		ldr	r2, [r3]
 3071 00c0 A823     		mov	r3, #168
 3072 00c2 D358     		ldr	r3, [r2, r3]
 3073 00c4 0833     		add	r3, r3, #8
 3074 00c6 C821     		mov	r1, #200
 3075 00c8 C919     		add	r1, r1, r7
 3076 00ca 0B60     		str	r3, [r1]
 744:..\..\..\..\..\simplelink\source/driver.c **** 				  wlanEvent.Event = SL_WLAN_P2P_DEV_FOUND_EVENT;
 3077              		.loc 1 744 0
 3078 00cc 3B1C     		mov	r3, r7
 3079 00ce 4433     		add	r3, r3, #68
 3080 00d0 0722     		mov	r2, #7
 3081 00d2 1A60     		str	r2, [r3]
 745:..\..\..\..\..\simplelink\source/driver.c **** 				  memcpy(wlanEvent.EventData.P2PModeDevFound.mac,pResp->mac, 6);
 3082              		.loc 1 745 0
 3083 00d4 3A1C     		mov	r2, r7
ARM GAS  C:\Users\X0217454\AppData\Local\Temp\cc7UAvFx.s 			page 69


 3084 00d6 4432     		add	r2, r2, #68
 3085 00d8 C821     		mov	r1, #200
 3086 00da C919     		add	r1, r1, r7
 3087 00dc 0B68     		ldr	r3, [r1]
 3088 00de 111C     		mov	r1, r2
 3089 00e0 2431     		add	r1, r1, #36
 3090 00e2 1A1C     		mov	r2, r3
 3091 00e4 2032     		add	r2, r2, #32
 3092 00e6 0623     		mov	r3, #6
 3093 00e8 081C     		mov	r0, r1
 3094 00ea 111C     		mov	r1, r2
 3095 00ec 1A1C     		mov	r2, r3
 3096 00ee FFF7FEFF 		bl	memcpy
 746:..\..\..\..\..\simplelink\source/driver.c **** 				  memcpy(wlanEvent.EventData.P2PModeDevFound.go_peer_device_name,pResp->go_peer_device_name,pRe
 3097              		.loc 1 746 0
 3098 00f2 C823     		mov	r3, #200
 3099 00f4 DB19     		add	r3, r3, r7
 3100 00f6 1A68     		ldr	r2, [r3]
 3101 00f8 C823     		mov	r3, #200
 3102 00fa DB19     		add	r3, r3, r7
 3103 00fc 1968     		ldr	r1, [r3]
 3104 00fe 2623     		mov	r3, #38
 3105 0100 CB5C     		ldrb	r3, [r1, r3]
 3106 0102 391C     		mov	r1, r7
 3107 0104 4431     		add	r1, r1, #68
 3108 0106 0431     		add	r1, r1, #4
 3109 0108 081C     		mov	r0, r1
 3110 010a 111C     		mov	r1, r2
 3111 010c 1A1C     		mov	r2, r3
 3112 010e FFF7FEFF 		bl	memcpy
 747:..\..\..\..\..\simplelink\source/driver.c **** 				  wlanEvent.EventData.P2PModeDevFound.go_peer_device_name_len = pResp->go_peer_device_name_len;
 3113              		.loc 1 747 0
 3114 0112 C821     		mov	r1, #200
 3115 0114 C919     		add	r1, r1, r7
 3116 0116 0A68     		ldr	r2, [r1]
 3117 0118 2623     		mov	r3, #38
 3118 011a D15C     		ldrb	r1, [r2, r3]
 3119 011c 3A1C     		mov	r2, r7
 3120 011e 4432     		add	r2, r2, #68
 3121 0120 2A23     		mov	r3, #42
 3122 0122 D154     		strb	r1, [r2, r3]
 748:..\..\..\..\..\simplelink\source/driver.c **** 				  g_pCB->FunctionParams.AsyncExt.AsyncEvtHandler(&wlanEvent);
 3123              		.loc 1 748 0
 3124 0124 9E4B     		ldr	r3, .L235
 3125 0126 1A68     		ldr	r2, [r3]
 3126 0128 B023     		mov	r3, #176
 3127 012a D358     		ldr	r3, [r2, r3]
 3128 012c 3A1C     		mov	r2, r7
 3129 012e 4432     		add	r2, r2, #68
 3130 0130 101C     		mov	r0, r2
 3131 0132 9847     		blx	r3
 749:..\..\..\..\..\simplelink\source/driver.c **** 				  break;
 3132              		.loc 1 749 0
 3133 0134 53E3     		b	.L213
 3134              	.L220:
 3135              	.LBE56:
 3136              	.LBB57:
ARM GAS  C:\Users\X0217454\AppData\Local\Temp\cc7UAvFx.s 			page 70


 750:..\..\..\..\..\simplelink\source/driver.c **** 			  }
 751:..\..\..\..\..\simplelink\source/driver.c **** 			  		
 752:..\..\..\..\..\simplelink\source/driver.c **** 		case SL_OPCODE_WLAN_P2P_NEG_REQ_RECEIVED:
 753:..\..\..\..\..\simplelink\source/driver.c **** 			{
 754:..\..\..\..\..\simplelink\source/driver.c **** 				  slPeerInfoAsyncResponse_t* pResp = (slPeerInfoAsyncResponse_t*)_SL_RESP_ARGS_START(g_pCB->Fun
 3137              		.loc 1 754 0
 3138 0136 9A4B     		ldr	r3, .L235
 3139 0138 1A68     		ldr	r2, [r3]
 3140 013a A823     		mov	r3, #168
 3141 013c D358     		ldr	r3, [r2, r3]
 3142 013e 0833     		add	r3, r3, #8
 3143 0140 C422     		mov	r2, #196
 3144 0142 D219     		add	r2, r2, r7
 3145 0144 1360     		str	r3, [r2]
 755:..\..\..\..\..\simplelink\source/driver.c **** 
 756:..\..\..\..\..\simplelink\source/driver.c **** 				  wlanEvent.Event = SL_WLAN_P2P_NEG_REQ_RECEIVED_EVENT;
 3146              		.loc 1 756 0
 3147 0146 3B1C     		mov	r3, r7
 3148 0148 4433     		add	r3, r3, #68
 3149 014a 0822     		mov	r2, #8
 3150 014c 1A60     		str	r2, [r3]
 757:..\..\..\..\..\simplelink\source/driver.c **** 				  memcpy(wlanEvent.EventData.P2PModeNegReqReceived.mac,pResp->mac, 6);
 3151              		.loc 1 757 0
 3152 014e 3A1C     		mov	r2, r7
 3153 0150 4432     		add	r2, r2, #68
 3154 0152 C421     		mov	r1, #196
 3155 0154 C919     		add	r1, r1, r7
 3156 0156 0B68     		ldr	r3, [r1]
 3157 0158 111C     		mov	r1, r2
 3158 015a 2431     		add	r1, r1, #36
 3159 015c 1A1C     		mov	r2, r3
 3160 015e 2032     		add	r2, r2, #32
 3161 0160 0623     		mov	r3, #6
 3162 0162 081C     		mov	r0, r1
 3163 0164 111C     		mov	r1, r2
 3164 0166 1A1C     		mov	r2, r3
 3165 0168 FFF7FEFF 		bl	memcpy
 758:..\..\..\..\..\simplelink\source/driver.c **** 				  memcpy(wlanEvent.EventData.P2PModeNegReqReceived.go_peer_device_name,pResp->go_peer_device_na
 3166              		.loc 1 758 0
 3167 016c C423     		mov	r3, #196
 3168 016e DB19     		add	r3, r3, r7
 3169 0170 1A68     		ldr	r2, [r3]
 3170 0172 C423     		mov	r3, #196
 3171 0174 DB19     		add	r3, r3, r7
 3172 0176 1968     		ldr	r1, [r3]
 3173 0178 2623     		mov	r3, #38
 3174 017a CB5C     		ldrb	r3, [r1, r3]
 3175 017c 391C     		mov	r1, r7
 3176 017e 4431     		add	r1, r1, #68
 3177 0180 0431     		add	r1, r1, #4
 3178 0182 081C     		mov	r0, r1
 3179 0184 111C     		mov	r1, r2
 3180 0186 1A1C     		mov	r2, r3
 3181 0188 FFF7FEFF 		bl	memcpy
 759:..\..\..\..\..\simplelink\source/driver.c **** 				  wlanEvent.EventData.P2PModeNegReqReceived.go_peer_device_name_len = pResp->go_peer_device_nam
 3182              		.loc 1 759 0
 3183 018c C421     		mov	r1, #196
ARM GAS  C:\Users\X0217454\AppData\Local\Temp\cc7UAvFx.s 			page 71


 3184 018e C919     		add	r1, r1, r7
 3185 0190 0A68     		ldr	r2, [r1]
 3186 0192 2623     		mov	r3, #38
 3187 0194 D15C     		ldrb	r1, [r2, r3]
 3188 0196 3A1C     		mov	r2, r7
 3189 0198 4432     		add	r2, r2, #68
 3190 019a 2A23     		mov	r3, #42
 3191 019c D154     		strb	r1, [r2, r3]
 760:..\..\..\..\..\simplelink\source/driver.c **** 				  wlanEvent.EventData.P2PModeNegReqReceived.wps_dev_password_id = pResp->wps_dev_password_id;
 3192              		.loc 1 760 0
 3193 019e C423     		mov	r3, #196
 3194 01a0 DB19     		add	r3, r3, r7
 3195 01a2 1A68     		ldr	r2, [r3]
 3196 01a4 2723     		mov	r3, #39
 3197 01a6 D15C     		ldrb	r1, [r2, r3]
 3198 01a8 3A1C     		mov	r2, r7
 3199 01aa 4432     		add	r2, r2, #68
 3200 01ac 2B23     		mov	r3, #43
 3201 01ae D154     		strb	r1, [r2, r3]
 761:..\..\..\..\..\simplelink\source/driver.c **** 				  g_pCB->FunctionParams.AsyncExt.AsyncEvtHandler(&wlanEvent);
 3202              		.loc 1 761 0
 3203 01b0 7B4B     		ldr	r3, .L235
 3204 01b2 1A68     		ldr	r2, [r3]
 3205 01b4 B023     		mov	r3, #176
 3206 01b6 D358     		ldr	r3, [r2, r3]
 3207 01b8 3A1C     		mov	r2, r7
 3208 01ba 4432     		add	r2, r2, #68
 3209 01bc 101C     		mov	r0, r2
 3210 01be 9847     		blx	r3
 762:..\..\..\..\..\simplelink\source/driver.c **** 				  break;
 3211              		.loc 1 762 0
 3212 01c0 0DE3     		b	.L213
 3213              	.L219:
 3214              	.LBE57:
 3215              	.LBB58:
 763:..\..\..\..\..\simplelink\source/driver.c **** 			  }
 764:..\..\..\..\..\simplelink\source/driver.c **** 		case SL_OPCODE_WLAN_CONNECTION_FAILED:
 765:..\..\..\..\..\simplelink\source/driver.c **** 			{
 766:..\..\..\..\..\simplelink\source/driver.c **** 				 slWlanConnFailureAsyncResponse_t	* pResp = (slWlanConnFailureAsyncResponse_t*)_SL_RESP_ARGS_ST
 3216              		.loc 1 766 0
 3217 01c2 774B     		ldr	r3, .L235
 3218 01c4 1A68     		ldr	r2, [r3]
 3219 01c6 A823     		mov	r3, #168
 3220 01c8 D358     		ldr	r3, [r2, r3]
 3221 01ca 0833     		add	r3, r3, #8
 3222 01cc C021     		mov	r1, #192
 3223 01ce C919     		add	r1, r1, r7
 3224 01d0 0B60     		str	r3, [r1]
 767:..\..\..\..\..\simplelink\source/driver.c **** 
 768:..\..\..\..\..\simplelink\source/driver.c **** 				  wlanEvent.Event = SL_WLAN_CONNECTION_FAILED_EVENT;
 3225              		.loc 1 768 0
 3226 01d2 3B1C     		mov	r3, r7
 3227 01d4 4433     		add	r3, r3, #68
 3228 01d6 0922     		mov	r2, #9
 3229 01d8 1A60     		str	r2, [r3]
 769:..\..\..\..\..\simplelink\source/driver.c **** 				  wlanEvent.EventData.P2PModewlanConnectionFailure.status = pResp->status;
 3230              		.loc 1 769 0
ARM GAS  C:\Users\X0217454\AppData\Local\Temp\cc7UAvFx.s 			page 72


 3231 01da C022     		mov	r2, #192
 3232 01dc D219     		add	r2, r2, r7
 3233 01de 1368     		ldr	r3, [r2]
 3234 01e0 1A88     		ldrh	r2, [r3]
 3235 01e2 3B1C     		mov	r3, r7
 3236 01e4 4433     		add	r3, r3, #68
 3237 01e6 9A80     		strh	r2, [r3, #4]
 770:..\..\..\..\..\simplelink\source/driver.c **** 
 771:..\..\..\..\..\simplelink\source/driver.c **** 				  g_pCB->FunctionParams.AsyncExt.AsyncEvtHandler(&wlanEvent);
 3238              		.loc 1 771 0
 3239 01e8 6D4B     		ldr	r3, .L235
 3240 01ea 1A68     		ldr	r2, [r3]
 3241 01ec B023     		mov	r3, #176
 3242 01ee D358     		ldr	r3, [r2, r3]
 3243 01f0 3A1C     		mov	r2, r7
 3244 01f2 4432     		add	r2, r2, #68
 3245 01f4 101C     		mov	r0, r2
 3246 01f6 9847     		blx	r3
 772:..\..\..\..\..\simplelink\source/driver.c **** 				  break;
 3247              		.loc 1 772 0
 3248 01f8 F1E2     		b	.L213
 3249              	.L221:
 3250              	.LBE58:
 3251              	.LBB59:
 773:..\..\..\..\..\simplelink\source/driver.c **** 			  }
 774:..\..\..\..\..\simplelink\source/driver.c **** 		
 775:..\..\..\..\..\simplelink\source/driver.c ****           case SL_OPCODE_WLAN_WLANASYNCCONNECTEDRESPONSE:
 776:..\..\..\..\..\simplelink\source/driver.c **** 			  {
 777:..\..\..\..\..\simplelink\source/driver.c **** 				 sl_protocol_wlanConnectAsyncResponse_t *pWlanResp = (sl_protocol_wlanConnectAsyncResponse_t*)_
 3252              		.loc 1 777 0
 3253 01fa 694B     		ldr	r3, .L235
 3254 01fc 1A68     		ldr	r2, [r3]
 3255 01fe A823     		mov	r3, #168
 3256 0200 D358     		ldr	r3, [r2, r3]
 3257 0202 0833     		add	r3, r3, #8
 3258 0204 BC21     		mov	r1, #188
 3259 0206 C919     		add	r1, r1, r7
 3260 0208 0B60     		str	r3, [r1]
 778:..\..\..\..\..\simplelink\source/driver.c **** 				 memset(&wlanEvent.EventData.STAandP2PModeWlanConnected,0,sizeof(sl_protocol_wlanConnectAsyncRe
 3261              		.loc 1 778 0
 3262 020a 3B1C     		mov	r3, r7
 3263 020c 4433     		add	r3, r3, #68
 3264 020e 0433     		add	r3, r3, #4
 3265 0210 181C     		mov	r0, r3
 3266 0212 0021     		mov	r1, #0
 3267 0214 4C22     		mov	r2, #76
 3268 0216 FFF7FEFF 		bl	memset
 779:..\..\..\..\..\simplelink\source/driver.c ****              wlanEvent.Event = SL_WLAN_CONNECT_EVENT;
 3269              		.loc 1 779 0
 3270 021a 3B1C     		mov	r3, r7
 3271 021c 4433     		add	r3, r3, #68
 3272 021e 0122     		mov	r2, #1
 3273 0220 1A60     		str	r2, [r3]
 780:..\..\..\..\..\simplelink\source/driver.c **** 				 wlanEvent.EventData.STAandP2PModeWlanConnected.connection_type = pWlanResp->connection_type;
 3274              		.loc 1 780 0
 3275 0222 BC22     		mov	r2, #188
 3276 0224 D219     		add	r2, r2, r7
ARM GAS  C:\Users\X0217454\AppData\Local\Temp\cc7UAvFx.s 			page 73


 3277 0226 1368     		ldr	r3, [r2]
 3278 0228 1A78     		ldrb	r2, [r3]
 3279 022a 3B1C     		mov	r3, r7
 3280 022c 4433     		add	r3, r3, #68
 3281 022e 1A71     		strb	r2, [r3, #4]
 781:..\..\..\..\..\simplelink\source/driver.c **** 				 memcpy(wlanEvent.EventData.STAandP2PModeWlanConnected.bssid, pWlanResp->bssid, 6);
 3282              		.loc 1 781 0
 3283 0230 381C     		mov	r0, r7
 3284 0232 4430     		add	r0, r0, #68
 3285 0234 4721     		mov	r1, #71
 3286 0236 BC23     		mov	r3, #188
 3287 0238 DB19     		add	r3, r3, r7
 3288 023a 1A68     		ldr	r2, [r3]
 3289 023c 4323     		mov	r3, #67
 3290 023e 4118     		add	r1, r0, r1
 3291 0240 D218     		add	r2, r2, r3
 3292 0242 0623     		mov	r3, #6
 3293 0244 081C     		mov	r0, r1
 3294 0246 111C     		mov	r1, r2
 3295 0248 1A1C     		mov	r2, r3
 3296 024a FFF7FEFF 		bl	memcpy
 782:..\..\..\..\..\simplelink\source/driver.c **** 				 memcpy(wlanEvent.EventData.STAandP2PModeWlanConnected.go_peer_device_name,pWlanResp->go_peer_d
 3297              		.loc 1 782 0
 3298 024e BC21     		mov	r1, #188
 3299 0250 C919     		add	r1, r1, r7
 3300 0252 0B68     		ldr	r3, [r1]
 3301 0254 1A1C     		mov	r2, r3
 3302 0256 2332     		add	r2, r2, #35
 3303 0258 BC23     		mov	r3, #188
 3304 025a DB19     		add	r3, r3, r7
 3305 025c 1968     		ldr	r1, [r3]
 3306 025e 2223     		mov	r3, #34
 3307 0260 CB5C     		ldrb	r3, [r1, r3]
 3308 0262 391C     		mov	r1, r7
 3309 0264 4431     		add	r1, r1, #68
 3310 0266 2731     		add	r1, r1, #39
 3311 0268 081C     		mov	r0, r1
 3312 026a 111C     		mov	r1, r2
 3313 026c 1A1C     		mov	r2, r3
 3314 026e FFF7FEFF 		bl	memcpy
 783:..\..\..\..\..\simplelink\source/driver.c **** 				 memcpy(wlanEvent.EventData.STAandP2PModeWlanConnected.ssid_name,		  pWlanResp->ssid_name,			 p
 3315              		.loc 1 783 0
 3316 0272 BC21     		mov	r1, #188
 3317 0274 C919     		add	r1, r1, r7
 3318 0276 0B68     		ldr	r3, [r1]
 3319 0278 9A1C     		add	r2, r3, #2
 3320 027a BC21     		mov	r1, #188
 3321 027c C919     		add	r1, r1, r7
 3322 027e 0B68     		ldr	r3, [r1]
 3323 0280 5B78     		ldrb	r3, [r3, #1]
 3324 0282 391C     		mov	r1, r7
 3325 0284 4431     		add	r1, r1, #68
 3326 0286 0631     		add	r1, r1, #6
 3327 0288 081C     		mov	r0, r1
 3328 028a 111C     		mov	r1, r2
 3329 028c 1A1C     		mov	r2, r3
 3330 028e FFF7FEFF 		bl	memcpy
ARM GAS  C:\Users\X0217454\AppData\Local\Temp\cc7UAvFx.s 			page 74


 784:..\..\..\..\..\simplelink\source/driver.c **** 				 wlanEvent.EventData.STAandP2PModeWlanConnected.ssid_len = pWlanResp->ssid_len;
 3331              		.loc 1 784 0
 3332 0292 BC22     		mov	r2, #188
 3333 0294 D219     		add	r2, r2, r7
 3334 0296 1368     		ldr	r3, [r2]
 3335 0298 5A78     		ldrb	r2, [r3, #1]
 3336 029a 3B1C     		mov	r3, r7
 3337 029c 4433     		add	r3, r3, #68
 3338 029e 5A71     		strb	r2, [r3, #5]
 785:..\..\..\..\..\simplelink\source/driver.c **** 				 wlanEvent.EventData.STAandP2PModeWlanConnected.go_peer_device_name_len = pWlanResp->go_peer_de
 3339              		.loc 1 785 0
 3340 02a0 BC23     		mov	r3, #188
 3341 02a2 DB19     		add	r3, r3, r7
 3342 02a4 1A68     		ldr	r2, [r3]
 3343 02a6 2223     		mov	r3, #34
 3344 02a8 D15C     		ldrb	r1, [r2, r3]
 3345 02aa 3A1C     		mov	r2, r7
 3346 02ac 4432     		add	r2, r2, #68
 3347 02ae 2623     		mov	r3, #38
 3348 02b0 D154     		strb	r1, [r2, r3]
 786:..\..\..\..\..\simplelink\source/driver.c **** 
 787:..\..\..\..\..\simplelink\source/driver.c ****              g_pCB->FunctionParams.AsyncExt.AsyncEvtHandler(&wlanEvent);
 3349              		.loc 1 787 0
 3350 02b2 3B4B     		ldr	r3, .L235
 3351 02b4 1A68     		ldr	r2, [r3]
 3352 02b6 B023     		mov	r3, #176
 3353 02b8 D358     		ldr	r3, [r2, r3]
 3354 02ba 3A1C     		mov	r2, r7
 3355 02bc 4432     		add	r2, r2, #68
 3356 02be 101C     		mov	r0, r2
 3357 02c0 9847     		blx	r3
 788:..\..\..\..\..\simplelink\source/driver.c ****              break;
 3358              		.loc 1 788 0
 3359 02c2 8CE2     		b	.L213
 3360              	.L222:
 3361              	.LBE59:
 3362              	.LBB60:
 789:..\..\..\..\..\simplelink\source/driver.c **** 			  }
 790:..\..\..\..\..\simplelink\source/driver.c ****           case SL_OPCODE_WLAN_WLANASYNCDISCONNECTEDRESPONSE:
 791:..\..\..\..\..\simplelink\source/driver.c **** 			  {
 792:..\..\..\..\..\simplelink\source/driver.c **** 				 sl_protocol_wlanConnectAsyncResponse_t *pWlanResp = (sl_protocol_wlanConnectAsyncResponse_t*)_
 3363              		.loc 1 792 0
 3364 02c4 364B     		ldr	r3, .L235
 3365 02c6 1A68     		ldr	r2, [r3]
 3366 02c8 A823     		mov	r3, #168
 3367 02ca D358     		ldr	r3, [r2, r3]
 3368 02cc 0833     		add	r3, r3, #8
 3369 02ce B821     		mov	r1, #184
 3370 02d0 C919     		add	r1, r1, r7
 3371 02d2 0B60     		str	r3, [r1]
 793:..\..\..\..\..\simplelink\source/driver.c **** 				 memset(&wlanEvent.EventData.STAandP2PModeDisconnected,0,sizeof(sl_protocol_wlanConnectAsyncRes
 3372              		.loc 1 793 0
 3373 02d4 3B1C     		mov	r3, r7
 3374 02d6 4433     		add	r3, r3, #68
 3375 02d8 0433     		add	r3, r3, #4
 3376 02da 181C     		mov	r0, r3
 3377 02dc 0021     		mov	r1, #0
ARM GAS  C:\Users\X0217454\AppData\Local\Temp\cc7UAvFx.s 			page 75


 3378 02de 4C22     		mov	r2, #76
 3379 02e0 FFF7FEFF 		bl	memset
 794:..\..\..\..\..\simplelink\source/driver.c ****              wlanEvent.Event = SL_WLAN_DISCONNECT_EVENT;
 3380              		.loc 1 794 0
 3381 02e4 3B1C     		mov	r3, r7
 3382 02e6 4433     		add	r3, r3, #68
 3383 02e8 0222     		mov	r2, #2
 3384 02ea 1A60     		str	r2, [r3]
 795:..\..\..\..\..\simplelink\source/driver.c **** 				 wlanEvent.EventData.STAandP2PModeDisconnected.connection_type = pWlanResp->connection_type;
 3385              		.loc 1 795 0
 3386 02ec B822     		mov	r2, #184
 3387 02ee D219     		add	r2, r2, r7
 3388 02f0 1368     		ldr	r3, [r2]
 3389 02f2 1A78     		ldrb	r2, [r3]
 3390 02f4 3B1C     		mov	r3, r7
 3391 02f6 4433     		add	r3, r3, #68
 3392 02f8 1A71     		strb	r2, [r3, #4]
 796:..\..\..\..\..\simplelink\source/driver.c **** 				 memcpy(wlanEvent.EventData.STAandP2PModeDisconnected.bssid, pWlanResp->bssid, 6);
 3393              		.loc 1 796 0
 3394 02fa 381C     		mov	r0, r7
 3395 02fc 4430     		add	r0, r0, #68
 3396 02fe 4721     		mov	r1, #71
 3397 0300 B823     		mov	r3, #184
 3398 0302 DB19     		add	r3, r3, r7
 3399 0304 1A68     		ldr	r2, [r3]
 3400 0306 4323     		mov	r3, #67
 3401 0308 4118     		add	r1, r0, r1
 3402 030a D218     		add	r2, r2, r3
 3403 030c 0623     		mov	r3, #6
 3404 030e 081C     		mov	r0, r1
 3405 0310 111C     		mov	r1, r2
 3406 0312 1A1C     		mov	r2, r3
 3407 0314 FFF7FEFF 		bl	memcpy
 797:..\..\..\..\..\simplelink\source/driver.c **** 				 memcpy(wlanEvent.EventData.STAandP2PModeDisconnected.go_peer_device_name,pWlanResp->go_peer_de
 3408              		.loc 1 797 0
 3409 0318 B821     		mov	r1, #184
 3410 031a C919     		add	r1, r1, r7
 3411 031c 0B68     		ldr	r3, [r1]
 3412 031e 1A1C     		mov	r2, r3
 3413 0320 2332     		add	r2, r2, #35
 3414 0322 B823     		mov	r3, #184
 3415 0324 DB19     		add	r3, r3, r7
 3416 0326 1968     		ldr	r1, [r3]
 3417 0328 2223     		mov	r3, #34
 3418 032a CB5C     		ldrb	r3, [r1, r3]
 3419 032c 391C     		mov	r1, r7
 3420 032e 4431     		add	r1, r1, #68
 3421 0330 2731     		add	r1, r1, #39
 3422 0332 081C     		mov	r0, r1
 3423 0334 111C     		mov	r1, r2
 3424 0336 1A1C     		mov	r2, r3
 3425 0338 FFF7FEFF 		bl	memcpy
 798:..\..\..\..\..\simplelink\source/driver.c **** 				 memcpy(wlanEvent.EventData.STAandP2PModeDisconnected.ssid_name,		  pWlanResp->ssid_name,			 pW
 3426              		.loc 1 798 0
 3427 033c B821     		mov	r1, #184
 3428 033e C919     		add	r1, r1, r7
 3429 0340 0B68     		ldr	r3, [r1]
ARM GAS  C:\Users\X0217454\AppData\Local\Temp\cc7UAvFx.s 			page 76


 3430 0342 9A1C     		add	r2, r3, #2
 3431 0344 B821     		mov	r1, #184
 3432 0346 C919     		add	r1, r1, r7
 3433 0348 0B68     		ldr	r3, [r1]
 3434 034a 5B78     		ldrb	r3, [r3, #1]
 3435 034c 391C     		mov	r1, r7
 3436 034e 4431     		add	r1, r1, #68
 3437 0350 0631     		add	r1, r1, #6
 3438 0352 081C     		mov	r0, r1
 3439 0354 111C     		mov	r1, r2
 3440 0356 1A1C     		mov	r2, r3
 3441 0358 FFF7FEFF 		bl	memcpy
 799:..\..\..\..\..\simplelink\source/driver.c **** 				 wlanEvent.EventData.STAandP2PModeDisconnected.ssid_len = pWlanResp->ssid_len;
 3442              		.loc 1 799 0
 3443 035c B822     		mov	r2, #184
 3444 035e D219     		add	r2, r2, r7
 3445 0360 1368     		ldr	r3, [r2]
 3446 0362 5A78     		ldrb	r2, [r3, #1]
 3447 0364 3B1C     		mov	r3, r7
 3448 0366 4433     		add	r3, r3, #68
 3449 0368 5A71     		strb	r2, [r3, #5]
 800:..\..\..\..\..\simplelink\source/driver.c **** 				 wlanEvent.EventData.STAandP2PModeDisconnected.reason_code = pWlanResp->reason_code;
 3450              		.loc 1 800 0
 3451 036a B823     		mov	r3, #184
 3452 036c DB19     		add	r3, r3, r7
 3453 036e 1A68     		ldr	r2, [r3]
 3454 0370 4923     		mov	r3, #73
 3455 0372 D15C     		ldrb	r1, [r2, r3]
 3456 0374 3A1C     		mov	r2, r7
 3457 0376 4432     		add	r2, r2, #68
 3458 0378 4D23     		mov	r3, #77
 3459 037a D154     		strb	r1, [r2, r3]
 801:..\..\..\..\..\simplelink\source/driver.c **** 				 wlanEvent.EventData.STAandP2PModeDisconnected.go_peer_device_name_len = pWlanResp->go_peer_dev
 3460              		.loc 1 801 0
 3461 037c B821     		mov	r1, #184
 3462 037e C919     		add	r1, r1, r7
 3463 0380 0A68     		ldr	r2, [r1]
 3464 0382 2223     		mov	r3, #34
 3465 0384 D15C     		ldrb	r1, [r2, r3]
 3466 0386 3A1C     		mov	r2, r7
 3467 0388 4432     		add	r2, r2, #68
 3468 038a 2623     		mov	r3, #38
 3469 038c D154     		strb	r1, [r2, r3]
 802:..\..\..\..\..\simplelink\source/driver.c ****              g_pCB->FunctionParams.AsyncExt.AsyncEvtHandler(&wlanEvent);
 3470              		.loc 1 802 0
 3471 038e 044B     		ldr	r3, .L235
 3472 0390 1A68     		ldr	r2, [r3]
 3473 0392 B023     		mov	r3, #176
 3474 0394 D358     		ldr	r3, [r2, r3]
 3475 0396 3A1C     		mov	r2, r7
 3476 0398 4432     		add	r2, r2, #68
 3477 039a 101C     		mov	r0, r2
 3478 039c 9847     		blx	r3
 803:..\..\..\..\..\simplelink\source/driver.c ****              break;             
 3479              		.loc 1 803 0
 3480 039e 1EE2     		b	.L213
 3481              	.L236:
ARM GAS  C:\Users\X0217454\AppData\Local\Temp\cc7UAvFx.s 			page 77


 3482              		.align	2
 3483              	.L235:
 3484 03a0 00000000 		.word	g_pCB
 3485 03a4 B2080000 		.word	2226
 3486 03a8 31080000 		.word	2097
 3487 03ac 2F080000 		.word	2095
 3488 03b0 2E080000 		.word	2094
 3489 03b4 81080000 		.word	2177
 3490 03b8 32080000 		.word	2098
 3491 03bc 25180000 		.word	6181
 3492 03c0 0E100000 		.word	4110
 3493 03c4 22180000 		.word	6178
 3494 03c8 B3080000 		.word	2227
 3495 03cc 2D180000 		.word	6189
 3496 03d0 251A0000 		.word	6693
 3497 03d4 2C180000 		.word	6188
 3498              	.L227:
 3499              	.LBE60:
 3500              	.LBB61:
 804:..\..\..\..\..\simplelink\source/driver.c **** 			  }
 805:..\..\..\..\..\simplelink\source/driver.c ****          case SL_OPCODE_NETAPP_IPACQUIRED:
 806:..\..\..\..\..\simplelink\source/driver.c **** 			{
 807:..\..\..\..\..\simplelink\source/driver.c ****              SlIpV4AcquiredAsync_t *pIpV4 = (SlIpV4AcquiredAsync_t*)_SL_RESP_ARGS_START(g_pCB->Func
 3501              		.loc 1 807 0
 3502 03d8 F64B     		ldr	r3, .L237
 3503 03da 1A68     		ldr	r2, [r3]
 3504 03dc A823     		mov	r3, #168
 3505 03de D358     		ldr	r3, [r2, r3]
 3506 03e0 0833     		add	r3, r3, #8
 3507 03e2 B422     		mov	r2, #180
 3508 03e4 D219     		add	r2, r2, r7
 3509 03e6 1360     		str	r3, [r2]
 808:..\..\..\..\..\simplelink\source/driver.c ****              netAppEvent.Event = SL_NETAPP_IPV4_ACQUIRED;
 3510              		.loc 1 808 0
 3511 03e8 3B1C     		mov	r3, r7
 3512 03ea 0C33     		add	r3, r3, #12
 3513 03ec 0122     		mov	r2, #1
 3514 03ee 1A60     		str	r2, [r3]
 809:..\..\..\..\..\simplelink\source/driver.c ****              netAppEvent.EventData.ipAcquiredV4.ip = pIpV4->ip;
 3515              		.loc 1 809 0
 3516 03f0 B421     		mov	r1, #180
 3517 03f2 C919     		add	r1, r1, r7
 3518 03f4 0B68     		ldr	r3, [r1]
 3519 03f6 1A68     		ldr	r2, [r3]
 3520 03f8 3B1C     		mov	r3, r7
 3521 03fa 0C33     		add	r3, r3, #12
 3522 03fc 5A60     		str	r2, [r3, #4]
 810:..\..\..\..\..\simplelink\source/driver.c ****              netAppEvent.EventData.ipAcquiredV4.gateway = pIpV4->gateway;
 3523              		.loc 1 810 0
 3524 03fe B422     		mov	r2, #180
 3525 0400 D219     		add	r2, r2, r7
 3526 0402 1368     		ldr	r3, [r2]
 3527 0404 5A68     		ldr	r2, [r3, #4]
 3528 0406 3B1C     		mov	r3, r7
 3529 0408 0C33     		add	r3, r3, #12
 3530 040a 9A60     		str	r2, [r3, #8]
 811:..\..\..\..\..\simplelink\source/driver.c ****              netAppEvent.EventData.ipAcquiredV4.dns = pIpV4->dns;
ARM GAS  C:\Users\X0217454\AppData\Local\Temp\cc7UAvFx.s 			page 78


 3531              		.loc 1 811 0
 3532 040c B421     		mov	r1, #180
 3533 040e C919     		add	r1, r1, r7
 3534 0410 0B68     		ldr	r3, [r1]
 3535 0412 9A68     		ldr	r2, [r3, #8]
 3536 0414 3B1C     		mov	r3, r7
 3537 0416 0C33     		add	r3, r3, #12
 3538 0418 DA60     		str	r2, [r3, #12]
 812:..\..\..\..\..\simplelink\source/driver.c ****              g_pCB->FunctionParams.AsyncExt.AsyncEvtHandler(&netAppEvent);
 3539              		.loc 1 812 0
 3540 041a E64B     		ldr	r3, .L237
 3541 041c 1A68     		ldr	r2, [r3]
 3542 041e B023     		mov	r3, #176
 3543 0420 D358     		ldr	r3, [r2, r3]
 3544 0422 3A1C     		mov	r2, r7
 3545 0424 0C32     		add	r2, r2, #12
 3546 0426 101C     		mov	r0, r2
 3547 0428 9847     		blx	r3
 3548              	.LBE61:
 813:..\..\..\..\..\simplelink\source/driver.c ****             }
 814:..\..\..\..\..\simplelink\source/driver.c ****             break;
 3549              		.loc 1 814 0
 3550 042a D8E1     		b	.L213
 3551              	.L230:
 3552              	.LBB62:
 815:..\..\..\..\..\simplelink\source/driver.c ****          case SL_OPCODE_NETAPP_IPACQUIRED_V6:
 816:..\..\..\..\..\simplelink\source/driver.c ****            {
 817:..\..\..\..\..\simplelink\source/driver.c ****             SlIpV6AcquiredAsync_t *pIpV6 = (SlIpV6AcquiredAsync_t*)_SL_RESP_ARGS_START(g_pCB->Funct
 3553              		.loc 1 817 0
 3554 042c E14B     		ldr	r3, .L237
 3555 042e 1A68     		ldr	r2, [r3]
 3556 0430 A823     		mov	r3, #168
 3557 0432 D358     		ldr	r3, [r2, r3]
 3558 0434 0833     		add	r3, r3, #8
 3559 0436 B022     		mov	r2, #176
 3560 0438 D219     		add	r2, r2, r7
 3561 043a 1360     		str	r3, [r2]
 818:..\..\..\..\..\simplelink\source/driver.c **** 			netAppEvent.Event =  SL_NETAPP_IPV6_ACQUIRED;
 3562              		.loc 1 818 0
 3563 043c 3B1C     		mov	r3, r7
 3564 043e 0C33     		add	r3, r3, #12
 3565 0440 0222     		mov	r2, #2
 3566 0442 1A60     		str	r2, [r3]
 819:..\..\..\..\..\simplelink\source/driver.c ****             memcpy((void *)&netAppEvent.EventData.ipAcquiredV6.ip[0],(void *)&pIpV6->ip[0],sizeof(p
 3567              		.loc 1 819 0
 3568 0444 B021     		mov	r1, #176
 3569 0446 C919     		add	r1, r1, r7
 3570 0448 0B68     		ldr	r3, [r1]
 3571 044a 0433     		add	r3, r3, #4
 3572 044c 3A1C     		mov	r2, r7
 3573 044e 0C32     		add	r2, r2, #12
 3574 0450 0832     		add	r2, r2, #8
 3575 0452 101C     		mov	r0, r2
 3576 0454 191C     		mov	r1, r3
 3577 0456 1022     		mov	r2, #16
 3578 0458 FFF7FEFF 		bl	memcpy
 820:..\..\..\..\..\simplelink\source/driver.c ****             g_pCB->FunctionParams.AsyncExt.AsyncEvtHandler(&netAppEvent);
ARM GAS  C:\Users\X0217454\AppData\Local\Temp\cc7UAvFx.s 			page 79


 3579              		.loc 1 820 0
 3580 045c D54B     		ldr	r3, .L237
 3581 045e 1A68     		ldr	r2, [r3]
 3582 0460 B023     		mov	r3, #176
 3583 0462 D358     		ldr	r3, [r2, r3]
 3584 0464 3A1C     		mov	r2, r7
 3585 0466 0C32     		add	r2, r2, #12
 3586 0468 101C     		mov	r0, r2
 3587 046a 9847     		blx	r3
 3588              	.LBE62:
 821:..\..\..\..\..\simplelink\source/driver.c ****            }
 822:..\..\..\..\..\simplelink\source/driver.c ****             break;
 3589              		.loc 1 822 0
 3590 046c B7E1     		b	.L213
 3591              	.L228:
 3592              	.LBB63:
 823:..\..\..\..\..\simplelink\source/driver.c **** 
 824:..\..\..\..\..\simplelink\source/driver.c ****             case SL_OPCODE_NETAPP_IP_LEASED:
 825:..\..\..\..\..\simplelink\source/driver.c **** 			{
 826:..\..\..\..\..\simplelink\source/driver.c ****              SlIpLeasedAsync_t *pIpV4 = (SlIpLeasedAsync_t*)_SL_RESP_ARGS_START(g_pCB->FunctionPara
 3593              		.loc 1 826 0
 3594 046e D14B     		ldr	r3, .L237
 3595 0470 1A68     		ldr	r2, [r3]
 3596 0472 A823     		mov	r3, #168
 3597 0474 D358     		ldr	r3, [r2, r3]
 3598 0476 0833     		add	r3, r3, #8
 3599 0478 AC22     		mov	r2, #172
 3600 047a D219     		add	r2, r2, r7
 3601 047c 1360     		str	r3, [r2]
 827:..\..\..\..\..\simplelink\source/driver.c **** 			 netAppEvent.Event = SL_NETAPP_IP_LEASED;
 3602              		.loc 1 827 0
 3603 047e 3B1C     		mov	r3, r7
 3604 0480 0C33     		add	r3, r3, #12
 3605 0482 0422     		mov	r2, #4
 3606 0484 1A60     		str	r2, [r3]
 828:..\..\..\..\..\simplelink\source/driver.c ****              netAppEvent.EventData.ipLeased.ip_address = pIpV4->ip_address;
 3607              		.loc 1 828 0
 3608 0486 AC21     		mov	r1, #172
 3609 0488 C919     		add	r1, r1, r7
 3610 048a 0B68     		ldr	r3, [r1]
 3611 048c 1A68     		ldr	r2, [r3]
 3612 048e 3B1C     		mov	r3, r7
 3613 0490 0C33     		add	r3, r3, #12
 3614 0492 5A60     		str	r2, [r3, #4]
 829:..\..\..\..\..\simplelink\source/driver.c ****              netAppEvent.EventData.ipLeased.lease_time = pIpV4->lease_time;
 3615              		.loc 1 829 0
 3616 0494 AC22     		mov	r2, #172
 3617 0496 D219     		add	r2, r2, r7
 3618 0498 1368     		ldr	r3, [r2]
 3619 049a 5A68     		ldr	r2, [r3, #4]
 3620 049c 3B1C     		mov	r3, r7
 3621 049e 0C33     		add	r3, r3, #12
 3622 04a0 9A60     		str	r2, [r3, #8]
 830:..\..\..\..\..\simplelink\source/driver.c ****              memcpy(netAppEvent.EventData.ipLeased.mac, pIpV4->mac, 6);
 3623              		.loc 1 830 0
 3624 04a2 3A1C     		mov	r2, r7
 3625 04a4 0C32     		add	r2, r2, #12
ARM GAS  C:\Users\X0217454\AppData\Local\Temp\cc7UAvFx.s 			page 80


 3626 04a6 AC21     		mov	r1, #172
 3627 04a8 C919     		add	r1, r1, r7
 3628 04aa 0B68     		ldr	r3, [r1]
 3629 04ac 111C     		mov	r1, r2
 3630 04ae 0C31     		add	r1, r1, #12
 3631 04b0 1A1C     		mov	r2, r3
 3632 04b2 0832     		add	r2, r2, #8
 3633 04b4 0623     		mov	r3, #6
 3634 04b6 081C     		mov	r0, r1
 3635 04b8 111C     		mov	r1, r2
 3636 04ba 1A1C     		mov	r2, r3
 3637 04bc FFF7FEFF 		bl	memcpy
 831:..\..\..\..\..\simplelink\source/driver.c **** 
 832:..\..\..\..\..\simplelink\source/driver.c ****              g_pCB->FunctionParams.AsyncExt.AsyncEvtHandler(&netAppEvent);
 3638              		.loc 1 832 0
 3639 04c0 BC4B     		ldr	r3, .L237
 3640 04c2 1A68     		ldr	r2, [r3]
 3641 04c4 B023     		mov	r3, #176
 3642 04c6 D358     		ldr	r3, [r2, r3]
 3643 04c8 3A1C     		mov	r2, r7
 3644 04ca 0C32     		add	r2, r2, #12
 3645 04cc 101C     		mov	r0, r2
 3646 04ce 9847     		blx	r3
 3647              	.LBE63:
 833:..\..\..\..\..\simplelink\source/driver.c ****             }
 834:..\..\..\..\..\simplelink\source/driver.c ****             break;
 3648              		.loc 1 834 0
 3649 04d0 85E1     		b	.L213
 3650              	.L229:
 3651              	.LBB64:
 835:..\..\..\..\..\simplelink\source/driver.c **** 
 836:..\..\..\..\..\simplelink\source/driver.c ****             case SL_OPCODE_NETAPP_IP_RELEASED:
 837:..\..\..\..\..\simplelink\source/driver.c **** 			{
 838:..\..\..\..\..\simplelink\source/driver.c ****              SlIpReleasedAsync_t *pIpV4 = (SlIpReleasedAsync_t *)_SL_RESP_ARGS_START(g_pCB->Functio
 3652              		.loc 1 838 0
 3653 04d2 B84B     		ldr	r3, .L237
 3654 04d4 1A68     		ldr	r2, [r3]
 3655 04d6 A823     		mov	r3, #168
 3656 04d8 D358     		ldr	r3, [r2, r3]
 3657 04da 0833     		add	r3, r3, #8
 3658 04dc A822     		mov	r2, #168
 3659 04de D219     		add	r2, r2, r7
 3660 04e0 1360     		str	r3, [r2]
 839:..\..\..\..\..\simplelink\source/driver.c **** 			 netAppEvent.Event = SL_NETAPP_IP_RELEASED;
 3661              		.loc 1 839 0
 3662 04e2 3B1C     		mov	r3, r7
 3663 04e4 0C33     		add	r3, r3, #12
 3664 04e6 0522     		mov	r2, #5
 3665 04e8 1A60     		str	r2, [r3]
 840:..\..\..\..\..\simplelink\source/driver.c ****              netAppEvent.EventData.ipReleased.ip_address = pIpV4->ip_address;
 3666              		.loc 1 840 0
 3667 04ea A821     		mov	r1, #168
 3668 04ec C919     		add	r1, r1, r7
 3669 04ee 0B68     		ldr	r3, [r1]
 3670 04f0 1A68     		ldr	r2, [r3]
 3671 04f2 3B1C     		mov	r3, r7
 3672 04f4 0C33     		add	r3, r3, #12
ARM GAS  C:\Users\X0217454\AppData\Local\Temp\cc7UAvFx.s 			page 81


 3673 04f6 5A60     		str	r2, [r3, #4]
 841:..\..\..\..\..\simplelink\source/driver.c ****              netAppEvent.EventData.ipReleased.reason = pIpV4->reason;
 3674              		.loc 1 841 0
 3675 04f8 A822     		mov	r2, #168
 3676 04fa D219     		add	r2, r2, r7
 3677 04fc 1368     		ldr	r3, [r2]
 3678 04fe 5A89     		ldrh	r2, [r3, #10]
 3679 0500 3B1C     		mov	r3, r7
 3680 0502 0C33     		add	r3, r3, #12
 3681 0504 DA81     		strh	r2, [r3, #14]
 842:..\..\..\..\..\simplelink\source/driver.c ****              memcpy(netAppEvent.EventData.ipReleased.mac, pIpV4->mac, 6);
 3682              		.loc 1 842 0
 3683 0506 3A1C     		mov	r2, r7
 3684 0508 0C32     		add	r2, r2, #12
 3685 050a A821     		mov	r1, #168
 3686 050c C919     		add	r1, r1, r7
 3687 050e 0B68     		ldr	r3, [r1]
 3688 0510 111C     		mov	r1, r2
 3689 0512 0831     		add	r1, r1, #8
 3690 0514 1A1D     		add	r2, r3, #4
 3691 0516 0623     		mov	r3, #6
 3692 0518 081C     		mov	r0, r1
 3693 051a 111C     		mov	r1, r2
 3694 051c 1A1C     		mov	r2, r3
 3695 051e FFF7FEFF 		bl	memcpy
 843:..\..\..\..\..\simplelink\source/driver.c **** 
 844:..\..\..\..\..\simplelink\source/driver.c ****              g_pCB->FunctionParams.AsyncExt.AsyncEvtHandler(&netAppEvent);
 3696              		.loc 1 844 0
 3697 0522 A44B     		ldr	r3, .L237
 3698 0524 1A68     		ldr	r2, [r3]
 3699 0526 B023     		mov	r3, #176
 3700 0528 D358     		ldr	r3, [r2, r3]
 3701 052a 3A1C     		mov	r2, r7
 3702 052c 0C32     		add	r2, r2, #12
 3703 052e 101C     		mov	r0, r2
 3704 0530 9847     		blx	r3
 3705              	.LBE64:
 845:..\..\..\..\..\simplelink\source/driver.c ****             }
 846:..\..\..\..\..\simplelink\source/driver.c ****             break;
 3706              		.loc 1 846 0
 3707 0532 54E1     		b	.L213
 3708              	.L225:
 3709              	.LBB65:
 847:..\..\..\..\..\simplelink\source/driver.c **** 
 848:..\..\..\..\..\simplelink\source/driver.c ****          case SL_OPCODE_SOCKET_TXFAILEDASYNCRESPONSE:
 849:..\..\..\..\..\simplelink\source/driver.c **** 			{
 850:..\..\..\..\..\simplelink\source/driver.c **** 				SlSockEventData_t *txfailparams = (SlSockEventData_t*)_SL_RESP_ARGS_START(g_pCB->FunctionParams
 3710              		.loc 1 850 0
 3711 0534 9F4B     		ldr	r3, .L237
 3712 0536 1A68     		ldr	r2, [r3]
 3713 0538 A823     		mov	r3, #168
 3714 053a D358     		ldr	r3, [r2, r3]
 3715 053c 0833     		add	r3, r3, #8
 3716 053e A422     		mov	r2, #164
 3717 0540 D219     		add	r2, r2, r7
 3718 0542 1360     		str	r3, [r2]
 851:..\..\..\..\..\simplelink\source/driver.c **** 				sockAppEvent.Event =  SL_NETAPP_SOCKET_TX_FAILED;
ARM GAS  C:\Users\X0217454\AppData\Local\Temp\cc7UAvFx.s 			page 82


 3719              		.loc 1 851 0
 3720 0544 3B1D     		add	r3, r7, #4
 3721 0546 0322     		mov	r2, #3
 3722 0548 1A60     		str	r2, [r3]
 852:..\..\..\..\..\simplelink\source/driver.c **** 				memcpy((void *)&sockAppEvent.EventData,(void *)txfailparams,sizeof(SlSockEventData_t)); 
 3723              		.loc 1 852 0
 3724 054a 3B1D     		add	r3, r7, #4
 3725 054c 1A1D     		add	r2, r3, #4
 3726 054e A421     		mov	r1, #164
 3727 0550 C919     		add	r1, r1, r7
 3728 0552 0B68     		ldr	r3, [r1]
 3729 0554 101C     		mov	r0, r2
 3730 0556 191C     		mov	r1, r3
 3731 0558 0422     		mov	r2, #4
 3732 055a FFF7FEFF 		bl	memcpy
 853:..\..\..\..\..\simplelink\source/driver.c ****             	g_pCB->FunctionParams.AsyncExt.AsyncEvtHandler(&sockAppEvent);
 3733              		.loc 1 853 0
 3734 055e 954B     		ldr	r3, .L237
 3735 0560 1A68     		ldr	r2, [r3]
 3736 0562 B023     		mov	r3, #176
 3737 0564 D358     		ldr	r3, [r2, r3]
 3738 0566 3A1D     		add	r2, r7, #4
 3739 0568 101C     		mov	r0, r2
 3740 056a 9847     		blx	r3
 3741              	.LBE65:
 854:..\..\..\..\..\simplelink\source/driver.c **** 			}
 855:..\..\..\..\..\simplelink\source/driver.c ****             break; 
 3742              		.loc 1 855 0
 3743 056c 37E1     		b	.L213
 3744              	.L223:
 3745              	.LBB66:
 856:..\..\..\..\..\simplelink\source/driver.c **** 
 857:..\..\..\..\..\simplelink\source/driver.c ****           case SL_OPCODE_WLAN_SMART_CONFIG_START_ASYNC_RESPONSE:
 858:..\..\..\..\..\simplelink\source/driver.c ****           {
 859:..\..\..\..\..\simplelink\source/driver.c ****                 slSmartConfigStartAsyncResponse_t *pResp = (slSmartConfigStartAsyncResponse_t*)_SL_
 3746              		.loc 1 859 0
 3747 056e 914B     		ldr	r3, .L237
 3748 0570 1A68     		ldr	r2, [r3]
 3749 0572 A823     		mov	r3, #168
 3750 0574 D358     		ldr	r3, [r2, r3]
 3751 0576 0833     		add	r3, r3, #8
 3752 0578 A022     		mov	r2, #160
 3753 057a D219     		add	r2, r2, r7
 3754 057c 1360     		str	r3, [r2]
 860:..\..\..\..\..\simplelink\source/driver.c **** 
 861:..\..\..\..\..\simplelink\source/driver.c ****                 wlanEvent.Event = SL_WLAN_SMART_CONFIG_START_EVENT;
 3755              		.loc 1 861 0
 3756 057e 3B1C     		mov	r3, r7
 3757 0580 4433     		add	r3, r3, #68
 3758 0582 0322     		mov	r2, #3
 3759 0584 1A60     		str	r2, [r3]
 862:..\..\..\..\..\simplelink\source/driver.c ****                 wlanEvent.EventData.smartConfigStartResponse.status = pResp->status;
 3760              		.loc 1 862 0
 3761 0586 A021     		mov	r1, #160
 3762 0588 C919     		add	r1, r1, r7
 3763 058a 0B68     		ldr	r3, [r1]
 3764 058c 1A68     		ldr	r2, [r3]
ARM GAS  C:\Users\X0217454\AppData\Local\Temp\cc7UAvFx.s 			page 83


 3765 058e 3B1C     		mov	r3, r7
 3766 0590 4433     		add	r3, r3, #68
 3767 0592 5A60     		str	r2, [r3, #4]
 863:..\..\..\..\..\simplelink\source/driver.c ****                 wlanEvent.EventData.smartConfigStartResponse.ssid_len = pResp->ssid_len;
 3768              		.loc 1 863 0
 3769 0594 A022     		mov	r2, #160
 3770 0596 D219     		add	r2, r2, r7
 3771 0598 1368     		ldr	r3, [r2]
 3772 059a 5A68     		ldr	r2, [r3, #4]
 3773 059c 3B1C     		mov	r3, r7
 3774 059e 4433     		add	r3, r3, #68
 3775 05a0 9A60     		str	r2, [r3, #8]
 864:..\..\..\..\..\simplelink\source/driver.c ****                 wlanEvent.EventData.smartConfigStartResponse.private_token_len = pResp->private_tok
 3776              		.loc 1 864 0
 3777 05a2 A021     		mov	r1, #160
 3778 05a4 C919     		add	r1, r1, r7
 3779 05a6 0B68     		ldr	r3, [r1]
 3780 05a8 9A6A     		ldr	r2, [r3, #40]
 3781 05aa 3B1C     		mov	r3, r7
 3782 05ac 4433     		add	r3, r3, #68
 3783 05ae DA62     		str	r2, [r3, #44]
 865:..\..\..\..\..\simplelink\source/driver.c **** 
 866:..\..\..\..\..\simplelink\source/driver.c ****                 memset(wlanEvent.EventData.smartConfigStartResponse.ssid, 0x00, sizeof(wlanEvent.Ev
 3784              		.loc 1 866 0
 3785 05b0 3B1C     		mov	r3, r7
 3786 05b2 4433     		add	r3, r3, #68
 3787 05b4 0C33     		add	r3, r3, #12
 3788 05b6 181C     		mov	r0, r3
 3789 05b8 0021     		mov	r1, #0
 3790 05ba 2022     		mov	r2, #32
 3791 05bc FFF7FEFF 		bl	memset
 867:..\..\..\..\..\simplelink\source/driver.c ****                 memcpy(wlanEvent.EventData.smartConfigStartResponse.ssid, pResp->ssid, pResp->ssid_
 3792              		.loc 1 867 0
 3793 05c0 A022     		mov	r2, #160
 3794 05c2 D219     		add	r2, r2, r7
 3795 05c4 1368     		ldr	r3, [r2]
 3796 05c6 1A1C     		mov	r2, r3
 3797 05c8 0832     		add	r2, r2, #8
 3798 05ca A021     		mov	r1, #160
 3799 05cc C919     		add	r1, r1, r7
 3800 05ce 0B68     		ldr	r3, [r1]
 3801 05d0 5B68     		ldr	r3, [r3, #4]
 3802 05d2 391C     		mov	r1, r7
 3803 05d4 4431     		add	r1, r1, #68
 3804 05d6 0C31     		add	r1, r1, #12
 3805 05d8 081C     		mov	r0, r1
 3806 05da 111C     		mov	r1, r2
 3807 05dc 1A1C     		mov	r2, r3
 3808 05de FFF7FEFF 		bl	memcpy
 868:..\..\..\..\..\simplelink\source/driver.c ****                 /* if private data exist */
 869:..\..\..\..\..\simplelink\source/driver.c ****                 if (pResp->private_token_len)
 3809              		.loc 1 869 0
 3810 05e2 A022     		mov	r2, #160
 3811 05e4 D219     		add	r2, r2, r7
 3812 05e6 1368     		ldr	r3, [r2]
 3813 05e8 9B6A     		ldr	r3, [r3, #40]
 3814 05ea 002B     		cmp	r3, #0
ARM GAS  C:\Users\X0217454\AppData\Local\Temp\cc7UAvFx.s 			page 84


 3815 05ec 18D0     		beq	.L234
 870:..\..\..\..\..\simplelink\source/driver.c ****                 {
 871:..\..\..\..\..\simplelink\source/driver.c ****                     memset(wlanEvent.EventData.smartConfigStartResponse.private_token, 0x00, sizeof
 3816              		.loc 1 871 0
 3817 05ee 3B1C     		mov	r3, r7
 3818 05f0 4433     		add	r3, r3, #68
 3819 05f2 3033     		add	r3, r3, #48
 3820 05f4 181C     		mov	r0, r3
 3821 05f6 0021     		mov	r1, #0
 3822 05f8 2022     		mov	r2, #32
 3823 05fa FFF7FEFF 		bl	memset
 872:..\..\..\..\..\simplelink\source/driver.c ****                     memcpy(wlanEvent.EventData.smartConfigStartResponse.private_token, pResp->priva
 3824              		.loc 1 872 0
 3825 05fe A021     		mov	r1, #160
 3826 0600 C919     		add	r1, r1, r7
 3827 0602 0B68     		ldr	r3, [r1]
 3828 0604 1A1C     		mov	r2, r3
 3829 0606 2C32     		add	r2, r2, #44
 3830 0608 A021     		mov	r1, #160
 3831 060a C919     		add	r1, r1, r7
 3832 060c 0B68     		ldr	r3, [r1]
 3833 060e 9B6A     		ldr	r3, [r3, #40]
 3834 0610 391C     		mov	r1, r7
 3835 0612 4431     		add	r1, r1, #68
 3836 0614 3031     		add	r1, r1, #48
 3837 0616 081C     		mov	r0, r1
 3838 0618 111C     		mov	r1, r2
 3839 061a 1A1C     		mov	r2, r3
 3840 061c FFF7FEFF 		bl	memcpy
 3841              	.L234:
 873:..\..\..\..\..\simplelink\source/driver.c ****                 }
 874:..\..\..\..\..\simplelink\source/driver.c **** 
 875:..\..\..\..\..\simplelink\source/driver.c ****                 g_pCB->FunctionParams.AsyncExt.AsyncEvtHandler(&wlanEvent);
 3842              		.loc 1 875 0
 3843 0620 644B     		ldr	r3, .L237
 3844 0622 1A68     		ldr	r2, [r3]
 3845 0624 B023     		mov	r3, #176
 3846 0626 D358     		ldr	r3, [r2, r3]
 3847 0628 3A1C     		mov	r2, r7
 3848 062a 4432     		add	r2, r2, #68
 3849 062c 101C     		mov	r0, r2
 3850 062e 9847     		blx	r3
 3851              	.LBE66:
 876:..\..\..\..\..\simplelink\source/driver.c ****           }
 877:..\..\..\..\..\simplelink\source/driver.c ****           break;
 3852              		.loc 1 877 0
 3853 0630 D5E0     		b	.L213
 3854              	.L224:
 3855              	.LBB67:
 878:..\..\..\..\..\simplelink\source/driver.c **** 
 879:..\..\..\..\..\simplelink\source/driver.c ****           case SL_OPCODE_WLAN_SMART_CONFIG_STOP_ASYNC_RESPONSE:
 880:..\..\..\..\..\simplelink\source/driver.c ****           {
 881:..\..\..\..\..\simplelink\source/driver.c ****                 slSmartConfigStopAsyncResponse_t *pResp = (slSmartConfigStopAsyncResponse_t*)_SL_RE
 3856              		.loc 1 881 0
 3857 0632 604B     		ldr	r3, .L237
 3858 0634 1A68     		ldr	r2, [r3]
 3859 0636 A823     		mov	r3, #168
ARM GAS  C:\Users\X0217454\AppData\Local\Temp\cc7UAvFx.s 			page 85


 3860 0638 D358     		ldr	r3, [r2, r3]
 3861 063a 0833     		add	r3, r3, #8
 3862 063c 9C22     		mov	r2, #156
 3863 063e D219     		add	r2, r2, r7
 3864 0640 1360     		str	r3, [r2]
 882:..\..\..\..\..\simplelink\source/driver.c **** 
 883:..\..\..\..\..\simplelink\source/driver.c ****                 wlanEvent.Event = SL_WLAN_SMART_CONFIG_STOP_EVENT;
 3865              		.loc 1 883 0
 3866 0642 3B1C     		mov	r3, r7
 3867 0644 4433     		add	r3, r3, #68
 3868 0646 0422     		mov	r2, #4
 3869 0648 1A60     		str	r2, [r3]
 884:..\..\..\..\..\simplelink\source/driver.c ****                 wlanEvent.EventData.smartConfigStopResponse.status = pResp->status;
 3870              		.loc 1 884 0
 3871 064a 9C21     		mov	r1, #156
 3872 064c C919     		add	r1, r1, r7
 3873 064e 0B68     		ldr	r3, [r1]
 3874 0650 1A88     		ldrh	r2, [r3]
 3875 0652 3B1C     		mov	r3, r7
 3876 0654 4433     		add	r3, r3, #68
 3877 0656 9A80     		strh	r2, [r3, #4]
 885:..\..\..\..\..\simplelink\source/driver.c **** 
 886:..\..\..\..\..\simplelink\source/driver.c ****                 g_pCB->FunctionParams.AsyncExt.AsyncEvtHandler(&wlanEvent);
 3878              		.loc 1 886 0
 3879 0658 564B     		ldr	r3, .L237
 3880 065a 1A68     		ldr	r2, [r3]
 3881 065c B023     		mov	r3, #176
 3882 065e D358     		ldr	r3, [r2, r3]
 3883 0660 3A1C     		mov	r2, r7
 3884 0662 4432     		add	r2, r2, #68
 3885 0664 101C     		mov	r0, r2
 3886 0666 9847     		blx	r3
 3887              	.LBE67:
 887:..\..\..\..\..\simplelink\source/driver.c ****           }
 888:..\..\..\..\..\simplelink\source/driver.c ****           break;
 3888              		.loc 1 888 0
 3889 0668 B9E0     		b	.L213
 3890              	.L216:
 3891              	.LBB68:
 889:..\..\..\..\..\simplelink\source/driver.c **** 
 890:..\..\..\..\..\simplelink\source/driver.c ****           case SL_OPCODE_WLAN_STA_CONNECTED:
 891:..\..\..\..\..\simplelink\source/driver.c ****           {
 892:..\..\..\..\..\simplelink\source/driver.c ****                 slPeerInfoAsyncResponse_t* pResp = (slPeerInfoAsyncResponse_t*)_SL_RESP_ARGS_START(
 3892              		.loc 1 892 0
 3893 066a 524B     		ldr	r3, .L237
 3894 066c 1A68     		ldr	r2, [r3]
 3895 066e A823     		mov	r3, #168
 3896 0670 D358     		ldr	r3, [r2, r3]
 3897 0672 0833     		add	r3, r3, #8
 3898 0674 9822     		mov	r2, #152
 3899 0676 D219     		add	r2, r2, r7
 3900 0678 1360     		str	r3, [r2]
 893:..\..\..\..\..\simplelink\source/driver.c **** 				memset(&wlanEvent.EventData.APModeStaConnected,0,sizeof(slPeerInfoAsyncResponse_t));
 3901              		.loc 1 893 0
 3902 067a 3B1C     		mov	r3, r7
 3903 067c 4433     		add	r3, r3, #68
 3904 067e 0433     		add	r3, r3, #4
ARM GAS  C:\Users\X0217454\AppData\Local\Temp\cc7UAvFx.s 			page 86


 3905 0680 181C     		mov	r0, r3
 3906 0682 0021     		mov	r1, #0
 3907 0684 4C22     		mov	r2, #76
 3908 0686 FFF7FEFF 		bl	memset
 894:..\..\..\..\..\simplelink\source/driver.c ****                 wlanEvent.Event = SL_WLAN_STA_CONNECTED_EVENT;
 3909              		.loc 1 894 0
 3910 068a 3B1C     		mov	r3, r7
 3911 068c 4433     		add	r3, r3, #68
 3912 068e 0522     		mov	r2, #5
 3913 0690 1A60     		str	r2, [r3]
 895:..\..\..\..\..\simplelink\source/driver.c ****                 memcpy(wlanEvent.EventData.APModeStaConnected.mac,pResp->mac, 6);
 3914              		.loc 1 895 0
 3915 0692 3A1C     		mov	r2, r7
 3916 0694 4432     		add	r2, r2, #68
 3917 0696 9821     		mov	r1, #152
 3918 0698 C919     		add	r1, r1, r7
 3919 069a 0B68     		ldr	r3, [r1]
 3920 069c 111C     		mov	r1, r2
 3921 069e 2431     		add	r1, r1, #36
 3922 06a0 1A1C     		mov	r2, r3
 3923 06a2 2032     		add	r2, r2, #32
 3924 06a4 0623     		mov	r3, #6
 3925 06a6 081C     		mov	r0, r1
 3926 06a8 111C     		mov	r1, r2
 3927 06aa 1A1C     		mov	r2, r3
 3928 06ac FFF7FEFF 		bl	memcpy
 896:..\..\..\..\..\simplelink\source/driver.c **** 				memcpy(wlanEvent.EventData.APModeStaConnected.go_peer_device_name,pResp->go_peer_device_name,pR
 3929              		.loc 1 896 0
 3930 06b0 9823     		mov	r3, #152
 3931 06b2 DB19     		add	r3, r3, r7
 3932 06b4 1A68     		ldr	r2, [r3]
 3933 06b6 9823     		mov	r3, #152
 3934 06b8 DB19     		add	r3, r3, r7
 3935 06ba 1968     		ldr	r1, [r3]
 3936 06bc 2623     		mov	r3, #38
 3937 06be CB5C     		ldrb	r3, [r1, r3]
 3938 06c0 391C     		mov	r1, r7
 3939 06c2 4431     		add	r1, r1, #68
 3940 06c4 0431     		add	r1, r1, #4
 3941 06c6 081C     		mov	r0, r1
 3942 06c8 111C     		mov	r1, r2
 3943 06ca 1A1C     		mov	r2, r3
 3944 06cc FFF7FEFF 		bl	memcpy
 897:..\..\..\..\..\simplelink\source/driver.c **** 				wlanEvent.EventData.APModeStaConnected.go_peer_device_name_len = pResp->go_peer_device_name_len
 3945              		.loc 1 897 0
 3946 06d0 9821     		mov	r1, #152
 3947 06d2 C919     		add	r1, r1, r7
 3948 06d4 0A68     		ldr	r2, [r1]
 3949 06d6 2623     		mov	r3, #38
 3950 06d8 D15C     		ldrb	r1, [r2, r3]
 3951 06da 3A1C     		mov	r2, r7
 3952 06dc 4432     		add	r2, r2, #68
 3953 06de 2A23     		mov	r3, #42
 3954 06e0 D154     		strb	r1, [r2, r3]
 898:..\..\..\..\..\simplelink\source/driver.c **** 
 899:..\..\..\..\..\simplelink\source/driver.c **** 				memcpy(wlanEvent.EventData.APModeStaConnected.own_ssid,pResp->own_ssid,pResp->own_ssid_len);
 3955              		.loc 1 899 0
ARM GAS  C:\Users\X0217454\AppData\Local\Temp\cc7UAvFx.s 			page 87


 3956 06e2 9822     		mov	r2, #152
 3957 06e4 D219     		add	r2, r2, r7
 3958 06e6 1368     		ldr	r3, [r2]
 3959 06e8 1A1C     		mov	r2, r3
 3960 06ea 2832     		add	r2, r2, #40
 3961 06ec 9823     		mov	r3, #152
 3962 06ee DB19     		add	r3, r3, r7
 3963 06f0 1968     		ldr	r1, [r3]
 3964 06f2 4823     		mov	r3, #72
 3965 06f4 CB5C     		ldrb	r3, [r1, r3]
 3966 06f6 391C     		mov	r1, r7
 3967 06f8 4431     		add	r1, r1, #68
 3968 06fa 2C31     		add	r1, r1, #44
 3969 06fc 081C     		mov	r0, r1
 3970 06fe 111C     		mov	r1, r2
 3971 0700 1A1C     		mov	r2, r3
 3972 0702 FFF7FEFF 		bl	memcpy
 900:..\..\..\..\..\simplelink\source/driver.c **** 				wlanEvent.EventData.APModeStaConnected.own_ssid_len = pResp->own_ssid_len;
 3973              		.loc 1 900 0
 3974 0706 9821     		mov	r1, #152
 3975 0708 C919     		add	r1, r1, r7
 3976 070a 0A68     		ldr	r2, [r1]
 3977 070c 4823     		mov	r3, #72
 3978 070e D15C     		ldrb	r1, [r2, r3]
 3979 0710 3A1C     		mov	r2, r7
 3980 0712 4432     		add	r2, r2, #68
 3981 0714 4C23     		mov	r3, #76
 3982 0716 D154     		strb	r1, [r2, r3]
 901:..\..\..\..\..\simplelink\source/driver.c ****                 g_pCB->FunctionParams.AsyncExt.AsyncEvtHandler(&wlanEvent);
 3983              		.loc 1 901 0
 3984 0718 264B     		ldr	r3, .L237
 3985 071a 1A68     		ldr	r2, [r3]
 3986 071c B023     		mov	r3, #176
 3987 071e D358     		ldr	r3, [r2, r3]
 3988 0720 3A1C     		mov	r2, r7
 3989 0722 4432     		add	r2, r2, #68
 3990 0724 101C     		mov	r0, r2
 3991 0726 9847     		blx	r3
 3992              	.LBE68:
 902:..\..\..\..\..\simplelink\source/driver.c ****           }
 903:..\..\..\..\..\simplelink\source/driver.c ****           break;
 3993              		.loc 1 903 0
 3994 0728 59E0     		b	.L213
 3995              	.L217:
 3996              	.LBB69:
 904:..\..\..\..\..\simplelink\source/driver.c **** 
 905:..\..\..\..\..\simplelink\source/driver.c ****           case SL_OPCODE_WLAN_STA_DISCONNECTED:
 906:..\..\..\..\..\simplelink\source/driver.c ****           {
 907:..\..\..\..\..\simplelink\source/driver.c ****                 slPeerInfoAsyncResponse_t* pResp = (slPeerInfoAsyncResponse_t*)_SL_RESP_ARGS_START(
 3997              		.loc 1 907 0
 3998 072a 224B     		ldr	r3, .L237
 3999 072c 1A68     		ldr	r2, [r3]
 4000 072e A823     		mov	r3, #168
 4001 0730 D358     		ldr	r3, [r2, r3]
 4002 0732 0833     		add	r3, r3, #8
 4003 0734 9422     		mov	r2, #148
 4004 0736 D219     		add	r2, r2, r7
ARM GAS  C:\Users\X0217454\AppData\Local\Temp\cc7UAvFx.s 			page 88


 4005 0738 1360     		str	r3, [r2]
 908:..\..\..\..\..\simplelink\source/driver.c **** 				memset(&wlanEvent.EventData.APModestaDisconnected,0,sizeof(slPeerInfoAsyncResponse_t));
 4006              		.loc 1 908 0
 4007 073a 3B1C     		mov	r3, r7
 4008 073c 4433     		add	r3, r3, #68
 4009 073e 0433     		add	r3, r3, #4
 4010 0740 181C     		mov	r0, r3
 4011 0742 0021     		mov	r1, #0
 4012 0744 4C22     		mov	r2, #76
 4013 0746 FFF7FEFF 		bl	memset
 909:..\..\..\..\..\simplelink\source/driver.c ****                 wlanEvent.Event = SL_WLAN_STA_DISCONNECTED_EVENT;
 4014              		.loc 1 909 0
 4015 074a 3B1C     		mov	r3, r7
 4016 074c 4433     		add	r3, r3, #68
 4017 074e 0622     		mov	r2, #6
 4018 0750 1A60     		str	r2, [r3]
 910:..\..\..\..\..\simplelink\source/driver.c ****                 memcpy(wlanEvent.EventData.APModestaDisconnected.mac,pResp->mac, 6);
 4019              		.loc 1 910 0
 4020 0752 3A1C     		mov	r2, r7
 4021 0754 4432     		add	r2, r2, #68
 4022 0756 9421     		mov	r1, #148
 4023 0758 C919     		add	r1, r1, r7
 4024 075a 0B68     		ldr	r3, [r1]
 4025 075c 111C     		mov	r1, r2
 4026 075e 2431     		add	r1, r1, #36
 4027 0760 1A1C     		mov	r2, r3
 4028 0762 2032     		add	r2, r2, #32
 4029 0764 0623     		mov	r3, #6
 4030 0766 081C     		mov	r0, r1
 4031 0768 111C     		mov	r1, r2
 4032 076a 1A1C     		mov	r2, r3
 4033 076c FFF7FEFF 		bl	memcpy
 911:..\..\..\..\..\simplelink\source/driver.c **** 				memcpy(wlanEvent.EventData.APModestaDisconnected.go_peer_device_name,pResp->go_peer_device_name
 4034              		.loc 1 911 0
 4035 0770 9423     		mov	r3, #148
 4036 0772 DB19     		add	r3, r3, r7
 4037 0774 1A68     		ldr	r2, [r3]
 4038 0776 9423     		mov	r3, #148
 4039 0778 DB19     		add	r3, r3, r7
 4040 077a 1968     		ldr	r1, [r3]
 4041 077c 2623     		mov	r3, #38
 4042 077e CB5C     		ldrb	r3, [r1, r3]
 4043 0780 391C     		mov	r1, r7
 4044 0782 4431     		add	r1, r1, #68
 4045 0784 0431     		add	r1, r1, #4
 4046 0786 081C     		mov	r0, r1
 4047 0788 111C     		mov	r1, r2
 4048 078a 1A1C     		mov	r2, r3
 4049 078c FFF7FEFF 		bl	memcpy
 912:..\..\..\..\..\simplelink\source/driver.c **** 				wlanEvent.EventData.APModestaDisconnected.go_peer_device_name_len = pResp->go_peer_device_name_
 4050              		.loc 1 912 0
 4051 0790 9421     		mov	r1, #148
 4052 0792 C919     		add	r1, r1, r7
 4053 0794 0A68     		ldr	r2, [r1]
 4054 0796 2623     		mov	r3, #38
 4055 0798 D15C     		ldrb	r1, [r2, r3]
 4056 079a 3A1C     		mov	r2, r7
ARM GAS  C:\Users\X0217454\AppData\Local\Temp\cc7UAvFx.s 			page 89


 4057 079c 4432     		add	r2, r2, #68
 4058 079e 2A23     		mov	r3, #42
 4059 07a0 D154     		strb	r1, [r2, r3]
 913:..\..\..\..\..\simplelink\source/driver.c ****                 g_pCB->FunctionParams.AsyncExt.AsyncEvtHandler(&wlanEvent);
 4060              		.loc 1 913 0
 4061 07a2 044B     		ldr	r3, .L237
 4062 07a4 1A68     		ldr	r2, [r3]
 4063 07a6 B023     		mov	r3, #176
 4064 07a8 D358     		ldr	r3, [r2, r3]
 4065 07aa 3A1C     		mov	r2, r7
 4066 07ac 4432     		add	r2, r2, #68
 4067 07ae 101C     		mov	r0, r2
 4068 07b0 9847     		blx	r3
 4069              	.LBE69:
 914:..\..\..\..\..\simplelink\source/driver.c ****           }
 915:..\..\..\..\..\simplelink\source/driver.c ****               break;
 4070              		.loc 1 915 0
 4071 07b2 14E0     		b	.L213
 4072              	.L238:
 4073              		.align	2
 4074              	.L237:
 4075 07b4 00000000 		.word	g_pCB
 4076              	.L226:
 916:..\..\..\..\..\simplelink\source/driver.c **** 
 917:..\..\..\..\..\simplelink\source/driver.c ****           case SL_OPCODE_NETAPP_PINGREPORTREQUESTRESPONSE:
 918:..\..\..\..\..\simplelink\source/driver.c ****           {
 919:..\..\..\..\..\simplelink\source/driver.c ****                 _sl_HandleAsync_PingResponse((void *)g_pCB->FunctionParams.AsyncExt.pAsyncBuf);
 4077              		.loc 1 919 0
 4078 07b8 0A4B     		ldr	r3, .L239
 4079 07ba 1A68     		ldr	r2, [r3]
 4080 07bc A823     		mov	r3, #168
 4081 07be D358     		ldr	r3, [r2, r3]
 4082 07c0 181C     		mov	r0, r3
 4083 07c2 FFF7FEFF 		bl	_sl_HandleAsync_PingResponse
 920:..\..\..\..\..\simplelink\source/driver.c ****           }
 921:..\..\..\..\..\simplelink\source/driver.c ****               break;     
 4084              		.loc 1 921 0
 4085 07c6 0AE0     		b	.L213
 4086              	.L215:
 922:..\..\..\..\..\simplelink\source/driver.c ****               
 923:..\..\..\..\..\simplelink\source/driver.c ****               
 924:..\..\..\..\..\simplelink\source/driver.c ****          default:
 925:..\..\..\..\..\simplelink\source/driver.c ****            g_pCB->FunctionParams.AsyncExt.AsyncEvtHandler(g_pCB->FunctionParams.AsyncExt.pAsyncBuf)
 4087              		.loc 1 925 0
 4088 07c8 064B     		ldr	r3, .L239
 4089 07ca 1A68     		ldr	r2, [r3]
 4090 07cc B023     		mov	r3, #176
 4091 07ce D258     		ldr	r2, [r2, r3]
 4092 07d0 044B     		ldr	r3, .L239
 4093 07d2 1968     		ldr	r1, [r3]
 4094 07d4 A823     		mov	r3, #168
 4095 07d6 CB58     		ldr	r3, [r1, r3]
 4096 07d8 181C     		mov	r0, r3
 4097 07da 9047     		blx	r2
 926:..\..\..\..\..\simplelink\source/driver.c ****            break;
 4098              		.loc 1 926 0
 4099 07dc C046     		mov	r8, r8
ARM GAS  C:\Users\X0217454\AppData\Local\Temp\cc7UAvFx.s 			page 90


 4100              	.L213:
 927:..\..\..\..\..\simplelink\source/driver.c ****       } 
 928:..\..\..\..\..\simplelink\source/driver.c ****    } 
 929:..\..\..\..\..\simplelink\source/driver.c **** }
 4101              		.loc 1 929 0
 4102 07de BD46     		mov	sp, r7
 4103 07e0 34B0     		add	sp, sp, #208
 4104              		@ sp needed for prologue
 4105 07e2 80BD     		pop	{r7, pc}
 4106              	.L240:
 4107              		.align	2
 4108              	.L239:
 4109 07e4 00000000 		.word	g_pCB
 4110              		.cfi_endproc
 4111              	.LFE9:
 4112              		.size	_SlAsyncEventGenericHandler, .-_SlAsyncEventGenericHandler
 4113              		.section	.text._SlDrvMsgReadCmdCtx,"ax",%progbits
 4114              		.align	2
 4115              		.global	_SlDrvMsgReadCmdCtx
 4116              		.code	16
 4117              		.thumb_func
 4118              		.type	_SlDrvMsgReadCmdCtx, %function
 4119              	_SlDrvMsgReadCmdCtx:
 4120              	.LFB10:
 930:..\..\..\..\..\simplelink\source/driver.c **** 
 931:..\..\..\..\..\simplelink\source/driver.c **** 
 932:..\..\..\..\..\simplelink\source/driver.c **** /* ******************************************************************************/
 933:..\..\..\..\..\simplelink\source/driver.c **** /*  _SlDrvMsgReadCmdCtx  */
 934:..\..\..\..\..\simplelink\source/driver.c **** /* ******************************************************************************/
 935:..\..\..\..\..\simplelink\source/driver.c **** _SlReturnVal_t _SlDrvMsgReadCmdCtx(void)
 936:..\..\..\..\..\simplelink\source/driver.c **** {
 4121              		.loc 1 936 0
 4122              		.cfi_startproc
 4123 0000 80B5     		push	{r7, lr}
 4124              	.LCFI30:
 4125              		.cfi_def_cfa_offset 8
 4126              		.cfi_offset 7, -8
 4127              		.cfi_offset 14, -4
 4128 0002 84B0     		sub	sp, sp, #16
 4129              	.LCFI31:
 4130              		.cfi_def_cfa_offset 24
 4131 0004 00AF     		add	r7, sp, #0
 4132              	.LCFI32:
 4133              		.cfi_def_cfa_register 7
 937:..\..\..\..\..\simplelink\source/driver.c **** 
 938:..\..\..\..\..\simplelink\source/driver.c ****     /*  after command response is received and isCmdRespWaited */
 939:..\..\..\..\..\simplelink\source/driver.c ****     /*  flag is set FALSE, it is necessary to read out all */
 940:..\..\..\..\..\simplelink\source/driver.c ****     /*  Async messages in Commands contex, because ssiDma_IsrHandleSignalFromSlave */
 941:..\..\..\..\..\simplelink\source/driver.c ****     /*  could have dispatched some Async messages to g_NwpIf.CmdSyncObj */
 942:..\..\..\..\..\simplelink\source/driver.c ****     /*  after command response but before this response has been processed */
 943:..\..\..\..\..\simplelink\source/driver.c ****     /*  by spi_singleRead and isCmdRespWaited was set FALSE. */
 944:..\..\..\..\..\simplelink\source/driver.c ****     while (TRUE == g_pCB->IsCmdRespWaited)
 4134              		.loc 1 944 0
 4135 0006 5AE0     		b	.L242
 4136              	.L248:
 945:..\..\..\..\..\simplelink\source/driver.c ****     {
 946:..\..\..\..\..\simplelink\source/driver.c ****         if(_SL_PENDING_RX_MSG(g_pCB))
ARM GAS  C:\Users\X0217454\AppData\Local\Temp\cc7UAvFx.s 			page 91


 4137              		.loc 1 946 0
 4138 0008 414B     		ldr	r3, .L253
 4139 000a 1A68     		ldr	r2, [r3]
 4140 000c 9723     		mov	r3, #151
 4141 000e D25C     		ldrb	r2, [r2, r3]
 4142 0010 3F4B     		ldr	r3, .L253
 4143 0012 1968     		ldr	r1, [r3]
 4144 0014 9823     		mov	r3, #152
 4145 0016 CB5C     		ldrb	r3, [r1, r3]
 4146 0018 9A42     		cmp	r2, r3
 4147 001a 41D0     		beq	.L243
 947:..\..\..\..\..\simplelink\source/driver.c ****         {
 948:..\..\..\..\..\simplelink\source/driver.c ****             g_pCB->FunctionParams.AsyncExt.pAsyncBuf      = NULL;/*  buffer must be allocated by _S
 4148              		.loc 1 948 0
 4149 001c 3C4B     		ldr	r3, .L253
 4150 001e 1A68     		ldr	r2, [r3]
 4151 0020 A823     		mov	r3, #168
 4152 0022 0021     		mov	r1, #0
 4153 0024 D150     		str	r1, [r2, r3]
 949:..\..\..\..\..\simplelink\source/driver.c ****             g_pCB->FunctionParams.AsyncExt.AsyncEvtHandler= NULL;
 4154              		.loc 1 949 0
 4155 0026 3A4B     		ldr	r3, .L253
 4156 0028 1A68     		ldr	r2, [r3]
 4157 002a B023     		mov	r3, #176
 4158 002c 0021     		mov	r1, #0
 4159 002e D150     		str	r1, [r2, r3]
 950:..\..\..\..\..\simplelink\source/driver.c ****             g_pCB->FunctionParams.AsyncExt.RxMsgClass     = (_SlRxMsgClass_e)(-1);/* init to illega
 4160              		.loc 1 950 0
 4161 0030 374B     		ldr	r3, .L253
 4162 0032 1A68     		ldr	r2, [r3]
 4163 0034 B423     		mov	r3, #180
 4164 0036 FF21     		mov	r1, #255
 4165 0038 D154     		strb	r1, [r2, r3]
 4166              	.LBB70:
 951:..\..\..\..\..\simplelink\source/driver.c **** 
 952:..\..\..\..\..\simplelink\source/driver.c ****             VERIFY_RET_OK(_SlDrvMsgRead());
 4167              		.loc 1 952 0
 4168 003a FFF7FEFF 		bl	_SlDrvMsgRead
 4169 003e 031C     		mov	r3, r0
 4170 0040 FB60     		str	r3, [r7, #12]
 4171 0042 FB68     		ldr	r3, [r7, #12]
 4172 0044 002B     		cmp	r3, #0
 4173 0046 00D0     		beq	.L244
 4174              	.L245:
 4175              		.loc 1 952 0 is_stmt 0 discriminator 1
 4176 0048 FEE7     		b	.L245
 4177              	.L244:
 4178              	.LBE70:
 953:..\..\..\..\..\simplelink\source/driver.c ****             g_pCB->RxDoneCnt++;
 4179              		.loc 1 953 0 is_stmt 1
 4180 004a 314B     		ldr	r3, .L253
 4181 004c 1B68     		ldr	r3, [r3]
 4182 004e 9822     		mov	r2, #152
 4183 0050 9A5C     		ldrb	r2, [r3, r2]
 4184 0052 0132     		add	r2, r2, #1
 4185 0054 D1B2     		uxtb	r1, r2
 4186 0056 9822     		mov	r2, #152
ARM GAS  C:\Users\X0217454\AppData\Local\Temp\cc7UAvFx.s 			page 92


 4187 0058 9954     		strb	r1, [r3, r2]
 954:..\..\..\..\..\simplelink\source/driver.c **** 
 955:..\..\..\..\..\simplelink\source/driver.c ****             if (CMD_RESP_CLASS == g_pCB->FunctionParams.AsyncExt.RxMsgClass)
 4188              		.loc 1 955 0
 4189 005a 2D4B     		ldr	r3, .L253
 4190 005c 1A68     		ldr	r2, [r3]
 4191 005e B423     		mov	r3, #180
 4192 0060 D35C     		ldrb	r3, [r2, r3]
 4193 0062 012B     		cmp	r3, #1
 4194 0064 0ED1     		bne	.L246
 956:..\..\..\..\..\simplelink\source/driver.c ****             {
 957:..\..\..\..\..\simplelink\source/driver.c ****                 g_pCB->IsCmdRespWaited = FALSE;
 4195              		.loc 1 957 0
 4196 0066 2A4B     		ldr	r3, .L253
 4197 0068 1A68     		ldr	r2, [r3]
 4198 006a 9223     		mov	r3, #146
 4199 006c 0021     		mov	r1, #0
 4200 006e D154     		strb	r1, [r2, r3]
 958:..\..\..\..\..\simplelink\source/driver.c **** 
