ARM GAS  C:\Users\X0217454\AppData\Local\Temp\cceSOYtC.s 			page 1


   1              		.cpu cortex-m0
   2              		.fpu softvfp
   3              		.eabi_attribute 20, 1
   4              		.eabi_attribute 21, 1
   5              		.eabi_attribute 23, 3
   6              		.eabi_attribute 24, 1
   7              		.eabi_attribute 25, 1
   8              		.eabi_attribute 26, 1
   9              		.eabi_attribute 30, 6
  10              		.eabi_attribute 34, 0
  11              		.eabi_attribute 18, 4
  12              		.code	16
  13              		.file	"flowcont.c"
  14              		.text
  15              	.Ltext0:
  16              		.cfi_sections	.debug_frame
  17              		.section	.text._SlDrvFlowContInit,"ax",%progbits
  18              		.align	2
  19              		.global	_SlDrvFlowContInit
  20              		.code	16
  21              		.thumb_func
  22              		.type	_SlDrvFlowContInit, %function
  23              	_SlDrvFlowContInit:
  24              	.LFB0:
  25              		.file 1 "..\\..\\..\\..\\..\\simplelink\\source\\flowcont.c"
   1:..\..\..\..\..\simplelink\source/flowcont.c **** /*
   2:..\..\..\..\..\simplelink\source/flowcont.c ****  * flowcont.c - CC31xx/CC32xx Host Driver Implementation
   3:..\..\..\..\..\simplelink\source/flowcont.c ****  *
   4:..\..\..\..\..\simplelink\source/flowcont.c ****  * Copyright (C) 2014 Texas Instruments Incorporated - http://www.ti.com/ 
   5:..\..\..\..\..\simplelink\source/flowcont.c ****  * 
   6:..\..\..\..\..\simplelink\source/flowcont.c ****  * 
   7:..\..\..\..\..\simplelink\source/flowcont.c ****  *  Redistribution and use in source and binary forms, with or without 
   8:..\..\..\..\..\simplelink\source/flowcont.c ****  *  modification, are permitted provided that the following conditions 
   9:..\..\..\..\..\simplelink\source/flowcont.c ****  *  are met:
  10:..\..\..\..\..\simplelink\source/flowcont.c ****  *
  11:..\..\..\..\..\simplelink\source/flowcont.c ****  *    Redistributions of source code must retain the above copyright 
  12:..\..\..\..\..\simplelink\source/flowcont.c ****  *    notice, this list of conditions and the following disclaimer.
  13:..\..\..\..\..\simplelink\source/flowcont.c ****  *
  14:..\..\..\..\..\simplelink\source/flowcont.c ****  *    Redistributions in binary form must reproduce the above copyright
  15:..\..\..\..\..\simplelink\source/flowcont.c ****  *    notice, this list of conditions and the following disclaimer in the 
  16:..\..\..\..\..\simplelink\source/flowcont.c ****  *    documentation and/or other materials provided with the   
  17:..\..\..\..\..\simplelink\source/flowcont.c ****  *    distribution.
  18:..\..\..\..\..\simplelink\source/flowcont.c ****  *
  19:..\..\..\..\..\simplelink\source/flowcont.c ****  *    Neither the name of Texas Instruments Incorporated nor the names of
  20:..\..\..\..\..\simplelink\source/flowcont.c ****  *    its contributors may be used to endorse or promote products derived
  21:..\..\..\..\..\simplelink\source/flowcont.c ****  *    from this software without specific prior written permission.
  22:..\..\..\..\..\simplelink\source/flowcont.c ****  *
  23:..\..\..\..\..\simplelink\source/flowcont.c ****  *  THIS SOFTWARE IS PROVIDED BY THE COPYRIGHT HOLDERS AND CONTRIBUTORS 
  24:..\..\..\..\..\simplelink\source/flowcont.c ****  *  "AS IS" AND ANY EXPRESS OR IMPLIED WARRANTIES, INCLUDING, BUT NOT 
  25:..\..\..\..\..\simplelink\source/flowcont.c ****  *  LIMITED TO, THE IMPLIED WARRANTIES OF MERCHANTABILITY AND FITNESS FOR
  26:..\..\..\..\..\simplelink\source/flowcont.c ****  *  A PARTICULAR PURPOSE ARE DISCLAIMED. IN NO EVENT SHALL THE COPYRIGHT 
  27:..\..\..\..\..\simplelink\source/flowcont.c ****  *  OWNER OR CONTRIBUTORS BE LIABLE FOR ANY DIRECT, INDIRECT, INCIDENTAL, 
  28:..\..\..\..\..\simplelink\source/flowcont.c ****  *  SPECIAL, EXEMPLARY, OR CONSEQUENTIAL DAMAGES (INCLUDING, BUT NOT 
  29:..\..\..\..\..\simplelink\source/flowcont.c ****  *  LIMITED TO, PROCUREMENT OF SUBSTITUTE GOODS OR SERVICES; LOSS OF USE,
  30:..\..\..\..\..\simplelink\source/flowcont.c ****  *  DATA, OR PROFITS; OR BUSINESS INTERRUPTION) HOWEVER CAUSED AND ON ANY
  31:..\..\..\..\..\simplelink\source/flowcont.c ****  *  THEORY OF LIABILITY, WHETHER IN CONTRACT, STRICT LIABILITY, OR TORT 
  32:..\..\..\..\..\simplelink\source/flowcont.c ****  *  (INCLUDING NEGLIGENCE OR OTHERWISE) ARISING IN ANY WAY OUT OF THE USE 
ARM GAS  C:\Users\X0217454\AppData\Local\Temp\cceSOYtC.s 			page 2


  33:..\..\..\..\..\simplelink\source/flowcont.c ****  *  OF THIS SOFTWARE, EVEN IF ADVISED OF THE POSSIBILITY OF SUCH DAMAGE.
  34:..\..\..\..\..\simplelink\source/flowcont.c ****  *
  35:..\..\..\..\..\simplelink\source/flowcont.c **** */
  36:..\..\..\..\..\simplelink\source/flowcont.c **** 
  37:..\..\..\..\..\simplelink\source/flowcont.c **** #include "datatypes.h"
  38:..\..\..\..\..\simplelink\source/flowcont.c **** #include "simplelink.h"
  39:..\..\..\..\..\simplelink\source/flowcont.c **** #include "protocol.h"
  40:..\..\..\..\..\simplelink\source/flowcont.c **** #include "driver.h"
  41:..\..\..\..\..\simplelink\source/flowcont.c **** #include "flowcont.h"
  42:..\..\..\..\..\simplelink\source/flowcont.c **** 
  43:..\..\..\..\..\simplelink\source/flowcont.c **** 
  44:..\..\..\..\..\simplelink\source/flowcont.c **** 
  45:..\..\..\..\..\simplelink\source/flowcont.c **** /*****************************************************************************/
  46:..\..\..\..\..\simplelink\source/flowcont.c **** /* _SlDrvFlowContInit */
  47:..\..\..\..\..\simplelink\source/flowcont.c **** /*****************************************************************************/
  48:..\..\..\..\..\simplelink\source/flowcont.c **** void _SlDrvFlowContInit(void)
  49:..\..\..\..\..\simplelink\source/flowcont.c **** {
  26              		.loc 1 49 0
  27              		.cfi_startproc
  28 0000 80B5     		push	{r7, lr}
  29              	.LCFI0:
  30              		.cfi_def_cfa_offset 8
  31              		.cfi_offset 7, -8
  32              		.cfi_offset 14, -4
  33 0002 82B0     		sub	sp, sp, #8
  34              	.LCFI1:
  35              		.cfi_def_cfa_offset 16
  36 0004 00AF     		add	r7, sp, #0
  37              	.LCFI2:
  38              		.cfi_def_cfa_register 7
  50:..\..\..\..\..\simplelink\source/flowcont.c ****     g_pCB->FlowContCB.TxPoolCnt = FLOW_CONT_MIN;
  39              		.loc 1 50 0
  40 0006 114B     		ldr	r3, .L6
  41 0008 1A68     		ldr	r2, [r3]
  42 000a 9323     		mov	r3, #147
  43 000c 0121     		mov	r1, #1
  44 000e D154     		strb	r1, [r2, r3]
  45              	.LBB2:
  51:..\..\..\..\..\simplelink\source/flowcont.c **** 
  52:..\..\..\..\..\simplelink\source/flowcont.c ****     OSI_RET_OK_CHECK(sl_LockObjCreate(&g_pCB->FlowContCB.TxLockObj, "TxLockObj"));
  46              		.loc 1 52 0
  47 0010 0E4B     		ldr	r3, .L6
  48 0012 1B68     		ldr	r3, [r3]
  49 0014 9433     		add	r3, r3, #148
  50 0016 181C     		mov	r0, r3
  51 0018 3321     		mov	r1, #51
  52 001a FFF7FEFF 		bl	_SlNonOsSemSet
  53 001e 031C     		mov	r3, r0
  54 0020 7B60     		str	r3, [r7, #4]
  55 0022 7B68     		ldr	r3, [r7, #4]
  56 0024 002B     		cmp	r3, #0
  57 0026 00D0     		beq	.L2
  58              	.L3:
  59              		.loc 1 52 0 is_stmt 0 discriminator 1
  60 0028 FEE7     		b	.L3
  61              	.L2:
  62              	.LBE2:
ARM GAS  C:\Users\X0217454\AppData\Local\Temp\cceSOYtC.s 			page 3


  63              	.LBB3:
  53:..\..\..\..\..\simplelink\source/flowcont.c **** 
  54:..\..\..\..\..\simplelink\source/flowcont.c ****     OSI_RET_OK_CHECK(sl_SyncObjCreate(&g_pCB->FlowContCB.TxSyncObj, "TxSyncObj"));
  64              		.loc 1 54 0 is_stmt 1
  65 002a 084B     		ldr	r3, .L6
  66 002c 1B68     		ldr	r3, [r3]
  67 002e 9533     		add	r3, r3, #149
  68 0030 181C     		mov	r0, r3
  69 0032 1121     		mov	r1, #17
  70 0034 FFF7FEFF 		bl	_SlNonOsSemSet
  71 0038 031C     		mov	r3, r0
  72 003a 3B60     		str	r3, [r7]
  73 003c 3B68     		ldr	r3, [r7]
  74 003e 002B     		cmp	r3, #0
  75 0040 00D0     		beq	.L1
  76              	.L5:
  77              		.loc 1 54 0 is_stmt 0 discriminator 1
  78 0042 FEE7     		b	.L5
  79              	.L1:
  80              	.LBE3:
  55:..\..\..\..\..\simplelink\source/flowcont.c **** 
  56:..\..\..\..\..\simplelink\source/flowcont.c **** }
  81              		.loc 1 56 0 is_stmt 1
  82 0044 BD46     		mov	sp, r7
  83 0046 02B0     		add	sp, sp, #8
  84              		@ sp needed for prologue
  85 0048 80BD     		pop	{r7, pc}
  86              	.L7:
  87 004a C046     		.align	2
  88              	.L6:
  89 004c 00000000 		.word	g_pCB
  90              		.cfi_endproc
  91              	.LFE0:
  92              		.size	_SlDrvFlowContInit, .-_SlDrvFlowContInit
  93              		.section	.text._SlDrvFlowContDeinit,"ax",%progbits
  94              		.align	2
  95              		.global	_SlDrvFlowContDeinit
  96              		.code	16
  97              		.thumb_func
  98              		.type	_SlDrvFlowContDeinit, %function
  99              	_SlDrvFlowContDeinit:
 100              	.LFB1:
  57:..\..\..\..\..\simplelink\source/flowcont.c **** 
  58:..\..\..\..\..\simplelink\source/flowcont.c **** /*****************************************************************************/
  59:..\..\..\..\..\simplelink\source/flowcont.c **** /* _SlDrvFlowContDeinit */
  60:..\..\..\..\..\simplelink\source/flowcont.c **** /*****************************************************************************/
  61:..\..\..\..\..\simplelink\source/flowcont.c **** void _SlDrvFlowContDeinit(void)
  62:..\..\..\..\..\simplelink\source/flowcont.c **** {
 101              		.loc 1 62 0
 102              		.cfi_startproc
 103 0000 80B5     		push	{r7, lr}
 104              	.LCFI3:
 105              		.cfi_def_cfa_offset 8
 106              		.cfi_offset 7, -8
 107              		.cfi_offset 14, -4
 108 0002 82B0     		sub	sp, sp, #8
 109              	.LCFI4:
ARM GAS  C:\Users\X0217454\AppData\Local\Temp\cceSOYtC.s 			page 4


 110              		.cfi_def_cfa_offset 16
 111 0004 00AF     		add	r7, sp, #0
 112              	.LCFI5:
 113              		.cfi_def_cfa_register 7
  63:..\..\..\..\..\simplelink\source/flowcont.c ****     g_pCB->FlowContCB.TxPoolCnt = 0;
 114              		.loc 1 63 0
 115 0006 114B     		ldr	r3, .L13
 116 0008 1A68     		ldr	r2, [r3]
 117 000a 9323     		mov	r3, #147
 118 000c 0021     		mov	r1, #0
 119 000e D154     		strb	r1, [r2, r3]
 120              	.LBB4:
  64:..\..\..\..\..\simplelink\source/flowcont.c **** 
  65:..\..\..\..\..\simplelink\source/flowcont.c ****     OSI_RET_OK_CHECK(sl_LockObjDelete(&g_pCB->FlowContCB.TxLockObj));
 121              		.loc 1 65 0
 122 0010 0E4B     		ldr	r3, .L13
 123 0012 1B68     		ldr	r3, [r3]
 124 0014 9433     		add	r3, r3, #148
 125 0016 181C     		mov	r0, r3
 126 0018 0021     		mov	r1, #0
 127 001a FFF7FEFF 		bl	_SlNonOsSemSet
 128 001e 031C     		mov	r3, r0
 129 0020 7B60     		str	r3, [r7, #4]
 130 0022 7B68     		ldr	r3, [r7, #4]
 131 0024 002B     		cmp	r3, #0
 132 0026 00D0     		beq	.L9
 133              	.L10:
 134              		.loc 1 65 0 is_stmt 0 discriminator 1
 135 0028 FEE7     		b	.L10
 136              	.L9:
 137              	.LBE4:
 138              	.LBB5:
  66:..\..\..\..\..\simplelink\source/flowcont.c **** 
  67:..\..\..\..\..\simplelink\source/flowcont.c ****     OSI_RET_OK_CHECK(sl_SyncObjDelete(&g_pCB->FlowContCB.TxSyncObj));
 139              		.loc 1 67 0 is_stmt 1
 140 002a 084B     		ldr	r3, .L13
 141 002c 1B68     		ldr	r3, [r3]
 142 002e 9533     		add	r3, r3, #149
 143 0030 181C     		mov	r0, r3
 144 0032 0021     		mov	r1, #0
 145 0034 FFF7FEFF 		bl	_SlNonOsSemSet
 146 0038 031C     		mov	r3, r0
 147 003a 3B60     		str	r3, [r7]
 148 003c 3B68     		ldr	r3, [r7]
 149 003e 002B     		cmp	r3, #0
 150 0040 00D0     		beq	.L8
 151              	.L12:
 152              		.loc 1 67 0 is_stmt 0 discriminator 1
 153 0042 FEE7     		b	.L12
 154              	.L8:
 155              	.LBE5:
  68:..\..\..\..\..\simplelink\source/flowcont.c **** 
  69:..\..\..\..\..\simplelink\source/flowcont.c **** 
  70:..\..\..\..\..\simplelink\source/flowcont.c **** }
 156              		.loc 1 70 0 is_stmt 1
 157 0044 BD46     		mov	sp, r7
 158 0046 02B0     		add	sp, sp, #8
ARM GAS  C:\Users\X0217454\AppData\Local\Temp\cceSOYtC.s 			page 5


 159              		@ sp needed for prologue
 160 0048 80BD     		pop	{r7, pc}
 161              	.L14:
 162 004a C046     		.align	2
 163              	.L13:
 164 004c 00000000 		.word	g_pCB
 165              		.cfi_endproc
 166              	.LFE1:
 167              		.size	_SlDrvFlowContDeinit, .-_SlDrvFlowContDeinit
 168              		.text
 169              	.Letext0:
 170              		.file 2 "..\\..\\..\\..\\..\\simplelink\\source\\datatypes.h"
 171              		.file 3 "..\\..\\..\\..\\..\\simplelink\\include/simplelink.h"
 172              		.file 4 "..\\..\\..\\..\\..\\simplelink\\include/../source/nonos.h"
 173              		.file 5 "..\\..\\..\\..\\..\\simplelink\\include/device.h"
 174              		.file 6 "..\\..\\..\\..\\..\\simplelink\\source\\protocol.h"
 175              		.file 7 "..\\..\\..\\..\\..\\simplelink\\source\\driver.h"