ARM GAS  C:\Users\X0217454\AppData\Local\Temp\ccM0BSSN.s 			page 1


   1              		.cpu cortex-m0
   2              		.fpu softvfp
   3              		.eabi_attribute 20, 1
   4              		.eabi_attribute 21, 1
   5              		.eabi_attribute 23, 3
   6              		.eabi_attribute 24, 1
   7              		.eabi_attribute 25, 1
   8              		.eabi_attribute 26, 1
   9              		.eabi_attribute 30, 6
  10              		.eabi_attribute 34, 0
  11              		.eabi_attribute 18, 4
  12              		.code	16
  13              		.file	"isr_1.c"
  14              		.text
  15              	.Ltext0:
  16              		.cfi_sections	.debug_frame
  17              		.section	.text.isr_1_Start,"ax",%progbits
  18              		.align	2
  19              		.global	isr_1_Start
  20              		.code	16
  21              		.thumb_func
  22              		.type	isr_1_Start, %function
  23              	isr_1_Start:
  24              	.LFB0:
  25              		.file 1 ".\\Generated_Source\\PSoC4\\isr_1.c"
   1:.\Generated_Source\PSoC4/isr_1.c **** /*******************************************************************************
   2:.\Generated_Source\PSoC4/isr_1.c **** * File Name: isr_1.c  
   3:.\Generated_Source\PSoC4/isr_1.c **** * Version 1.70
   4:.\Generated_Source\PSoC4/isr_1.c **** *
   5:.\Generated_Source\PSoC4/isr_1.c **** *  Description:
   6:.\Generated_Source\PSoC4/isr_1.c **** *   API for controlling the state of an interrupt.
   7:.\Generated_Source\PSoC4/isr_1.c **** *
   8:.\Generated_Source\PSoC4/isr_1.c **** *
   9:.\Generated_Source\PSoC4/isr_1.c **** *  Note:
  10:.\Generated_Source\PSoC4/isr_1.c **** *
  11:.\Generated_Source\PSoC4/isr_1.c **** ********************************************************************************
  12:.\Generated_Source\PSoC4/isr_1.c **** * Copyright 2008-2012, Cypress Semiconductor Corporation.  All rights reserved.
  13:.\Generated_Source\PSoC4/isr_1.c **** * You may use this file only in accordance with the license, terms, conditions, 
  14:.\Generated_Source\PSoC4/isr_1.c **** * disclaimers, and limitations in the end user license agreement accompanying 
  15:.\Generated_Source\PSoC4/isr_1.c **** * the software package with which this file was provided.
  16:.\Generated_Source\PSoC4/isr_1.c **** *******************************************************************************/
  17:.\Generated_Source\PSoC4/isr_1.c **** 
  18:.\Generated_Source\PSoC4/isr_1.c **** 
  19:.\Generated_Source\PSoC4/isr_1.c **** #include <cydevice_trm.h>
  20:.\Generated_Source\PSoC4/isr_1.c **** #include <CyLib.h>
  21:.\Generated_Source\PSoC4/isr_1.c **** #include <isr_1.h>
  22:.\Generated_Source\PSoC4/isr_1.c **** 
  23:.\Generated_Source\PSoC4/isr_1.c **** #if !defined(isr_1__REMOVED) /* Check for removal by optimization */
  24:.\Generated_Source\PSoC4/isr_1.c **** 
  25:.\Generated_Source\PSoC4/isr_1.c **** /*******************************************************************************
  26:.\Generated_Source\PSoC4/isr_1.c **** *  Place your includes, defines and code here 
  27:.\Generated_Source\PSoC4/isr_1.c **** ********************************************************************************/
  28:.\Generated_Source\PSoC4/isr_1.c **** /* `#START isr_1_intc` */
  29:.\Generated_Source\PSoC4/isr_1.c **** #include "board.h"
  30:.\Generated_Source\PSoC4/isr_1.c **** extern P_EVENT_HANDLER pIrqEventHandler;
  31:.\Generated_Source\PSoC4/isr_1.c **** extern uint8 IRQ_Pin_ClearInterrupt();
  32:.\Generated_Source\PSoC4/isr_1.c ****     
ARM GAS  C:\Users\X0217454\AppData\Local\Temp\ccM0BSSN.s 			page 2


  33:.\Generated_Source\PSoC4/isr_1.c **** /* `#END` */
  34:.\Generated_Source\PSoC4/isr_1.c **** 
  35:.\Generated_Source\PSoC4/isr_1.c **** extern cyisraddress CyRamVectors[CYINT_IRQ_BASE + CY_NUM_INTERRUPTS];
  36:.\Generated_Source\PSoC4/isr_1.c **** 
  37:.\Generated_Source\PSoC4/isr_1.c **** /* Declared in startup, used to set unused interrupts to. */
  38:.\Generated_Source\PSoC4/isr_1.c **** CY_ISR_PROTO(IntDefaultHandler);
  39:.\Generated_Source\PSoC4/isr_1.c **** 
  40:.\Generated_Source\PSoC4/isr_1.c **** 
  41:.\Generated_Source\PSoC4/isr_1.c **** /*******************************************************************************
  42:.\Generated_Source\PSoC4/isr_1.c **** * Function Name: isr_1_Start
  43:.\Generated_Source\PSoC4/isr_1.c **** ********************************************************************************
  44:.\Generated_Source\PSoC4/isr_1.c **** *
  45:.\Generated_Source\PSoC4/isr_1.c **** * Summary:
  46:.\Generated_Source\PSoC4/isr_1.c **** *  Set up the interrupt and enable it.
  47:.\Generated_Source\PSoC4/isr_1.c **** *
  48:.\Generated_Source\PSoC4/isr_1.c **** * Parameters:  
  49:.\Generated_Source\PSoC4/isr_1.c **** *   None
  50:.\Generated_Source\PSoC4/isr_1.c **** *
  51:.\Generated_Source\PSoC4/isr_1.c **** * Return:
  52:.\Generated_Source\PSoC4/isr_1.c **** *   None
  53:.\Generated_Source\PSoC4/isr_1.c **** *
  54:.\Generated_Source\PSoC4/isr_1.c **** *******************************************************************************/
  55:.\Generated_Source\PSoC4/isr_1.c **** void isr_1_Start(void)
  56:.\Generated_Source\PSoC4/isr_1.c **** {
  26              		.loc 1 56 0
  27              		.cfi_startproc
  28 0000 80B5     		push	{r7, lr}
  29              	.LCFI0:
  30              		.cfi_def_cfa_offset 8
  31              		.cfi_offset 7, -8
  32              		.cfi_offset 14, -4
  33 0002 00AF     		add	r7, sp, #0
  34              	.LCFI1:
  35              		.cfi_def_cfa_register 7
  57:.\Generated_Source\PSoC4/isr_1.c ****     /* For all we know the interrupt is active. */
  58:.\Generated_Source\PSoC4/isr_1.c ****     isr_1_Disable();
  36              		.loc 1 58 0
  37 0004 FFF7FEFF 		bl	isr_1_Disable
  59:.\Generated_Source\PSoC4/isr_1.c **** 
  60:.\Generated_Source\PSoC4/isr_1.c ****     /* Set the ISR to point to the isr_1 Interrupt. */
  61:.\Generated_Source\PSoC4/isr_1.c ****     isr_1_SetVector(&isr_1_Interrupt);
  38              		.loc 1 61 0
  39 0008 054B     		ldr	r3, .L2
  40 000a 181C     		mov	r0, r3
  41 000c FFF7FEFF 		bl	isr_1_SetVector
  62:.\Generated_Source\PSoC4/isr_1.c **** 
  63:.\Generated_Source\PSoC4/isr_1.c ****     /* Set the priority. */
  64:.\Generated_Source\PSoC4/isr_1.c ****     isr_1_SetPriority((uint8)isr_1_INTC_PRIOR_NUMBER);
  42              		.loc 1 64 0
  43 0010 0320     		mov	r0, #3
  44 0012 FFF7FEFF 		bl	isr_1_SetPriority
  65:.\Generated_Source\PSoC4/isr_1.c **** 
  66:.\Generated_Source\PSoC4/isr_1.c ****     /* Enable it. */
  67:.\Generated_Source\PSoC4/isr_1.c ****     isr_1_Enable();
  45              		.loc 1 67 0
  46 0016 FFF7FEFF 		bl	isr_1_Enable
  68:.\Generated_Source\PSoC4/isr_1.c **** }
ARM GAS  C:\Users\X0217454\AppData\Local\Temp\ccM0BSSN.s 			page 3


  47              		.loc 1 68 0
  48 001a BD46     		mov	sp, r7
  49              		@ sp needed for prologue
  50 001c 80BD     		pop	{r7, pc}
  51              	.L3:
  52 001e C046     		.align	2
  53              	.L2:
  54 0020 00000000 		.word	isr_1_Interrupt
  55              		.cfi_endproc
  56              	.LFE0:
  57              		.size	isr_1_Start, .-isr_1_Start
  58              		.section	.text.isr_1_StartEx,"ax",%progbits
  59              		.align	2
  60              		.global	isr_1_StartEx
  61              		.code	16
  62              		.thumb_func
  63              		.type	isr_1_StartEx, %function
  64              	isr_1_StartEx:
  65              	.LFB1:
  69:.\Generated_Source\PSoC4/isr_1.c **** 
  70:.\Generated_Source\PSoC4/isr_1.c **** 
  71:.\Generated_Source\PSoC4/isr_1.c **** /*******************************************************************************
  72:.\Generated_Source\PSoC4/isr_1.c **** * Function Name: isr_1_StartEx
  73:.\Generated_Source\PSoC4/isr_1.c **** ********************************************************************************
  74:.\Generated_Source\PSoC4/isr_1.c **** *
  75:.\Generated_Source\PSoC4/isr_1.c **** * Summary:
  76:.\Generated_Source\PSoC4/isr_1.c **** *  Set up the interrupt and enable it.
  77:.\Generated_Source\PSoC4/isr_1.c **** *
  78:.\Generated_Source\PSoC4/isr_1.c **** * Parameters:  
  79:.\Generated_Source\PSoC4/isr_1.c **** *   address: Address of the ISR to set in the interrupt vector table.
  80:.\Generated_Source\PSoC4/isr_1.c **** *
  81:.\Generated_Source\PSoC4/isr_1.c **** * Return:
  82:.\Generated_Source\PSoC4/isr_1.c **** *   None
  83:.\Generated_Source\PSoC4/isr_1.c **** *
  84:.\Generated_Source\PSoC4/isr_1.c **** *******************************************************************************/
  85:.\Generated_Source\PSoC4/isr_1.c **** void isr_1_StartEx(cyisraddress address)
  86:.\Generated_Source\PSoC4/isr_1.c **** {
  66              		.loc 1 86 0
  67              		.cfi_startproc
  68 0000 80B5     		push	{r7, lr}
  69              	.LCFI2:
  70              		.cfi_def_cfa_offset 8
  71              		.cfi_offset 7, -8
  72              		.cfi_offset 14, -4
  73 0002 82B0     		sub	sp, sp, #8
  74              	.LCFI3:
  75              		.cfi_def_cfa_offset 16
  76 0004 00AF     		add	r7, sp, #0
  77              	.LCFI4:
  78              		.cfi_def_cfa_register 7
  79 0006 7860     		str	r0, [r7, #4]
  87:.\Generated_Source\PSoC4/isr_1.c ****     /* For all we know the interrupt is active. */
  88:.\Generated_Source\PSoC4/isr_1.c ****     isr_1_Disable();
  80              		.loc 1 88 0
  81 0008 FFF7FEFF 		bl	isr_1_Disable
  89:.\Generated_Source\PSoC4/isr_1.c **** 
  90:.\Generated_Source\PSoC4/isr_1.c ****     /* Set the ISR to point to the isr_1 Interrupt. */
ARM GAS  C:\Users\X0217454\AppData\Local\Temp\ccM0BSSN.s 			page 4


  91:.\Generated_Source\PSoC4/isr_1.c ****     isr_1_SetVector(address);
  82              		.loc 1 91 0
  83 000c 7B68     		ldr	r3, [r7, #4]
  84 000e 181C     		mov	r0, r3
  85 0010 FFF7FEFF 		bl	isr_1_SetVector
  92:.\Generated_Source\PSoC4/isr_1.c **** 
  93:.\Generated_Source\PSoC4/isr_1.c ****     /* Set the priority. */
  94:.\Generated_Source\PSoC4/isr_1.c ****     isr_1_SetPriority((uint8)isr_1_INTC_PRIOR_NUMBER);
  86              		.loc 1 94 0
  87 0014 0320     		mov	r0, #3
  88 0016 FFF7FEFF 		bl	isr_1_SetPriority
  95:.\Generated_Source\PSoC4/isr_1.c **** 
  96:.\Generated_Source\PSoC4/isr_1.c ****     /* Enable it. */
  97:.\Generated_Source\PSoC4/isr_1.c ****     isr_1_Enable();
  89              		.loc 1 97 0
  90 001a FFF7FEFF 		bl	isr_1_Enable
  98:.\Generated_Source\PSoC4/isr_1.c **** }
  91              		.loc 1 98 0
  92 001e BD46     		mov	sp, r7
  93 0020 02B0     		add	sp, sp, #8
  94              		@ sp needed for prologue
  95 0022 80BD     		pop	{r7, pc}
  96              		.cfi_endproc
  97              	.LFE1:
  98              		.size	isr_1_StartEx, .-isr_1_StartEx
  99              		.section	.text.isr_1_Stop,"ax",%progbits
 100              		.align	2
 101              		.global	isr_1_Stop
 102              		.code	16
 103              		.thumb_func
 104              		.type	isr_1_Stop, %function
 105              	isr_1_Stop:
 106              	.LFB2:
  99:.\Generated_Source\PSoC4/isr_1.c **** 
 100:.\Generated_Source\PSoC4/isr_1.c **** 
 101:.\Generated_Source\PSoC4/isr_1.c **** /*******************************************************************************
 102:.\Generated_Source\PSoC4/isr_1.c **** * Function Name: isr_1_Stop
 103:.\Generated_Source\PSoC4/isr_1.c **** ********************************************************************************
 104:.\Generated_Source\PSoC4/isr_1.c **** *
 105:.\Generated_Source\PSoC4/isr_1.c **** * Summary:
 106:.\Generated_Source\PSoC4/isr_1.c **** *   Disables and removes the interrupt.
 107:.\Generated_Source\PSoC4/isr_1.c **** *
 108:.\Generated_Source\PSoC4/isr_1.c **** * Parameters:  
 109:.\Generated_Source\PSoC4/isr_1.c **** *
 110:.\Generated_Source\PSoC4/isr_1.c **** * Return:
 111:.\Generated_Source\PSoC4/isr_1.c **** *   None
 112:.\Generated_Source\PSoC4/isr_1.c **** *
 113:.\Generated_Source\PSoC4/isr_1.c **** *******************************************************************************/
 114:.\Generated_Source\PSoC4/isr_1.c **** void isr_1_Stop(void)
 115:.\Generated_Source\PSoC4/isr_1.c **** {
 107              		.loc 1 115 0
 108              		.cfi_startproc
 109 0000 80B5     		push	{r7, lr}
 110              	.LCFI5:
 111              		.cfi_def_cfa_offset 8
 112              		.cfi_offset 7, -8
 113              		.cfi_offset 14, -4
ARM GAS  C:\Users\X0217454\AppData\Local\Temp\ccM0BSSN.s 			page 5


 114 0002 00AF     		add	r7, sp, #0
 115              	.LCFI6:
 116              		.cfi_def_cfa_register 7
 116:.\Generated_Source\PSoC4/isr_1.c ****     /* Disable this interrupt. */
 117:.\Generated_Source\PSoC4/isr_1.c ****     isr_1_Disable();
 117              		.loc 1 117 0
 118 0004 FFF7FEFF 		bl	isr_1_Disable
 118:.\Generated_Source\PSoC4/isr_1.c **** 
 119:.\Generated_Source\PSoC4/isr_1.c ****     /* Set the ISR to point to the passive one. */
 120:.\Generated_Source\PSoC4/isr_1.c ****     isr_1_SetVector(&IntDefaultHandler);
 119              		.loc 1 120 0
 120 0008 024B     		ldr	r3, .L6
 121 000a 181C     		mov	r0, r3
 122 000c FFF7FEFF 		bl	isr_1_SetVector
 121:.\Generated_Source\PSoC4/isr_1.c **** }
 123              		.loc 1 121 0
 124 0010 BD46     		mov	sp, r7
 125              		@ sp needed for prologue
 126 0012 80BD     		pop	{r7, pc}
 127              	.L7:
 128              		.align	2
 129              	.L6:
 130 0014 00000000 		.word	IntDefaultHandler
 131              		.cfi_endproc
 132              	.LFE2:
 133              		.size	isr_1_Stop, .-isr_1_Stop
 134              		.section	.text.isr_1_Interrupt,"ax",%progbits
 135              		.align	2
 136              		.global	isr_1_Interrupt
 137              		.code	16
 138              		.thumb_func
 139              		.type	isr_1_Interrupt, %function
 140              	isr_1_Interrupt:
 141              	.LFB3:
 122:.\Generated_Source\PSoC4/isr_1.c **** 
 123:.\Generated_Source\PSoC4/isr_1.c **** 
 124:.\Generated_Source\PSoC4/isr_1.c **** /*******************************************************************************
 125:.\Generated_Source\PSoC4/isr_1.c **** * Function Name: isr_1_Interrupt
 126:.\Generated_Source\PSoC4/isr_1.c **** ********************************************************************************
 127:.\Generated_Source\PSoC4/isr_1.c **** *
 128:.\Generated_Source\PSoC4/isr_1.c **** * Summary:
 129:.\Generated_Source\PSoC4/isr_1.c **** *   The default Interrupt Service Routine for isr_1.
 130:.\Generated_Source\PSoC4/isr_1.c **** *
 131:.\Generated_Source\PSoC4/isr_1.c **** *   Add custom code between the coments to keep the next version of this file
 132:.\Generated_Source\PSoC4/isr_1.c **** *   from over writting your code.
 133:.\Generated_Source\PSoC4/isr_1.c **** *
 134:.\Generated_Source\PSoC4/isr_1.c **** * Parameters:  
 135:.\Generated_Source\PSoC4/isr_1.c **** *   None
 136:.\Generated_Source\PSoC4/isr_1.c **** *
 137:.\Generated_Source\PSoC4/isr_1.c **** * Return:
 138:.\Generated_Source\PSoC4/isr_1.c **** *   None
 139:.\Generated_Source\PSoC4/isr_1.c **** *
 140:.\Generated_Source\PSoC4/isr_1.c **** *******************************************************************************/
 141:.\Generated_Source\PSoC4/isr_1.c **** CY_ISR(isr_1_Interrupt)
 142:.\Generated_Source\PSoC4/isr_1.c **** {
 142              		.loc 1 142 0
 143              		.cfi_startproc
ARM GAS  C:\Users\X0217454\AppData\Local\Temp\ccM0BSSN.s 			page 6


 144 0000 80B5     		push	{r7, lr}
 145              	.LCFI7:
 146              		.cfi_def_cfa_offset 8
 147              		.cfi_offset 7, -8
 148              		.cfi_offset 14, -4
 149 0002 00AF     		add	r7, sp, #0
 150              	.LCFI8:
 151              		.cfi_def_cfa_register 7
 143:.\Generated_Source\PSoC4/isr_1.c ****     /*  Place your Interrupt code here. */
 144:.\Generated_Source\PSoC4/isr_1.c ****     /* `#START isr_1_Interrupt` */
 145:.\Generated_Source\PSoC4/isr_1.c **** #ifndef SL_IF_TYPE_UART
 146:.\Generated_Source\PSoC4/isr_1.c ****     if(pIrqEventHandler)
 152              		.loc 1 146 0
 153 0004 054B     		ldr	r3, .L10
 154 0006 1B68     		ldr	r3, [r3]
 155 0008 002B     		cmp	r3, #0
 156 000a 03D0     		beq	.L9
 147:.\Generated_Source\PSoC4/isr_1.c ****     {
 148:.\Generated_Source\PSoC4/isr_1.c ****         pIrqEventHandler(0);
 157              		.loc 1 148 0
 158 000c 034B     		ldr	r3, .L10
 159 000e 1B68     		ldr	r3, [r3]
 160 0010 0020     		mov	r0, #0
 161 0012 9847     		blx	r3
 162              	.L9:
 149:.\Generated_Source\PSoC4/isr_1.c ****     }
 150:.\Generated_Source\PSoC4/isr_1.c **** #endif
 151:.\Generated_Source\PSoC4/isr_1.c ****     
 152:.\Generated_Source\PSoC4/isr_1.c ****     IRQ_Pin_ClearInterrupt();
 163              		.loc 1 152 0
 164 0014 FFF7FEFF 		bl	IRQ_Pin_ClearInterrupt
 153:.\Generated_Source\PSoC4/isr_1.c **** 
 154:.\Generated_Source\PSoC4/isr_1.c ****     /* `#END` */
 155:.\Generated_Source\PSoC4/isr_1.c **** }
 165              		.loc 1 155 0
 166 0018 BD46     		mov	sp, r7
 167              		@ sp needed for prologue
 168 001a 80BD     		pop	{r7, pc}
 169              	.L11:
 170              		.align	2
 171              	.L10:
 172 001c 00000000 		.word	pIrqEventHandler
 173              		.cfi_endproc
 174              	.LFE3:
 175              		.size	isr_1_Interrupt, .-isr_1_Interrupt
 176              		.section	.text.isr_1_SetVector,"ax",%progbits
 177              		.align	2
 178              		.global	isr_1_SetVector
 179              		.code	16
 180              		.thumb_func
 181              		.type	isr_1_SetVector, %function
 182              	isr_1_SetVector:
 183              	.LFB4:
 156:.\Generated_Source\PSoC4/isr_1.c **** 
 157:.\Generated_Source\PSoC4/isr_1.c **** 
 158:.\Generated_Source\PSoC4/isr_1.c **** /*******************************************************************************
 159:.\Generated_Source\PSoC4/isr_1.c **** * Function Name: isr_1_SetVector
ARM GAS  C:\Users\X0217454\AppData\Local\Temp\ccM0BSSN.s 			page 7


 160:.\Generated_Source\PSoC4/isr_1.c **** ********************************************************************************
 161:.\Generated_Source\PSoC4/isr_1.c **** *
 162:.\Generated_Source\PSoC4/isr_1.c **** * Summary:
 163:.\Generated_Source\PSoC4/isr_1.c **** *   Change the ISR vector for the Interrupt. Note calling isr_1_Start
 164:.\Generated_Source\PSoC4/isr_1.c **** *   will override any effect this method would have had. To set the vector 
 165:.\Generated_Source\PSoC4/isr_1.c **** *   before the component has been started use isr_1_StartEx instead.
 166:.\Generated_Source\PSoC4/isr_1.c **** *
 167:.\Generated_Source\PSoC4/isr_1.c **** * Parameters:
 168:.\Generated_Source\PSoC4/isr_1.c **** *   address: Address of the ISR to set in the interrupt vector table.
 169:.\Generated_Source\PSoC4/isr_1.c **** *
 170:.\Generated_Source\PSoC4/isr_1.c **** * Return:
 171:.\Generated_Source\PSoC4/isr_1.c **** *   None
 172:.\Generated_Source\PSoC4/isr_1.c **** *
 173:.\Generated_Source\PSoC4/isr_1.c **** *******************************************************************************/
 174:.\Generated_Source\PSoC4/isr_1.c **** void isr_1_SetVector(cyisraddress address)
 175:.\Generated_Source\PSoC4/isr_1.c **** {
 184              		.loc 1 175 0
 185              		.cfi_startproc
 186 0000 80B5     		push	{r7, lr}
 187              	.LCFI9:
 188              		.cfi_def_cfa_offset 8
 189              		.cfi_offset 7, -8
 190              		.cfi_offset 14, -4
 191 0002 82B0     		sub	sp, sp, #8
 192              	.LCFI10:
 193              		.cfi_def_cfa_offset 16
 194 0004 00AF     		add	r7, sp, #0
 195              	.LCFI11:
 196              		.cfi_def_cfa_register 7
 197 0006 7860     		str	r0, [r7, #4]
 176:.\Generated_Source\PSoC4/isr_1.c ****     CyRamVectors[CYINT_IRQ_BASE + isr_1__INTC_NUMBER] = address;
 198              		.loc 1 176 0
 199 0008 024B     		ldr	r3, .L13
 200 000a 7A68     		ldr	r2, [r7, #4]
 201 000c 1A64     		str	r2, [r3, #64]
 177:.\Generated_Source\PSoC4/isr_1.c **** }
 202              		.loc 1 177 0
 203 000e BD46     		mov	sp, r7
 204 0010 02B0     		add	sp, sp, #8
 205              		@ sp needed for prologue
 206 0012 80BD     		pop	{r7, pc}
 207              	.L14:
 208              		.align	2
 209              	.L13:
 210 0014 00000000 		.word	CyRamVectors
 211              		.cfi_endproc
 212              	.LFE4:
 213              		.size	isr_1_SetVector, .-isr_1_SetVector
 214              		.section	.text.isr_1_GetVector,"ax",%progbits
 215              		.align	2
 216              		.global	isr_1_GetVector
 217              		.code	16
 218              		.thumb_func
 219              		.type	isr_1_GetVector, %function
 220              	isr_1_GetVector:
 221              	.LFB5:
 178:.\Generated_Source\PSoC4/isr_1.c **** 
ARM GAS  C:\Users\X0217454\AppData\Local\Temp\ccM0BSSN.s 			page 8


 179:.\Generated_Source\PSoC4/isr_1.c **** 
 180:.\Generated_Source\PSoC4/isr_1.c **** /*******************************************************************************
 181:.\Generated_Source\PSoC4/isr_1.c **** * Function Name: isr_1_GetVector
 182:.\Generated_Source\PSoC4/isr_1.c **** ********************************************************************************
 183:.\Generated_Source\PSoC4/isr_1.c **** *
 184:.\Generated_Source\PSoC4/isr_1.c **** * Summary:
 185:.\Generated_Source\PSoC4/isr_1.c **** *   Gets the "address" of the current ISR vector for the Interrupt.
 186:.\Generated_Source\PSoC4/isr_1.c **** *
 187:.\Generated_Source\PSoC4/isr_1.c **** * Parameters:
 188:.\Generated_Source\PSoC4/isr_1.c **** *   None
 189:.\Generated_Source\PSoC4/isr_1.c **** *
 190:.\Generated_Source\PSoC4/isr_1.c **** * Return:
 191:.\Generated_Source\PSoC4/isr_1.c **** *   Address of the ISR in the interrupt vector table.
 192:.\Generated_Source\PSoC4/isr_1.c **** *
 193:.\Generated_Source\PSoC4/isr_1.c **** *******************************************************************************/
 194:.\Generated_Source\PSoC4/isr_1.c **** cyisraddress isr_1_GetVector(void)
 195:.\Generated_Source\PSoC4/isr_1.c **** {
 222              		.loc 1 195 0
 223              		.cfi_startproc
 224 0000 80B5     		push	{r7, lr}
 225              	.LCFI12:
 226              		.cfi_def_cfa_offset 8
 227              		.cfi_offset 7, -8
 228              		.cfi_offset 14, -4
 229 0002 00AF     		add	r7, sp, #0
 230              	.LCFI13:
 231              		.cfi_def_cfa_register 7
 196:.\Generated_Source\PSoC4/isr_1.c ****     return CyRamVectors[CYINT_IRQ_BASE + isr_1__INTC_NUMBER];
 232              		.loc 1 196 0
 233 0004 024B     		ldr	r3, .L17
 234 0006 1B6C     		ldr	r3, [r3, #64]
 197:.\Generated_Source\PSoC4/isr_1.c **** }
 235              		.loc 1 197 0
 236 0008 181C     		mov	r0, r3
 237 000a BD46     		mov	sp, r7
 238              		@ sp needed for prologue
 239 000c 80BD     		pop	{r7, pc}
 240              	.L18:
 241 000e C046     		.align	2
 242              	.L17:
 243 0010 00000000 		.word	CyRamVectors
 244              		.cfi_endproc
 245              	.LFE5:
 246              		.size	isr_1_GetVector, .-isr_1_GetVector
 247              		.section	.text.isr_1_SetPriority,"ax",%progbits
 248              		.align	2
 249              		.global	isr_1_SetPriority
 250              		.code	16
 251              		.thumb_func
 252              		.type	isr_1_SetPriority, %function
 253              	isr_1_SetPriority:
 254              	.LFB6:
 198:.\Generated_Source\PSoC4/isr_1.c **** 
 199:.\Generated_Source\PSoC4/isr_1.c **** 
 200:.\Generated_Source\PSoC4/isr_1.c **** /*******************************************************************************
 201:.\Generated_Source\PSoC4/isr_1.c **** * Function Name: isr_1_SetPriority
 202:.\Generated_Source\PSoC4/isr_1.c **** ********************************************************************************
ARM GAS  C:\Users\X0217454\AppData\Local\Temp\ccM0BSSN.s 			page 9


 203:.\Generated_Source\PSoC4/isr_1.c **** *
 204:.\Generated_Source\PSoC4/isr_1.c **** * Summary:
 205:.\Generated_Source\PSoC4/isr_1.c **** *   Sets the Priority of the Interrupt. Note calling isr_1_Start
 206:.\Generated_Source\PSoC4/isr_1.c **** *   or isr_1_StartEx will override any effect this method would 
 207:.\Generated_Source\PSoC4/isr_1.c **** *   have had. This method should only be called after isr_1_Start or 
 208:.\Generated_Source\PSoC4/isr_1.c **** *   isr_1_StartEx has been called. To set the initial
 209:.\Generated_Source\PSoC4/isr_1.c **** *   priority for the component use the cydwr file in the tool.
 210:.\Generated_Source\PSoC4/isr_1.c **** *
 211:.\Generated_Source\PSoC4/isr_1.c **** * Parameters:
 212:.\Generated_Source\PSoC4/isr_1.c **** *   priority: Priority of the interrupt. 0 - 3, 0 being the highest.
 213:.\Generated_Source\PSoC4/isr_1.c **** *
 214:.\Generated_Source\PSoC4/isr_1.c **** * Return:
 215:.\Generated_Source\PSoC4/isr_1.c **** *   None
 216:.\Generated_Source\PSoC4/isr_1.c **** *
 217:.\Generated_Source\PSoC4/isr_1.c **** *******************************************************************************/
 218:.\Generated_Source\PSoC4/isr_1.c **** void isr_1_SetPriority(uint8 priority)
 219:.\Generated_Source\PSoC4/isr_1.c **** {
 255              		.loc 1 219 0
 256              		.cfi_startproc
 257 0000 90B5     		push	{r4, r7, lr}
 258              	.LCFI14:
 259              		.cfi_def_cfa_offset 12
 260              		.cfi_offset 4, -12
 261              		.cfi_offset 7, -8
 262              		.cfi_offset 14, -4
 263 0002 85B0     		sub	sp, sp, #20
 264              	.LCFI15:
 265              		.cfi_def_cfa_offset 32
 266 0004 00AF     		add	r7, sp, #0
 267              	.LCFI16:
 268              		.cfi_def_cfa_register 7
 269 0006 021C     		mov	r2, r0
 270 0008 FB1D     		add	r3, r7, #7
 271 000a 1A70     		strb	r2, [r3]
 220:.\Generated_Source\PSoC4/isr_1.c **** 	uint8 interruptState;
 221:.\Generated_Source\PSoC4/isr_1.c ****     uint32 priorityOffset = ((isr_1__INTC_NUMBER % 4u) * 8u) + 6u;
 272              		.loc 1 221 0
 273 000c 0623     		mov	r3, #6
 274 000e FB60     		str	r3, [r7, #12]
 222:.\Generated_Source\PSoC4/isr_1.c ****     
 223:.\Generated_Source\PSoC4/isr_1.c **** 	interruptState = CyEnterCriticalSection();
 275              		.loc 1 223 0
 276 0010 3C1C     		mov	r4, r7
 277 0012 0B34     		add	r4, r4, #11
 278 0014 FFF7FEFF 		bl	CyEnterCriticalSection
 279 0018 031C     		mov	r3, r0
 280 001a 2370     		strb	r3, [r4]
 224:.\Generated_Source\PSoC4/isr_1.c ****     *isr_1_INTC_PRIOR = (*isr_1_INTC_PRIOR & (uint32)(~isr_1__INTC_PRIOR_MASK)) |
 281              		.loc 1 224 0
 282 001c 0B4B     		ldr	r3, .L20
 283 001e 0B4A     		ldr	r2, .L20
 284 0020 1268     		ldr	r2, [r2]
 285 0022 C021     		mov	r1, #192
 286 0024 101C     		mov	r0, r2
 287 0026 8843     		bic	r0, r1
 288 0028 011C     		mov	r1, r0
 225:.\Generated_Source\PSoC4/isr_1.c ****                                     ((uint32)priority << priorityOffset);
ARM GAS  C:\Users\X0217454\AppData\Local\Temp\ccM0BSSN.s 			page 10


 289              		.loc 1 225 0
 290 002a FA1D     		add	r2, r7, #7
 291 002c 1078     		ldrb	r0, [r2]
 292 002e FA68     		ldr	r2, [r7, #12]
 293 0030 041C     		mov	r4, r0
 294 0032 9440     		lsl	r4, r4, r2
 295 0034 221C     		mov	r2, r4
 224:.\Generated_Source\PSoC4/isr_1.c ****     *isr_1_INTC_PRIOR = (*isr_1_INTC_PRIOR & (uint32)(~isr_1__INTC_PRIOR_MASK)) |
 296              		.loc 1 224 0
 297 0036 0A43     		orr	r2, r1
 298 0038 1A60     		str	r2, [r3]
 226:.\Generated_Source\PSoC4/isr_1.c **** 	CyExitCriticalSection(interruptState);
 299              		.loc 1 226 0
 300 003a 3B1C     		mov	r3, r7
 301 003c 0B33     		add	r3, r3, #11
 302 003e 1B78     		ldrb	r3, [r3]
 303 0040 181C     		mov	r0, r3
 304 0042 FFF7FEFF 		bl	CyExitCriticalSection
 227:.\Generated_Source\PSoC4/isr_1.c **** }
 305              		.loc 1 227 0
 306 0046 BD46     		mov	sp, r7
 307 0048 05B0     		add	sp, sp, #20
 308              		@ sp needed for prologue
 309 004a 90BD     		pop	{r4, r7, pc}
 310              	.L21:
 311              		.align	2
 312              	.L20:
 313 004c 00E400E0 		.word	-536812544
 314              		.cfi_endproc
 315              	.LFE6:
 316              		.size	isr_1_SetPriority, .-isr_1_SetPriority
 317              		.section	.text.isr_1_GetPriority,"ax",%progbits
 318              		.align	2
 319              		.global	isr_1_GetPriority
 320              		.code	16
 321              		.thumb_func
 322              		.type	isr_1_GetPriority, %function
 323              	isr_1_GetPriority:
 324              	.LFB7:
 228:.\Generated_Source\PSoC4/isr_1.c **** 
 229:.\Generated_Source\PSoC4/isr_1.c **** 
 230:.\Generated_Source\PSoC4/isr_1.c **** /*******************************************************************************
 231:.\Generated_Source\PSoC4/isr_1.c **** * Function Name: isr_1_GetPriority
 232:.\Generated_Source\PSoC4/isr_1.c **** ********************************************************************************
 233:.\Generated_Source\PSoC4/isr_1.c **** *
 234:.\Generated_Source\PSoC4/isr_1.c **** * Summary:
 235:.\Generated_Source\PSoC4/isr_1.c **** *   Gets the Priority of the Interrupt.
 236:.\Generated_Source\PSoC4/isr_1.c **** *
 237:.\Generated_Source\PSoC4/isr_1.c **** * Parameters:
 238:.\Generated_Source\PSoC4/isr_1.c **** *   None
 239:.\Generated_Source\PSoC4/isr_1.c **** *
 240:.\Generated_Source\PSoC4/isr_1.c **** * Return:
 241:.\Generated_Source\PSoC4/isr_1.c **** *   Priority of the interrupt. 0 - 3, 0 being the highest.
 242:.\Generated_Source\PSoC4/isr_1.c **** *
 243:.\Generated_Source\PSoC4/isr_1.c **** *******************************************************************************/
 244:.\Generated_Source\PSoC4/isr_1.c **** uint8 isr_1_GetPriority(void)
 245:.\Generated_Source\PSoC4/isr_1.c **** {
ARM GAS  C:\Users\X0217454\AppData\Local\Temp\ccM0BSSN.s 			page 11


 325              		.loc 1 245 0
 326              		.cfi_startproc
 327 0000 80B5     		push	{r7, lr}
 328              	.LCFI17:
 329              		.cfi_def_cfa_offset 8
 330              		.cfi_offset 7, -8
 331              		.cfi_offset 14, -4
 332 0002 82B0     		sub	sp, sp, #8
 333              	.LCFI18:
 334              		.cfi_def_cfa_offset 16
 335 0004 00AF     		add	r7, sp, #0
 336              	.LCFI19:
 337              		.cfi_def_cfa_register 7
 246:.\Generated_Source\PSoC4/isr_1.c ****     uint32 priority;
 247:.\Generated_Source\PSoC4/isr_1.c **** 	uint32 priorityOffset = ((isr_1__INTC_NUMBER % 4u) * 8u) + 6u;
 338              		.loc 1 247 0
 339 0006 0623     		mov	r3, #6
 340 0008 7B60     		str	r3, [r7, #4]
 248:.\Generated_Source\PSoC4/isr_1.c **** 
 249:.\Generated_Source\PSoC4/isr_1.c ****     priority = (*isr_1_INTC_PRIOR & isr_1__INTC_PRIOR_MASK) >> priorityOffset;
 341              		.loc 1 249 0
 342 000a 074B     		ldr	r3, .L24
 343 000c 1A68     		ldr	r2, [r3]
 344 000e C023     		mov	r3, #192
 345 0010 1A40     		and	r2, r3
 346 0012 7B68     		ldr	r3, [r7, #4]
 347 0014 111C     		mov	r1, r2
 348 0016 D940     		lsr	r1, r1, r3
 349 0018 0B1C     		mov	r3, r1
 350 001a 3B60     		str	r3, [r7]
 250:.\Generated_Source\PSoC4/isr_1.c **** 
 251:.\Generated_Source\PSoC4/isr_1.c ****     return (uint8)priority;
 351              		.loc 1 251 0
 352 001c 3B68     		ldr	r3, [r7]
 353 001e DBB2     		uxtb	r3, r3
 252:.\Generated_Source\PSoC4/isr_1.c **** }
 354              		.loc 1 252 0
 355 0020 181C     		mov	r0, r3
 356 0022 BD46     		mov	sp, r7
 357 0024 02B0     		add	sp, sp, #8
 358              		@ sp needed for prologue
 359 0026 80BD     		pop	{r7, pc}
 360              	.L25:
 361              		.align	2
 362              	.L24:
 363 0028 00E400E0 		.word	-536812544
 364              		.cfi_endproc
 365              	.LFE7:
 366              		.size	isr_1_GetPriority, .-isr_1_GetPriority
 367              		.section	.text.isr_1_Enable,"ax",%progbits
 368              		.align	2
 369              		.global	isr_1_Enable
 370              		.code	16
 371              		.thumb_func
 372              		.type	isr_1_Enable, %function
 373              	isr_1_Enable:
 374              	.LFB8:
ARM GAS  C:\Users\X0217454\AppData\Local\Temp\ccM0BSSN.s 			page 12


 253:.\Generated_Source\PSoC4/isr_1.c **** 
 254:.\Generated_Source\PSoC4/isr_1.c **** 
 255:.\Generated_Source\PSoC4/isr_1.c **** /*******************************************************************************
 256:.\Generated_Source\PSoC4/isr_1.c **** * Function Name: isr_1_Enable
 257:.\Generated_Source\PSoC4/isr_1.c **** ********************************************************************************
 258:.\Generated_Source\PSoC4/isr_1.c **** *
 259:.\Generated_Source\PSoC4/isr_1.c **** * Summary:
 260:.\Generated_Source\PSoC4/isr_1.c **** *   Enables the interrupt.
 261:.\Generated_Source\PSoC4/isr_1.c **** *
 262:.\Generated_Source\PSoC4/isr_1.c **** * Parameters:
 263:.\Generated_Source\PSoC4/isr_1.c **** *   None
 264:.\Generated_Source\PSoC4/isr_1.c **** *
 265:.\Generated_Source\PSoC4/isr_1.c **** * Return:
 266:.\Generated_Source\PSoC4/isr_1.c **** *   None
 267:.\Generated_Source\PSoC4/isr_1.c **** *
 268:.\Generated_Source\PSoC4/isr_1.c **** *******************************************************************************/
 269:.\Generated_Source\PSoC4/isr_1.c **** void isr_1_Enable(void)
 270:.\Generated_Source\PSoC4/isr_1.c **** {
 375              		.loc 1 270 0
 376              		.cfi_startproc
 377 0000 80B5     		push	{r7, lr}
 378              	.LCFI20:
 379              		.cfi_def_cfa_offset 8
 380              		.cfi_offset 7, -8
 381              		.cfi_offset 14, -4
 382 0002 00AF     		add	r7, sp, #0
 383              	.LCFI21:
 384              		.cfi_def_cfa_register 7
 271:.\Generated_Source\PSoC4/isr_1.c ****     /* Enable the general interrupt. */
 272:.\Generated_Source\PSoC4/isr_1.c ****     *isr_1_INTC_SET_EN = isr_1__INTC_MASK;
 385              		.loc 1 272 0
 386 0004 024B     		ldr	r3, .L27
 387 0006 0122     		mov	r2, #1
 388 0008 1A60     		str	r2, [r3]
 273:.\Generated_Source\PSoC4/isr_1.c **** }
 389              		.loc 1 273 0
 390 000a BD46     		mov	sp, r7
 391              		@ sp needed for prologue
 392 000c 80BD     		pop	{r7, pc}
 393              	.L28:
 394 000e C046     		.align	2
 395              	.L27:
 396 0010 00E100E0 		.word	-536813312
 397              		.cfi_endproc
 398              	.LFE8:
 399              		.size	isr_1_Enable, .-isr_1_Enable
 400              		.section	.text.isr_1_GetState,"ax",%progbits
 401              		.align	2
 402              		.global	isr_1_GetState
 403              		.code	16
 404              		.thumb_func
 405              		.type	isr_1_GetState, %function
 406              	isr_1_GetState:
 407              	.LFB9:
 274:.\Generated_Source\PSoC4/isr_1.c **** 
 275:.\Generated_Source\PSoC4/isr_1.c **** 
 276:.\Generated_Source\PSoC4/isr_1.c **** /*******************************************************************************
ARM GAS  C:\Users\X0217454\AppData\Local\Temp\ccM0BSSN.s 			page 13


 277:.\Generated_Source\PSoC4/isr_1.c **** * Function Name: isr_1_GetState
 278:.\Generated_Source\PSoC4/isr_1.c **** ********************************************************************************
 279:.\Generated_Source\PSoC4/isr_1.c **** *
 280:.\Generated_Source\PSoC4/isr_1.c **** * Summary:
 281:.\Generated_Source\PSoC4/isr_1.c **** *   Gets the state (enabled, disabled) of the Interrupt.
 282:.\Generated_Source\PSoC4/isr_1.c **** *
 283:.\Generated_Source\PSoC4/isr_1.c **** * Parameters:
 284:.\Generated_Source\PSoC4/isr_1.c **** *   None
 285:.\Generated_Source\PSoC4/isr_1.c **** *
 286:.\Generated_Source\PSoC4/isr_1.c **** * Return:
 287:.\Generated_Source\PSoC4/isr_1.c **** *   1 if enabled, 0 if disabled.
 288:.\Generated_Source\PSoC4/isr_1.c **** *
 289:.\Generated_Source\PSoC4/isr_1.c **** *******************************************************************************/
 290:.\Generated_Source\PSoC4/isr_1.c **** uint8 isr_1_GetState(void)
 291:.\Generated_Source\PSoC4/isr_1.c **** {
 408              		.loc 1 291 0
 409              		.cfi_startproc
 410 0000 80B5     		push	{r7, lr}
 411              	.LCFI22:
 412              		.cfi_def_cfa_offset 8
 413              		.cfi_offset 7, -8
 414              		.cfi_offset 14, -4
 415 0002 00AF     		add	r7, sp, #0
 416              	.LCFI23:
 417              		.cfi_def_cfa_register 7
 292:.\Generated_Source\PSoC4/isr_1.c ****     /* Get the state of the general interrupt. */
 293:.\Generated_Source\PSoC4/isr_1.c ****     return ((*isr_1_INTC_SET_EN & (uint32)isr_1__INTC_MASK) != 0u) ? 1u:0u;
 418              		.loc 1 293 0
 419 0004 044B     		ldr	r3, .L31
 420 0006 1B68     		ldr	r3, [r3]
 421 0008 DAB2     		uxtb	r2, r3
 422 000a 0123     		mov	r3, #1
 423 000c 1340     		and	r3, r2
 424 000e DBB2     		uxtb	r3, r3
 294:.\Generated_Source\PSoC4/isr_1.c **** }
 425              		.loc 1 294 0
 426 0010 181C     		mov	r0, r3
 427 0012 BD46     		mov	sp, r7
 428              		@ sp needed for prologue
 429 0014 80BD     		pop	{r7, pc}
 430              	.L32:
 431 0016 C046     		.align	2
 432              	.L31:
 433 0018 00E100E0 		.word	-536813312
 434              		.cfi_endproc
 435              	.LFE9:
 436              		.size	isr_1_GetState, .-isr_1_GetState
 437              		.section	.text.isr_1_Disable,"ax",%progbits
 438              		.align	2
 439              		.global	isr_1_Disable
 440              		.code	16
 441              		.thumb_func
 442              		.type	isr_1_Disable, %function
 443              	isr_1_Disable:
 444              	.LFB10:
 295:.\Generated_Source\PSoC4/isr_1.c **** 
 296:.\Generated_Source\PSoC4/isr_1.c **** 
ARM GAS  C:\Users\X0217454\AppData\Local\Temp\ccM0BSSN.s 			page 14


 297:.\Generated_Source\PSoC4/isr_1.c **** /*******************************************************************************
 298:.\Generated_Source\PSoC4/isr_1.c **** * Function Name: isr_1_Disable
 299:.\Generated_Source\PSoC4/isr_1.c **** ********************************************************************************
 300:.\Generated_Source\PSoC4/isr_1.c **** *
 301:.\Generated_Source\PSoC4/isr_1.c **** * Summary:
 302:.\Generated_Source\PSoC4/isr_1.c **** *   Disables the Interrupt.
 303:.\Generated_Source\PSoC4/isr_1.c **** *
 304:.\Generated_Source\PSoC4/isr_1.c **** * Parameters:
 305:.\Generated_Source\PSoC4/isr_1.c **** *   None
 306:.\Generated_Source\PSoC4/isr_1.c **** *
 307:.\Generated_Source\PSoC4/isr_1.c **** * Return:
 308:.\Generated_Source\PSoC4/isr_1.c **** *   None
 309:.\Generated_Source\PSoC4/isr_1.c **** *
 310:.\Generated_Source\PSoC4/isr_1.c **** *******************************************************************************/
 311:.\Generated_Source\PSoC4/isr_1.c **** void isr_1_Disable(void)
 312:.\Generated_Source\PSoC4/isr_1.c **** {
 445              		.loc 1 312 0
 446              		.cfi_startproc
 447 0000 80B5     		push	{r7, lr}
 448              	.LCFI24:
 449              		.cfi_def_cfa_offset 8
 450              		.cfi_offset 7, -8
 451              		.cfi_offset 14, -4
 452 0002 00AF     		add	r7, sp, #0
 453              	.LCFI25:
 454              		.cfi_def_cfa_register 7
 313:.\Generated_Source\PSoC4/isr_1.c ****     /* Disable the general interrupt. */
 314:.\Generated_Source\PSoC4/isr_1.c ****     *isr_1_INTC_CLR_EN = isr_1__INTC_MASK;
 455              		.loc 1 314 0
 456 0004 024B     		ldr	r3, .L34
 457 0006 0122     		mov	r2, #1
 458 0008 1A60     		str	r2, [r3]
 315:.\Generated_Source\PSoC4/isr_1.c **** }
 459              		.loc 1 315 0
 460 000a BD46     		mov	sp, r7
 461              		@ sp needed for prologue
 462 000c 80BD     		pop	{r7, pc}
 463              	.L35:
 464 000e C046     		.align	2
 465              	.L34:
 466 0010 80E100E0 		.word	-536813184
 467              		.cfi_endproc
 468              	.LFE10:
 469              		.size	isr_1_Disable, .-isr_1_Disable
 470              		.section	.text.isr_1_SetPending,"ax",%progbits
 471              		.align	2
 472              		.global	isr_1_SetPending
 473              		.code	16
 474              		.thumb_func
 475              		.type	isr_1_SetPending, %function
 476              	isr_1_SetPending:
 477              	.LFB11:
 316:.\Generated_Source\PSoC4/isr_1.c **** 
 317:.\Generated_Source\PSoC4/isr_1.c **** 
 318:.\Generated_Source\PSoC4/isr_1.c **** /*******************************************************************************
 319:.\Generated_Source\PSoC4/isr_1.c **** * Function Name: isr_1_SetPending
 320:.\Generated_Source\PSoC4/isr_1.c **** ********************************************************************************
ARM GAS  C:\Users\X0217454\AppData\Local\Temp\ccM0BSSN.s 			page 15


 321:.\Generated_Source\PSoC4/isr_1.c **** *
 322:.\Generated_Source\PSoC4/isr_1.c **** * Summary:
 323:.\Generated_Source\PSoC4/isr_1.c **** *   Causes the Interrupt to enter the pending state, a software method of
 324:.\Generated_Source\PSoC4/isr_1.c **** *   generating the interrupt.
 325:.\Generated_Source\PSoC4/isr_1.c **** *
 326:.\Generated_Source\PSoC4/isr_1.c **** * Parameters:
 327:.\Generated_Source\PSoC4/isr_1.c **** *   None
 328:.\Generated_Source\PSoC4/isr_1.c **** *
 329:.\Generated_Source\PSoC4/isr_1.c **** * Return:
 330:.\Generated_Source\PSoC4/isr_1.c **** *   None
 331:.\Generated_Source\PSoC4/isr_1.c **** *
 332:.\Generated_Source\PSoC4/isr_1.c **** *******************************************************************************/
 333:.\Generated_Source\PSoC4/isr_1.c **** void isr_1_SetPending(void)
 334:.\Generated_Source\PSoC4/isr_1.c **** {
 478              		.loc 1 334 0
 479              		.cfi_startproc
 480 0000 80B5     		push	{r7, lr}
 481              	.LCFI26:
 482              		.cfi_def_cfa_offset 8
 483              		.cfi_offset 7, -8
 484              		.cfi_offset 14, -4
 485 0002 00AF     		add	r7, sp, #0
 486              	.LCFI27:
 487              		.cfi_def_cfa_register 7
 335:.\Generated_Source\PSoC4/isr_1.c ****     *isr_1_INTC_SET_PD = isr_1__INTC_MASK;
 488              		.loc 1 335 0
 489 0004 024B     		ldr	r3, .L37
 490 0006 0122     		mov	r2, #1
 491 0008 1A60     		str	r2, [r3]
 336:.\Generated_Source\PSoC4/isr_1.c **** }
 492              		.loc 1 336 0
 493 000a BD46     		mov	sp, r7
 494              		@ sp needed for prologue
 495 000c 80BD     		pop	{r7, pc}
 496              	.L38:
 497 000e C046     		.align	2
 498              	.L37:
 499 0010 00E200E0 		.word	-536813056
 500              		.cfi_endproc
 501              	.LFE11:
 502              		.size	isr_1_SetPending, .-isr_1_SetPending
 503              		.section	.text.isr_1_ClearPending,"ax",%progbits
 504              		.align	2
 505              		.global	isr_1_ClearPending
 506              		.code	16
 507              		.thumb_func
 508              		.type	isr_1_ClearPending, %function
 509              	isr_1_ClearPending:
 510              	.LFB12:
 337:.\Generated_Source\PSoC4/isr_1.c **** 
 338:.\Generated_Source\PSoC4/isr_1.c **** 
 339:.\Generated_Source\PSoC4/isr_1.c **** /*******************************************************************************
 340:.\Generated_Source\PSoC4/isr_1.c **** * Function Name: isr_1_ClearPending
 341:.\Generated_Source\PSoC4/isr_1.c **** ********************************************************************************
 342:.\Generated_Source\PSoC4/isr_1.c **** *
 343:.\Generated_Source\PSoC4/isr_1.c **** * Summary:
 344:.\Generated_Source\PSoC4/isr_1.c **** *   Clears a pending interrupt.
ARM GAS  C:\Users\X0217454\AppData\Local\Temp\ccM0BSSN.s 			page 16


 345:.\Generated_Source\PSoC4/isr_1.c **** *
 346:.\Generated_Source\PSoC4/isr_1.c **** * Parameters:
 347:.\Generated_Source\PSoC4/isr_1.c **** *   None
 348:.\Generated_Source\PSoC4/isr_1.c **** *
 349:.\Generated_Source\PSoC4/isr_1.c **** * Return:
 350:.\Generated_Source\PSoC4/isr_1.c **** *   None
 351:.\Generated_Source\PSoC4/isr_1.c **** *
 352:.\Generated_Source\PSoC4/isr_1.c **** *******************************************************************************/
 353:.\Generated_Source\PSoC4/isr_1.c **** void isr_1_ClearPending(void)
 354:.\Generated_Source\PSoC4/isr_1.c **** {
 511              		.loc 1 354 0
 512              		.cfi_startproc
 513 0000 80B5     		push	{r7, lr}
 514              	.LCFI28:
 515              		.cfi_def_cfa_offset 8
 516              		.cfi_offset 7, -8
 517              		.cfi_offset 14, -4
 518 0002 00AF     		add	r7, sp, #0
 519              	.LCFI29:
 520              		.cfi_def_cfa_register 7
 355:.\Generated_Source\PSoC4/isr_1.c ****     *isr_1_INTC_CLR_PD = isr_1__INTC_MASK;
 521              		.loc 1 355 0
 522 0004 024B     		ldr	r3, .L40
 523 0006 0122     		mov	r2, #1
 524 0008 1A60     		str	r2, [r3]
 356:.\Generated_Source\PSoC4/isr_1.c **** }
 525              		.loc 1 356 0
 526 000a BD46     		mov	sp, r7
 527              		@ sp needed for prologue
 528 000c 80BD     		pop	{r7, pc}
 529              	.L41:
 530 000e C046     		.align	2
 531              	.L40:
 532 0010 80E200E0 		.word	-536812928
 533              		.cfi_endproc
 534              	.LFE12:
 535              		.size	isr_1_ClearPending, .-isr_1_ClearPending
 536              		.text
 537              	.Letext0:
 538              		.file 2 "./Generated_Source/PSoC4/cytypes.h"
 539              		.file 3 "..\\..\\../board.h"