ARM GAS  C:\Users\X0217454\AppData\Local\Temp\ccytybTo.s 			page 1


   1              		.cpu cortex-m0
   2              		.fpu softvfp
   3              		.eabi_attribute 20, 1
   4              		.eabi_attribute 21, 1
   5              		.eabi_attribute 23, 3
   6              		.eabi_attribute 24, 1
   7              		.eabi_attribute 25, 1
   8              		.eabi_attribute 26, 1
   9              		.eabi_attribute 30, 6
  10              		.eabi_attribute 34, 0
  11              		.eabi_attribute 18, 4
  12              		.code	16
  13              		.file	"netcfg.c"
  14              		.text
  15              	.Ltext0:
  16              		.cfi_sections	.debug_frame
  17              		.global	_SlNetCfgSetCmdCtrl
  18              		.section	.rodata
  19              		.align	2
  20              		.type	_SlNetCfgSetCmdCtrl, %object
  21              		.size	_SlNetCfgSetCmdCtrl, 4
  22              	_SlNetCfgSetCmdCtrl:
  23 0000 3284     		.short	-31694
  24 0002 08       		.byte	8
  25 0003 04       		.byte	4
  26              		.section	.text.sl_NetCfgSet,"ax",%progbits
  27              		.align	2
  28              		.global	sl_NetCfgSet
  29              		.code	16
  30              		.thumb_func
  31              		.type	sl_NetCfgSet, %function
  32              	sl_NetCfgSet:
  33              	.LFB0:
  34              		.file 1 "..\\..\\..\\..\\..\\simplelink\\source\\netcfg.c"
   1:..\..\..\..\..\simplelink\source/netcfg.c **** /*
   2:..\..\..\..\..\simplelink\source/netcfg.c ****  * netcfg.c - CC31xx/CC32xx Host Driver Implementation
   3:..\..\..\..\..\simplelink\source/netcfg.c ****  *
   4:..\..\..\..\..\simplelink\source/netcfg.c ****  * Copyright (C) 2014 Texas Instruments Incorporated - http://www.ti.com/ 
   5:..\..\..\..\..\simplelink\source/netcfg.c ****  * 
   6:..\..\..\..\..\simplelink\source/netcfg.c ****  * 
   7:..\..\..\..\..\simplelink\source/netcfg.c ****  *  Redistribution and use in source and binary forms, with or without 
   8:..\..\..\..\..\simplelink\source/netcfg.c ****  *  modification, are permitted provided that the following conditions 
   9:..\..\..\..\..\simplelink\source/netcfg.c ****  *  are met:
  10:..\..\..\..\..\simplelink\source/netcfg.c ****  *
  11:..\..\..\..\..\simplelink\source/netcfg.c ****  *    Redistributions of source code must retain the above copyright 
  12:..\..\..\..\..\simplelink\source/netcfg.c ****  *    notice, this list of conditions and the following disclaimer.
  13:..\..\..\..\..\simplelink\source/netcfg.c ****  *
  14:..\..\..\..\..\simplelink\source/netcfg.c ****  *    Redistributions in binary form must reproduce the above copyright
  15:..\..\..\..\..\simplelink\source/netcfg.c ****  *    notice, this list of conditions and the following disclaimer in the 
  16:..\..\..\..\..\simplelink\source/netcfg.c ****  *    documentation and/or other materials provided with the   
  17:..\..\..\..\..\simplelink\source/netcfg.c ****  *    distribution.
  18:..\..\..\..\..\simplelink\source/netcfg.c ****  *
  19:..\..\..\..\..\simplelink\source/netcfg.c ****  *    Neither the name of Texas Instruments Incorporated nor the names of
  20:..\..\..\..\..\simplelink\source/netcfg.c ****  *    its contributors may be used to endorse or promote products derived
  21:..\..\..\..\..\simplelink\source/netcfg.c ****  *    from this software without specific prior written permission.
  22:..\..\..\..\..\simplelink\source/netcfg.c ****  *
  23:..\..\..\..\..\simplelink\source/netcfg.c ****  *  THIS SOFTWARE IS PROVIDED BY THE COPYRIGHT HOLDERS AND CONTRIBUTORS 
ARM GAS  C:\Users\X0217454\AppData\Local\Temp\ccytybTo.s 			page 2


  24:..\..\..\..\..\simplelink\source/netcfg.c ****  *  "AS IS" AND ANY EXPRESS OR IMPLIED WARRANTIES, INCLUDING, BUT NOT 
  25:..\..\..\..\..\simplelink\source/netcfg.c ****  *  LIMITED TO, THE IMPLIED WARRANTIES OF MERCHANTABILITY AND FITNESS FOR
  26:..\..\..\..\..\simplelink\source/netcfg.c ****  *  A PARTICULAR PURPOSE ARE DISCLAIMED. IN NO EVENT SHALL THE COPYRIGHT 
  27:..\..\..\..\..\simplelink\source/netcfg.c ****  *  OWNER OR CONTRIBUTORS BE LIABLE FOR ANY DIRECT, INDIRECT, INCIDENTAL, 
  28:..\..\..\..\..\simplelink\source/netcfg.c ****  *  SPECIAL, EXEMPLARY, OR CONSEQUENTIAL DAMAGES (INCLUDING, BUT NOT 
  29:..\..\..\..\..\simplelink\source/netcfg.c ****  *  LIMITED TO, PROCUREMENT OF SUBSTITUTE GOODS OR SERVICES; LOSS OF USE,
  30:..\..\..\..\..\simplelink\source/netcfg.c ****  *  DATA, OR PROFITS; OR BUSINESS INTERRUPTION) HOWEVER CAUSED AND ON ANY
  31:..\..\..\..\..\simplelink\source/netcfg.c ****  *  THEORY OF LIABILITY, WHETHER IN CONTRACT, STRICT LIABILITY, OR TORT 
  32:..\..\..\..\..\simplelink\source/netcfg.c ****  *  (INCLUDING NEGLIGENCE OR OTHERWISE) ARISING IN ANY WAY OUT OF THE USE 
  33:..\..\..\..\..\simplelink\source/netcfg.c ****  *  OF THIS SOFTWARE, EVEN IF ADVISED OF THE POSSIBILITY OF SUCH DAMAGE.
  34:..\..\..\..\..\simplelink\source/netcfg.c ****  *
  35:..\..\..\..\..\simplelink\source/netcfg.c **** */
  36:..\..\..\..\..\simplelink\source/netcfg.c **** 
  37:..\..\..\..\..\simplelink\source/netcfg.c **** /*****************************************************************************
  38:..\..\..\..\..\simplelink\source/netcfg.c **** 
  39:..\..\..\..\..\simplelink\source/netcfg.c ****     API Prototypes
  40:..\..\..\..\..\simplelink\source/netcfg.c **** 
  41:..\..\..\..\..\simplelink\source/netcfg.c ****  *****************************************************************************/
  42:..\..\..\..\..\simplelink\source/netcfg.c **** #include "datatypes.h"
  43:..\..\..\..\..\simplelink\source/netcfg.c **** #include "simplelink.h"
  44:..\..\..\..\..\simplelink\source/netcfg.c **** #include "protocol.h"
  45:..\..\..\..\..\simplelink\source/netcfg.c **** #include "driver.h"
  46:..\..\..\..\..\simplelink\source/netcfg.c **** 
  47:..\..\..\..\..\simplelink\source/netcfg.c **** /*****************************************************************************/
  48:..\..\..\..\..\simplelink\source/netcfg.c **** /* sl_NetCfgSet */
  49:..\..\..\..\..\simplelink\source/netcfg.c **** /*****************************************************************************/
  50:..\..\..\..\..\simplelink\source/netcfg.c **** typedef union
  51:..\..\..\..\..\simplelink\source/netcfg.c **** {
  52:..\..\..\..\..\simplelink\source/netcfg.c ****     _NetCfgSetGet_t    Cmd;
  53:..\..\..\..\..\simplelink\source/netcfg.c ****     _BasicResponse_t   Rsp;
  54:..\..\..\..\..\simplelink\source/netcfg.c **** }_SlNetCfgMsgSet_u;
  55:..\..\..\..\..\simplelink\source/netcfg.c **** 
  56:..\..\..\..\..\simplelink\source/netcfg.c **** const _SlCmdCtrl_t _SlNetCfgSetCmdCtrl =
  57:..\..\..\..\..\simplelink\source/netcfg.c **** {
  58:..\..\..\..\..\simplelink\source/netcfg.c ****     SL_OPCODE_DEVICE_NETCFG_SET_COMMAND,
  59:..\..\..\..\..\simplelink\source/netcfg.c ****     sizeof(_NetCfgSetGet_t),
  60:..\..\..\..\..\simplelink\source/netcfg.c ****     sizeof(_BasicResponse_t)
  61:..\..\..\..\..\simplelink\source/netcfg.c **** };
  62:..\..\..\..\..\simplelink\source/netcfg.c **** 
  63:..\..\..\..\..\simplelink\source/netcfg.c **** #if _SL_INCLUDE_FUNC(sl_NetCfgSet)
  64:..\..\..\..\..\simplelink\source/netcfg.c **** long sl_NetCfgSet(unsigned char ConfigId ,unsigned char ConfigOpt,unsigned char ConfigLen, unsigned
  65:..\..\..\..\..\simplelink\source/netcfg.c **** {
  35              		.loc 1 65 0
  36              		.cfi_startproc
  37 0000 80B5     		push	{r7, lr}
  38              	.LCFI0:
  39              		.cfi_def_cfa_offset 8
  40              		.cfi_offset 7, -8
  41              		.cfi_offset 14, -4
  42 0002 8AB0     		sub	sp, sp, #40
  43              	.LCFI1:
  44              		.cfi_def_cfa_offset 48
  45 0004 00AF     		add	r7, sp, #0
  46              	.LCFI2:
  47              		.cfi_def_cfa_register 7
  48 0006 3B60     		str	r3, [r7]
  49 0008 FB1D     		add	r3, r7, #7
ARM GAS  C:\Users\X0217454\AppData\Local\Temp\ccytybTo.s 			page 3


  50 000a 1870     		strb	r0, [r3]
  51 000c BB1D     		add	r3, r7, #6
  52 000e 1970     		strb	r1, [r3]
  53 0010 7B1D     		add	r3, r7, #5
  54 0012 1A70     		strb	r2, [r3]
  66:..\..\..\..\..\simplelink\source/netcfg.c ****     _SlNetCfgMsgSet_u         Msg;
  67:..\..\..\..\..\simplelink\source/netcfg.c ****     _SlCmdExt_t               CmdExt;
  68:..\..\..\..\..\simplelink\source/netcfg.c **** 
  69:..\..\..\..\..\simplelink\source/netcfg.c **** 	CmdExt.TxPayloadLen = (ConfigLen+3) & (~3);
  55              		.loc 1 69 0
  56 0014 7B1D     		add	r3, r7, #5
  57 0016 1B78     		ldrb	r3, [r3]
  58 0018 9BB2     		uxth	r3, r3
  59 001a 0333     		add	r3, r3, #3
  60 001c 9BB2     		uxth	r3, r3
  61 001e 0322     		mov	r2, #3
  62 0020 9343     		bic	r3, r2
  63 0022 9AB2     		uxth	r2, r3
  64 0024 3B1C     		mov	r3, r7
  65 0026 0C33     		add	r3, r3, #12
  66 0028 1A80     		strh	r2, [r3]
  70:..\..\..\..\..\simplelink\source/netcfg.c ****     CmdExt.RxPayloadLen = 0;
  67              		.loc 1 70 0
  68 002a 3B1C     		mov	r3, r7
  69 002c 0C33     		add	r3, r3, #12
  70 002e 0022     		mov	r2, #0
  71 0030 5A80     		strh	r2, [r3, #2]
  71:..\..\..\..\..\simplelink\source/netcfg.c ****     CmdExt.pTxPayload = (UINT8 *)pValues;
  72              		.loc 1 71 0
  73 0032 3B1C     		mov	r3, r7
  74 0034 0C33     		add	r3, r3, #12
  75 0036 3A68     		ldr	r2, [r7]
  76 0038 9A60     		str	r2, [r3, #8]
  72:..\..\..\..\..\simplelink\source/netcfg.c ****     CmdExt.pRxPayload = NULL;
  77              		.loc 1 72 0
  78 003a 3B1C     		mov	r3, r7
  79 003c 0C33     		add	r3, r3, #12
  80 003e 0022     		mov	r2, #0
  81 0040 DA60     		str	r2, [r3, #12]
  73:..\..\..\..\..\simplelink\source/netcfg.c **** 
  74:..\..\..\..\..\simplelink\source/netcfg.c **** 
  75:..\..\..\..\..\simplelink\source/netcfg.c ****     Msg.Cmd.ConfigId    = ConfigId;
  82              		.loc 1 75 0
  83 0042 FB1D     		add	r3, r7, #7
  84 0044 1B78     		ldrb	r3, [r3]
  85 0046 9AB2     		uxth	r2, r3
  86 0048 3B1C     		mov	r3, r7
  87 004a 1C33     		add	r3, r3, #28
  88 004c 5A80     		strh	r2, [r3, #2]
  76:..\..\..\..\..\simplelink\source/netcfg.c ****     Msg.Cmd.ConfigLen   = ConfigLen;
  89              		.loc 1 76 0
  90 004e 7B1D     		add	r3, r7, #5
  91 0050 1B78     		ldrb	r3, [r3]
  92 0052 9AB2     		uxth	r2, r3
  93 0054 3B1C     		mov	r3, r7
  94 0056 1C33     		add	r3, r3, #28
  95 0058 DA80     		strh	r2, [r3, #6]
ARM GAS  C:\Users\X0217454\AppData\Local\Temp\ccytybTo.s 			page 4


  77:..\..\..\..\..\simplelink\source/netcfg.c **** 	Msg.Cmd.ConfigOpt   = ConfigOpt;
  96              		.loc 1 77 0
  97 005a BB1D     		add	r3, r7, #6
  98 005c 1B78     		ldrb	r3, [r3]
  99 005e 9AB2     		uxth	r2, r3
 100 0060 3B1C     		mov	r3, r7
 101 0062 1C33     		add	r3, r3, #28
 102 0064 9A80     		strh	r2, [r3, #4]
 103              	.LBB2:
  78:..\..\..\..\..\simplelink\source/netcfg.c **** 
  79:..\..\..\..\..\simplelink\source/netcfg.c ****     VERIFY_RET_OK(_SlDrvCmdOp((_SlCmdCtrl_t *)&_SlNetCfgSetCmdCtrl, &Msg, &CmdExt));
 104              		.loc 1 79 0
 105 0066 0C49     		ldr	r1, .L5
 106 0068 3A1C     		mov	r2, r7
 107 006a 1C32     		add	r2, r2, #28
 108 006c 3B1C     		mov	r3, r7
 109 006e 0C33     		add	r3, r3, #12
 110 0070 081C     		mov	r0, r1
 111 0072 111C     		mov	r1, r2
 112 0074 1A1C     		mov	r2, r3
 113 0076 FFF7FEFF 		bl	_SlDrvCmdOp
 114 007a 031C     		mov	r3, r0
 115 007c 7B62     		str	r3, [r7, #36]
 116 007e 7B6A     		ldr	r3, [r7, #36]
 117 0080 002B     		cmp	r3, #0
 118 0082 00D0     		beq	.L2
 119              	.L3:
 120              		.loc 1 79 0 is_stmt 0 discriminator 1
 121 0084 FEE7     		b	.L3
 122              	.L2:
 123              	.LBE2:
  80:..\..\..\..\..\simplelink\source/netcfg.c **** 
  81:..\..\..\..\..\simplelink\source/netcfg.c ****     return (int)Msg.Rsp.status;
 124              		.loc 1 81 0 is_stmt 1
 125 0086 3B1C     		mov	r3, r7
 126 0088 1C33     		add	r3, r3, #28
 127 008a 1B88     		ldrh	r3, [r3]
 128 008c 1BB2     		sxth	r3, r3
  82:..\..\..\..\..\simplelink\source/netcfg.c **** }
 129              		.loc 1 82 0
 130 008e 181C     		mov	r0, r3
 131 0090 BD46     		mov	sp, r7
 132 0092 0AB0     		add	sp, sp, #40
 133              		@ sp needed for prologue
 134 0094 80BD     		pop	{r7, pc}
 135              	.L6:
 136 0096 C046     		.align	2
 137              	.L5:
 138 0098 00000000 		.word	_SlNetCfgSetCmdCtrl
 139              		.cfi_endproc
 140              	.LFE0:
 141              		.size	sl_NetCfgSet, .-sl_NetCfgSet
 142              		.global	_SlNetCfgGetCmdCtrl
 143              		.section	.rodata
 144              		.align	2
 145              		.type	_SlNetCfgGetCmdCtrl, %object
 146              		.size	_SlNetCfgGetCmdCtrl, 4
ARM GAS  C:\Users\X0217454\AppData\Local\Temp\ccytybTo.s 			page 5


 147              	_SlNetCfgGetCmdCtrl:
 148 0004 3384     		.short	-31693
 149 0006 08       		.byte	8
 150 0007 08       		.byte	8
 151              		.section	.text.sl_NetCfgGet,"ax",%progbits
 152              		.align	2
 153              		.global	sl_NetCfgGet
 154              		.code	16
 155              		.thumb_func
 156              		.type	sl_NetCfgGet, %function
 157              	sl_NetCfgGet:
 158              	.LFB1:
  83:..\..\..\..\..\simplelink\source/netcfg.c **** #endif
  84:..\..\..\..\..\simplelink\source/netcfg.c **** 
  85:..\..\..\..\..\simplelink\source/netcfg.c **** 
  86:..\..\..\..\..\simplelink\source/netcfg.c **** /*****************************************************************************/
  87:..\..\..\..\..\simplelink\source/netcfg.c **** /* sl_NetCfgGet */
  88:..\..\..\..\..\simplelink\source/netcfg.c **** /*****************************************************************************/
  89:..\..\..\..\..\simplelink\source/netcfg.c **** typedef union
  90:..\..\..\..\..\simplelink\source/netcfg.c **** {
  91:..\..\..\..\..\simplelink\source/netcfg.c **** 	_NetCfgSetGet_t	    Cmd;
  92:..\..\..\..\..\simplelink\source/netcfg.c **** 	_NetCfgSetGet_t	    Rsp;
  93:..\..\..\..\..\simplelink\source/netcfg.c **** }_SlNetCfgMsgGet_u;
  94:..\..\..\..\..\simplelink\source/netcfg.c **** 
  95:..\..\..\..\..\simplelink\source/netcfg.c **** const _SlCmdCtrl_t _SlNetCfgGetCmdCtrl =
  96:..\..\..\..\..\simplelink\source/netcfg.c **** {
  97:..\..\..\..\..\simplelink\source/netcfg.c ****     SL_OPCODE_DEVICE_NETCFG_GET_COMMAND,
  98:..\..\..\..\..\simplelink\source/netcfg.c ****     sizeof(_NetCfgSetGet_t),
  99:..\..\..\..\..\simplelink\source/netcfg.c ****     sizeof(_NetCfgSetGet_t)
 100:..\..\..\..\..\simplelink\source/netcfg.c **** };
 101:..\..\..\..\..\simplelink\source/netcfg.c **** 
 102:..\..\..\..\..\simplelink\source/netcfg.c **** #if _SL_INCLUDE_FUNC(sl_NetCfgGet)
 103:..\..\..\..\..\simplelink\source/netcfg.c **** long sl_NetCfgGet(unsigned char ConfigId, unsigned char *pConfigOpt,unsigned char *pConfigLen, unsi
 104:..\..\..\..\..\simplelink\source/netcfg.c **** {
 159              		.loc 1 104 0
 160              		.cfi_startproc
 161 0000 80B5     		push	{r7, lr}
 162              	.LCFI3:
 163              		.cfi_def_cfa_offset 8
 164              		.cfi_offset 7, -8
 165              		.cfi_offset 14, -4
 166 0002 8CB0     		sub	sp, sp, #48
 167              	.LCFI4:
 168              		.cfi_def_cfa_offset 56
 169 0004 00AF     		add	r7, sp, #0
 170              	.LCFI5:
 171              		.cfi_def_cfa_register 7
 172 0006 B960     		str	r1, [r7, #8]
 173 0008 7A60     		str	r2, [r7, #4]
 174 000a 3B60     		str	r3, [r7]
 175 000c 3B1C     		mov	r3, r7
 176 000e 0F33     		add	r3, r3, #15
 177 0010 021C     		add	r2, r0, #0
 178 0012 1A70     		strb	r2, [r3]
 105:..\..\..\..\..\simplelink\source/netcfg.c ****     _SlNetCfgMsgGet_u         Msg;
 106:..\..\..\..\..\simplelink\source/netcfg.c ****     _SlCmdExt_t               CmdExt;
 107:..\..\..\..\..\simplelink\source/netcfg.c **** 
ARM GAS  C:\Users\X0217454\AppData\Local\Temp\ccytybTo.s 			page 6


 108:..\..\..\..\..\simplelink\source/netcfg.c **** 	if (*pConfigLen == 0)
 179              		.loc 1 108 0
 180 0014 7B68     		ldr	r3, [r7, #4]
 181 0016 1B78     		ldrb	r3, [r3]
 182 0018 002B     		cmp	r3, #0
 183 001a 01D1     		bne	.L8
 109:..\..\..\..\..\simplelink\source/netcfg.c **** 	{
 110:..\..\..\..\..\simplelink\source/netcfg.c **** 		return SL_EZEROLEN;
 184              		.loc 1 110 0
 185 001c 2E4B     		ldr	r3, .L16
 186 001e 57E0     		b	.L15
 187              	.L8:
 111:..\..\..\..\..\simplelink\source/netcfg.c **** 	}
 112:..\..\..\..\..\simplelink\source/netcfg.c ****     CmdExt.TxPayloadLen = 0;
 188              		.loc 1 112 0
 189 0020 3B1C     		mov	r3, r7
 190 0022 1433     		add	r3, r3, #20
 191 0024 0022     		mov	r2, #0
 192 0026 1A80     		strh	r2, [r3]
 113:..\..\..\..\..\simplelink\source/netcfg.c ****     CmdExt.RxPayloadLen = *pConfigLen;
 193              		.loc 1 113 0
 194 0028 7B68     		ldr	r3, [r7, #4]
 195 002a 1B78     		ldrb	r3, [r3]
 196 002c 1A1C     		mov	r2, r3
 197 002e 3B1C     		mov	r3, r7
 198 0030 1433     		add	r3, r3, #20
 199 0032 5A80     		strh	r2, [r3, #2]
 114:..\..\..\..\..\simplelink\source/netcfg.c ****     CmdExt.pTxPayload = NULL;
 200              		.loc 1 114 0
 201 0034 3B1C     		mov	r3, r7
 202 0036 1433     		add	r3, r3, #20
 203 0038 0022     		mov	r2, #0
 204 003a 9A60     		str	r2, [r3, #8]
 115:..\..\..\..\..\simplelink\source/netcfg.c ****     CmdExt.pRxPayload = (UINT8 *)pValues;
 205              		.loc 1 115 0
 206 003c 3B1C     		mov	r3, r7
 207 003e 1433     		add	r3, r3, #20
 208 0040 3A68     		ldr	r2, [r7]
 209 0042 DA60     		str	r2, [r3, #12]
 116:..\..\..\..\..\simplelink\source/netcfg.c **** 	CmdExt.ActualRxPayloadLen = 0;
 210              		.loc 1 116 0
 211 0044 3B1C     		mov	r3, r7
 212 0046 1433     		add	r3, r3, #20
 213 0048 0022     		mov	r2, #0
 214 004a 9A80     		strh	r2, [r3, #4]
 117:..\..\..\..\..\simplelink\source/netcfg.c **** 
 118:..\..\..\..\..\simplelink\source/netcfg.c ****     Msg.Cmd.ConfigId    = ConfigId;
 215              		.loc 1 118 0
 216 004c 3B1C     		mov	r3, r7
 217 004e 0F33     		add	r3, r3, #15
 218 0050 1B78     		ldrb	r3, [r3]
 219 0052 9AB2     		uxth	r2, r3
 220 0054 3B1C     		mov	r3, r7
 221 0056 2433     		add	r3, r3, #36
 222 0058 5A80     		strh	r2, [r3, #2]
 119:..\..\..\..\..\simplelink\source/netcfg.c ****     if( pConfigOpt )
 223              		.loc 1 119 0
ARM GAS  C:\Users\X0217454\AppData\Local\Temp\ccytybTo.s 			page 7


 224 005a BB68     		ldr	r3, [r7, #8]
 225 005c 002B     		cmp	r3, #0
 226 005e 05D0     		beq	.L10
 120:..\..\..\..\..\simplelink\source/netcfg.c ****     {
 121:..\..\..\..\..\simplelink\source/netcfg.c ****        Msg.Cmd.ConfigOpt   = (UINT16)*pConfigOpt;
 227              		.loc 1 121 0
 228 0060 BB68     		ldr	r3, [r7, #8]
 229 0062 1B78     		ldrb	r3, [r3]
 230 0064 1A1C     		mov	r2, r3
 231 0066 3B1C     		mov	r3, r7
 232 0068 2433     		add	r3, r3, #36
 233 006a 9A80     		strh	r2, [r3, #4]
 234              	.L10:
 235              	.LBB3:
 122:..\..\..\..\..\simplelink\source/netcfg.c ****     }
 123:..\..\..\..\..\simplelink\source/netcfg.c ****     VERIFY_RET_OK(_SlDrvCmdOp((_SlCmdCtrl_t *)&_SlNetCfgGetCmdCtrl, &Msg, &CmdExt));
 236              		.loc 1 123 0
 237 006c 1B49     		ldr	r1, .L16+4
 238 006e 3A1C     		mov	r2, r7
 239 0070 2432     		add	r2, r2, #36
 240 0072 3B1C     		mov	r3, r7
 241 0074 1433     		add	r3, r3, #20
 242 0076 081C     		mov	r0, r1
 243 0078 111C     		mov	r1, r2
 244 007a 1A1C     		mov	r2, r3
 245 007c FFF7FEFF 		bl	_SlDrvCmdOp
 246 0080 031C     		mov	r3, r0
 247 0082 FB62     		str	r3, [r7, #44]
 248 0084 FB6A     		ldr	r3, [r7, #44]
 249 0086 002B     		cmp	r3, #0
 250 0088 00D0     		beq	.L11
 251              	.L12:
 252              		.loc 1 123 0 is_stmt 0 discriminator 1
 253 008a FEE7     		b	.L12
 254              	.L11:
 255              	.LBE3:
 124:..\..\..\..\..\simplelink\source/netcfg.c ****    
 125:..\..\..\..\..\simplelink\source/netcfg.c ****      if( pConfigOpt )
 256              		.loc 1 125 0 is_stmt 1
 257 008c BB68     		ldr	r3, [r7, #8]
 258 008e 002B     		cmp	r3, #0
 259 0090 05D0     		beq	.L13
 126:..\..\..\..\..\simplelink\source/netcfg.c ****      {
 127:..\..\..\..\..\simplelink\source/netcfg.c ****        *pConfigOpt = (UINT8)Msg.Rsp.ConfigOpt;
 260              		.loc 1 127 0
 261 0092 3B1C     		mov	r3, r7
 262 0094 2433     		add	r3, r3, #36
 263 0096 9B88     		ldrh	r3, [r3, #4]
 264 0098 DAB2     		uxtb	r2, r3
 265 009a BB68     		ldr	r3, [r7, #8]
 266 009c 1A70     		strb	r2, [r3]
 267              	.L13:
 128:..\..\..\..\..\simplelink\source/netcfg.c ****      }
 129:..\..\..\..\..\simplelink\source/netcfg.c **** 	 if (CmdExt.RxPayloadLen < CmdExt.ActualRxPayloadLen) 
 268              		.loc 1 129 0
 269 009e 3B1C     		mov	r3, r7
 270 00a0 1433     		add	r3, r3, #20
ARM GAS  C:\Users\X0217454\AppData\Local\Temp\ccytybTo.s 			page 8


 271 00a2 5A88     		ldrh	r2, [r3, #2]
 272 00a4 3B1C     		mov	r3, r7
 273 00a6 1433     		add	r3, r3, #20
 274 00a8 9B88     		ldrh	r3, [r3, #4]
 275 00aa 9A42     		cmp	r2, r3
 276 00ac 07D2     		bcs	.L14
 130:..\..\..\..\..\simplelink\source/netcfg.c **** 	 {
 131:..\..\..\..\..\simplelink\source/netcfg.c **** 	   *pConfigLen = (UINT8)CmdExt.RxPayloadLen;
 277              		.loc 1 131 0
 278 00ae 3B1C     		mov	r3, r7
 279 00b0 1433     		add	r3, r3, #20
 280 00b2 5B88     		ldrh	r3, [r3, #2]
 281 00b4 DAB2     		uxtb	r2, r3
 282 00b6 7B68     		ldr	r3, [r7, #4]
 283 00b8 1A70     		strb	r2, [r3]
 132:..\..\..\..\..\simplelink\source/netcfg.c **** 	    return SL_ESMALLBUF;
 284              		.loc 1 132 0
 285 00ba 094B     		ldr	r3, .L16+8
 286 00bc 08E0     		b	.L15
 287              	.L14:
 133:..\..\..\..\..\simplelink\source/netcfg.c **** 	 }
 134:..\..\..\..\..\simplelink\source/netcfg.c **** 	else
 135:..\..\..\..\..\simplelink\source/netcfg.c **** 	{
 136:..\..\..\..\..\simplelink\source/netcfg.c **** 		*pConfigLen = (UINT8)CmdExt.ActualRxPayloadLen;
 288              		.loc 1 136 0
 289 00be 3B1C     		mov	r3, r7
 290 00c0 1433     		add	r3, r3, #20
 291 00c2 9B88     		ldrh	r3, [r3, #4]
 292 00c4 DAB2     		uxtb	r2, r3
 293 00c6 7B68     		ldr	r3, [r7, #4]
 294 00c8 1A70     		strb	r2, [r3]
 137:..\..\..\..\..\simplelink\source/netcfg.c **** 	}
 138:..\..\..\..\..\simplelink\source/netcfg.c **** 
 139:..\..\..\..\..\simplelink\source/netcfg.c ****     return (int)Msg.Rsp.Status;
 295              		.loc 1 139 0
 296 00ca 3B1C     		mov	r3, r7
 297 00cc 2433     		add	r3, r3, #36
 298 00ce 1B88     		ldrh	r3, [r3]
 299              	.L15:
 140:..\..\..\..\..\simplelink\source/netcfg.c **** }
 300              		.loc 1 140 0
 301 00d0 181C     		mov	r0, r3
 302 00d2 BD46     		mov	sp, r7
 303 00d4 0CB0     		add	sp, sp, #48
 304              		@ sp needed for prologue
 305 00d6 80BD     		pop	{r7, pc}
 306              	.L17:
 307              		.align	2
 308              	.L16:
 309 00d8 2EF8FFFF 		.word	-2002
 310 00dc 00000000 		.word	_SlNetCfgGetCmdCtrl
 311 00e0 2FF8FFFF 		.word	-2001
 312              		.cfi_endproc
 313              	.LFE1:
 314              		.size	sl_NetCfgGet, .-sl_NetCfgGet
 315              		.text
 316              	.Letext0:
ARM GAS  C:\Users\X0217454\AppData\Local\Temp\ccytybTo.s 			page 9


 317              		.file 2 "..\\..\\..\\..\\..\\simplelink\\source\\datatypes.h"
 318              		.file 3 "..\\..\\..\\..\\..\\simplelink\\source\\protocol.h"
 319              		.file 4 "..\\..\\..\\..\\..\\simplelink\\source\\driver.h"