ARM GAS  C:\Users\X0217454\AppData\Local\Temp\cc8dKisV.s 			page 1


   1              		.cpu cortex-m0
   2              		.fpu softvfp
   3              		.eabi_attribute 20, 1
   4              		.eabi_attribute 21, 1
   5              		.eabi_attribute 23, 3
   6              		.eabi_attribute 24, 1
   7              		.eabi_attribute 25, 1
   8              		.eabi_attribute 26, 1
   9              		.eabi_attribute 30, 6
  10              		.eabi_attribute 34, 0
  11              		.eabi_attribute 18, 4
  12              		.code	16
  13              		.file	"nonos.c"
  14              		.text
  15              	.Ltext0:
  16              		.cfi_sections	.debug_frame
  17              		.comm	g__SlNonOsCB,40,4
  18              		.section	.text._SlNonOsSemSet,"ax",%progbits
  19              		.align	2
  20              		.global	_SlNonOsSemSet
  21              		.code	16
  22              		.thumb_func
  23              		.type	_SlNonOsSemSet, %function
  24              	_SlNonOsSemSet:
  25              	.LFB0:
  26              		.file 1 "..\\..\\..\\..\\..\\simplelink\\source\\nonos.c"
   1:..\..\..\..\..\simplelink\source/nonos.c **** /*
   2:..\..\..\..\..\simplelink\source/nonos.c ****  * nonos.c - CC31xx/CC32xx Host Driver Implementation
   3:..\..\..\..\..\simplelink\source/nonos.c ****  *
   4:..\..\..\..\..\simplelink\source/nonos.c ****  * Copyright (C) 2014 Texas Instruments Incorporated - http://www.ti.com/ 
   5:..\..\..\..\..\simplelink\source/nonos.c ****  * 
   6:..\..\..\..\..\simplelink\source/nonos.c ****  * 
   7:..\..\..\..\..\simplelink\source/nonos.c ****  *  Redistribution and use in source and binary forms, with or without 
   8:..\..\..\..\..\simplelink\source/nonos.c ****  *  modification, are permitted provided that the following conditions 
   9:..\..\..\..\..\simplelink\source/nonos.c ****  *  are met:
  10:..\..\..\..\..\simplelink\source/nonos.c ****  *
  11:..\..\..\..\..\simplelink\source/nonos.c ****  *    Redistributions of source code must retain the above copyright 
  12:..\..\..\..\..\simplelink\source/nonos.c ****  *    notice, this list of conditions and the following disclaimer.
  13:..\..\..\..\..\simplelink\source/nonos.c ****  *
  14:..\..\..\..\..\simplelink\source/nonos.c ****  *    Redistributions in binary form must reproduce the above copyright
  15:..\..\..\..\..\simplelink\source/nonos.c ****  *    notice, this list of conditions and the following disclaimer in the 
  16:..\..\..\..\..\simplelink\source/nonos.c ****  *    documentation and/or other materials provided with the   
  17:..\..\..\..\..\simplelink\source/nonos.c ****  *    distribution.
  18:..\..\..\..\..\simplelink\source/nonos.c ****  *
  19:..\..\..\..\..\simplelink\source/nonos.c ****  *    Neither the name of Texas Instruments Incorporated nor the names of
  20:..\..\..\..\..\simplelink\source/nonos.c ****  *    its contributors may be used to endorse or promote products derived
  21:..\..\..\..\..\simplelink\source/nonos.c ****  *    from this software without specific prior written permission.
  22:..\..\..\..\..\simplelink\source/nonos.c ****  *
  23:..\..\..\..\..\simplelink\source/nonos.c ****  *  THIS SOFTWARE IS PROVIDED BY THE COPYRIGHT HOLDERS AND CONTRIBUTORS 
  24:..\..\..\..\..\simplelink\source/nonos.c ****  *  "AS IS" AND ANY EXPRESS OR IMPLIED WARRANTIES, INCLUDING, BUT NOT 
  25:..\..\..\..\..\simplelink\source/nonos.c ****  *  LIMITED TO, THE IMPLIED WARRANTIES OF MERCHANTABILITY AND FITNESS FOR
  26:..\..\..\..\..\simplelink\source/nonos.c ****  *  A PARTICULAR PURPOSE ARE DISCLAIMED. IN NO EVENT SHALL THE COPYRIGHT 
  27:..\..\..\..\..\simplelink\source/nonos.c ****  *  OWNER OR CONTRIBUTORS BE LIABLE FOR ANY DIRECT, INDIRECT, INCIDENTAL, 
  28:..\..\..\..\..\simplelink\source/nonos.c ****  *  SPECIAL, EXEMPLARY, OR CONSEQUENTIAL DAMAGES (INCLUDING, BUT NOT 
  29:..\..\..\..\..\simplelink\source/nonos.c ****  *  LIMITED TO, PROCUREMENT OF SUBSTITUTE GOODS OR SERVICES; LOSS OF USE,
  30:..\..\..\..\..\simplelink\source/nonos.c ****  *  DATA, OR PROFITS; OR BUSINESS INTERRUPTION) HOWEVER CAUSED AND ON ANY
  31:..\..\..\..\..\simplelink\source/nonos.c ****  *  THEORY OF LIABILITY, WHETHER IN CONTRACT, STRICT LIABILITY, OR TORT 
ARM GAS  C:\Users\X0217454\AppData\Local\Temp\cc8dKisV.s 			page 2


  32:..\..\..\..\..\simplelink\source/nonos.c ****  *  (INCLUDING NEGLIGENCE OR OTHERWISE) ARISING IN ANY WAY OUT OF THE USE 
  33:..\..\..\..\..\simplelink\source/nonos.c ****  *  OF THIS SOFTWARE, EVEN IF ADVISED OF THE POSSIBILITY OF SUCH DAMAGE.
  34:..\..\..\..\..\simplelink\source/nonos.c ****  *
  35:..\..\..\..\..\simplelink\source/nonos.c **** */
  36:..\..\..\..\..\simplelink\source/nonos.c **** 
  37:..\..\..\..\..\simplelink\source/nonos.c **** #include "datatypes.h"
  38:..\..\..\..\..\simplelink\source/nonos.c **** #include "simplelink.h"
  39:..\..\..\..\..\simplelink\source/nonos.c **** #include "protocol.h"
  40:..\..\..\..\..\simplelink\source/nonos.c **** #include "driver.h"
  41:..\..\..\..\..\simplelink\source/nonos.c **** 
  42:..\..\..\..\..\simplelink\source/nonos.c **** #ifndef SL_PLATFORM_MULTI_THREADED
  43:..\..\..\..\..\simplelink\source/nonos.c **** 
  44:..\..\..\..\..\simplelink\source/nonos.c **** #include "nonos.h"
  45:..\..\..\..\..\simplelink\source/nonos.c **** 
  46:..\..\..\..\..\simplelink\source/nonos.c **** #define NONOS_MAX_SPAWN_ENTRIES		5
  47:..\..\..\..\..\simplelink\source/nonos.c **** 
  48:..\..\..\..\..\simplelink\source/nonos.c **** typedef struct
  49:..\..\..\..\..\simplelink\source/nonos.c **** {
  50:..\..\..\..\..\simplelink\source/nonos.c **** 	_SlSpawnEntryFunc_t 		pEntry;
  51:..\..\..\..\..\simplelink\source/nonos.c **** 	void* 						pValue;
  52:..\..\..\..\..\simplelink\source/nonos.c **** }_SlNonOsSpawnEntry_t;
  53:..\..\..\..\..\simplelink\source/nonos.c **** 
  54:..\..\..\..\..\simplelink\source/nonos.c **** typedef struct
  55:..\..\..\..\..\simplelink\source/nonos.c **** {
  56:..\..\..\..\..\simplelink\source/nonos.c **** 	_SlNonOsSpawnEntry_t	SpawnEntries[NONOS_MAX_SPAWN_ENTRIES];
  57:..\..\..\..\..\simplelink\source/nonos.c **** }_SlNonOsCB_t;
  58:..\..\..\..\..\simplelink\source/nonos.c **** 
  59:..\..\..\..\..\simplelink\source/nonos.c **** _SlNonOsCB_t g__SlNonOsCB;
  60:..\..\..\..\..\simplelink\source/nonos.c **** 
  61:..\..\..\..\..\simplelink\source/nonos.c **** 
  62:..\..\..\..\..\simplelink\source/nonos.c **** _SlNonOsRetVal_t _SlNonOsSemSet(_SlNonOsSemObj_t* pSemObj , _SlNonOsSemObj_t Value)
  63:..\..\..\..\..\simplelink\source/nonos.c **** {
  27              		.loc 1 63 0
  28              		.cfi_startproc
  29 0000 80B5     		push	{r7, lr}
  30              	.LCFI0:
  31              		.cfi_def_cfa_offset 8
  32              		.cfi_offset 7, -8
  33              		.cfi_offset 14, -4
  34 0002 82B0     		sub	sp, sp, #8
  35              	.LCFI1:
  36              		.cfi_def_cfa_offset 16
  37 0004 00AF     		add	r7, sp, #0
  38              	.LCFI2:
  39              		.cfi_def_cfa_register 7
  40 0006 7860     		str	r0, [r7, #4]
  41 0008 0A1C     		mov	r2, r1
  42 000a FB1C     		add	r3, r7, #3
  43 000c 1A70     		strb	r2, [r3]
  64:..\..\..\..\..\simplelink\source/nonos.c **** 	*pSemObj = Value;
  44              		.loc 1 64 0
  45 000e 7B68     		ldr	r3, [r7, #4]
  46 0010 FA1C     		add	r2, r7, #3
  47 0012 1278     		ldrb	r2, [r2]
  48 0014 1A70     		strb	r2, [r3]
  65:..\..\..\..\..\simplelink\source/nonos.c **** 	return NONOS_RET_OK;
  49              		.loc 1 65 0
ARM GAS  C:\Users\X0217454\AppData\Local\Temp\cc8dKisV.s 			page 3


  50 0016 0023     		mov	r3, #0
  66:..\..\..\..\..\simplelink\source/nonos.c **** }
  51              		.loc 1 66 0
  52 0018 181C     		mov	r0, r3
  53 001a BD46     		mov	sp, r7
  54 001c 02B0     		add	sp, sp, #8
  55              		@ sp needed for prologue
  56 001e 80BD     		pop	{r7, pc}
  57              		.cfi_endproc
  58              	.LFE0:
  59              		.size	_SlNonOsSemSet, .-_SlNonOsSemSet
  60              		.section	.text._SlNonOsSemGet,"ax",%progbits
  61              		.align	2
  62              		.global	_SlNonOsSemGet
  63              		.code	16
  64              		.thumb_func
  65              		.type	_SlNonOsSemGet, %function
  66              	_SlNonOsSemGet:
  67              	.LFB1:
  67:..\..\..\..\..\simplelink\source/nonos.c **** 
  68:..\..\..\..\..\simplelink\source/nonos.c **** _SlNonOsRetVal_t _SlNonOsSemGet(_SlNonOsSemObj_t* pSyncObj, _SlNonOsSemObj_t WaitValue, _SlNonOsSem
  69:..\..\..\..\..\simplelink\source/nonos.c **** {
  68              		.loc 1 69 0
  69              		.cfi_startproc
  70 0000 80B5     		push	{r7, lr}
  71              	.LCFI3:
  72              		.cfi_def_cfa_offset 8
  73              		.cfi_offset 7, -8
  74              		.cfi_offset 14, -4
  75 0002 82B0     		sub	sp, sp, #8
  76              	.LCFI4:
  77              		.cfi_def_cfa_offset 16
  78 0004 00AF     		add	r7, sp, #0
  79              	.LCFI5:
  80              		.cfi_def_cfa_register 7
  81 0006 7860     		str	r0, [r7, #4]
  82 0008 081C     		mov	r0, r1
  83 000a 111C     		mov	r1, r2
  84 000c 1A1C     		mov	r2, r3
  85 000e FB1C     		add	r3, r7, #3
  86 0010 1870     		strb	r0, [r3]
  87 0012 BB1C     		add	r3, r7, #2
  88 0014 1970     		strb	r1, [r3]
  89 0016 7B1C     		add	r3, r7, #1
  90 0018 1A70     		strb	r2, [r3]
  70:..\..\..\..\..\simplelink\source/nonos.c **** 	while (Timeout>0)
  91              		.loc 1 70 0
  92 001a 15E0     		b	.L4
  93              	.L8:
  71:..\..\..\..\..\simplelink\source/nonos.c **** 	{
  72:..\..\..\..\..\simplelink\source/nonos.c **** 		if (WaitValue == *pSyncObj)
  94              		.loc 1 72 0
  95 001c 7B68     		ldr	r3, [r7, #4]
  96 001e 1B78     		ldrb	r3, [r3]
  97 0020 FA1C     		add	r2, r7, #3
  98 0022 1278     		ldrb	r2, [r2]
  99 0024 9A42     		cmp	r2, r3
ARM GAS  C:\Users\X0217454\AppData\Local\Temp\cc8dKisV.s 			page 4


 100 0026 04D1     		bne	.L5
  73:..\..\..\..\..\simplelink\source/nonos.c **** 		{
  74:..\..\..\..\..\simplelink\source/nonos.c **** 			*pSyncObj = SetValue;
 101              		.loc 1 74 0
 102 0028 7B68     		ldr	r3, [r7, #4]
 103 002a BA1C     		add	r2, r7, #2
 104 002c 1278     		ldrb	r2, [r2]
 105 002e 1A70     		strb	r2, [r3]
  75:..\..\..\..\..\simplelink\source/nonos.c **** 			break;
 106              		.loc 1 75 0
 107 0030 0EE0     		b	.L6
 108              	.L5:
  76:..\..\..\..\..\simplelink\source/nonos.c **** 		}
  77:..\..\..\..\..\simplelink\source/nonos.c **** 		if (Timeout != NONOS_WAIT_FOREVER)
 109              		.loc 1 77 0
 110 0032 7B1C     		add	r3, r7, #1
 111 0034 1B78     		ldrb	r3, [r3]
 112 0036 FF2B     		cmp	r3, #255
 113 0038 04D0     		beq	.L7
  78:..\..\..\..\..\simplelink\source/nonos.c **** 		{		
  79:..\..\..\..\..\simplelink\source/nonos.c **** 			Timeout--;
 114              		.loc 1 79 0
 115 003a 7B1C     		add	r3, r7, #1
 116 003c 7A1C     		add	r2, r7, #1
 117 003e 1278     		ldrb	r2, [r2]
 118 0040 013A     		sub	r2, r2, #1
 119 0042 1A70     		strb	r2, [r3]
 120              	.L7:
  80:..\..\..\..\..\simplelink\source/nonos.c **** 		}
  81:..\..\..\..\..\simplelink\source/nonos.c **** 		_SlNonOsMainLoopTask();
 121              		.loc 1 81 0
 122 0044 FFF7FEFF 		bl	_SlNonOsMainLoopTask
 123              	.L4:
  70:..\..\..\..\..\simplelink\source/nonos.c **** 	while (Timeout>0)
 124              		.loc 1 70 0 discriminator 1
 125 0048 7B1C     		add	r3, r7, #1
 126 004a 1B78     		ldrb	r3, [r3]
 127 004c 002B     		cmp	r3, #0
 128 004e E5D1     		bne	.L8
 129              	.L6:
  82:..\..\..\..\..\simplelink\source/nonos.c **** 	}
  83:..\..\..\..\..\simplelink\source/nonos.c **** 	
  84:..\..\..\..\..\simplelink\source/nonos.c **** 	if (0 == Timeout)
 130              		.loc 1 84 0
 131 0050 7B1C     		add	r3, r7, #1
 132 0052 1B78     		ldrb	r3, [r3]
 133 0054 002B     		cmp	r3, #0
 134 0056 01D1     		bne	.L9
  85:..\..\..\..\..\simplelink\source/nonos.c **** 	{
  86:..\..\..\..\..\simplelink\source/nonos.c **** 		return NONOS_RET_ERR;
 135              		.loc 1 86 0
 136 0058 FF23     		mov	r3, #255
 137 005a 00E0     		b	.L10
 138              	.L9:
  87:..\..\..\..\..\simplelink\source/nonos.c **** 	}
  88:..\..\..\..\..\simplelink\source/nonos.c **** 	else
  89:..\..\..\..\..\simplelink\source/nonos.c **** 	{
ARM GAS  C:\Users\X0217454\AppData\Local\Temp\cc8dKisV.s 			page 5


  90:..\..\..\..\..\simplelink\source/nonos.c **** 		return NONOS_RET_OK;
 139              		.loc 1 90 0
 140 005c 0023     		mov	r3, #0
 141              	.L10:
  91:..\..\..\..\..\simplelink\source/nonos.c **** 	}
  92:..\..\..\..\..\simplelink\source/nonos.c **** }
 142              		.loc 1 92 0
 143 005e 181C     		mov	r0, r3
 144 0060 BD46     		mov	sp, r7
 145 0062 02B0     		add	sp, sp, #8
 146              		@ sp needed for prologue
 147 0064 80BD     		pop	{r7, pc}
 148              		.cfi_endproc
 149              	.LFE1:
 150              		.size	_SlNonOsSemGet, .-_SlNonOsSemGet
 151 0066 C046     		.section	.text._SlNonOsSpawn,"ax",%progbits
 152              		.align	2
 153              		.global	_SlNonOsSpawn
 154              		.code	16
 155              		.thumb_func
 156              		.type	_SlNonOsSpawn, %function
 157              	_SlNonOsSpawn:
 158              	.LFB2:
  93:..\..\..\..\..\simplelink\source/nonos.c **** 
  94:..\..\..\..\..\simplelink\source/nonos.c **** 
  95:..\..\..\..\..\simplelink\source/nonos.c **** _SlNonOsRetVal_t _SlNonOsSpawn(_SlSpawnEntryFunc_t pEntry , void* pValue , unsigned long flags)
  96:..\..\..\..\..\simplelink\source/nonos.c **** {
 159              		.loc 1 96 0
 160              		.cfi_startproc
 161 0000 80B5     		push	{r7, lr}
 162              	.LCFI6:
 163              		.cfi_def_cfa_offset 8
 164              		.cfi_offset 7, -8
 165              		.cfi_offset 14, -4
 166 0002 86B0     		sub	sp, sp, #24
 167              	.LCFI7:
 168              		.cfi_def_cfa_offset 32
 169 0004 00AF     		add	r7, sp, #0
 170              	.LCFI8:
 171              		.cfi_def_cfa_register 7
 172 0006 F860     		str	r0, [r7, #12]
 173 0008 B960     		str	r1, [r7, #8]
 174 000a 7A60     		str	r2, [r7, #4]
  97:..\..\..\..\..\simplelink\source/nonos.c **** 	int i;
  98:..\..\..\..\..\simplelink\source/nonos.c **** 	
  99:..\..\..\..\..\simplelink\source/nonos.c **** 	for (i=0 ; i<NONOS_MAX_SPAWN_ENTRIES ; i++)
 175              		.loc 1 99 0
 176 000c 0023     		mov	r3, #0
 177 000e 7B61     		str	r3, [r7, #20]
 178 0010 12E0     		b	.L12
 179              	.L15:
 180              	.LBB2:
 100:..\..\..\..\..\simplelink\source/nonos.c **** 	{
 101:..\..\..\..\..\simplelink\source/nonos.c **** 		_SlNonOsSpawnEntry_t* pE = &g__SlNonOsCB.SpawnEntries[i];
 181              		.loc 1 101 0
 182 0012 7B69     		ldr	r3, [r7, #20]
 183 0014 DA00     		lsl	r2, r3, #3
ARM GAS  C:\Users\X0217454\AppData\Local\Temp\cc8dKisV.s 			page 6


 184 0016 0C4B     		ldr	r3, .L17
 185 0018 D318     		add	r3, r2, r3
 186 001a 3B61     		str	r3, [r7, #16]
 102:..\..\..\..\..\simplelink\source/nonos.c **** 	
 103:..\..\..\..\..\simplelink\source/nonos.c **** 		if (NULL == pE->pEntry)
 187              		.loc 1 103 0
 188 001c 3B69     		ldr	r3, [r7, #16]
 189 001e 1B68     		ldr	r3, [r3]
 190 0020 002B     		cmp	r3, #0
 191 0022 06D1     		bne	.L13
 104:..\..\..\..\..\simplelink\source/nonos.c **** 		{
 105:..\..\..\..\..\simplelink\source/nonos.c **** 			pE->pValue = pValue;
 192              		.loc 1 105 0
 193 0024 3B69     		ldr	r3, [r7, #16]
 194 0026 BA68     		ldr	r2, [r7, #8]
 195 0028 5A60     		str	r2, [r3, #4]
 106:..\..\..\..\..\simplelink\source/nonos.c **** 			pE->pEntry = pEntry;
 196              		.loc 1 106 0
 197 002a 3B69     		ldr	r3, [r7, #16]
 198 002c FA68     		ldr	r2, [r7, #12]
 199 002e 1A60     		str	r2, [r3]
 107:..\..\..\..\..\simplelink\source/nonos.c **** 			break;
 200              		.loc 1 107 0
 201 0030 05E0     		b	.L14
 202              	.L13:
 203              	.LBE2:
  99:..\..\..\..\..\simplelink\source/nonos.c **** 	for (i=0 ; i<NONOS_MAX_SPAWN_ENTRIES ; i++)
 204              		.loc 1 99 0
 205 0032 7B69     		ldr	r3, [r7, #20]
 206 0034 0133     		add	r3, r3, #1
 207 0036 7B61     		str	r3, [r7, #20]
 208              	.L12:
  99:..\..\..\..\..\simplelink\source/nonos.c **** 	for (i=0 ; i<NONOS_MAX_SPAWN_ENTRIES ; i++)
 209              		.loc 1 99 0 is_stmt 0 discriminator 1
 210 0038 7B69     		ldr	r3, [r7, #20]
 211 003a 042B     		cmp	r3, #4
 212 003c E9DD     		ble	.L15
 213              	.L14:
 108:..\..\..\..\..\simplelink\source/nonos.c **** 		}
 109:..\..\..\..\..\simplelink\source/nonos.c **** 	}
 110:..\..\..\..\..\simplelink\source/nonos.c ****         
 111:..\..\..\..\..\simplelink\source/nonos.c ****         
 112:..\..\..\..\..\simplelink\source/nonos.c ****         return NONOS_RET_OK;
 214              		.loc 1 112 0 is_stmt 1
 215 003e 0023     		mov	r3, #0
 113:..\..\..\..\..\simplelink\source/nonos.c **** }
 216              		.loc 1 113 0
 217 0040 181C     		mov	r0, r3
 218 0042 BD46     		mov	sp, r7
 219 0044 06B0     		add	sp, sp, #24
 220              		@ sp needed for prologue
 221 0046 80BD     		pop	{r7, pc}
 222              	.L18:
 223              		.align	2
 224              	.L17:
 225 0048 00000000 		.word	g__SlNonOsCB
 226              		.cfi_endproc
ARM GAS  C:\Users\X0217454\AppData\Local\Temp\cc8dKisV.s 			page 7


 227              	.LFE2:
 228              		.size	_SlNonOsSpawn, .-_SlNonOsSpawn
 229              		.section	.text._SlNonOsMainLoopTask,"ax",%progbits
 230              		.align	2
 231              		.global	_SlNonOsMainLoopTask
 232              		.code	16
 233              		.thumb_func
 234              		.type	_SlNonOsMainLoopTask, %function
 235              	_SlNonOsMainLoopTask:
 236              	.LFB3:
 114:..\..\..\..\..\simplelink\source/nonos.c **** 
 115:..\..\..\..\..\simplelink\source/nonos.c **** 
 116:..\..\..\..\..\simplelink\source/nonos.c **** _SlNonOsRetVal_t _SlNonOsMainLoopTask(void)
 117:..\..\..\..\..\simplelink\source/nonos.c **** {
 237              		.loc 1 117 0
 238              		.cfi_startproc
 239 0000 80B5     		push	{r7, lr}
 240              	.LCFI9:
 241              		.cfi_def_cfa_offset 8
 242              		.cfi_offset 7, -8
 243              		.cfi_offset 14, -4
 244 0002 84B0     		sub	sp, sp, #16
 245              	.LCFI10:
 246              		.cfi_def_cfa_offset 24
 247 0004 00AF     		add	r7, sp, #0
 248              	.LCFI11:
 249              		.cfi_def_cfa_register 7
 118:..\..\..\..\..\simplelink\source/nonos.c **** 	int i;
 119:..\..\..\..\..\simplelink\source/nonos.c **** 	
 120:..\..\..\..\..\simplelink\source/nonos.c **** 	for (i=0 ; i<NONOS_MAX_SPAWN_ENTRIES ; i++)
 250              		.loc 1 120 0
 251 0006 0023     		mov	r3, #0
 252 0008 FB60     		str	r3, [r7, #12]
 253 000a 20E0     		b	.L20
 254              	.L23:
 255              	.LBB3:
 121:..\..\..\..\..\simplelink\source/nonos.c **** 	{
 122:..\..\..\..\..\simplelink\source/nonos.c **** 		_SlNonOsSpawnEntry_t* pE = &g__SlNonOsCB.SpawnEntries[i];
 256              		.loc 1 122 0
 257 000c FB68     		ldr	r3, [r7, #12]
 258 000e DA00     		lsl	r2, r3, #3
 259 0010 134B     		ldr	r3, .L25
 260 0012 D318     		add	r3, r2, r3
 261 0014 BB60     		str	r3, [r7, #8]
 123:..\..\..\..\..\simplelink\source/nonos.c **** 		_SlSpawnEntryFunc_t 		pF = pE->pEntry;
 262              		.loc 1 123 0
 263 0016 BB68     		ldr	r3, [r7, #8]
 264 0018 1B68     		ldr	r3, [r3]
 265 001a 7B60     		str	r3, [r7, #4]
 124:..\..\..\..\..\simplelink\source/nonos.c **** 		
 125:..\..\..\..\..\simplelink\source/nonos.c **** 		if (NULL != pF)
 266              		.loc 1 125 0
 267 001c 7B68     		ldr	r3, [r7, #4]
 268 001e 002B     		cmp	r3, #0
 269 0020 12D0     		beq	.L21
 126:..\..\..\..\..\simplelink\source/nonos.c **** 		{
 127:..\..\..\..\..\simplelink\source/nonos.c ****                         if((g_pCB)->RxIrqCnt != (g_pCB)->RxDoneCnt)
ARM GAS  C:\Users\X0217454\AppData\Local\Temp\cc8dKisV.s 			page 8


 270              		.loc 1 127 0
 271 0022 104B     		ldr	r3, .L25+4
 272 0024 1A68     		ldr	r2, [r3]
 273 0026 9723     		mov	r3, #151
 274 0028 D25C     		ldrb	r2, [r2, r3]
 275 002a 0E4B     		ldr	r3, .L25+4
 276 002c 1968     		ldr	r1, [r3]
 277 002e 9823     		mov	r3, #152
 278 0030 CB5C     		ldrb	r3, [r1, r3]
 279 0032 9A42     		cmp	r2, r3
 280 0034 02D0     		beq	.L22
 128:..\..\..\..\..\simplelink\source/nonos.c ****             {
 129:..\..\..\..\..\simplelink\source/nonos.c **** 				pF(0);/*(pValue);*/
 281              		.loc 1 129 0
 282 0036 7B68     		ldr	r3, [r7, #4]
 283 0038 0020     		mov	r0, #0
 284 003a 9847     		blx	r3
 285              	.L22:
 130:..\..\..\..\..\simplelink\source/nonos.c **** 		}
 131:..\..\..\..\..\simplelink\source/nonos.c **** 			pE->pEntry = NULL;
 286              		.loc 1 131 0
 287 003c BB68     		ldr	r3, [r7, #8]
 288 003e 0022     		mov	r2, #0
 289 0040 1A60     		str	r2, [r3]
 132:..\..\..\..\..\simplelink\source/nonos.c **** 			pE->pValue = NULL;
 290              		.loc 1 132 0
 291 0042 BB68     		ldr	r3, [r7, #8]
 292 0044 0022     		mov	r2, #0
 293 0046 5A60     		str	r2, [r3, #4]
 294              	.L21:
 295              	.LBE3:
 120:..\..\..\..\..\simplelink\source/nonos.c **** 	for (i=0 ; i<NONOS_MAX_SPAWN_ENTRIES ; i++)
 296              		.loc 1 120 0
 297 0048 FB68     		ldr	r3, [r7, #12]
 298 004a 0133     		add	r3, r3, #1
 299 004c FB60     		str	r3, [r7, #12]
 300              	.L20:
 120:..\..\..\..\..\simplelink\source/nonos.c **** 	for (i=0 ; i<NONOS_MAX_SPAWN_ENTRIES ; i++)
 301              		.loc 1 120 0 is_stmt 0 discriminator 1
 302 004e FB68     		ldr	r3, [r7, #12]
 303 0050 042B     		cmp	r3, #4
 304 0052 DBDD     		ble	.L23
 133:..\..\..\..\..\simplelink\source/nonos.c **** 		}
 134:..\..\..\..\..\simplelink\source/nonos.c **** 	}
 135:..\..\..\..\..\simplelink\source/nonos.c ****         
 136:..\..\..\..\..\simplelink\source/nonos.c ****         return NONOS_RET_OK;
 305              		.loc 1 136 0 is_stmt 1
 306 0054 0023     		mov	r3, #0
 137:..\..\..\..\..\simplelink\source/nonos.c **** }
 307              		.loc 1 137 0
 308 0056 181C     		mov	r0, r3
 309 0058 BD46     		mov	sp, r7
 310 005a 04B0     		add	sp, sp, #16
 311              		@ sp needed for prologue
 312 005c 80BD     		pop	{r7, pc}
 313              	.L26:
 314 005e C046     		.align	2
ARM GAS  C:\Users\X0217454\AppData\Local\Temp\cc8dKisV.s 			page 9


 315              	.L25:
 316 0060 00000000 		.word	g__SlNonOsCB
 317 0064 00000000 		.word	g_pCB
 318              		.cfi_endproc
 319              	.LFE3:
 320              		.size	_SlNonOsMainLoopTask, .-_SlNonOsMainLoopTask
 321              		.text
 322              	.Letext0:
 323              		.file 2 "..\\..\\..\\..\\..\\simplelink\\source\\datatypes.h"
 324              		.file 3 "..\\..\\..\\..\\..\\simplelink\\include/simplelink.h"
 325              		.file 4 "..\\..\\..\\..\\..\\simplelink\\include/../source/nonos.h"
 326              		.file 5 "..\\..\\..\\..\\..\\simplelink\\include/device.h"
 327              		.file 6 "..\\..\\..\\..\\..\\simplelink\\source\\protocol.h"
 328              		.file 7 "..\\..\\..\\..\\..\\simplelink\\source\\driver.h"