ARM GAS  C:\Users\X0217454\AppData\Local\Temp\cc5FLHAl.s 			page 1


   1              		.cpu cortex-m0
   2              		.fpu softvfp
   3              		.eabi_attribute 20, 1
   4              		.eabi_attribute 21, 1
   5              		.eabi_attribute 23, 3
   6              		.eabi_attribute 24, 1
   7              		.eabi_attribute 25, 1
   8              		.eabi_attribute 26, 1
   9              		.eabi_attribute 30, 6
  10              		.eabi_attribute 34, 0
  11              		.eabi_attribute 18, 4
  12              		.code	16
  13              		.file	"socket.c"
  14              		.text
  15              	.Ltext0:
  16              		.cfi_sections	.debug_frame
  17              		.section	.text._sl_BuildAddress,"ax",%progbits
  18              		.align	2
  19              		.global	_sl_BuildAddress
  20              		.code	16
  21              		.thumb_func
  22              		.type	_sl_BuildAddress, %function
  23              	_sl_BuildAddress:
  24              	.LFB0:
  25              		.file 1 "..\\..\\..\\..\\..\\simplelink\\source\\socket.c"
   1:..\..\..\..\..\simplelink\source/socket.c **** /*
   2:..\..\..\..\..\simplelink\source/socket.c ****  * socket.c - CC31xx/CC32xx Host Driver Implementation
   3:..\..\..\..\..\simplelink\source/socket.c ****  *
   4:..\..\..\..\..\simplelink\source/socket.c ****  * Copyright (C) 2014 Texas Instruments Incorporated - http://www.ti.com/ 
   5:..\..\..\..\..\simplelink\source/socket.c ****  * 
   6:..\..\..\..\..\simplelink\source/socket.c ****  * 
   7:..\..\..\..\..\simplelink\source/socket.c ****  *  Redistribution and use in source and binary forms, with or without 
   8:..\..\..\..\..\simplelink\source/socket.c ****  *  modification, are permitted provided that the following conditions 
   9:..\..\..\..\..\simplelink\source/socket.c ****  *  are met:
  10:..\..\..\..\..\simplelink\source/socket.c ****  *
  11:..\..\..\..\..\simplelink\source/socket.c ****  *    Redistributions of source code must retain the above copyright 
  12:..\..\..\..\..\simplelink\source/socket.c ****  *    notice, this list of conditions and the following disclaimer.
  13:..\..\..\..\..\simplelink\source/socket.c ****  *
  14:..\..\..\..\..\simplelink\source/socket.c ****  *    Redistributions in binary form must reproduce the above copyright
  15:..\..\..\..\..\simplelink\source/socket.c ****  *    notice, this list of conditions and the following disclaimer in the 
  16:..\..\..\..\..\simplelink\source/socket.c ****  *    documentation and/or other materials provided with the   
  17:..\..\..\..\..\simplelink\source/socket.c ****  *    distribution.
  18:..\..\..\..\..\simplelink\source/socket.c ****  *
  19:..\..\..\..\..\simplelink\source/socket.c ****  *    Neither the name of Texas Instruments Incorporated nor the names of
  20:..\..\..\..\..\simplelink\source/socket.c ****  *    its contributors may be used to endorse or promote products derived
  21:..\..\..\..\..\simplelink\source/socket.c ****  *    from this software without specific prior written permission.
  22:..\..\..\..\..\simplelink\source/socket.c ****  *
  23:..\..\..\..\..\simplelink\source/socket.c ****  *  THIS SOFTWARE IS PROVIDED BY THE COPYRIGHT HOLDERS AND CONTRIBUTORS 
  24:..\..\..\..\..\simplelink\source/socket.c ****  *  "AS IS" AND ANY EXPRESS OR IMPLIED WARRANTIES, INCLUDING, BUT NOT 
  25:..\..\..\..\..\simplelink\source/socket.c ****  *  LIMITED TO, THE IMPLIED WARRANTIES OF MERCHANTABILITY AND FITNESS FOR
  26:..\..\..\..\..\simplelink\source/socket.c ****  *  A PARTICULAR PURPOSE ARE DISCLAIMED. IN NO EVENT SHALL THE COPYRIGHT 
  27:..\..\..\..\..\simplelink\source/socket.c ****  *  OWNER OR CONTRIBUTORS BE LIABLE FOR ANY DIRECT, INDIRECT, INCIDENTAL, 
  28:..\..\..\..\..\simplelink\source/socket.c ****  *  SPECIAL, EXEMPLARY, OR CONSEQUENTIAL DAMAGES (INCLUDING, BUT NOT 
  29:..\..\..\..\..\simplelink\source/socket.c ****  *  LIMITED TO, PROCUREMENT OF SUBSTITUTE GOODS OR SERVICES; LOSS OF USE,
  30:..\..\..\..\..\simplelink\source/socket.c ****  *  DATA, OR PROFITS; OR BUSINESS INTERRUPTION) HOWEVER CAUSED AND ON ANY
  31:..\..\..\..\..\simplelink\source/socket.c ****  *  THEORY OF LIABILITY, WHETHER IN CONTRACT, STRICT LIABILITY, OR TORT 
  32:..\..\..\..\..\simplelink\source/socket.c ****  *  (INCLUDING NEGLIGENCE OR OTHERWISE) ARISING IN ANY WAY OUT OF THE USE 
ARM GAS  C:\Users\X0217454\AppData\Local\Temp\cc5FLHAl.s 			page 2


  33:..\..\..\..\..\simplelink\source/socket.c ****  *  OF THIS SOFTWARE, EVEN IF ADVISED OF THE POSSIBILITY OF SUCH DAMAGE.
  34:..\..\..\..\..\simplelink\source/socket.c ****  *
  35:..\..\..\..\..\simplelink\source/socket.c **** */
  36:..\..\..\..\..\simplelink\source/socket.c ****     
  37:..\..\..\..\..\simplelink\source/socket.c **** 
  38:..\..\..\..\..\simplelink\source/socket.c **** /*****************************************************************************
  39:..\..\..\..\..\simplelink\source/socket.c **** 
  40:..\..\..\..\..\simplelink\source/socket.c ****     API Prototypes
  41:..\..\..\..\..\simplelink\source/socket.c **** 
  42:..\..\..\..\..\simplelink\source/socket.c ****  *****************************************************************************/
  43:..\..\..\..\..\simplelink\source/socket.c **** 
  44:..\..\..\..\..\simplelink\source/socket.c **** #include "datatypes.h"
  45:..\..\..\..\..\simplelink\source/socket.c **** #include "simplelink.h"
  46:..\..\..\..\..\simplelink\source/socket.c **** #include "protocol.h"
  47:..\..\..\..\..\simplelink\source/socket.c **** #include "driver.h"
  48:..\..\..\..\..\simplelink\source/socket.c **** 
  49:..\..\..\..\..\simplelink\source/socket.c **** 
  50:..\..\..\..\..\simplelink\source/socket.c **** void   _sl_BuildAddress(const SlSockAddr_t *addr, int addrlen, _SocketAddrCommand_u    *pCmd);
  51:..\..\..\..\..\simplelink\source/socket.c **** void   _sl_ParseAddress(_SocketAddrResponse_u *pRsp, SlSockAddr_t *addr, SlSocklen_t *addrlen);
  52:..\..\..\..\..\simplelink\source/socket.c **** void   _sl_HandleAsync_Connect(void *pVoidBuf);
  53:..\..\..\..\..\simplelink\source/socket.c **** void   _sl_HandleAsync_Accept(void *pVoidBuf);
  54:..\..\..\..\..\simplelink\source/socket.c **** void   _sl_HandleAsync_Select(void *pVoidBuf);
  55:..\..\..\..\..\simplelink\source/socket.c **** unsigned int _sl_TruncatePayloadByProtocol(const UINT8 pSd,const unsigned int length);  
  56:..\..\..\..\..\simplelink\source/socket.c **** 
  57:..\..\..\..\..\simplelink\source/socket.c **** 
  58:..\..\..\..\..\simplelink\source/socket.c **** 
  59:..\..\..\..\..\simplelink\source/socket.c **** /* ******************************************************************************/
  60:..\..\..\..\..\simplelink\source/socket.c **** /*  _sl_BuildAddress */
  61:..\..\..\..\..\simplelink\source/socket.c **** /* ******************************************************************************/
  62:..\..\..\..\..\simplelink\source/socket.c **** void _sl_BuildAddress(const SlSockAddr_t *addr, int addrlen, _SocketAddrCommand_u    *pCmd)
  63:..\..\..\..\..\simplelink\source/socket.c **** {
  26              		.loc 1 63 0
  27              		.cfi_startproc
  28 0000 80B5     		push	{r7, lr}
  29              	.LCFI0:
  30              		.cfi_def_cfa_offset 8
  31              		.cfi_offset 7, -8
  32              		.cfi_offset 14, -4
  33 0002 84B0     		sub	sp, sp, #16
  34              	.LCFI1:
  35              		.cfi_def_cfa_offset 24
  36 0004 00AF     		add	r7, sp, #0
  37              	.LCFI2:
  38              		.cfi_def_cfa_register 7
  39 0006 F860     		str	r0, [r7, #12]
  40 0008 B960     		str	r1, [r7, #8]
  41 000a 7A60     		str	r2, [r7, #4]
  64:..\..\..\..\..\simplelink\source/socket.c **** 
  65:..\..\..\..\..\simplelink\source/socket.c ****     /*  Note: parsing of family and port in the generic way for all IPV4, IPV6 and EUI48 */
  66:..\..\..\..\..\simplelink\source/socket.c ****     /*  is possible as long as these parameters are in the same offset and size for these */
  67:..\..\..\..\..\simplelink\source/socket.c ****     /*  three families. */
  68:..\..\..\..\..\simplelink\source/socket.c ****     pCmd->IpV4.FamilyAndFlags = (addr->sa_family << 4) & 0xF0;
  42              		.loc 1 68 0
  43 000c FB68     		ldr	r3, [r7, #12]
  44 000e 1B88     		ldrh	r3, [r3]
  45 0010 1B01     		lsl	r3, r3, #4
  46 0012 DAB2     		uxtb	r2, r3
ARM GAS  C:\Users\X0217454\AppData\Local\Temp\cc5FLHAl.s 			page 3


  47 0014 7B68     		ldr	r3, [r7, #4]
  48 0016 DA70     		strb	r2, [r3, #3]
  69:..\..\..\..\..\simplelink\source/socket.c ****     pCmd->IpV4.port = ((SlSockAddrIn_t *)addr)->sin_port;
  49              		.loc 1 69 0
  50 0018 FB68     		ldr	r3, [r7, #12]
  51 001a 5A88     		ldrh	r2, [r3, #2]
  52 001c 7B68     		ldr	r3, [r7, #4]
  53 001e 9A80     		strh	r2, [r3, #4]
  70:..\..\..\..\..\simplelink\source/socket.c **** 
  71:..\..\..\..\..\simplelink\source/socket.c ****     if(SL_AF_INET == addr->sa_family)
  54              		.loc 1 71 0
  55 0020 FB68     		ldr	r3, [r7, #12]
  56 0022 1B88     		ldrh	r3, [r3]
  57 0024 022B     		cmp	r3, #2
  58 0026 04D1     		bne	.L2
  72:..\..\..\..\..\simplelink\source/socket.c ****     {
  73:..\..\..\..\..\simplelink\source/socket.c ****         pCmd->IpV4.address  = ((SlSockAddrIn_t *)addr)->sin_addr.s_addr;
  59              		.loc 1 73 0
  60 0028 FB68     		ldr	r3, [r7, #12]
  61 002a 5A68     		ldr	r2, [r3, #4]
  62 002c 7B68     		ldr	r3, [r7, #4]
  63 002e 9A60     		str	r2, [r3, #8]
  64 0030 0CE0     		b	.L1
  65              	.L2:
  74:..\..\..\..\..\simplelink\source/socket.c ****     }
  75:..\..\..\..\..\simplelink\source/socket.c ****     else if (SL_AF_INET6_EUI_48 == addr->sa_family )
  66              		.loc 1 75 0
  67 0032 FB68     		ldr	r3, [r7, #12]
  68 0034 1B88     		ldrh	r3, [r3]
  69 0036 092B     		cmp	r3, #9
  70 0038 08D1     		bne	.L1
  76:..\..\..\..\..\simplelink\source/socket.c ****     {
  77:..\..\..\..\..\simplelink\source/socket.c ****         sl_Memcpy( pCmd->IpV6EUI48.address,((SlSockAddrIn6_t *)addr)->sin6_addr._S6_un._S6_u8, 6);
  71              		.loc 1 77 0
  72 003a 7B68     		ldr	r3, [r7, #4]
  73 003c 9A1D     		add	r2, r3, #6
  74 003e FB68     		ldr	r3, [r7, #12]
  75 0040 0833     		add	r3, r3, #8
  76 0042 101C     		mov	r0, r2
  77 0044 191C     		mov	r1, r3
  78 0046 0622     		mov	r2, #6
  79 0048 FFF7FEFF 		bl	memcpy
  80              	.L1:
  78:..\..\..\..\..\simplelink\source/socket.c ****     }
  79:..\..\..\..\..\simplelink\source/socket.c **** #ifdef SL_SUPPORT_IPV6
  80:..\..\..\..\..\simplelink\source/socket.c ****     else
  81:..\..\..\..\..\simplelink\source/socket.c ****     {
  82:..\..\..\..\..\simplelink\source/socket.c ****         sl_Memcpy(pCmd->IpV6.address, ((sockaddr_in6 *)addr)->sin6_addr._S6_un._S6_u32, 16 );
  83:..\..\..\..\..\simplelink\source/socket.c ****     }
  84:..\..\..\..\..\simplelink\source/socket.c **** #endif
  85:..\..\..\..\..\simplelink\source/socket.c **** }
  81              		.loc 1 85 0
  82 004c BD46     		mov	sp, r7
  83 004e 04B0     		add	sp, sp, #16
  84              		@ sp needed for prologue
  85 0050 80BD     		pop	{r7, pc}
  86              		.cfi_endproc
ARM GAS  C:\Users\X0217454\AppData\Local\Temp\cc5FLHAl.s 			page 4


  87              	.LFE0:
  88              		.size	_sl_BuildAddress, .-_sl_BuildAddress
  89 0052 C046     		.section	.text._sl_TruncatePayloadByProtocol,"ax",%progbits
  90              		.align	2
  91              		.global	_sl_TruncatePayloadByProtocol
  92              		.code	16
  93              		.thumb_func
  94              		.type	_sl_TruncatePayloadByProtocol, %function
  95              	_sl_TruncatePayloadByProtocol:
  96              	.LFB1:
  86:..\..\..\..\..\simplelink\source/socket.c **** 
  87:..\..\..\..\..\simplelink\source/socket.c **** /* ******************************************************************************/
  88:..\..\..\..\..\simplelink\source/socket.c **** /*  _sl_TruncatePayloadByProtocol */
  89:..\..\..\..\..\simplelink\source/socket.c **** /* ******************************************************************************/
  90:..\..\..\..\..\simplelink\source/socket.c **** unsigned int _sl_TruncatePayloadByProtocol(const _SlSd_t sd,const unsigned int length)
  91:..\..\..\..\..\simplelink\source/socket.c **** {
  97              		.loc 1 91 0
  98              		.cfi_startproc
  99 0000 80B5     		push	{r7, lr}
 100              	.LCFI3:
 101              		.cfi_def_cfa_offset 8
 102              		.cfi_offset 7, -8
 103              		.cfi_offset 14, -4
 104 0002 84B0     		sub	sp, sp, #16
 105              	.LCFI4:
 106              		.cfi_def_cfa_offset 24
 107 0004 00AF     		add	r7, sp, #0
 108              	.LCFI5:
 109              		.cfi_def_cfa_register 7
 110 0006 021C     		mov	r2, r0
 111 0008 3960     		str	r1, [r7]
 112 000a FB1D     		add	r3, r7, #7
 113 000c 1A70     		strb	r2, [r3]
  92:..\..\..\..\..\simplelink\source/socket.c ****    unsigned int maxLength; 
  93:..\..\..\..\..\simplelink\source/socket.c ****    
  94:..\..\..\..\..\simplelink\source/socket.c ****    switch(sd & SL_SOCKET_PAYLOAD_TYPE_MASK)
 114              		.loc 1 94 0
 115 000e FB1D     		add	r3, r7, #7
 116 0010 1A78     		ldrb	r2, [r3]
 117 0012 F023     		mov	r3, #240
 118 0014 1340     		and	r3, r2
 119 0016 502B     		cmp	r3, #80
 120 0018 28D0     		beq	.L10
 121 001a 0CDC     		bgt	.L15
 122 001c 202B     		cmp	r3, #32
 123 001e 1ED0     		beq	.L8
 124 0020 04DC     		bgt	.L16
 125 0022 002B     		cmp	r3, #0
 126 0024 14D0     		beq	.L6
 127 0026 102B     		cmp	r3, #16
 128 0028 16D0     		beq	.L7
 129 002a 2FE0     		b	.L5
 130              	.L16:
 131 002c 302B     		cmp	r3, #48
 132 002e 19D0     		beq	.L9
 133 0030 402B     		cmp	r3, #64
 134 0032 1BD0     		beq	.L10
ARM GAS  C:\Users\X0217454\AppData\Local\Temp\cc5FLHAl.s 			page 5


 135 0034 2AE0     		b	.L5
 136              	.L15:
 137 0036 802B     		cmp	r3, #128
 138 0038 1ED0     		beq	.L12
 139 003a 04DC     		bgt	.L17
 140 003c 602B     		cmp	r3, #96
 141 003e 18D0     		beq	.L11
 142 0040 702B     		cmp	r3, #112
 143 0042 16D0     		beq	.L11
 144 0044 22E0     		b	.L5
 145              	.L17:
 146 0046 902B     		cmp	r3, #144
 147 0048 19D0     		beq	.L13
 148 004a A02B     		cmp	r3, #160
 149 004c 1AD0     		beq	.L14
 150 004e 1DE0     		b	.L5
 151              	.L6:
  95:..\..\..\..\..\simplelink\source/socket.c ****    {
  96:..\..\..\..\..\simplelink\source/socket.c ****       case SL_SOCKET_PAYLOAD_TYPE_UDP_IPV4:
  97:..\..\..\..\..\simplelink\source/socket.c ****          maxLength = 1472;
 152              		.loc 1 97 0
 153 0050 B823     		mov	r3, #184
 154 0052 DB00     		lsl	r3, r3, #3
 155 0054 FB60     		str	r3, [r7, #12]
  98:..\..\..\..\..\simplelink\source/socket.c ****       break;
 156              		.loc 1 98 0
 157 0056 1DE0     		b	.L18
 158              	.L7:
  99:..\..\..\..\..\simplelink\source/socket.c ****       
 100:..\..\..\..\..\simplelink\source/socket.c ****       case SL_SOCKET_PAYLOAD_TYPE_TCP_IPV4:
 101:..\..\..\..\..\simplelink\source/socket.c ****          maxLength = 1460;
 159              		.loc 1 101 0
 160 0058 144B     		ldr	r3, .L21
 161 005a FB60     		str	r3, [r7, #12]
 102:..\..\..\..\..\simplelink\source/socket.c ****       break;
 162              		.loc 1 102 0
 163 005c 1AE0     		b	.L18
 164              	.L8:
 103:..\..\..\..\..\simplelink\source/socket.c ****       
 104:..\..\..\..\..\simplelink\source/socket.c ****       case SL_SOCKET_PAYLOAD_TYPE_UDP_IPV6:
 105:..\..\..\..\..\simplelink\source/socket.c ****          maxLength = 1452;
 165              		.loc 1 105 0
 166 005e 144B     		ldr	r3, .L21+4
 167 0060 FB60     		str	r3, [r7, #12]
 106:..\..\..\..\..\simplelink\source/socket.c ****       break;
 168              		.loc 1 106 0
 169 0062 17E0     		b	.L18
 170              	.L9:
 107:..\..\..\..\..\simplelink\source/socket.c ****       
 108:..\..\..\..\..\simplelink\source/socket.c ****       case SL_SOCKET_PAYLOAD_TYPE_TCP_IPV6:
 109:..\..\..\..\..\simplelink\source/socket.c **** 		  maxLength = 1440;
 171              		.loc 1 109 0
 172 0064 B423     		mov	r3, #180
 173 0066 DB00     		lsl	r3, r3, #3
 174 0068 FB60     		str	r3, [r7, #12]
 110:..\..\..\..\..\simplelink\source/socket.c **** 	  break;
 175              		.loc 1 110 0
ARM GAS  C:\Users\X0217454\AppData\Local\Temp\cc5FLHAl.s 			page 6


 176 006a 13E0     		b	.L18
 177              	.L10:
 111:..\..\..\..\..\simplelink\source/socket.c ****       case SL_SOCKET_PAYLOAD_TYPE_TCP_IPV4_SECURE:
 112:..\..\..\..\..\simplelink\source/socket.c ****       case SL_SOCKET_PAYLOAD_TYPE_UDP_IPV4_SECURE:
 113:..\..\..\..\..\simplelink\source/socket.c **** 		  maxLength = 1402;
 178              		.loc 1 113 0
 179 006c 114B     		ldr	r3, .L21+8
 180 006e FB60     		str	r3, [r7, #12]
 114:..\..\..\..\..\simplelink\source/socket.c **** 	  break;
 181              		.loc 1 114 0
 182 0070 10E0     		b	.L18
 183              	.L11:
 115:..\..\..\..\..\simplelink\source/socket.c ****       case SL_SOCKET_PAYLOAD_TYPE_UDP_IPV6_SECURE:
 116:..\..\..\..\..\simplelink\source/socket.c ****       case SL_SOCKET_PAYLOAD_TYPE_TCP_IPV6_SECURE:
 117:..\..\..\..\..\simplelink\source/socket.c ****          maxLength = 1396;
 184              		.loc 1 117 0
 185 0072 114B     		ldr	r3, .L21+12
 186 0074 FB60     		str	r3, [r7, #12]
 118:..\..\..\..\..\simplelink\source/socket.c ****       break;
 187              		.loc 1 118 0
 188 0076 0DE0     		b	.L18
 189              	.L12:
 119:..\..\..\..\..\simplelink\source/socket.c ****       case SL_SOCKET_PAYLOAD_TYPE_RAW_TRANCEIVER:
 120:..\..\..\..\..\simplelink\source/socket.c ****            maxLength = 1476;
 190              		.loc 1 120 0
 191 0078 104B     		ldr	r3, .L21+16
 192 007a FB60     		str	r3, [r7, #12]
 121:..\..\..\..\..\simplelink\source/socket.c ****       break;
 193              		.loc 1 121 0
 194 007c 0AE0     		b	.L18
 195              	.L13:
 122:..\..\..\..\..\simplelink\source/socket.c ****      case SL_SOCKET_PAYLOAD_TYPE_RAW_PACKET:
 123:..\..\..\..\..\simplelink\source/socket.c ****            maxLength = 1514;
 196              		.loc 1 123 0
 197 007e 104B     		ldr	r3, .L21+20
 198 0080 FB60     		str	r3, [r7, #12]
 124:..\..\..\..\..\simplelink\source/socket.c ****       break;
 199              		.loc 1 124 0
 200 0082 07E0     		b	.L18
 201              	.L14:
 125:..\..\..\..\..\simplelink\source/socket.c **** 	 case SL_SOCKET_PAYLOAD_TYPE_RAW_IP4:
 126:..\..\..\..\..\simplelink\source/socket.c ****            maxLength = 1480;
 202              		.loc 1 126 0
 203 0084 B923     		mov	r3, #185
 204 0086 DB00     		lsl	r3, r3, #3
 205 0088 FB60     		str	r3, [r7, #12]
 127:..\..\..\..\..\simplelink\source/socket.c ****       break;
 206              		.loc 1 127 0
 207 008a 03E0     		b	.L18
 208              	.L5:
 128:..\..\..\..\..\simplelink\source/socket.c ****       default:
 129:..\..\..\..\..\simplelink\source/socket.c ****            maxLength = 1440;
 209              		.loc 1 129 0
 210 008c B423     		mov	r3, #180
 211 008e DB00     		lsl	r3, r3, #3
 212 0090 FB60     		str	r3, [r7, #12]
 130:..\..\..\..\..\simplelink\source/socket.c ****       break;
ARM GAS  C:\Users\X0217454\AppData\Local\Temp\cc5FLHAl.s 			page 7


 213              		.loc 1 130 0
 214 0092 C046     		mov	r8, r8
 215              	.L18:
 131:..\..\..\..\..\simplelink\source/socket.c ****    }
 132:..\..\..\..\..\simplelink\source/socket.c ****    
 133:..\..\..\..\..\simplelink\source/socket.c ****    if( length > maxLength )
 216              		.loc 1 133 0
 217 0094 3A68     		ldr	r2, [r7]
 218 0096 FB68     		ldr	r3, [r7, #12]
 219 0098 9A42     		cmp	r2, r3
 220 009a 01D9     		bls	.L19
 134:..\..\..\..\..\simplelink\source/socket.c ****    {
 135:..\..\..\..\..\simplelink\source/socket.c ****       return maxLength;
 221              		.loc 1 135 0
 222 009c FB68     		ldr	r3, [r7, #12]
 223 009e 00E0     		b	.L20
 224              	.L19:
 136:..\..\..\..\..\simplelink\source/socket.c ****    }
 137:..\..\..\..\..\simplelink\source/socket.c ****    else
 138:..\..\..\..\..\simplelink\source/socket.c ****    {
 139:..\..\..\..\..\simplelink\source/socket.c ****       return length;
 225              		.loc 1 139 0
 226 00a0 3B68     		ldr	r3, [r7]
 227              	.L20:
 140:..\..\..\..\..\simplelink\source/socket.c ****    }
 141:..\..\..\..\..\simplelink\source/socket.c **** }
 228              		.loc 1 141 0
 229 00a2 181C     		mov	r0, r3
 230 00a4 BD46     		mov	sp, r7
 231 00a6 04B0     		add	sp, sp, #16
 232              		@ sp needed for prologue
 233 00a8 80BD     		pop	{r7, pc}
 234              	.L22:
 235 00aa C046     		.align	2
 236              	.L21:
 237 00ac B4050000 		.word	1460
 238 00b0 AC050000 		.word	1452
 239 00b4 7A050000 		.word	1402
 240 00b8 74050000 		.word	1396
 241 00bc C4050000 		.word	1476
 242 00c0 EA050000 		.word	1514
 243              		.cfi_endproc
 244              	.LFE1:
 245              		.size	_sl_TruncatePayloadByProtocol, .-_sl_TruncatePayloadByProtocol
 246              		.section	.text._sl_ParseAddress,"ax",%progbits
 247              		.align	2
 248              		.global	_sl_ParseAddress
 249              		.code	16
 250              		.thumb_func
 251              		.type	_sl_ParseAddress, %function
 252              	_sl_ParseAddress:
 253              	.LFB2:
 142:..\..\..\..\..\simplelink\source/socket.c **** 
 143:..\..\..\..\..\simplelink\source/socket.c **** /*******************************************************************************/
 144:..\..\..\..\..\simplelink\source/socket.c **** /*  _sl_ParseAddress */
 145:..\..\..\..\..\simplelink\source/socket.c **** /*******************************************************************************/
 146:..\..\..\..\..\simplelink\source/socket.c **** void _sl_ParseAddress(_SocketAddrResponse_u    *pRsp, SlSockAddr_t *addr, SlSocklen_t *addrlen)
ARM GAS  C:\Users\X0217454\AppData\Local\Temp\cc5FLHAl.s 			page 8


 147:..\..\..\..\..\simplelink\source/socket.c **** {
 254              		.loc 1 147 0
 255              		.cfi_startproc
 256 0000 80B5     		push	{r7, lr}
 257              	.LCFI6:
 258              		.cfi_def_cfa_offset 8
 259              		.cfi_offset 7, -8
 260              		.cfi_offset 14, -4
 261 0002 84B0     		sub	sp, sp, #16
 262              	.LCFI7:
 263              		.cfi_def_cfa_offset 24
 264 0004 00AF     		add	r7, sp, #0
 265              	.LCFI8:
 266              		.cfi_def_cfa_register 7
 267 0006 F860     		str	r0, [r7, #12]
 268 0008 B960     		str	r1, [r7, #8]
 269 000a 7A60     		str	r2, [r7, #4]
 148:..\..\..\..\..\simplelink\source/socket.c ****     /*  Note: parsing of family and port in the generic way for all IPV4, IPV6 and EUI48 */
 149:..\..\..\..\..\simplelink\source/socket.c ****     /*  is possible as long as these parameters are in the same offset and size for these */
 150:..\..\..\..\..\simplelink\source/socket.c ****     /*  three families. */
 151:..\..\..\..\..\simplelink\source/socket.c ****     addr->sa_family                 = pRsp->IpV4.family;
 270              		.loc 1 151 0
 271 000c FB68     		ldr	r3, [r7, #12]
 272 000e DB78     		ldrb	r3, [r3, #3]
 273 0010 1A1C     		mov	r2, r3
 274 0012 BB68     		ldr	r3, [r7, #8]
 275 0014 1A80     		strh	r2, [r3]
 152:..\..\..\..\..\simplelink\source/socket.c ****     ((SlSockAddrIn_t *)addr)->sin_port = pRsp->IpV4.port;
 276              		.loc 1 152 0
 277 0016 FB68     		ldr	r3, [r7, #12]
 278 0018 9A88     		ldrh	r2, [r3, #4]
 279 001a BB68     		ldr	r3, [r7, #8]
 280 001c 5A80     		strh	r2, [r3, #2]
 153:..\..\..\..\..\simplelink\source/socket.c **** 
 154:..\..\..\..\..\simplelink\source/socket.c ****     *addrlen = (SL_AF_INET == addr->sa_family) ? sizeof(SlSockAddrIn_t) : sizeof(SlSockAddrIn6_t);
 281              		.loc 1 154 0
 282 001e BB68     		ldr	r3, [r7, #8]
 283 0020 1B88     		ldrh	r3, [r3]
 284 0022 022B     		cmp	r3, #2
 285 0024 01D1     		bne	.L24
 286              		.loc 1 154 0 is_stmt 0 discriminator 1
 287 0026 1022     		mov	r2, #16
 288 0028 00E0     		b	.L25
 289              	.L24:
 290              		.loc 1 154 0 discriminator 2
 291 002a 1C22     		mov	r2, #28
 292              	.L25:
 293              		.loc 1 154 0 discriminator 3
 294 002c 7B68     		ldr	r3, [r7, #4]
 295 002e 1A60     		str	r2, [r3]
 155:..\..\..\..\..\simplelink\source/socket.c **** 
 156:..\..\..\..\..\simplelink\source/socket.c ****     if(SL_AF_INET == addr->sa_family)
 296              		.loc 1 156 0 is_stmt 1 discriminator 3
 297 0030 BB68     		ldr	r3, [r7, #8]
 298 0032 1B88     		ldrh	r3, [r3]
 299 0034 022B     		cmp	r3, #2
 300 0036 04D1     		bne	.L26
ARM GAS  C:\Users\X0217454\AppData\Local\Temp\cc5FLHAl.s 			page 9


 157:..\..\..\..\..\simplelink\source/socket.c ****     {
 158:..\..\..\..\..\simplelink\source/socket.c ****         ((SlSockAddrIn_t *)addr)->sin_addr.s_addr  = pRsp->IpV4.address;
 301              		.loc 1 158 0
 302 0038 FB68     		ldr	r3, [r7, #12]
 303 003a 9A68     		ldr	r2, [r3, #8]
 304 003c BB68     		ldr	r3, [r7, #8]
 305 003e 5A60     		str	r2, [r3, #4]
 306 0040 0DE0     		b	.L23
 307              	.L26:
 159:..\..\..\..\..\simplelink\source/socket.c ****     }
 160:..\..\..\..\..\simplelink\source/socket.c ****     else if (SL_AF_INET6_EUI_48 == addr->sa_family )
 308              		.loc 1 160 0
 309 0042 BB68     		ldr	r3, [r7, #8]
 310 0044 1B88     		ldrh	r3, [r3]
 311 0046 092B     		cmp	r3, #9
 312 0048 09D1     		bne	.L23
 161:..\..\..\..\..\simplelink\source/socket.c ****     {
 162:..\..\..\..\..\simplelink\source/socket.c ****         sl_Memcpy(((SlSockAddrIn6_t *)addr)->sin6_addr._S6_un._S6_u8, pRsp->IpV6EUI48.address, 6);
 313              		.loc 1 162 0
 314 004a BB68     		ldr	r3, [r7, #8]
 315 004c 1A1C     		mov	r2, r3
 316 004e 0832     		add	r2, r2, #8
 317 0050 FB68     		ldr	r3, [r7, #12]
 318 0052 0633     		add	r3, r3, #6
 319 0054 101C     		mov	r0, r2
 320 0056 191C     		mov	r1, r3
 321 0058 0622     		mov	r2, #6
 322 005a FFF7FEFF 		bl	memcpy
 323              	.L23:
 163:..\..\..\..\..\simplelink\source/socket.c ****     }
 164:..\..\..\..\..\simplelink\source/socket.c **** #ifdef SL_SUPPORT_IPV6
 165:..\..\..\..\..\simplelink\source/socket.c ****     else
 166:..\..\..\..\..\simplelink\source/socket.c ****     {
 167:..\..\..\..\..\simplelink\source/socket.c ****         sl_Memcpy(((sockaddr_in6 *)addr)->sin6_addr._S6_un._S6_u32, pRsp->IpV6.address, 16);
 168:..\..\..\..\..\simplelink\source/socket.c ****     }
 169:..\..\..\..\..\simplelink\source/socket.c **** #endif
 170:..\..\..\..\..\simplelink\source/socket.c **** }
 324              		.loc 1 170 0
 325 005e BD46     		mov	sp, r7
 326 0060 04B0     		add	sp, sp, #16
 327              		@ sp needed for prologue
 328 0062 80BD     		pop	{r7, pc}
 329              		.cfi_endproc
 330              	.LFE2:
 331              		.size	_sl_ParseAddress, .-_sl_ParseAddress
 332              		.global	_SlSockSocketCmdCtrl
 333              		.section	.rodata
 334              		.align	2
 335              		.type	_SlSockSocketCmdCtrl, %object
 336              		.size	_SlSockSocketCmdCtrl, 4
 337              	_SlSockSocketCmdCtrl:
 338 0000 0194     		.short	-27647
 339 0002 04       		.byte	4
 340 0003 04       		.byte	4
 341              		.section	.text.sl_Socket,"ax",%progbits
 342              		.align	2
 343              		.global	sl_Socket
ARM GAS  C:\Users\X0217454\AppData\Local\Temp\cc5FLHAl.s 			page 10


 344              		.code	16
 345              		.thumb_func
 346              		.type	sl_Socket, %function
 347              	sl_Socket:
 348              	.LFB3:
 171:..\..\..\..\..\simplelink\source/socket.c **** 
 172:..\..\..\..\..\simplelink\source/socket.c **** /*******************************************************************************/
 173:..\..\..\..\..\simplelink\source/socket.c **** /* sl_Socket */
 174:..\..\..\..\..\simplelink\source/socket.c **** /*******************************************************************************/
 175:..\..\..\..\..\simplelink\source/socket.c **** typedef union
 176:..\..\..\..\..\simplelink\source/socket.c **** {
 177:..\..\..\..\..\simplelink\source/socket.c ****         UINT32                  Dummy;
 178:..\..\..\..\..\simplelink\source/socket.c **** 	_SocketCommand_t 	Cmd;
 179:..\..\..\..\..\simplelink\source/socket.c **** 	_SocketResponse_t	Rsp;
 180:..\..\..\..\..\simplelink\source/socket.c **** }_SlSockSocketMsg_u;
 181:..\..\..\..\..\simplelink\source/socket.c **** 
 182:..\..\..\..\..\simplelink\source/socket.c **** const _SlCmdCtrl_t _SlSockSocketCmdCtrl =
 183:..\..\..\..\..\simplelink\source/socket.c **** {
 184:..\..\..\..\..\simplelink\source/socket.c ****     SL_OPCODE_SOCKET_SOCKET,
 185:..\..\..\..\..\simplelink\source/socket.c ****     sizeof(_SocketCommand_t),
 186:..\..\..\..\..\simplelink\source/socket.c ****     sizeof(_SocketResponse_t)
 187:..\..\..\..\..\simplelink\source/socket.c **** };
 188:..\..\..\..\..\simplelink\source/socket.c **** 
 189:..\..\..\..\..\simplelink\source/socket.c **** #if _SL_INCLUDE_FUNC(sl_Socket)
 190:..\..\..\..\..\simplelink\source/socket.c **** int sl_Socket(int Domain, int Type, int Protocol)
 191:..\..\..\..\..\simplelink\source/socket.c **** {
 349              		.loc 1 191 0
 350              		.cfi_startproc
 351 0000 80B5     		push	{r7, lr}
 352              	.LCFI9:
 353              		.cfi_def_cfa_offset 8
 354              		.cfi_offset 7, -8
 355              		.cfi_offset 14, -4
 356 0002 86B0     		sub	sp, sp, #24
 357              	.LCFI10:
 358              		.cfi_def_cfa_offset 32
 359 0004 00AF     		add	r7, sp, #0
 360              	.LCFI11:
 361              		.cfi_def_cfa_register 7
 362 0006 F860     		str	r0, [r7, #12]
 363 0008 B960     		str	r1, [r7, #8]
 364 000a 7A60     		str	r2, [r7, #4]
 192:..\..\..\..\..\simplelink\source/socket.c ****     _SlSockSocketMsg_u  Msg;
 193:..\..\..\..\..\simplelink\source/socket.c **** 
 194:..\..\..\..\..\simplelink\source/socket.c ****     Msg.Cmd.Domain	    = (UINT8)Domain;
 365              		.loc 1 194 0
 366 000c FB68     		ldr	r3, [r7, #12]
 367 000e DAB2     		uxtb	r2, r3
 368 0010 3B1C     		mov	r3, r7
 369 0012 1033     		add	r3, r3, #16
 370 0014 1A70     		strb	r2, [r3]
 195:..\..\..\..\..\simplelink\source/socket.c ****     Msg.Cmd.Type     	= (UINT8)Type;
 371              		.loc 1 195 0
 372 0016 BB68     		ldr	r3, [r7, #8]
 373 0018 DAB2     		uxtb	r2, r3
 374 001a 3B1C     		mov	r3, r7
 375 001c 1133     		add	r3, r3, #17
ARM GAS  C:\Users\X0217454\AppData\Local\Temp\cc5FLHAl.s 			page 11


 376 001e 1A70     		strb	r2, [r3]
 196:..\..\..\..\..\simplelink\source/socket.c ****     Msg.Cmd.Protocol 	= (UINT8)Protocol;
 377              		.loc 1 196 0
 378 0020 7B68     		ldr	r3, [r7, #4]
 379 0022 DAB2     		uxtb	r2, r3
 380 0024 3B1C     		mov	r3, r7
 381 0026 1233     		add	r3, r3, #18
 382 0028 1A70     		strb	r2, [r3]
 383              	.LBB2:
 197:..\..\..\..\..\simplelink\source/socket.c **** 
 198:..\..\..\..\..\simplelink\source/socket.c ****     VERIFY_RET_OK(_SlDrvCmdOp((_SlCmdCtrl_t *)&_SlSockSocketCmdCtrl, &Msg, NULL));
 384              		.loc 1 198 0
 385 002a 104A     		ldr	r2, .L34
 386 002c 3B1C     		mov	r3, r7
 387 002e 1033     		add	r3, r3, #16
 388 0030 101C     		mov	r0, r2
 389 0032 191C     		mov	r1, r3
 390 0034 0022     		mov	r2, #0
 391 0036 FFF7FEFF 		bl	_SlDrvCmdOp
 392 003a 031C     		mov	r3, r0
 393 003c 7B61     		str	r3, [r7, #20]
 394 003e 7B69     		ldr	r3, [r7, #20]
 395 0040 002B     		cmp	r3, #0
 396 0042 00D0     		beq	.L29
 397              	.L30:
 398              		.loc 1 198 0 is_stmt 0 discriminator 1
 399 0044 FEE7     		b	.L30
 400              	.L29:
 401              	.LBE2:
 199:..\..\..\..\..\simplelink\source/socket.c **** 
 200:..\..\..\..\..\simplelink\source/socket.c ****     if( Msg.Rsp.statusOrLen < 0 )
 402              		.loc 1 200 0 is_stmt 1
 403 0046 3B1C     		mov	r3, r7
 404 0048 1033     		add	r3, r3, #16
 405 004a 1B88     		ldrh	r3, [r3]
 406 004c 1BB2     		sxth	r3, r3
 407 004e 002B     		cmp	r3, #0
 408 0050 04DA     		bge	.L31
 201:..\..\..\..\..\simplelink\source/socket.c **** 	{
 202:..\..\..\..\..\simplelink\source/socket.c **** 		return( Msg.Rsp.statusOrLen );
 409              		.loc 1 202 0
 410 0052 3B1C     		mov	r3, r7
 411 0054 1033     		add	r3, r3, #16
 412 0056 1B88     		ldrh	r3, [r3]
 413 0058 1BB2     		sxth	r3, r3
 414 005a 02E0     		b	.L33
 415              	.L31:
 203:..\..\..\..\..\simplelink\source/socket.c **** 	}
 204:..\..\..\..\..\simplelink\source/socket.c **** 	else
 205:..\..\..\..\..\simplelink\source/socket.c **** 	{
 206:..\..\..\..\..\simplelink\source/socket.c ****     return (int)((UINT8)Msg.Rsp.sd);
 416              		.loc 1 206 0
 417 005c 3B1C     		mov	r3, r7
 418 005e 1233     		add	r3, r3, #18
 419 0060 1B78     		ldrb	r3, [r3]
 420              	.L33:
 207:..\..\..\..\..\simplelink\source/socket.c **** }
ARM GAS  C:\Users\X0217454\AppData\Local\Temp\cc5FLHAl.s 			page 12


 208:..\..\..\..\..\simplelink\source/socket.c **** }
 421              		.loc 1 208 0
 422 0062 181C     		mov	r0, r3
 423 0064 BD46     		mov	sp, r7
 424 0066 06B0     		add	sp, sp, #24
 425              		@ sp needed for prologue
 426 0068 80BD     		pop	{r7, pc}
 427              	.L35:
 428 006a C046     		.align	2
 429              	.L34:
 430 006c 00000000 		.word	_SlSockSocketCmdCtrl
 431              		.cfi_endproc
 432              	.LFE3:
 433              		.size	sl_Socket, .-sl_Socket
 434              		.global	_SlSockCloseCmdCtrl
 435              		.section	.rodata
 436              		.align	2
 437              		.type	_SlSockCloseCmdCtrl, %object
 438              		.size	_SlSockCloseCmdCtrl, 4
 439              	_SlSockCloseCmdCtrl:
 440 0004 0294     		.short	-27646
 441 0006 04       		.byte	4
 442 0007 04       		.byte	4
 443              		.section	.text.sl_Close,"ax",%progbits
 444              		.align	2
 445              		.global	sl_Close
 446              		.code	16
 447              		.thumb_func
 448              		.type	sl_Close, %function
 449              	sl_Close:
 450              	.LFB4:
 209:..\..\..\..\..\simplelink\source/socket.c **** #endif
 210:..\..\..\..\..\simplelink\source/socket.c **** 
 211:..\..\..\..\..\simplelink\source/socket.c **** /*******************************************************************************/
 212:..\..\..\..\..\simplelink\source/socket.c **** /*  sl_Close  */
 213:..\..\..\..\..\simplelink\source/socket.c **** /*******************************************************************************/
 214:..\..\..\..\..\simplelink\source/socket.c **** typedef union
 215:..\..\..\..\..\simplelink\source/socket.c **** {
 216:..\..\..\..\..\simplelink\source/socket.c **** 	_CloseCommand_t	    Cmd;
 217:..\..\..\..\..\simplelink\source/socket.c **** 	_SocketResponse_t	Rsp;
 218:..\..\..\..\..\simplelink\source/socket.c **** }_SlSockCloseMsg_u;
 219:..\..\..\..\..\simplelink\source/socket.c **** 
 220:..\..\..\..\..\simplelink\source/socket.c **** const _SlCmdCtrl_t _SlSockCloseCmdCtrl =
 221:..\..\..\..\..\simplelink\source/socket.c **** {
 222:..\..\..\..\..\simplelink\source/socket.c **** 	SL_OPCODE_SOCKET_CLOSE,
 223:..\..\..\..\..\simplelink\source/socket.c ****     sizeof(_CloseCommand_t),
 224:..\..\..\..\..\simplelink\source/socket.c ****     sizeof(_SocketResponse_t)
 225:..\..\..\..\..\simplelink\source/socket.c **** };
 226:..\..\..\..\..\simplelink\source/socket.c **** 
 227:..\..\..\..\..\simplelink\source/socket.c **** #if _SL_INCLUDE_FUNC(sl_Close)
 228:..\..\..\..\..\simplelink\source/socket.c **** int sl_Close(int sd)
 229:..\..\..\..\..\simplelink\source/socket.c **** {
 451              		.loc 1 229 0
 452              		.cfi_startproc
 453 0000 80B5     		push	{r7, lr}
 454              	.LCFI12:
 455              		.cfi_def_cfa_offset 8
ARM GAS  C:\Users\X0217454\AppData\Local\Temp\cc5FLHAl.s 			page 13


 456              		.cfi_offset 7, -8
 457              		.cfi_offset 14, -4
 458 0002 84B0     		sub	sp, sp, #16
 459              	.LCFI13:
 460              		.cfi_def_cfa_offset 24
 461 0004 00AF     		add	r7, sp, #0
 462              	.LCFI14:
 463              		.cfi_def_cfa_register 7
 464 0006 7860     		str	r0, [r7, #4]
 230:..\..\..\..\..\simplelink\source/socket.c **** 	_SlSockCloseMsg_u   Msg;
 231:..\..\..\..\..\simplelink\source/socket.c **** 
 232:..\..\..\..\..\simplelink\source/socket.c ****     Msg.Cmd.sd = (UINT8)sd;
 465              		.loc 1 232 0
 466 0008 7B68     		ldr	r3, [r7, #4]
 467 000a DAB2     		uxtb	r2, r3
 468 000c 3B1C     		mov	r3, r7
 469 000e 0833     		add	r3, r3, #8
 470 0010 1A70     		strb	r2, [r3]
 471              	.LBB3:
 233:..\..\..\..\..\simplelink\source/socket.c **** 
 234:..\..\..\..\..\simplelink\source/socket.c ****     VERIFY_RET_OK(_SlDrvCmdOp((_SlCmdCtrl_t *)&_SlSockCloseCmdCtrl, &Msg, NULL));
 472              		.loc 1 234 0
 473 0012 0B4A     		ldr	r2, .L40
 474 0014 3B1C     		mov	r3, r7
 475 0016 0833     		add	r3, r3, #8
 476 0018 101C     		mov	r0, r2
 477 001a 191C     		mov	r1, r3
 478 001c 0022     		mov	r2, #0
 479 001e FFF7FEFF 		bl	_SlDrvCmdOp
 480 0022 031C     		mov	r3, r0
 481 0024 FB60     		str	r3, [r7, #12]
 482 0026 FB68     		ldr	r3, [r7, #12]
 483 0028 002B     		cmp	r3, #0
 484 002a 00D0     		beq	.L37
 485              	.L38:
 486              		.loc 1 234 0 is_stmt 0 discriminator 1
 487 002c FEE7     		b	.L38
 488              	.L37:
 489              	.LBE3:
 235:..\..\..\..\..\simplelink\source/socket.c **** 
 236:..\..\..\..\..\simplelink\source/socket.c ****     return Msg.Rsp.statusOrLen;
 490              		.loc 1 236 0 is_stmt 1
 491 002e 3B1C     		mov	r3, r7
 492 0030 0833     		add	r3, r3, #8
 493 0032 1B88     		ldrh	r3, [r3]
 494 0034 1BB2     		sxth	r3, r3
 237:..\..\..\..\..\simplelink\source/socket.c **** }
 495              		.loc 1 237 0
 496 0036 181C     		mov	r0, r3
 497 0038 BD46     		mov	sp, r7
 498 003a 04B0     		add	sp, sp, #16
 499              		@ sp needed for prologue
 500 003c 80BD     		pop	{r7, pc}
 501              	.L41:
 502 003e C046     		.align	2
 503              	.L40:
 504 0040 00000000 		.word	_SlSockCloseCmdCtrl
ARM GAS  C:\Users\X0217454\AppData\Local\Temp\cc5FLHAl.s 			page 14


 505              		.cfi_endproc
 506              	.LFE4:
 507              		.size	sl_Close, .-sl_Close
 508              		.section	.text.sl_Bind,"ax",%progbits
 509              		.align	2
 510              		.global	sl_Bind
 511              		.code	16
 512              		.thumb_func
 513              		.type	sl_Bind, %function
 514              	sl_Bind:
 515              	.LFB5:
 238:..\..\..\..\..\simplelink\source/socket.c **** #endif
 239:..\..\..\..\..\simplelink\source/socket.c **** 
 240:..\..\..\..\..\simplelink\source/socket.c **** /*******************************************************************************/
 241:..\..\..\..\..\simplelink\source/socket.c **** /*  sl_Bind */
 242:..\..\..\..\..\simplelink\source/socket.c **** /*******************************************************************************/
 243:..\..\..\..\..\simplelink\source/socket.c **** typedef union
 244:..\..\..\..\..\simplelink\source/socket.c **** {
 245:..\..\..\..\..\simplelink\source/socket.c **** 	_SocketAddrCommand_u    Cmd;
 246:..\..\..\..\..\simplelink\source/socket.c **** 	_SocketResponse_t	    Rsp;
 247:..\..\..\..\..\simplelink\source/socket.c **** }_SlSockBindMsg_u;
 248:..\..\..\..\..\simplelink\source/socket.c **** 
 249:..\..\..\..\..\simplelink\source/socket.c **** #if _SL_INCLUDE_FUNC(sl_Bind)
 250:..\..\..\..\..\simplelink\source/socket.c **** int sl_Bind(int sd, const SlSockAddr_t *addr, int addrlen)
 251:..\..\..\..\..\simplelink\source/socket.c **** {
 516              		.loc 1 251 0
 517              		.cfi_startproc
 518 0000 80B5     		push	{r7, lr}
 519              	.LCFI15:
 520              		.cfi_def_cfa_offset 8
 521              		.cfi_offset 7, -8
 522              		.cfi_offset 14, -4
 523 0002 8AB0     		sub	sp, sp, #40
 524              	.LCFI16:
 525              		.cfi_def_cfa_offset 48
 526 0004 00AF     		add	r7, sp, #0
 527              	.LCFI17:
 528              		.cfi_def_cfa_register 7
 529 0006 F860     		str	r0, [r7, #12]
 530 0008 B960     		str	r1, [r7, #8]
 531 000a 7A60     		str	r2, [r7, #4]
 252:..\..\..\..\..\simplelink\source/socket.c **** 	_SlSockBindMsg_u    Msg;
 253:..\..\..\..\..\simplelink\source/socket.c ****     _SlCmdCtrl_t         CmdCtrl = {0, 0, sizeof(_SocketResponse_t)};
 532              		.loc 1 253 0
 533 000c 3B1C     		mov	r3, r7
 534 000e 1433     		add	r3, r3, #20
 535 0010 0022     		mov	r2, #0
 536 0012 1A80     		strh	r2, [r3]
 537 0014 3B1C     		mov	r3, r7
 538 0016 1433     		add	r3, r3, #20
 539 0018 0022     		mov	r2, #0
 540 001a 9A70     		strb	r2, [r3, #2]
 541 001c 3B1C     		mov	r3, r7
 542 001e 1433     		add	r3, r3, #20
 543 0020 0422     		mov	r2, #4
 544 0022 DA70     		strb	r2, [r3, #3]
 254:..\..\..\..\..\simplelink\source/socket.c **** 
ARM GAS  C:\Users\X0217454\AppData\Local\Temp\cc5FLHAl.s 			page 15


 255:..\..\..\..\..\simplelink\source/socket.c ****     switch(addr->sa_family)
 545              		.loc 1 255 0
 546 0024 BB68     		ldr	r3, [r7, #8]
 547 0026 1B88     		ldrh	r3, [r3]
 548 0028 022B     		cmp	r3, #2
 549 002a 02D0     		beq	.L44
 550 002c 092B     		cmp	r3, #9
 551 002e 09D0     		beq	.L45
 552 0030 11E0     		b	.L51
 553              	.L44:
 256:..\..\..\..\..\simplelink\source/socket.c ****     {
 257:..\..\..\..\..\simplelink\source/socket.c ****         case SL_AF_INET :
 258:..\..\..\..\..\simplelink\source/socket.c ****             CmdCtrl.Opcode = SL_OPCODE_SOCKET_BIND;
 554              		.loc 1 258 0
 555 0032 3B1C     		mov	r3, r7
 556 0034 1433     		add	r3, r3, #20
 557 0036 1E4A     		ldr	r2, .L52
 558 0038 1A80     		strh	r2, [r3]
 259:..\..\..\..\..\simplelink\source/socket.c ****             CmdCtrl.TxDescLen = sizeof(_SocketAddrIPv4Command_t);
 559              		.loc 1 259 0
 560 003a 3B1C     		mov	r3, r7
 561 003c 1433     		add	r3, r3, #20
 562 003e 0C22     		mov	r2, #12
 563 0040 9A70     		strb	r2, [r3, #2]
 260:..\..\..\..\..\simplelink\source/socket.c ****             break;
 564              		.loc 1 260 0
 565 0042 0BE0     		b	.L46
 566              	.L45:
 261:..\..\..\..\..\simplelink\source/socket.c ****         case SL_AF_INET6_EUI_48:
 262:..\..\..\..\..\simplelink\source/socket.c ****             CmdCtrl.Opcode = SL_OPCODE_SOCKET_BIND_V6;
 567              		.loc 1 262 0
 568 0044 3B1C     		mov	r3, r7
 569 0046 1433     		add	r3, r3, #20
 570 0048 1A4A     		ldr	r2, .L52+4
 571 004a 1A80     		strh	r2, [r3]
 263:..\..\..\..\..\simplelink\source/socket.c ****             CmdCtrl.TxDescLen = sizeof(_SocketAddrIPv6EUI48Command_t);
 572              		.loc 1 263 0
 573 004c 3B1C     		mov	r3, r7
 574 004e 1433     		add	r3, r3, #20
 575 0050 0C22     		mov	r2, #12
 576 0052 9A70     		strb	r2, [r3, #2]
 264:..\..\..\..\..\simplelink\source/socket.c ****         	break;
 577              		.loc 1 264 0
 578 0054 02E0     		b	.L46
 579              	.L51:
 265:..\..\..\..\..\simplelink\source/socket.c **** #ifdef SL_SUPPORT_IPV6
 266:..\..\..\..\..\simplelink\source/socket.c ****         case AF_INET6:
 267:..\..\..\..\..\simplelink\source/socket.c ****             CmdCtrl.Opcode = SL_OPCODE_SOCKET_BIND_V6;
 268:..\..\..\..\..\simplelink\source/socket.c ****             CmdCtrl.TxDescLen = sizeof(_SocketAddrIPv6Command_t);
 269:..\..\..\..\..\simplelink\source/socket.c ****             break;
 270:..\..\..\..\..\simplelink\source/socket.c **** #endif
 271:..\..\..\..\..\simplelink\source/socket.c ****         case SL_AF_RF   :
 272:..\..\..\..\..\simplelink\source/socket.c ****         default:
 273:..\..\..\..\..\simplelink\source/socket.c ****             return SL_RET_CODE_INVALID_INPUT;
 580              		.loc 1 273 0
 581 0056 0223     		mov	r3, #2
 582 0058 5B42     		neg	r3, r3
ARM GAS  C:\Users\X0217454\AppData\Local\Temp\cc5FLHAl.s 			page 16


 583 005a 24E0     		b	.L50
 584              	.L46:
 274:..\..\..\..\..\simplelink\source/socket.c ****     }
 275:..\..\..\..\..\simplelink\source/socket.c **** 
 276:..\..\..\..\..\simplelink\source/socket.c ****     Msg.Cmd.IpV4.lenOrPadding = 0;
 585              		.loc 1 276 0
 586 005c 3B1C     		mov	r3, r7
 587 005e 1833     		add	r3, r3, #24
 588 0060 0022     		mov	r2, #0
 589 0062 1A80     		strh	r2, [r3]
 277:..\..\..\..\..\simplelink\source/socket.c ****     Msg.Cmd.IpV4.sd = (UINT8)sd;
 590              		.loc 1 277 0
 591 0064 FB68     		ldr	r3, [r7, #12]
 592 0066 DAB2     		uxtb	r2, r3
 593 0068 3B1C     		mov	r3, r7
 594 006a 1833     		add	r3, r3, #24
 595 006c 9A70     		strb	r2, [r3, #2]
 278:..\..\..\..\..\simplelink\source/socket.c **** 
 279:..\..\..\..\..\simplelink\source/socket.c ****     _sl_BuildAddress(addr, addrlen, &Msg.Cmd);
 596              		.loc 1 279 0
 597 006e B968     		ldr	r1, [r7, #8]
 598 0070 7A68     		ldr	r2, [r7, #4]
 599 0072 3B1C     		mov	r3, r7
 600 0074 1833     		add	r3, r3, #24
 601 0076 081C     		mov	r0, r1
 602 0078 111C     		mov	r1, r2
 603 007a 1A1C     		mov	r2, r3
 604 007c FFF7FEFF 		bl	_sl_BuildAddress
 605              	.LBB4:
 280:..\..\..\..\..\simplelink\source/socket.c **** 
 281:..\..\..\..\..\simplelink\source/socket.c ****     VERIFY_RET_OK(_SlDrvCmdOp((_SlCmdCtrl_t *)&CmdCtrl, &Msg, NULL));
 606              		.loc 1 281 0
 607 0080 3A1C     		mov	r2, r7
 608 0082 1432     		add	r2, r2, #20
 609 0084 3B1C     		mov	r3, r7
 610 0086 1833     		add	r3, r3, #24
 611 0088 101C     		mov	r0, r2
 612 008a 191C     		mov	r1, r3
 613 008c 0022     		mov	r2, #0
 614 008e FFF7FEFF 		bl	_SlDrvCmdOp
 615 0092 031C     		mov	r3, r0
 616 0094 7B62     		str	r3, [r7, #36]
 617 0096 7B6A     		ldr	r3, [r7, #36]
 618 0098 002B     		cmp	r3, #0
 619 009a 00D0     		beq	.L48
 620              	.L49:
 621              		.loc 1 281 0 is_stmt 0 discriminator 1
 622 009c FEE7     		b	.L49
 623              	.L48:
 624              	.LBE4:
 282:..\..\..\..\..\simplelink\source/socket.c **** 
 283:..\..\..\..\..\simplelink\source/socket.c ****     return Msg.Rsp.statusOrLen;
 625              		.loc 1 283 0 is_stmt 1
 626 009e 3B1C     		mov	r3, r7
 627 00a0 1833     		add	r3, r3, #24
 628 00a2 1B88     		ldrh	r3, [r3]
 629 00a4 1BB2     		sxth	r3, r3
ARM GAS  C:\Users\X0217454\AppData\Local\Temp\cc5FLHAl.s 			page 17


 630              	.L50:
 284:..\..\..\..\..\simplelink\source/socket.c **** }
 631              		.loc 1 284 0
 632 00a6 181C     		mov	r0, r3
 633 00a8 BD46     		mov	sp, r7
 634 00aa 0AB0     		add	sp, sp, #40
 635              		@ sp needed for prologue
 636 00ac 80BD     		pop	{r7, pc}
 637              	.L53:
 638 00ae C046     		.align	2
 639              	.L52:
 640 00b0 0494FFFF 		.word	-27644
 641 00b4 0496FFFF 		.word	-27132
 642              		.cfi_endproc
 643              	.LFE5:
 644              		.size	sl_Bind, .-sl_Bind
 645              		.section	.text.sl_SendTo,"ax",%progbits
 646              		.align	2
 647              		.global	sl_SendTo
 648              		.code	16
 649              		.thumb_func
 650              		.type	sl_SendTo, %function
 651              	sl_SendTo:
 652              	.LFB6:
 285:..\..\..\..\..\simplelink\source/socket.c **** #endif
 286:..\..\..\..\..\simplelink\source/socket.c **** 
 287:..\..\..\..\..\simplelink\source/socket.c **** /*******************************************************************************/
 288:..\..\..\..\..\simplelink\source/socket.c **** /*  sl_Sendto */
 289:..\..\..\..\..\simplelink\source/socket.c **** /*******************************************************************************/
 290:..\..\..\..\..\simplelink\source/socket.c **** typedef union
 291:..\..\..\..\..\simplelink\source/socket.c **** {
 292:..\..\..\..\..\simplelink\source/socket.c ****     _SocketAddrCommand_u    Cmd;
 293:..\..\..\..\..\simplelink\source/socket.c ****     /*  no response for 'sendto' commands*/
 294:..\..\..\..\..\simplelink\source/socket.c **** }_SlSendtoMsg_u;
 295:..\..\..\..\..\simplelink\source/socket.c **** 
 296:..\..\..\..\..\simplelink\source/socket.c **** #if _SL_INCLUDE_FUNC(sl_SendTo)
 297:..\..\..\..\..\simplelink\source/socket.c **** int sl_SendTo(int sd, const void *pBuf, int Len, int flags, const SlSockAddr_t *to, SlSocklen_t tol
 298:..\..\..\..\..\simplelink\source/socket.c **** {
 653              		.loc 1 298 0
 654              		.cfi_startproc
 655 0000 80B5     		push	{r7, lr}
 656              	.LCFI18:
 657              		.cfi_def_cfa_offset 8
 658              		.cfi_offset 7, -8
 659              		.cfi_offset 14, -4
 660 0002 8EB0     		sub	sp, sp, #56
 661              	.LCFI19:
 662              		.cfi_def_cfa_offset 64
 663 0004 00AF     		add	r7, sp, #0
 664              	.LCFI20:
 665              		.cfi_def_cfa_register 7
 666 0006 F860     		str	r0, [r7, #12]
 667 0008 B960     		str	r1, [r7, #8]
 668 000a 7A60     		str	r2, [r7, #4]
 669 000c 3B60     		str	r3, [r7]
 299:..\..\..\..\..\simplelink\source/socket.c ****     _SlSendtoMsg_u   Msg;
 300:..\..\..\..\..\simplelink\source/socket.c ****     _SlCmdCtrl_t     CmdCtrl = {0, 0, 0};
ARM GAS  C:\Users\X0217454\AppData\Local\Temp\cc5FLHAl.s 			page 18


 670              		.loc 1 300 0
 671 000e 3B1C     		mov	r3, r7
 672 0010 2033     		add	r3, r3, #32
 673 0012 0022     		mov	r2, #0
 674 0014 1A80     		strh	r2, [r3]
 675 0016 3B1C     		mov	r3, r7
 676 0018 2033     		add	r3, r3, #32
 677 001a 0022     		mov	r2, #0
 678 001c 9A70     		strb	r2, [r3, #2]
 679 001e 3B1C     		mov	r3, r7
 680 0020 2033     		add	r3, r3, #32
 681 0022 0022     		mov	r2, #0
 682 0024 DA70     		strb	r2, [r3, #3]
 301:..\..\..\..\..\simplelink\source/socket.c ****     _SlCmdExt_t      CmdExt;
 302:..\..\..\..\..\simplelink\source/socket.c ****     UINT16           ChunkLen;
 303:..\..\..\..\..\simplelink\source/socket.c ****     int              RetVal;
 304:..\..\..\..\..\simplelink\source/socket.c **** 
 305:..\..\..\..\..\simplelink\source/socket.c ****     CmdExt.TxPayloadLen = (UINT16)Len;
 683              		.loc 1 305 0
 684 0026 7B68     		ldr	r3, [r7, #4]
 685 0028 9AB2     		uxth	r2, r3
 686 002a 3B1C     		mov	r3, r7
 687 002c 1033     		add	r3, r3, #16
 688 002e 1A80     		strh	r2, [r3]
 306:..\..\..\..\..\simplelink\source/socket.c ****     CmdExt.RxPayloadLen = 0;
 689              		.loc 1 306 0
 690 0030 3B1C     		mov	r3, r7
 691 0032 1033     		add	r3, r3, #16
 692 0034 0022     		mov	r2, #0
 693 0036 5A80     		strh	r2, [r3, #2]
 307:..\..\..\..\..\simplelink\source/socket.c ****     CmdExt.pTxPayload = (UINT8 *)pBuf;
 694              		.loc 1 307 0
 695 0038 3B1C     		mov	r3, r7
 696 003a 1033     		add	r3, r3, #16
 697 003c BA68     		ldr	r2, [r7, #8]
 698 003e 9A60     		str	r2, [r3, #8]
 308:..\..\..\..\..\simplelink\source/socket.c ****     CmdExt.pRxPayload = NULL;
 699              		.loc 1 308 0
 700 0040 3B1C     		mov	r3, r7
 701 0042 1033     		add	r3, r3, #16
 702 0044 0022     		mov	r2, #0
 703 0046 DA60     		str	r2, [r3, #12]
 309:..\..\..\..\..\simplelink\source/socket.c **** 
 310:..\..\..\..\..\simplelink\source/socket.c **** 
 311:..\..\..\..\..\simplelink\source/socket.c ****     switch(to->sa_family)
 704              		.loc 1 311 0
 705 0048 3B6C     		ldr	r3, [r7, #64]
 706 004a 1B88     		ldrh	r3, [r3]
 707 004c 022B     		cmp	r3, #2
 708 004e 02D0     		beq	.L56
 709 0050 092B     		cmp	r3, #9
 710 0052 09D0     		beq	.L57
 711 0054 11E0     		b	.L64
 712              	.L56:
 312:..\..\..\..\..\simplelink\source/socket.c ****     {
 313:..\..\..\..\..\simplelink\source/socket.c ****         case SL_AF_INET:
 314:..\..\..\..\..\simplelink\source/socket.c ****             CmdCtrl.Opcode = SL_OPCODE_SOCKET_SENDTO;
ARM GAS  C:\Users\X0217454\AppData\Local\Temp\cc5FLHAl.s 			page 19


 713              		.loc 1 314 0
 714 0056 3B1C     		mov	r3, r7
 715 0058 2033     		add	r3, r3, #32
 716 005a 494A     		ldr	r2, .L66
 717 005c 1A80     		strh	r2, [r3]
 315:..\..\..\..\..\simplelink\source/socket.c ****             CmdCtrl.TxDescLen = sizeof(_SocketAddrIPv4Command_t);
 718              		.loc 1 315 0
 719 005e 3B1C     		mov	r3, r7
 720 0060 2033     		add	r3, r3, #32
 721 0062 0C22     		mov	r2, #12
 722 0064 9A70     		strb	r2, [r3, #2]
 316:..\..\..\..\..\simplelink\source/socket.c ****             break;
 723              		.loc 1 316 0
 724 0066 0BE0     		b	.L58
 725              	.L57:
 317:..\..\..\..\..\simplelink\source/socket.c ****         case SL_AF_INET6_EUI_48:
 318:..\..\..\..\..\simplelink\source/socket.c ****             CmdCtrl.Opcode = SL_OPCODE_SOCKET_BIND_V6;
 726              		.loc 1 318 0
 727 0068 3B1C     		mov	r3, r7
 728 006a 2033     		add	r3, r3, #32
 729 006c 454A     		ldr	r2, .L66+4
 730 006e 1A80     		strh	r2, [r3]
 319:..\..\..\..\..\simplelink\source/socket.c ****             CmdCtrl.TxDescLen = sizeof(_SocketAddrIPv6EUI48Command_t);
 731              		.loc 1 319 0
 732 0070 3B1C     		mov	r3, r7
 733 0072 2033     		add	r3, r3, #32
 734 0074 0C22     		mov	r2, #12
 735 0076 9A70     		strb	r2, [r3, #2]
 320:..\..\..\..\..\simplelink\source/socket.c ****         	break;
 736              		.loc 1 320 0
 737 0078 02E0     		b	.L58
 738              	.L64:
 321:..\..\..\..\..\simplelink\source/socket.c **** #ifdef SL_SUPPORT_IPV6
 322:..\..\..\..\..\simplelink\source/socket.c ****         case AF_INET6:
 323:..\..\..\..\..\simplelink\source/socket.c ****             CmdCtrl.Opcode = SL_OPCODE_SOCKET_SENDTO_V6;
 324:..\..\..\..\..\simplelink\source/socket.c ****             CmdCtrl.TxDescLen = sizeof(_SocketAddrIPv6Command_t);
 325:..\..\..\..\..\simplelink\source/socket.c ****             break;
 326:..\..\..\..\..\simplelink\source/socket.c **** #endif
 327:..\..\..\..\..\simplelink\source/socket.c ****         case SL_AF_RF:
 328:..\..\..\..\..\simplelink\source/socket.c ****         default:
 329:..\..\..\..\..\simplelink\source/socket.c ****             return SL_RET_CODE_INVALID_INPUT;
 739              		.loc 1 329 0
 740 007a 0223     		mov	r3, #2
 741 007c 5B42     		neg	r3, r3
 742 007e 7AE0     		b	.L63
 743              	.L58:
 330:..\..\..\..\..\simplelink\source/socket.c ****     }
 331:..\..\..\..\..\simplelink\source/socket.c **** 
 332:..\..\..\..\..\simplelink\source/socket.c ****     ChunkLen = _sl_TruncatePayloadByProtocol(sd,Len);
 744              		.loc 1 332 0
 745 0080 FB68     		ldr	r3, [r7, #12]
 746 0082 DAB2     		uxtb	r2, r3
 747 0084 7B68     		ldr	r3, [r7, #4]
 748 0086 101C     		mov	r0, r2
 749 0088 191C     		mov	r1, r3
 750 008a FFF7FEFF 		bl	_sl_TruncatePayloadByProtocol
 751 008e 021C     		mov	r2, r0
ARM GAS  C:\Users\X0217454\AppData\Local\Temp\cc5FLHAl.s 			page 20


 752 0090 3B1C     		mov	r3, r7
 753 0092 3633     		add	r3, r3, #54
 754 0094 1A80     		strh	r2, [r3]
 333:..\..\..\..\..\simplelink\source/socket.c ****     Msg.Cmd.IpV4.lenOrPadding = ChunkLen;
 755              		.loc 1 333 0
 756 0096 3B1C     		mov	r3, r7
 757 0098 3633     		add	r3, r3, #54
 758 009a 1A88     		ldrh	r2, [r3]
 759 009c 3B1C     		mov	r3, r7
 760 009e 2433     		add	r3, r3, #36
 761 00a0 1A80     		strh	r2, [r3]
 334:..\..\..\..\..\simplelink\source/socket.c ****     CmdExt.TxPayloadLen = ChunkLen;
 762              		.loc 1 334 0
 763 00a2 3B1C     		mov	r3, r7
 764 00a4 1033     		add	r3, r3, #16
 765 00a6 3A1C     		mov	r2, r7
 766 00a8 3632     		add	r2, r2, #54
 767 00aa 1288     		ldrh	r2, [r2]
 768 00ac 1A80     		strh	r2, [r3]
 335:..\..\..\..\..\simplelink\source/socket.c **** 
 336:..\..\..\..\..\simplelink\source/socket.c ****     Msg.Cmd.IpV4.sd = (UINT8)sd;
 769              		.loc 1 336 0
 770 00ae FB68     		ldr	r3, [r7, #12]
 771 00b0 DAB2     		uxtb	r2, r3
 772 00b2 3B1C     		mov	r3, r7
 773 00b4 2433     		add	r3, r3, #36
 774 00b6 9A70     		strb	r2, [r3, #2]
 337:..\..\..\..\..\simplelink\source/socket.c **** 
 338:..\..\..\..\..\simplelink\source/socket.c ****     _sl_BuildAddress(to, tolen, &Msg.Cmd);
 775              		.loc 1 338 0
 776 00b8 7A6C     		ldr	r2, [r7, #68]
 777 00ba 396C     		ldr	r1, [r7, #64]
 778 00bc 3B1C     		mov	r3, r7
 779 00be 2433     		add	r3, r3, #36
 780 00c0 081C     		mov	r0, r1
 781 00c2 111C     		mov	r1, r2
 782 00c4 1A1C     		mov	r2, r3
 783 00c6 FFF7FEFF 		bl	_sl_BuildAddress
 339:..\..\..\..\..\simplelink\source/socket.c **** 
 340:..\..\..\..\..\simplelink\source/socket.c ****     Msg.Cmd.IpV4.FamilyAndFlags |= flags & 0x0F;
 784              		.loc 1 340 0
 785 00ca 3B1C     		mov	r3, r7
 786 00cc 2433     		add	r3, r3, #36
 787 00ce DB78     		ldrb	r3, [r3, #3]
 788 00d0 DAB2     		uxtb	r2, r3
 789 00d2 3B68     		ldr	r3, [r7]
 790 00d4 DBB2     		uxtb	r3, r3
 791 00d6 191C     		add	r1, r3, #0
 792 00d8 0F23     		mov	r3, #15
 793 00da 0B40     		and	r3, r1
 794 00dc DBB2     		uxtb	r3, r3
 795 00de 1343     		orr	r3, r2
 796 00e0 DBB2     		uxtb	r3, r3
 797 00e2 DAB2     		uxtb	r2, r3
 798 00e4 3B1C     		mov	r3, r7
 799 00e6 2433     		add	r3, r3, #36
 800 00e8 DA70     		strb	r2, [r3, #3]
ARM GAS  C:\Users\X0217454\AppData\Local\Temp\cc5FLHAl.s 			page 21


 801              	.L61:
 341:..\..\..\..\..\simplelink\source/socket.c **** 
 342:..\..\..\..\..\simplelink\source/socket.c ****     do
 343:..\..\..\..\..\simplelink\source/socket.c ****     {
 344:..\..\..\..\..\simplelink\source/socket.c ****         RetVal = _SlDrvDataWriteOp((_SlSd_t)sd, &CmdCtrl, &Msg, &CmdExt);
 802              		.loc 1 344 0
 803 00ea FB68     		ldr	r3, [r7, #12]
 804 00ec D8B2     		uxtb	r0, r3
 805 00ee 391C     		mov	r1, r7
 806 00f0 2031     		add	r1, r1, #32
 807 00f2 3A1C     		mov	r2, r7
 808 00f4 2432     		add	r2, r2, #36
 809 00f6 3B1C     		mov	r3, r7
 810 00f8 1033     		add	r3, r3, #16
 811 00fa FFF7FEFF 		bl	_SlDrvDataWriteOp
 812 00fe 031C     		mov	r3, r0
 813 0100 3B63     		str	r3, [r7, #48]
 345:..\..\..\..\..\simplelink\source/socket.c **** 
 346:..\..\..\..\..\simplelink\source/socket.c ****         if(SL_OS_RET_CODE_OK == RetVal)
 814              		.loc 1 346 0
 815 0102 3B6B     		ldr	r3, [r7, #48]
 816 0104 002B     		cmp	r3, #0
 817 0106 33D1     		bne	.L60
 347:..\..\..\..\..\simplelink\source/socket.c ****         {
 348:..\..\..\..\..\simplelink\source/socket.c ****             CmdExt.pTxPayload += ChunkLen;
 818              		.loc 1 348 0
 819 0108 3B1C     		mov	r3, r7
 820 010a 1033     		add	r3, r3, #16
 821 010c 9A68     		ldr	r2, [r3, #8]
 822 010e 3B1C     		mov	r3, r7
 823 0110 3633     		add	r3, r3, #54
 824 0112 1B88     		ldrh	r3, [r3]
 825 0114 D218     		add	r2, r2, r3
 826 0116 3B1C     		mov	r3, r7
 827 0118 1033     		add	r3, r3, #16
 828 011a 9A60     		str	r2, [r3, #8]
 349:..\..\..\..\..\simplelink\source/socket.c ****             ChunkLen = (UINT16)((UINT8 *)pBuf + Len - CmdExt.pTxPayload);
 829              		.loc 1 349 0
 830 011c 7B68     		ldr	r3, [r7, #4]
 831 011e BA68     		ldr	r2, [r7, #8]
 832 0120 D318     		add	r3, r2, r3
 833 0122 1A1C     		mov	r2, r3
 834 0124 3B1C     		mov	r3, r7
 835 0126 1033     		add	r3, r3, #16
 836 0128 9B68     		ldr	r3, [r3, #8]
 837 012a D21A     		sub	r2, r2, r3
 838 012c 3B1C     		mov	r3, r7
 839 012e 3633     		add	r3, r3, #54
 840 0130 1A80     		strh	r2, [r3]
 350:..\..\..\..\..\simplelink\source/socket.c ****             ChunkLen = _sl_TruncatePayloadByProtocol(sd,ChunkLen);
 841              		.loc 1 350 0
 842 0132 FB68     		ldr	r3, [r7, #12]
 843 0134 DAB2     		uxtb	r2, r3
 844 0136 3B1C     		mov	r3, r7
 845 0138 3633     		add	r3, r3, #54
 846 013a 1B88     		ldrh	r3, [r3]
 847 013c 101C     		mov	r0, r2
ARM GAS  C:\Users\X0217454\AppData\Local\Temp\cc5FLHAl.s 			page 22


 848 013e 191C     		mov	r1, r3
 849 0140 FFF7FEFF 		bl	_sl_TruncatePayloadByProtocol
 850 0144 021C     		mov	r2, r0
 851 0146 3B1C     		mov	r3, r7
 852 0148 3633     		add	r3, r3, #54
 853 014a 1A80     		strh	r2, [r3]
 351:..\..\..\..\..\simplelink\source/socket.c ****             CmdExt.TxPayloadLen = ChunkLen;
 854              		.loc 1 351 0
 855 014c 3B1C     		mov	r3, r7
 856 014e 1033     		add	r3, r3, #16
 857 0150 3A1C     		mov	r2, r7
 858 0152 3632     		add	r2, r2, #54
 859 0154 1288     		ldrh	r2, [r2]
 860 0156 1A80     		strh	r2, [r3]
 352:..\..\..\..\..\simplelink\source/socket.c ****             Msg.Cmd.IpV4.lenOrPadding = ChunkLen;
 861              		.loc 1 352 0
 862 0158 3B1C     		mov	r3, r7
 863 015a 3633     		add	r3, r3, #54
 864 015c 1A88     		ldrh	r2, [r3]
 865 015e 3B1C     		mov	r3, r7
 866 0160 2433     		add	r3, r3, #36
 867 0162 1A80     		strh	r2, [r3]
 353:..\..\..\..\..\simplelink\source/socket.c ****         }
 354:..\..\..\..\..\simplelink\source/socket.c ****         else
 355:..\..\..\..\..\simplelink\source/socket.c ****         {
 356:..\..\..\..\..\simplelink\source/socket.c ****             return RetVal;
 357:..\..\..\..\..\simplelink\source/socket.c ****         }
 358:..\..\..\..\..\simplelink\source/socket.c ****     }while(ChunkLen > 0);
 868              		.loc 1 358 0
 869 0164 3B1C     		mov	r3, r7
 870 0166 3633     		add	r3, r3, #54
 871 0168 1B88     		ldrh	r3, [r3]
 872 016a 002B     		cmp	r3, #0
 873 016c BDD1     		bne	.L61
 874 016e 01E0     		b	.L65
 875              	.L60:
 356:..\..\..\..\..\simplelink\source/socket.c ****             return RetVal;
 876              		.loc 1 356 0
 877 0170 3B6B     		ldr	r3, [r7, #48]
 878 0172 00E0     		b	.L63
 879              	.L65:
 359:..\..\..\..\..\simplelink\source/socket.c **** 
 360:..\..\..\..\..\simplelink\source/socket.c ****     return (int)Len;
 880              		.loc 1 360 0
 881 0174 7B68     		ldr	r3, [r7, #4]
 882              	.L63:
 361:..\..\..\..\..\simplelink\source/socket.c **** }
 883              		.loc 1 361 0
 884 0176 181C     		mov	r0, r3
 885 0178 BD46     		mov	sp, r7
 886 017a 0EB0     		add	sp, sp, #56
 887              		@ sp needed for prologue
 888 017c 80BD     		pop	{r7, pc}
 889              	.L67:
 890 017e C046     		.align	2
 891              	.L66:
 892 0180 0D94FFFF 		.word	-27635
ARM GAS  C:\Users\X0217454\AppData\Local\Temp\cc5FLHAl.s 			page 23


 893 0184 0496FFFF 		.word	-27132
 894              		.cfi_endproc
 895              	.LFE6:
 896              		.size	sl_SendTo, .-sl_SendTo
 897              		.global	_SlRecvfomCmdCtrl
 898              		.section	.rodata
 899              		.align	2
 900              		.type	_SlRecvfomCmdCtrl, %object
 901              		.size	_SlRecvfomCmdCtrl, 4
 902              	_SlRecvfomCmdCtrl:
 903 0008 0B94     		.short	-27637
 904 000a 04       		.byte	4
 905 000b 0C       		.byte	12
 906              		.section	.text.sl_RecvFrom,"ax",%progbits
 907              		.align	2
 908              		.global	sl_RecvFrom
 909              		.code	16
 910              		.thumb_func
 911              		.type	sl_RecvFrom, %function
 912              	sl_RecvFrom:
 913              	.LFB7:
 362:..\..\..\..\..\simplelink\source/socket.c **** #endif
 363:..\..\..\..\..\simplelink\source/socket.c **** 
 364:..\..\..\..\..\simplelink\source/socket.c **** /*******************************************************************************/
 365:..\..\..\..\..\simplelink\source/socket.c **** /*  sl_Recvfrom */
 366:..\..\..\..\..\simplelink\source/socket.c **** /*******************************************************************************/
 367:..\..\..\..\..\simplelink\source/socket.c **** typedef union
 368:..\..\..\..\..\simplelink\source/socket.c **** {
 369:..\..\..\..\..\simplelink\source/socket.c ****     _sendRecvCommand_t	    Cmd;
 370:..\..\..\..\..\simplelink\source/socket.c ****     _SocketAddrResponse_u	Rsp;
 371:..\..\..\..\..\simplelink\source/socket.c **** }_SlRecvfromMsg_u;
 372:..\..\..\..\..\simplelink\source/socket.c **** 
 373:..\..\..\..\..\simplelink\source/socket.c **** const _SlCmdCtrl_t _SlRecvfomCmdCtrl =
 374:..\..\..\..\..\simplelink\source/socket.c **** {
 375:..\..\..\..\..\simplelink\source/socket.c **** 	SL_OPCODE_SOCKET_RECVFROM,
 376:..\..\..\..\..\simplelink\source/socket.c ****     sizeof(_sendRecvCommand_t),
 377:..\..\..\..\..\simplelink\source/socket.c ****     sizeof(_SocketAddrResponse_u)
 378:..\..\..\..\..\simplelink\source/socket.c **** };
 379:..\..\..\..\..\simplelink\source/socket.c **** 
 380:..\..\..\..\..\simplelink\source/socket.c **** #if _SL_INCLUDE_FUNC(sl_RecvFrom)
 381:..\..\..\..\..\simplelink\source/socket.c **** int sl_RecvFrom(int sd, void *buf, int Len, int flags, SlSockAddr_t *from, SlSocklen_t *fromlen)
 382:..\..\..\..\..\simplelink\source/socket.c **** {
 914              		.loc 1 382 0
 915              		.cfi_startproc
 916 0000 80B5     		push	{r7, lr}
 917              	.LCFI21:
 918              		.cfi_def_cfa_offset 8
 919              		.cfi_offset 7, -8
 920              		.cfi_offset 14, -4
 921 0002 8CB0     		sub	sp, sp, #48
 922              	.LCFI22:
 923              		.cfi_def_cfa_offset 56
 924 0004 00AF     		add	r7, sp, #0
 925              	.LCFI23:
 926              		.cfi_def_cfa_register 7
 927 0006 F860     		str	r0, [r7, #12]
 928 0008 B960     		str	r1, [r7, #8]
ARM GAS  C:\Users\X0217454\AppData\Local\Temp\cc5FLHAl.s 			page 24


 929 000a 7A60     		str	r2, [r7, #4]
 930 000c 3B60     		str	r3, [r7]
 383:..\..\..\..\..\simplelink\source/socket.c ****     _SlRecvfromMsg_u    Msg;
 384:..\..\..\..\..\simplelink\source/socket.c ****     _SlCmdExt_t         CmdExt;
 385:..\..\..\..\..\simplelink\source/socket.c ****     int                 RetVal;
 386:..\..\..\..\..\simplelink\source/socket.c **** 
 387:..\..\..\..\..\simplelink\source/socket.c ****     CmdExt.TxPayloadLen = 0;
 931              		.loc 1 387 0
 932 000e 3B1C     		mov	r3, r7
 933 0010 1033     		add	r3, r3, #16
 934 0012 0022     		mov	r2, #0
 935 0014 1A80     		strh	r2, [r3]
 388:..\..\..\..\..\simplelink\source/socket.c ****     CmdExt.RxPayloadLen = Len;
 936              		.loc 1 388 0
 937 0016 7B68     		ldr	r3, [r7, #4]
 938 0018 9AB2     		uxth	r2, r3
 939 001a 3B1C     		mov	r3, r7
 940 001c 1033     		add	r3, r3, #16
 941 001e 5A80     		strh	r2, [r3, #2]
 389:..\..\..\..\..\simplelink\source/socket.c ****     CmdExt.pTxPayload = NULL;
 942              		.loc 1 389 0
 943 0020 3B1C     		mov	r3, r7
 944 0022 1033     		add	r3, r3, #16
 945 0024 0022     		mov	r2, #0
 946 0026 9A60     		str	r2, [r3, #8]
 390:..\..\..\..\..\simplelink\source/socket.c ****     CmdExt.pRxPayload = (UINT8 *)buf;
 947              		.loc 1 390 0
 948 0028 3B1C     		mov	r3, r7
 949 002a 1033     		add	r3, r3, #16
 950 002c BA68     		ldr	r2, [r7, #8]
 951 002e DA60     		str	r2, [r3, #12]
 391:..\..\..\..\..\simplelink\source/socket.c **** 
 392:..\..\..\..\..\simplelink\source/socket.c **** 
 393:..\..\..\..\..\simplelink\source/socket.c ****     Msg.Cmd.sd = sd;
 952              		.loc 1 393 0
 953 0030 FB68     		ldr	r3, [r7, #12]
 954 0032 DAB2     		uxtb	r2, r3
 955 0034 3B1C     		mov	r3, r7
 956 0036 2033     		add	r3, r3, #32
 957 0038 9A70     		strb	r2, [r3, #2]
 394:..\..\..\..\..\simplelink\source/socket.c ****     Msg.Cmd.StatusOrLen = Len;
 958              		.loc 1 394 0
 959 003a 7B68     		ldr	r3, [r7, #4]
 960 003c 9AB2     		uxth	r2, r3
 961 003e 3B1C     		mov	r3, r7
 962 0040 2033     		add	r3, r3, #32
 963 0042 1A80     		strh	r2, [r3]
 395:..\..\..\..\..\simplelink\source/socket.c ****     /*  no size truncation in recv path */
 396:..\..\..\..\..\simplelink\source/socket.c ****     CmdExt.RxPayloadLen = Msg.Cmd.StatusOrLen;
 964              		.loc 1 396 0
 965 0044 3B1C     		mov	r3, r7
 966 0046 2033     		add	r3, r3, #32
 967 0048 1A88     		ldrh	r2, [r3]
 968 004a 3B1C     		mov	r3, r7
 969 004c 1033     		add	r3, r3, #16
 970 004e 5A80     		strh	r2, [r3, #2]
 397:..\..\..\..\..\simplelink\source/socket.c **** 
ARM GAS  C:\Users\X0217454\AppData\Local\Temp\cc5FLHAl.s 			page 25


 398:..\..\..\..\..\simplelink\source/socket.c ****     if(sizeof(SlSockAddrIn_t) == *fromlen)
 971              		.loc 1 398 0
 972 0050 FB6B     		ldr	r3, [r7, #60]
 973 0052 1B68     		ldr	r3, [r3]
 974 0054 102B     		cmp	r3, #16
 975 0056 04D1     		bne	.L69
 399:..\..\..\..\..\simplelink\source/socket.c ****     {
 400:..\..\..\..\..\simplelink\source/socket.c ****         Msg.Cmd.FamilyAndFlags = SL_AF_INET;
 976              		.loc 1 400 0
 977 0058 3B1C     		mov	r3, r7
 978 005a 2033     		add	r3, r3, #32
 979 005c 0222     		mov	r2, #2
 980 005e DA70     		strb	r2, [r3, #3]
 981 0060 0BE0     		b	.L70
 982              	.L69:
 401:..\..\..\..\..\simplelink\source/socket.c ****     }
 402:..\..\..\..\..\simplelink\source/socket.c ****     else if (sizeof(SlSockAddrIn6_t) == *fromlen)
 983              		.loc 1 402 0
 984 0062 FB6B     		ldr	r3, [r7, #60]
 985 0064 1B68     		ldr	r3, [r3]
 986 0066 1C2B     		cmp	r3, #28
 987 0068 04D1     		bne	.L71
 403:..\..\..\..\..\simplelink\source/socket.c ****     {
 404:..\..\..\..\..\simplelink\source/socket.c ****         Msg.Cmd.FamilyAndFlags = SL_AF_INET6;
 988              		.loc 1 404 0
 989 006a 3B1C     		mov	r3, r7
 990 006c 2033     		add	r3, r3, #32
 991 006e 0322     		mov	r2, #3
 992 0070 DA70     		strb	r2, [r3, #3]
 993 0072 02E0     		b	.L70
 994              	.L71:
 405:..\..\..\..\..\simplelink\source/socket.c ****     }
 406:..\..\..\..\..\simplelink\source/socket.c ****     else
 407:..\..\..\..\..\simplelink\source/socket.c ****     {
 408:..\..\..\..\..\simplelink\source/socket.c ****         return SL_RET_CODE_INVALID_INPUT;
 995              		.loc 1 408 0
 996 0074 0223     		mov	r3, #2
 997 0076 5B42     		neg	r3, r3
 998 0078 66E0     		b	.L78
 999              	.L70:
 409:..\..\..\..\..\simplelink\source/socket.c ****     }
 410:..\..\..\..\..\simplelink\source/socket.c **** 
 411:..\..\..\..\..\simplelink\source/socket.c ****     Msg.Cmd.FamilyAndFlags = (Msg.Cmd.FamilyAndFlags << 4) & 0xF0;
 1000              		.loc 1 411 0
 1001 007a 3B1C     		mov	r3, r7
 1002 007c 2033     		add	r3, r3, #32
 1003 007e DB78     		ldrb	r3, [r3, #3]
 1004 0080 1B01     		lsl	r3, r3, #4
 1005 0082 DAB2     		uxtb	r2, r3
 1006 0084 3B1C     		mov	r3, r7
 1007 0086 2033     		add	r3, r3, #32
 1008 0088 DA70     		strb	r2, [r3, #3]
 412:..\..\..\..\..\simplelink\source/socket.c ****     Msg.Cmd.FamilyAndFlags |= flags & 0x0F;
 1009              		.loc 1 412 0
 1010 008a 3B1C     		mov	r3, r7
 1011 008c 2033     		add	r3, r3, #32
 1012 008e DB78     		ldrb	r3, [r3, #3]
ARM GAS  C:\Users\X0217454\AppData\Local\Temp\cc5FLHAl.s 			page 26


 1013 0090 DAB2     		uxtb	r2, r3
 1014 0092 3B68     		ldr	r3, [r7]
 1015 0094 DBB2     		uxtb	r3, r3
 1016 0096 191C     		add	r1, r3, #0
 1017 0098 0F23     		mov	r3, #15
 1018 009a 0B40     		and	r3, r1
 1019 009c DBB2     		uxtb	r3, r3
 1020 009e 1343     		orr	r3, r2
 1021 00a0 DBB2     		uxtb	r3, r3
 1022 00a2 DAB2     		uxtb	r2, r3
 1023 00a4 3B1C     		mov	r3, r7
 1024 00a6 2033     		add	r3, r3, #32
 1025 00a8 DA70     		strb	r2, [r3, #3]
 413:..\..\..\..\..\simplelink\source/socket.c **** 
 414:..\..\..\..\..\simplelink\source/socket.c ****     RetVal = _SlDrvDataReadOp((_SlSd_t)sd, (_SlCmdCtrl_t *)&_SlRecvfomCmdCtrl, &Msg, &CmdExt);
 1026              		.loc 1 414 0
 1027 00aa FB68     		ldr	r3, [r7, #12]
 1028 00ac D8B2     		uxtb	r0, r3
 1029 00ae 2849     		ldr	r1, .L79
 1030 00b0 3A1C     		mov	r2, r7
 1031 00b2 2032     		add	r2, r2, #32
 1032 00b4 3B1C     		mov	r3, r7
 1033 00b6 1033     		add	r3, r3, #16
 1034 00b8 FFF7FEFF 		bl	_SlDrvDataReadOp
 1035 00bc 031C     		mov	r3, r0
 1036 00be FB62     		str	r3, [r7, #44]
 415:..\..\..\..\..\simplelink\source/socket.c ****     if( RetVal != SL_OS_RET_CODE_OK )
 1037              		.loc 1 415 0
 1038 00c0 FB6A     		ldr	r3, [r7, #44]
 1039 00c2 002B     		cmp	r3, #0
 1040 00c4 01D0     		beq	.L73
 416:..\..\..\..\..\simplelink\source/socket.c ****     {
 417:..\..\..\..\..\simplelink\source/socket.c **** 	return RetVal;
 1041              		.loc 1 417 0
 1042 00c6 FB6A     		ldr	r3, [r7, #44]
 1043 00c8 3EE0     		b	.L78
 1044              	.L73:
 418:..\..\..\..\..\simplelink\source/socket.c ****     }
 419:..\..\..\..\..\simplelink\source/socket.c **** 
 420:..\..\..\..\..\simplelink\source/socket.c ****     RetVal = Msg.Rsp.IpV4.statusOrLen;
 1045              		.loc 1 420 0
 1046 00ca 3B1C     		mov	r3, r7
 1047 00cc 2033     		add	r3, r3, #32
 1048 00ce 1B88     		ldrh	r3, [r3]
 1049 00d0 1BB2     		sxth	r3, r3
 1050 00d2 FB62     		str	r3, [r7, #44]
 421:..\..\..\..\..\simplelink\source/socket.c **** 
 422:..\..\..\..\..\simplelink\source/socket.c ****     if(RetVal >= 0)
 1051              		.loc 1 422 0
 1052 00d4 FB6A     		ldr	r3, [r7, #44]
 1053 00d6 002B     		cmp	r3, #0
 1054 00d8 35DB     		blt	.L74
 423:..\..\..\..\..\simplelink\source/socket.c ****     {
 424:..\..\..\..\..\simplelink\source/socket.c ****         VERIFY_PROTOCOL(sd == Msg.Rsp.IpV4.sd);
 1055              		.loc 1 424 0
 1056 00da 3B1C     		mov	r3, r7
 1057 00dc 2033     		add	r3, r3, #32
ARM GAS  C:\Users\X0217454\AppData\Local\Temp\cc5FLHAl.s 			page 27


 1058 00de 9B78     		ldrb	r3, [r3, #2]
 1059 00e0 1A1C     		mov	r2, r3
 1060 00e2 FB68     		ldr	r3, [r7, #12]
 1061 00e4 9A42     		cmp	r2, r3
 1062 00e6 00D0     		beq	.L75
 1063              	.L76:
 1064              		.loc 1 424 0 is_stmt 0 discriminator 1
 1065 00e8 FEE7     		b	.L76
 1066              	.L75:
 425:..\..\..\..\..\simplelink\source/socket.c **** #if 0
 426:..\..\..\..\..\simplelink\source/socket.c ****         _sl_ParseAddress(&Msg.Rsp, from, fromlen);
 427:..\..\..\..\..\simplelink\source/socket.c **** #else
 428:..\..\..\..\..\simplelink\source/socket.c ****         from->sa_family = Msg.Rsp.IpV4.family;
 1067              		.loc 1 428 0 is_stmt 1
 1068 00ea 3B1C     		mov	r3, r7
 1069 00ec 2033     		add	r3, r3, #32
 1070 00ee DB78     		ldrb	r3, [r3, #3]
 1071 00f0 1A1C     		mov	r2, r3
 1072 00f2 BB6B     		ldr	r3, [r7, #56]
 1073 00f4 1A80     		strh	r2, [r3]
 429:..\..\..\..\..\simplelink\source/socket.c ****         if(SL_AF_INET == from->sa_family)
 1074              		.loc 1 429 0
 1075 00f6 BB6B     		ldr	r3, [r7, #56]
 1076 00f8 1B88     		ldrh	r3, [r3]
 1077 00fa 022B     		cmp	r3, #2
 1078 00fc 0DD1     		bne	.L77
 430:..\..\..\..\..\simplelink\source/socket.c ****         {
 431:..\..\..\..\..\simplelink\source/socket.c ****             ((SlSockAddrIn_t *)from)->sin_port = Msg.Rsp.IpV4.port;
 1079              		.loc 1 431 0
 1080 00fe 3B1C     		mov	r3, r7
 1081 0100 2033     		add	r3, r3, #32
 1082 0102 9A88     		ldrh	r2, [r3, #4]
 1083 0104 BB6B     		ldr	r3, [r7, #56]
 1084 0106 5A80     		strh	r2, [r3, #2]
 432:..\..\..\..\..\simplelink\source/socket.c ****             ((SlSockAddrIn_t *)from)->sin_addr.s_addr = Msg.Rsp.IpV4.address;
 1085              		.loc 1 432 0
 1086 0108 3B1C     		mov	r3, r7
 1087 010a 2033     		add	r3, r3, #32
 1088 010c 9A68     		ldr	r2, [r3, #8]
 1089 010e BB6B     		ldr	r3, [r7, #56]
 1090 0110 5A60     		str	r2, [r3, #4]
 433:..\..\..\..\..\simplelink\source/socket.c ****             *fromlen = sizeof(SlSockAddrIn_t);
 1091              		.loc 1 433 0
 1092 0112 FB6B     		ldr	r3, [r7, #60]
 1093 0114 1022     		mov	r2, #16
 1094 0116 1A60     		str	r2, [r3]
 1095 0118 15E0     		b	.L74
 1096              	.L77:
 434:..\..\..\..\..\simplelink\source/socket.c ****         }
 435:..\..\..\..\..\simplelink\source/socket.c ****         else if (SL_AF_INET6_EUI_48 == from->sa_family )
 1097              		.loc 1 435 0
 1098 011a BB6B     		ldr	r3, [r7, #56]
 1099 011c 1B88     		ldrh	r3, [r3]
 1100 011e 092B     		cmp	r3, #9
 1101 0120 11D1     		bne	.L74
 436:..\..\..\..\..\simplelink\source/socket.c ****          {
 437:..\..\..\..\..\simplelink\source/socket.c ****             ((SlSockAddrIn6_t *)from)->sin6_port  = Msg.Rsp.IpV6EUI48.port;
ARM GAS  C:\Users\X0217454\AppData\Local\Temp\cc5FLHAl.s 			page 28


 1102              		.loc 1 437 0
 1103 0122 3B1C     		mov	r3, r7
 1104 0124 2033     		add	r3, r3, #32
 1105 0126 9A88     		ldrh	r2, [r3, #4]
 1106 0128 BB6B     		ldr	r3, [r7, #56]
 1107 012a 5A80     		strh	r2, [r3, #2]
 438:..\..\..\..\..\simplelink\source/socket.c ****             sl_Memcpy(((SlSockAddrIn6_t *)from)->sin6_addr._S6_un._S6_u8, Msg.Rsp.IpV6EUI48.address
 1108              		.loc 1 438 0
 1109 012c BB6B     		ldr	r3, [r7, #56]
 1110 012e 1A1C     		mov	r2, r3
 1111 0130 0832     		add	r2, r2, #8
 1112 0132 3B1C     		mov	r3, r7
 1113 0134 2633     		add	r3, r3, #38
 1114 0136 111C     		mov	r1, r2
 1115 0138 1A1C     		mov	r2, r3
 1116 013a 0623     		mov	r3, #6
 1117 013c 081C     		mov	r0, r1
 1118 013e 111C     		mov	r1, r2
 1119 0140 1A1C     		mov	r2, r3
 1120 0142 FFF7FEFF 		bl	memcpy
 1121              	.L74:
 439:..\..\..\..\..\simplelink\source/socket.c ****          }
 440:..\..\..\..\..\simplelink\source/socket.c **** #ifdef SL_SUPPORT_IPV6
 441:..\..\..\..\..\simplelink\source/socket.c ****         else if(AF_INET6 == from->sa_family)
 442:..\..\..\..\..\simplelink\source/socket.c ****         {
 443:..\..\..\..\..\simplelink\source/socket.c ****             VERIFY_PROTOCOL(*fromlen >= sizeof(sockaddr_in6));
 444:..\..\..\..\..\simplelink\source/socket.c **** 
 445:..\..\..\..\..\simplelink\source/socket.c ****             ((sockaddr_in6 *)from)->sin6_port = Msg.Rsp.IpV6.port;
 446:..\..\..\..\..\simplelink\source/socket.c ****             sl_Memcpy(((sockaddr_in6 *)from)->sin6_addr._S6_un._S6_u32, Msg.Rsp.IpV6.address, 16);
 447:..\..\..\..\..\simplelink\source/socket.c ****             *fromlen = sizeof(sockaddr_in6);
 448:..\..\..\..\..\simplelink\source/socket.c ****         }
 449:..\..\..\..\..\simplelink\source/socket.c **** #endif
 450:..\..\..\..\..\simplelink\source/socket.c **** #endif
 451:..\..\..\..\..\simplelink\source/socket.c ****     }
 452:..\..\..\..\..\simplelink\source/socket.c **** 
 453:..\..\..\..\..\simplelink\source/socket.c ****     return (int)RetVal;
 1122              		.loc 1 453 0
 1123 0146 FB6A     		ldr	r3, [r7, #44]
 1124              	.L78:
 454:..\..\..\..\..\simplelink\source/socket.c **** }
 1125              		.loc 1 454 0
 1126 0148 181C     		mov	r0, r3
 1127 014a BD46     		mov	sp, r7
 1128 014c 0CB0     		add	sp, sp, #48
 1129              		@ sp needed for prologue
 1130 014e 80BD     		pop	{r7, pc}
 1131              	.L80:
 1132              		.align	2
 1133              	.L79:
 1134 0150 00000000 		.word	_SlRecvfomCmdCtrl
 1135              		.cfi_endproc
 1136              	.LFE7:
 1137              		.size	sl_RecvFrom, .-sl_RecvFrom
 1138              		.section	.text.sl_Connect,"ax",%progbits
 1139              		.align	2
 1140              		.global	sl_Connect
 1141              		.code	16
ARM GAS  C:\Users\X0217454\AppData\Local\Temp\cc5FLHAl.s 			page 29


 1142              		.thumb_func
 1143              		.type	sl_Connect, %function
 1144              	sl_Connect:
 1145              	.LFB8:
 455:..\..\..\..\..\simplelink\source/socket.c **** #endif
 456:..\..\..\..\..\simplelink\source/socket.c **** 
 457:..\..\..\..\..\simplelink\source/socket.c **** /*******************************************************************************/
 458:..\..\..\..\..\simplelink\source/socket.c **** /*  sl_Connect */
 459:..\..\..\..\..\simplelink\source/socket.c **** /*******************************************************************************/
 460:..\..\..\..\..\simplelink\source/socket.c **** typedef union
 461:..\..\..\..\..\simplelink\source/socket.c **** {
 462:..\..\..\..\..\simplelink\source/socket.c **** 	_SocketAddrCommand_u    Cmd;
 463:..\..\..\..\..\simplelink\source/socket.c **** 	_SocketResponse_t	    Rsp;
 464:..\..\..\..\..\simplelink\source/socket.c **** }_SlSockConnectMsg_u;
 465:..\..\..\..\..\simplelink\source/socket.c **** 
 466:..\..\..\..\..\simplelink\source/socket.c **** #if _SL_INCLUDE_FUNC(sl_Connect)
 467:..\..\..\..\..\simplelink\source/socket.c **** int sl_Connect(int sd, const SlSockAddr_t *addr, int addrlen)
 468:..\..\..\..\..\simplelink\source/socket.c **** {
 1146              		.loc 1 468 0
 1147              		.cfi_startproc
 1148 0000 80B5     		push	{r7, lr}
 1149              	.LCFI24:
 1150              		.cfi_def_cfa_offset 8
 1151              		.cfi_offset 7, -8
 1152              		.cfi_offset 14, -4
 1153 0002 90B0     		sub	sp, sp, #64
 1154              	.LCFI25:
 1155              		.cfi_def_cfa_offset 72
 1156 0004 00AF     		add	r7, sp, #0
 1157              	.LCFI26:
 1158              		.cfi_def_cfa_register 7
 1159 0006 F860     		str	r0, [r7, #12]
 1160 0008 B960     		str	r1, [r7, #8]
 1161 000a 7A60     		str	r2, [r7, #4]
 469:..\..\..\..\..\simplelink\source/socket.c **** 	_SlSockConnectMsg_u  Msg;
 470:..\..\..\..\..\simplelink\source/socket.c **** 	_SlReturnVal_t       RetVal;
 471:..\..\..\..\..\simplelink\source/socket.c ****     _SlCmdCtrl_t         CmdCtrl = {0, 0, sizeof(_SocketResponse_t)};
 1162              		.loc 1 471 0
 1163 000c 3B1C     		mov	r3, r7
 1164 000e 1833     		add	r3, r3, #24
 1165 0010 0022     		mov	r2, #0
 1166 0012 1A80     		strh	r2, [r3]
 1167 0014 3B1C     		mov	r3, r7
 1168 0016 1833     		add	r3, r3, #24
 1169 0018 0022     		mov	r2, #0
 1170 001a 9A70     		strb	r2, [r3, #2]
 1171 001c 3B1C     		mov	r3, r7
 1172 001e 1833     		add	r3, r3, #24
 1173 0020 0422     		mov	r2, #4
 1174 0022 DA70     		strb	r2, [r3, #3]
 472:..\..\..\..\..\simplelink\source/socket.c ****     _SocketResponse_t    AsyncRsp;
 473:..\..\..\..\..\simplelink\source/socket.c **** 	UINT8 pObjIdx = MAX_CONCURRENT_ACTIONS;
 1175              		.loc 1 473 0
 1176 0024 3B1C     		mov	r3, r7
 1177 0026 3B33     		add	r3, r3, #59
 1178 0028 0A22     		mov	r2, #10
 1179 002a 1A70     		strb	r2, [r3]
ARM GAS  C:\Users\X0217454\AppData\Local\Temp\cc5FLHAl.s 			page 30


 474:..\..\..\..\..\simplelink\source/socket.c **** 
 475:..\..\..\..\..\simplelink\source/socket.c **** 
 476:..\..\..\..\..\simplelink\source/socket.c ****     switch(addr->sa_family)
 1180              		.loc 1 476 0
 1181 002c BB68     		ldr	r3, [r7, #8]
 1182 002e 1B88     		ldrh	r3, [r3]
 1183 0030 022B     		cmp	r3, #2
 1184 0032 02D0     		beq	.L83
 1185 0034 092B     		cmp	r3, #9
 1186 0036 09D0     		beq	.L84
 1187 0038 11E0     		b	.L102
 1188              	.L83:
 477:..\..\..\..\..\simplelink\source/socket.c ****     {
 478:..\..\..\..\..\simplelink\source/socket.c ****         case SL_AF_INET :
 479:..\..\..\..\..\simplelink\source/socket.c ****             CmdCtrl.Opcode = SL_OPCODE_SOCKET_CONNECT;
 1189              		.loc 1 479 0
 1190 003a 3B1C     		mov	r3, r7
 1191 003c 1833     		add	r3, r3, #24
 1192 003e 584A     		ldr	r2, .L103
 1193 0040 1A80     		strh	r2, [r3]
 480:..\..\..\..\..\simplelink\source/socket.c ****             CmdCtrl.TxDescLen = sizeof(_SocketAddrIPv4Command_t);
 1194              		.loc 1 480 0
 1195 0042 3B1C     		mov	r3, r7
 1196 0044 1833     		add	r3, r3, #24
 1197 0046 0C22     		mov	r2, #12
 1198 0048 9A70     		strb	r2, [r3, #2]
 481:..\..\..\..\..\simplelink\source/socket.c ****             break;
 1199              		.loc 1 481 0
 1200 004a 0BE0     		b	.L85
 1201              	.L84:
 482:..\..\..\..\..\simplelink\source/socket.c ****         case  SL_AF_INET6_EUI_48:
 483:..\..\..\..\..\simplelink\source/socket.c ****             CmdCtrl.Opcode = SL_OPCODE_SOCKET_CONNECT_V6;
 1202              		.loc 1 483 0
 1203 004c 3B1C     		mov	r3, r7
 1204 004e 1833     		add	r3, r3, #24
 1205 0050 544A     		ldr	r2, .L103+4
 1206 0052 1A80     		strh	r2, [r3]
 484:..\..\..\..\..\simplelink\source/socket.c ****             CmdCtrl.TxDescLen = sizeof(_SocketAddrIPv6EUI48Command_t);
 1207              		.loc 1 484 0
 1208 0054 3B1C     		mov	r3, r7
 1209 0056 1833     		add	r3, r3, #24
 1210 0058 0C22     		mov	r2, #12
 1211 005a 9A70     		strb	r2, [r3, #2]
 485:..\..\..\..\..\simplelink\source/socket.c ****         	break;
 1212              		.loc 1 485 0
 1213 005c 02E0     		b	.L85
 1214              	.L102:
 486:..\..\..\..\..\simplelink\source/socket.c **** #ifdef SL_SUPPORT_IPV6
 487:..\..\..\..\..\simplelink\source/socket.c ****         case AF_INET6:
 488:..\..\..\..\..\simplelink\source/socket.c ****             CmdCtrl.Opcode = SL_OPCODE_SOCKET_CONNECT_V6;
 489:..\..\..\..\..\simplelink\source/socket.c ****             CmdCtrl.TxDescLen = sizeof(_SocketAddrIPv6Command_t);
 490:..\..\..\..\..\simplelink\source/socket.c ****             break;
 491:..\..\..\..\..\simplelink\source/socket.c **** #endif
 492:..\..\..\..\..\simplelink\source/socket.c ****         case SL_AF_RF   :
 493:..\..\..\..\..\simplelink\source/socket.c ****         default:
 494:..\..\..\..\..\simplelink\source/socket.c ****             return SL_RET_CODE_INVALID_INPUT;
 1215              		.loc 1 494 0
ARM GAS  C:\Users\X0217454\AppData\Local\Temp\cc5FLHAl.s 			page 31


 1216 005e 0223     		mov	r3, #2
 1217 0060 5B42     		neg	r3, r3
 1218 0062 99E0     		b	.L101
 1219              	.L85:
 495:..\..\..\..\..\simplelink\source/socket.c ****     }
 496:..\..\..\..\..\simplelink\source/socket.c **** 
 497:..\..\..\..\..\simplelink\source/socket.c ****     Msg.Cmd.IpV4.lenOrPadding = 0;
 1220              		.loc 1 497 0
 1221 0064 3B1C     		mov	r3, r7
 1222 0066 1C33     		add	r3, r3, #28
 1223 0068 0022     		mov	r2, #0
 1224 006a 1A80     		strh	r2, [r3]
 498:..\..\..\..\..\simplelink\source/socket.c ****     Msg.Cmd.IpV4.sd = sd;
 1225              		.loc 1 498 0
 1226 006c FB68     		ldr	r3, [r7, #12]
 1227 006e DAB2     		uxtb	r2, r3
 1228 0070 3B1C     		mov	r3, r7
 1229 0072 1C33     		add	r3, r3, #28
 1230 0074 9A70     		strb	r2, [r3, #2]
 499:..\..\..\..\..\simplelink\source/socket.c **** 
 500:..\..\..\..\..\simplelink\source/socket.c ****     _sl_BuildAddress(addr, addrlen, &Msg.Cmd);
 1231              		.loc 1 500 0
 1232 0076 B968     		ldr	r1, [r7, #8]
 1233 0078 7A68     		ldr	r2, [r7, #4]
 1234 007a 3B1C     		mov	r3, r7
 1235 007c 1C33     		add	r3, r3, #28
 1236 007e 081C     		mov	r0, r1
 1237 0080 111C     		mov	r1, r2
 1238 0082 1A1C     		mov	r2, r3
 1239 0084 FFF7FEFF 		bl	_sl_BuildAddress
 501:..\..\..\..\..\simplelink\source/socket.c **** 
 502:..\..\..\..\..\simplelink\source/socket.c **** 	/* Use Obj to issue the command, if not available try later */
 503:..\..\..\..\..\simplelink\source/socket.c **** 	pObjIdx = _SlDrvWaitForPoolObj(CONNECT_ID, sd  & BSD_SOCKET_ID_MASK);
 1240              		.loc 1 503 0
 1241 0088 FB68     		ldr	r3, [r7, #12]
 1242 008a DAB2     		uxtb	r2, r3
 1243 008c 0F23     		mov	r3, #15
 1244 008e 1340     		and	r3, r2
 1245 0090 DBB2     		uxtb	r3, r3
 1246 0092 0920     		mov	r0, #9
 1247 0094 191C     		mov	r1, r3
 1248 0096 FFF7FEFF 		bl	_SlDrvWaitForPoolObj
 1249 009a 021C     		mov	r2, r0
 1250 009c 3B1C     		mov	r3, r7
 1251 009e 3B33     		add	r3, r3, #59
 1252 00a0 1A70     		strb	r2, [r3]
 504:..\..\..\..\..\simplelink\source/socket.c **** 
 505:..\..\..\..\..\simplelink\source/socket.c **** 	if (MAX_CONCURRENT_ACTIONS == pObjIdx)
 1253              		.loc 1 505 0
 1254 00a2 3B1C     		mov	r3, r7
 1255 00a4 3B33     		add	r3, r3, #59
 1256 00a6 1B78     		ldrb	r3, [r3]
 1257 00a8 0A2B     		cmp	r3, #10
 1258 00aa 01D1     		bne	.L87
 506:..\..\..\..\..\simplelink\source/socket.c **** 	{
 507:..\..\..\..\..\simplelink\source/socket.c **** 		return SL_POOL_IS_EMPTY;
 1259              		.loc 1 507 0
ARM GAS  C:\Users\X0217454\AppData\Local\Temp\cc5FLHAl.s 			page 32


 1260 00ac 3E4B     		ldr	r3, .L103+8
 1261 00ae 73E0     		b	.L101
 1262              	.L87:
 1263              	.LBB5:
 508:..\..\..\..\..\simplelink\source/socket.c **** 	}
 509:..\..\..\..\..\simplelink\source/socket.c **** 	OSI_RET_OK_CHECK(sl_LockObjLock(&g_pCB->ProtectionLockObj, SL_OS_WAIT_FOREVER));
 1264              		.loc 1 509 0
 1265 00b0 3E4B     		ldr	r3, .L103+12
 1266 00b2 1B68     		ldr	r3, [r3]
 1267 00b4 9033     		add	r3, r3, #144
 1268 00b6 181C     		mov	r0, r3
 1269 00b8 3321     		mov	r1, #51
 1270 00ba 4422     		mov	r2, #68
 1271 00bc FF23     		mov	r3, #255
 1272 00be FFF7FEFF 		bl	_SlNonOsSemGet
 1273 00c2 031C     		mov	r3, r0
 1274 00c4 7B63     		str	r3, [r7, #52]
 1275 00c6 7B6B     		ldr	r3, [r7, #52]
 1276 00c8 002B     		cmp	r3, #0
 1277 00ca 00D0     		beq	.L88
 1278              	.L89:
 1279              		.loc 1 509 0 is_stmt 0 discriminator 1
 1280 00cc FEE7     		b	.L89
 1281              	.L88:
 1282              	.LBE5:
 510:..\..\..\..\..\simplelink\source/socket.c **** 
 511:..\..\..\..\..\simplelink\source/socket.c **** 	g_pCB->ObjPool[pObjIdx].pRespArgs =  (UINT8 *)&AsyncRsp;
 1283              		.loc 1 511 0 is_stmt 1
 1284 00ce 374B     		ldr	r3, .L103+12
 1285 00d0 1968     		ldr	r1, [r3]
 1286 00d2 3B1C     		mov	r3, r7
 1287 00d4 3B33     		add	r3, r3, #59
 1288 00d6 1A78     		ldrb	r2, [r3]
 1289 00d8 131C     		mov	r3, r2
 1290 00da 5B00     		lsl	r3, r3, #1
 1291 00dc 9B18     		add	r3, r3, r2
 1292 00de 9B00     		lsl	r3, r3, #2
 1293 00e0 CB18     		add	r3, r1, r3
 1294 00e2 1433     		add	r3, r3, #20
 1295 00e4 3A1C     		mov	r2, r7
 1296 00e6 1432     		add	r2, r2, #20
 1297 00e8 1A60     		str	r2, [r3]
 1298              	.LBB6:
 512:..\..\..\..\..\simplelink\source/socket.c **** 
 513:..\..\..\..\..\simplelink\source/socket.c ****     OSI_RET_OK_CHECK(sl_LockObjUnlock(&g_pCB->ProtectionLockObj));
 1299              		.loc 1 513 0
 1300 00ea 304B     		ldr	r3, .L103+12
 1301 00ec 1B68     		ldr	r3, [r3]
 1302 00ee 9033     		add	r3, r3, #144
 1303 00f0 181C     		mov	r0, r3
 1304 00f2 3321     		mov	r1, #51
 1305 00f4 FFF7FEFF 		bl	_SlNonOsSemSet
 1306 00f8 031C     		mov	r3, r0
 1307 00fa 3B63     		str	r3, [r7, #48]
 1308 00fc 3B6B     		ldr	r3, [r7, #48]
 1309 00fe 002B     		cmp	r3, #0
 1310 0100 00D0     		beq	.L90
ARM GAS  C:\Users\X0217454\AppData\Local\Temp\cc5FLHAl.s 			page 33


 1311              	.L91:
 1312              		.loc 1 513 0 is_stmt 0 discriminator 1
 1313 0102 FEE7     		b	.L91
 1314              	.L90:
 1315              	.LBE6:
 1316              	.LBB7:
 514:..\..\..\..\..\simplelink\source/socket.c **** 	
 515:..\..\..\..\..\simplelink\source/socket.c **** 	/* send the command */
 516:..\..\..\..\..\simplelink\source/socket.c ****     VERIFY_RET_OK(_SlDrvCmdOp((_SlCmdCtrl_t *)&CmdCtrl, &Msg, NULL));
 1317              		.loc 1 516 0 is_stmt 1
 1318 0104 3A1C     		mov	r2, r7
 1319 0106 1832     		add	r2, r2, #24
 1320 0108 3B1C     		mov	r3, r7
 1321 010a 1C33     		add	r3, r3, #28
 1322 010c 101C     		mov	r0, r2
 1323 010e 191C     		mov	r1, r3
 1324 0110 0022     		mov	r2, #0
 1325 0112 FFF7FEFF 		bl	_SlDrvCmdOp
 1326 0116 031C     		mov	r3, r0
 1327 0118 FB62     		str	r3, [r7, #44]
 1328 011a FB6A     		ldr	r3, [r7, #44]
 1329 011c 002B     		cmp	r3, #0
 1330 011e 00D0     		beq	.L92
 1331              	.L93:
 1332              		.loc 1 516 0 is_stmt 0 discriminator 1
 1333 0120 FEE7     		b	.L93
 1334              	.L92:
 1335              	.LBE7:
 517:..\..\..\..\..\simplelink\source/socket.c ****     VERIFY_PROTOCOL(Msg.Rsp.sd == sd)
 1336              		.loc 1 517 0 is_stmt 1
 1337 0122 3B1C     		mov	r3, r7
 1338 0124 1C33     		add	r3, r3, #28
 1339 0126 9B78     		ldrb	r3, [r3, #2]
 1340 0128 1A1C     		mov	r2, r3
 1341 012a FB68     		ldr	r3, [r7, #12]
 1342 012c 9A42     		cmp	r2, r3
 1343 012e 00D0     		beq	.L94
 1344              	.L95:
 1345              		.loc 1 517 0 is_stmt 0 discriminator 1
 1346 0130 FEE7     		b	.L95
 1347              	.L94:
 518:..\..\..\..\..\simplelink\source/socket.c **** 
 519:..\..\..\..\..\simplelink\source/socket.c **** 	RetVal = Msg.Rsp.statusOrLen;
 1348              		.loc 1 519 0 is_stmt 1
 1349 0132 3B1C     		mov	r3, r7
 1350 0134 1C33     		add	r3, r3, #28
 1351 0136 1B88     		ldrh	r3, [r3]
 1352 0138 1BB2     		sxth	r3, r3
 1353 013a FB63     		str	r3, [r7, #60]
 520:..\..\..\..\..\simplelink\source/socket.c **** 
 521:..\..\..\..\..\simplelink\source/socket.c ****     if(SL_RET_CODE_OK == RetVal)
 1354              		.loc 1 521 0
 1355 013c FB6B     		ldr	r3, [r7, #60]
 1356 013e 002B     		cmp	r3, #0
 1357 0140 23D1     		bne	.L96
 1358              	.LBB8:
 522:..\..\..\..\..\simplelink\source/socket.c ****     {
ARM GAS  C:\Users\X0217454\AppData\Local\Temp\cc5FLHAl.s 			page 34


 523:..\..\..\..\..\simplelink\source/socket.c **** 		/*  wait for async and get Data Read parameters */
 524:..\..\..\..\..\simplelink\source/socket.c ****         OSI_RET_OK_CHECK(sl_SyncObjWait(&g_pCB->ObjPool[pObjIdx].SyncObj, SL_OS_WAIT_FOREVER));
 1359              		.loc 1 524 0
 1360 0142 1A4B     		ldr	r3, .L103+12
 1361 0144 1968     		ldr	r1, [r3]
 1362 0146 3B1C     		mov	r3, r7
 1363 0148 3B33     		add	r3, r3, #59
 1364 014a 1A78     		ldrb	r2, [r3]
 1365 014c 131C     		mov	r3, r2
 1366 014e 5B00     		lsl	r3, r3, #1
 1367 0150 9B18     		add	r3, r3, r2
 1368 0152 9B00     		lsl	r3, r3, #2
 1369 0154 1033     		add	r3, r3, #16
 1370 0156 CB18     		add	r3, r1, r3
 1371 0158 181C     		mov	r0, r3
 1372 015a 2221     		mov	r1, #34
 1373 015c 1122     		mov	r2, #17
 1374 015e FF23     		mov	r3, #255
 1375 0160 FFF7FEFF 		bl	_SlNonOsSemGet
 1376 0164 031C     		mov	r3, r0
 1377 0166 BB62     		str	r3, [r7, #40]
 1378 0168 BB6A     		ldr	r3, [r7, #40]
 1379 016a 002B     		cmp	r3, #0
 1380 016c 00D0     		beq	.L97
 1381              	.L98:
 1382              		.loc 1 524 0 is_stmt 0 discriminator 1
 1383 016e FEE7     		b	.L98
 1384              	.L97:
 1385              	.LBE8:
 525:..\..\..\..\..\simplelink\source/socket.c **** 
 526:..\..\..\..\..\simplelink\source/socket.c ****         VERIFY_PROTOCOL(AsyncRsp.sd == sd);
 1386              		.loc 1 526 0 is_stmt 1
 1387 0170 3B1C     		mov	r3, r7
 1388 0172 1433     		add	r3, r3, #20
 1389 0174 9B78     		ldrb	r3, [r3, #2]
 1390 0176 1A1C     		mov	r2, r3
 1391 0178 FB68     		ldr	r3, [r7, #12]
 1392 017a 9A42     		cmp	r2, r3
 1393 017c 00D0     		beq	.L99
 1394              	.L100:
 1395              		.loc 1 526 0 is_stmt 0 discriminator 1
 1396 017e FEE7     		b	.L100
 1397              	.L99:
 527:..\..\..\..\..\simplelink\source/socket.c **** 
 528:..\..\..\..\..\simplelink\source/socket.c ****         RetVal = AsyncRsp.statusOrLen;
 1398              		.loc 1 528 0 is_stmt 1
 1399 0180 3B1C     		mov	r3, r7
 1400 0182 1433     		add	r3, r3, #20
 1401 0184 1B88     		ldrh	r3, [r3]
 1402 0186 1BB2     		sxth	r3, r3
 1403 0188 FB63     		str	r3, [r7, #60]
 1404              	.L96:
 529:..\..\..\..\..\simplelink\source/socket.c ****     }
 530:..\..\..\..\..\simplelink\source/socket.c ****     _SlDrvReleasePoolObj(pObjIdx);
 1405              		.loc 1 530 0
 1406 018a 3B1C     		mov	r3, r7
 1407 018c 3B33     		add	r3, r3, #59
ARM GAS  C:\Users\X0217454\AppData\Local\Temp\cc5FLHAl.s 			page 35


 1408 018e 1B78     		ldrb	r3, [r3]
 1409 0190 181C     		mov	r0, r3
 1410 0192 FFF7FEFF 		bl	_SlDrvReleasePoolObj
 531:..\..\..\..\..\simplelink\source/socket.c ****     return RetVal;
 1411              		.loc 1 531 0
 1412 0196 FB6B     		ldr	r3, [r7, #60]
 1413              	.L101:
 532:..\..\..\..\..\simplelink\source/socket.c **** }
 1414              		.loc 1 532 0
 1415 0198 181C     		mov	r0, r3
 1416 019a BD46     		mov	sp, r7
 1417 019c 10B0     		add	sp, sp, #64
 1418              		@ sp needed for prologue
 1419 019e 80BD     		pop	{r7, pc}
 1420              	.L104:
 1421              		.align	2
 1422              	.L103:
 1423 01a0 0694FFFF 		.word	-27642
 1424 01a4 0696FFFF 		.word	-27130
 1425 01a8 30F8FFFF 		.word	-2000
 1426 01ac 00000000 		.word	g_pCB
 1427              		.cfi_endproc
 1428              	.LFE8:
 1429              		.size	sl_Connect, .-sl_Connect
 1430              		.section	.text._sl_HandleAsync_Connect,"ax",%progbits
 1431              		.align	2
 1432              		.global	_sl_HandleAsync_Connect
 1433              		.code	16
 1434              		.thumb_func
 1435              		.type	_sl_HandleAsync_Connect, %function
 1436              	_sl_HandleAsync_Connect:
 1437              	.LFB9:
 533:..\..\..\..\..\simplelink\source/socket.c **** #endif
 534:..\..\..\..\..\simplelink\source/socket.c **** 
 535:..\..\..\..\..\simplelink\source/socket.c **** /*******************************************************************************/
 536:..\..\..\..\..\simplelink\source/socket.c **** /*   _sl_HandleAsync_Connect */
 537:..\..\..\..\..\simplelink\source/socket.c **** /*******************************************************************************/
 538:..\..\..\..\..\simplelink\source/socket.c **** void _sl_HandleAsync_Connect(void *pVoidBuf)
 539:..\..\..\..\..\simplelink\source/socket.c **** {
 1438              		.loc 1 539 0
 1439              		.cfi_startproc
 1440 0000 80B5     		push	{r7, lr}
 1441              	.LCFI27:
 1442              		.cfi_def_cfa_offset 8
 1443              		.cfi_offset 7, -8
 1444              		.cfi_offset 14, -4
 1445 0002 86B0     		sub	sp, sp, #24
 1446              	.LCFI28:
 1447              		.cfi_def_cfa_offset 32
 1448 0004 00AF     		add	r7, sp, #0
 1449              	.LCFI29:
 1450              		.cfi_def_cfa_register 7
 1451 0006 7860     		str	r0, [r7, #4]
 540:..\..\..\..\..\simplelink\source/socket.c ****     _SocketResponse_t          *pMsgArgs   = (_SocketResponse_t *)_SL_RESP_ARGS_START(pVoidBuf);
 1452              		.loc 1 540 0
 1453 0008 7B68     		ldr	r3, [r7, #4]
 1454 000a 0833     		add	r3, r3, #8
ARM GAS  C:\Users\X0217454\AppData\Local\Temp\cc5FLHAl.s 			page 36


 1455 000c 7B61     		str	r3, [r7, #20]
 1456              	.LBB9:
 541:..\..\..\..\..\simplelink\source/socket.c **** 
 542:..\..\..\..\..\simplelink\source/socket.c ****     OSI_RET_OK_CHECK(sl_LockObjLock(&g_pCB->ProtectionLockObj, SL_OS_WAIT_FOREVER));
 1457              		.loc 1 542 0
 1458 000e 304B     		ldr	r3, .L116
 1459 0010 1B68     		ldr	r3, [r3]
 1460 0012 9033     		add	r3, r3, #144
 1461 0014 181C     		mov	r0, r3
 1462 0016 3321     		mov	r1, #51
 1463 0018 4422     		mov	r2, #68
 1464 001a FF23     		mov	r3, #255
 1465 001c FFF7FEFF 		bl	_SlNonOsSemGet
 1466 0020 031C     		mov	r3, r0
 1467 0022 3B61     		str	r3, [r7, #16]
 1468 0024 3B69     		ldr	r3, [r7, #16]
 1469 0026 002B     		cmp	r3, #0
 1470 0028 00D0     		beq	.L106
 1471              	.L107:
 1472              		.loc 1 542 0 is_stmt 0 discriminator 1
 1473 002a FEE7     		b	.L107
 1474              	.L106:
 1475              	.LBE9:
 543:..\..\..\..\..\simplelink\source/socket.c **** 
 544:..\..\..\..\..\simplelink\source/socket.c ****     VERIFY_PROTOCOL((pMsgArgs->sd & BSD_SOCKET_ID_MASK) <= SL_MAX_SOCKETS);
 1476              		.loc 1 544 0 is_stmt 1
 1477 002c 7B69     		ldr	r3, [r7, #20]
 1478 002e 9B78     		ldrb	r3, [r3, #2]
 1479 0030 1A1C     		mov	r2, r3
 1480 0032 0F23     		mov	r3, #15
 1481 0034 1340     		and	r3, r2
 1482 0036 082B     		cmp	r3, #8
 1483 0038 00DD     		ble	.L108
 1484              	.L109:
 1485              		.loc 1 544 0 is_stmt 0 discriminator 1
 1486 003a FEE7     		b	.L109
 1487              	.L108:
 545:..\..\..\..\..\simplelink\source/socket.c ****     VERIFY_SOCKET_CB(NULL != g_pCB->ObjPool[g_pCB->FunctionParams.AsyncExt.ActionIndex].pRespArgs);
 546:..\..\..\..\..\simplelink\source/socket.c **** 
 547:..\..\..\..\..\simplelink\source/socket.c ****     ((_SocketResponse_t *)(g_pCB->ObjPool[g_pCB->FunctionParams.AsyncExt.ActionIndex].pRespArgs))->
 1488              		.loc 1 547 0 is_stmt 1
 1489 003c 244B     		ldr	r3, .L116
 1490 003e 1968     		ldr	r1, [r3]
 1491 0040 234B     		ldr	r3, .L116
 1492 0042 1A68     		ldr	r2, [r3]
 1493 0044 AC23     		mov	r3, #172
 1494 0046 D35C     		ldrb	r3, [r2, r3]
 1495 0048 1A1C     		mov	r2, r3
 1496 004a 131C     		mov	r3, r2
 1497 004c 5B00     		lsl	r3, r3, #1
 1498 004e 9B18     		add	r3, r3, r2
 1499 0050 9B00     		lsl	r3, r3, #2
 1500 0052 CB18     		add	r3, r1, r3
 1501 0054 1433     		add	r3, r3, #20
 1502 0056 1B68     		ldr	r3, [r3]
 1503 0058 7A69     		ldr	r2, [r7, #20]
 1504 005a 9278     		ldrb	r2, [r2, #2]
ARM GAS  C:\Users\X0217454\AppData\Local\Temp\cc5FLHAl.s 			page 37


 1505 005c 9A70     		strb	r2, [r3, #2]
 548:..\..\..\..\..\simplelink\source/socket.c ****     ((_SocketResponse_t *)(g_pCB->ObjPool[g_pCB->FunctionParams.AsyncExt.ActionIndex].pRespArgs))->
 1506              		.loc 1 548 0
 1507 005e 1C4B     		ldr	r3, .L116
 1508 0060 1968     		ldr	r1, [r3]
 1509 0062 1B4B     		ldr	r3, .L116
 1510 0064 1A68     		ldr	r2, [r3]
 1511 0066 AC23     		mov	r3, #172
 1512 0068 D35C     		ldrb	r3, [r2, r3]
 1513 006a 1A1C     		mov	r2, r3
 1514 006c 131C     		mov	r3, r2
 1515 006e 5B00     		lsl	r3, r3, #1
 1516 0070 9B18     		add	r3, r3, r2
 1517 0072 9B00     		lsl	r3, r3, #2
 1518 0074 CB18     		add	r3, r1, r3
 1519 0076 1433     		add	r3, r3, #20
 1520 0078 1B68     		ldr	r3, [r3]
 1521 007a 7A69     		ldr	r2, [r7, #20]
 1522 007c 1288     		ldrh	r2, [r2]
 1523 007e 1A80     		strh	r2, [r3]
 1524              	.LBB10:
 549:..\..\..\..\..\simplelink\source/socket.c **** 
 550:..\..\..\..\..\simplelink\source/socket.c ****     OSI_RET_OK_CHECK(sl_SyncObjSignal(&g_pCB->ObjPool[g_pCB->FunctionParams.AsyncExt.ActionIndex].S
 1525              		.loc 1 550 0
 1526 0080 134B     		ldr	r3, .L116
 1527 0082 1968     		ldr	r1, [r3]
 1528 0084 124B     		ldr	r3, .L116
 1529 0086 1A68     		ldr	r2, [r3]
 1530 0088 AC23     		mov	r3, #172
 1531 008a D35C     		ldrb	r3, [r2, r3]
 1532 008c 1A1C     		mov	r2, r3
 1533 008e 131C     		mov	r3, r2
 1534 0090 5B00     		lsl	r3, r3, #1
 1535 0092 9B18     		add	r3, r3, r2
 1536 0094 9B00     		lsl	r3, r3, #2
 1537 0096 1033     		add	r3, r3, #16
 1538 0098 CB18     		add	r3, r1, r3
 1539 009a 181C     		mov	r0, r3
 1540 009c 2221     		mov	r1, #34
 1541 009e FFF7FEFF 		bl	_SlNonOsSemSet
 1542 00a2 031C     		mov	r3, r0
 1543 00a4 FB60     		str	r3, [r7, #12]
 1544 00a6 FB68     		ldr	r3, [r7, #12]
 1545 00a8 002B     		cmp	r3, #0
 1546 00aa 00D0     		beq	.L110
 1547              	.L111:
 1548              		.loc 1 550 0 is_stmt 0 discriminator 1
 1549 00ac FEE7     		b	.L111
 1550              	.L110:
 1551              	.LBE10:
 1552              	.LBB11:
 551:..\..\..\..\..\simplelink\source/socket.c ****     OSI_RET_OK_CHECK(sl_LockObjUnlock(&g_pCB->ProtectionLockObj));
 1553              		.loc 1 551 0 is_stmt 1
 1554 00ae 084B     		ldr	r3, .L116
 1555 00b0 1B68     		ldr	r3, [r3]
 1556 00b2 9033     		add	r3, r3, #144
 1557 00b4 181C     		mov	r0, r3
ARM GAS  C:\Users\X0217454\AppData\Local\Temp\cc5FLHAl.s 			page 38


 1558 00b6 3321     		mov	r1, #51
 1559 00b8 FFF7FEFF 		bl	_SlNonOsSemSet
 1560 00bc 031C     		mov	r3, r0
 1561 00be BB60     		str	r3, [r7, #8]
 1562 00c0 BB68     		ldr	r3, [r7, #8]
 1563 00c2 002B     		cmp	r3, #0
 1564 00c4 00D0     		beq	.L115
 1565              	.L113:
 1566              		.loc 1 551 0 is_stmt 0 discriminator 1
 1567 00c6 FEE7     		b	.L113
 1568              	.L115:
 1569              	.LBE11:
 552:..\..\..\..\..\simplelink\source/socket.c ****     return;
 1570              		.loc 1 552 0 is_stmt 1
 1571 00c8 C046     		mov	r8, r8
 1572              	.L105:
 553:..\..\..\..\..\simplelink\source/socket.c **** }
 1573              		.loc 1 553 0
 1574 00ca BD46     		mov	sp, r7
 1575 00cc 06B0     		add	sp, sp, #24
 1576              		@ sp needed for prologue
 1577 00ce 80BD     		pop	{r7, pc}
 1578              	.L117:
 1579              		.align	2
 1580              	.L116:
 1581 00d0 00000000 		.word	g_pCB
 1582              		.cfi_endproc
 1583              	.LFE9:
 1584              		.size	_sl_HandleAsync_Connect, .-_sl_HandleAsync_Connect
 1585              		.global	_SlSendCmdCtrl
 1586              		.section	.rodata
 1587              		.align	2
 1588              		.type	_SlSendCmdCtrl, %object
 1589              		.size	_SlSendCmdCtrl, 4
 1590              	_SlSendCmdCtrl:
 1591 000c 0C94     		.short	-27636
 1592 000e 04       		.byte	4
 1593 000f 00       		.byte	0
 1594              		.section	.text.sl_Send,"ax",%progbits
 1595              		.align	2
 1596              		.global	sl_Send
 1597              		.code	16
 1598              		.thumb_func
 1599              		.type	sl_Send, %function
 1600              	sl_Send:
 1601              	.LFB10:
 554:..\..\..\..\..\simplelink\source/socket.c **** 
 555:..\..\..\..\..\simplelink\source/socket.c **** /*******************************************************************************/
 556:..\..\..\..\..\simplelink\source/socket.c **** /*  sl_Sendto */
 557:..\..\..\..\..\simplelink\source/socket.c **** /*******************************************************************************/
 558:..\..\..\..\..\simplelink\source/socket.c **** typedef union
 559:..\..\..\..\..\simplelink\source/socket.c **** {
 560:..\..\..\..\..\simplelink\source/socket.c **** 	_sendRecvCommand_t    Cmd;
 561:..\..\..\..\..\simplelink\source/socket.c ****     /*  no response for 'sendto' commands*/
 562:..\..\..\..\..\simplelink\source/socket.c **** }_SlSendMsg_u;
 563:..\..\..\..\..\simplelink\source/socket.c **** 
 564:..\..\..\..\..\simplelink\source/socket.c **** const _SlCmdCtrl_t _SlSendCmdCtrl =
ARM GAS  C:\Users\X0217454\AppData\Local\Temp\cc5FLHAl.s 			page 39


 565:..\..\..\..\..\simplelink\source/socket.c **** {
 566:..\..\..\..\..\simplelink\source/socket.c ****     SL_OPCODE_SOCKET_SEND,
 567:..\..\..\..\..\simplelink\source/socket.c ****     sizeof(_sendRecvCommand_t),
 568:..\..\..\..\..\simplelink\source/socket.c ****     0
 569:..\..\..\..\..\simplelink\source/socket.c **** };
 570:..\..\..\..\..\simplelink\source/socket.c **** 
 571:..\..\..\..\..\simplelink\source/socket.c **** #if _SL_INCLUDE_FUNC(sl_Send)
 572:..\..\..\..\..\simplelink\source/socket.c **** int sl_Send(int sd, const void *pBuf, int Len, int flags)
 573:..\..\..\..\..\simplelink\source/socket.c **** {
 1602              		.loc 1 573 0
 1603              		.cfi_startproc
 1604 0000 80B5     		push	{r7, lr}
 1605              	.LCFI30:
 1606              		.cfi_def_cfa_offset 8
 1607              		.cfi_offset 7, -8
 1608              		.cfi_offset 14, -4
 1609 0002 8CB0     		sub	sp, sp, #48
 1610              	.LCFI31:
 1611              		.cfi_def_cfa_offset 56
 1612 0004 00AF     		add	r7, sp, #0
 1613              	.LCFI32:
 1614              		.cfi_def_cfa_register 7
 1615 0006 F860     		str	r0, [r7, #12]
 1616 0008 B960     		str	r1, [r7, #8]
 1617 000a 7A60     		str	r2, [r7, #4]
 1618 000c 3B60     		str	r3, [r7]
 574:..\..\..\..\..\simplelink\source/socket.c ****     _SlSendMsg_u   Msg;
 575:..\..\..\..\..\simplelink\source/socket.c ****     _SlCmdExt_t    CmdExt;
 576:..\..\..\..\..\simplelink\source/socket.c ****     UINT16         ChunkLen;
 577:..\..\..\..\..\simplelink\source/socket.c ****     int            RetVal;
 578:..\..\..\..\..\simplelink\source/socket.c **** 	UINT32         tempVal;
 579:..\..\..\..\..\simplelink\source/socket.c **** 	unsigned char  runSingleChunk = FALSE; 
 1619              		.loc 1 579 0
 1620 000e 3B1C     		mov	r3, r7
 1621 0010 2D33     		add	r3, r3, #45
 1622 0012 0022     		mov	r2, #0
 1623 0014 1A70     		strb	r2, [r3]
 580:..\..\..\..\..\simplelink\source/socket.c **** 
 581:..\..\..\..\..\simplelink\source/socket.c ****     CmdExt.TxPayloadLen = Len;
 1624              		.loc 1 581 0
 1625 0016 7B68     		ldr	r3, [r7, #4]
 1626 0018 9AB2     		uxth	r2, r3
 1627 001a 3B1C     		mov	r3, r7
 1628 001c 1433     		add	r3, r3, #20
 1629 001e 1A80     		strh	r2, [r3]
 582:..\..\..\..\..\simplelink\source/socket.c ****     CmdExt.RxPayloadLen = 0;
 1630              		.loc 1 582 0
 1631 0020 3B1C     		mov	r3, r7
 1632 0022 1433     		add	r3, r3, #20
 1633 0024 0022     		mov	r2, #0
 1634 0026 5A80     		strh	r2, [r3, #2]
 583:..\..\..\..\..\simplelink\source/socket.c ****     CmdExt.pTxPayload = (UINT8 *)pBuf;
 1635              		.loc 1 583 0
 1636 0028 3B1C     		mov	r3, r7
 1637 002a 1433     		add	r3, r3, #20
 1638 002c BA68     		ldr	r2, [r7, #8]
 1639 002e 9A60     		str	r2, [r3, #8]
ARM GAS  C:\Users\X0217454\AppData\Local\Temp\cc5FLHAl.s 			page 40


 584:..\..\..\..\..\simplelink\source/socket.c **** 
 585:..\..\..\..\..\simplelink\source/socket.c ****     /* Only for RAW transceiver type socket, relay the flags parameter in the 2 bytes (4 byte align
 586:..\..\..\..\..\simplelink\source/socket.c ****     if ((sd & SL_SOCKET_PAYLOAD_TYPE_MASK) == SL_SOCKET_PAYLOAD_TYPE_RAW_TRANCEIVER)
 1640              		.loc 1 586 0
 1641 0030 FA68     		ldr	r2, [r7, #12]
 1642 0032 F023     		mov	r3, #240
 1643 0034 1340     		and	r3, r2
 1644 0036 802B     		cmp	r3, #128
 1645 0038 14D1     		bne	.L119
 587:..\..\..\..\..\simplelink\source/socket.c ****     {
 588:..\..\..\..\..\simplelink\source/socket.c **** 		tempVal = flags;
 1646              		.loc 1 588 0
 1647 003a 3B68     		ldr	r3, [r7]
 1648 003c 3B61     		str	r3, [r7, #16]
 589:..\..\..\..\..\simplelink\source/socket.c ****         CmdExt.pRxPayload = (UINT8 *)&tempVal;
 1649              		.loc 1 589 0
 1650 003e 3B1C     		mov	r3, r7
 1651 0040 1433     		add	r3, r3, #20
 1652 0042 3A1C     		mov	r2, r7
 1653 0044 1032     		add	r2, r2, #16
 1654 0046 DA60     		str	r2, [r3, #12]
 590:..\..\..\..\..\simplelink\source/socket.c **** 		CmdExt.RxPayloadLen = 4;
 1655              		.loc 1 590 0
 1656 0048 3B1C     		mov	r3, r7
 1657 004a 1433     		add	r3, r3, #20
 1658 004c 0422     		mov	r2, #4
 1659 004e 5A80     		strh	r2, [r3, #2]
 591:..\..\..\..\..\simplelink\source/socket.c ****         g_pCB->RelayFlagsViaRxPayload = TRUE;
 1660              		.loc 1 591 0
 1661 0050 434B     		ldr	r3, .L127
 1662 0052 1A68     		ldr	r2, [r3]
 1663 0054 9B23     		mov	r3, #155
 1664 0056 0121     		mov	r1, #1
 1665 0058 D154     		strb	r1, [r2, r3]
 592:..\..\..\..\..\simplelink\source/socket.c **** 		runSingleChunk = TRUE;
 1666              		.loc 1 592 0
 1667 005a 3B1C     		mov	r3, r7
 1668 005c 2D33     		add	r3, r3, #45
 1669 005e 0122     		mov	r2, #1
 1670 0060 1A70     		strb	r2, [r3]
 1671 0062 03E0     		b	.L120
 1672              	.L119:
 593:..\..\..\..\..\simplelink\source/socket.c ****     }
 594:..\..\..\..\..\simplelink\source/socket.c ****     else
 595:..\..\..\..\..\simplelink\source/socket.c ****     {
 596:..\..\..\..\..\simplelink\source/socket.c ****         CmdExt.pRxPayload = NULL;
 1673              		.loc 1 596 0
 1674 0064 3B1C     		mov	r3, r7
 1675 0066 1433     		add	r3, r3, #20
 1676 0068 0022     		mov	r2, #0
 1677 006a DA60     		str	r2, [r3, #12]
 1678              	.L120:
 597:..\..\..\..\..\simplelink\source/socket.c ****     }
 598:..\..\..\..\..\simplelink\source/socket.c **** 
 599:..\..\..\..\..\simplelink\source/socket.c ****     ChunkLen = _sl_TruncatePayloadByProtocol(sd,Len);
 1679              		.loc 1 599 0
 1680 006c FB68     		ldr	r3, [r7, #12]
ARM GAS  C:\Users\X0217454\AppData\Local\Temp\cc5FLHAl.s 			page 41


 1681 006e DAB2     		uxtb	r2, r3
 1682 0070 7B68     		ldr	r3, [r7, #4]
 1683 0072 101C     		mov	r0, r2
 1684 0074 191C     		mov	r1, r3
 1685 0076 FFF7FEFF 		bl	_sl_TruncatePayloadByProtocol
 1686 007a 021C     		mov	r2, r0
 1687 007c 3B1C     		mov	r3, r7
 1688 007e 2E33     		add	r3, r3, #46
 1689 0080 1A80     		strh	r2, [r3]
 600:..\..\..\..\..\simplelink\source/socket.c ****     CmdExt.TxPayloadLen = ChunkLen;
 1690              		.loc 1 600 0
 1691 0082 3B1C     		mov	r3, r7
 1692 0084 1433     		add	r3, r3, #20
 1693 0086 3A1C     		mov	r2, r7
 1694 0088 2E32     		add	r2, r2, #46
 1695 008a 1288     		ldrh	r2, [r2]
 1696 008c 1A80     		strh	r2, [r3]
 601:..\..\..\..\..\simplelink\source/socket.c **** 
 602:..\..\..\..\..\simplelink\source/socket.c ****     Msg.Cmd.StatusOrLen = ChunkLen;
 1697              		.loc 1 602 0
 1698 008e 3B1C     		mov	r3, r7
 1699 0090 2433     		add	r3, r3, #36
 1700 0092 3A1C     		mov	r2, r7
 1701 0094 2E32     		add	r2, r2, #46
 1702 0096 1288     		ldrh	r2, [r2]
 1703 0098 1A80     		strh	r2, [r3]
 603:..\..\..\..\..\simplelink\source/socket.c ****     Msg.Cmd.sd = sd;
 1704              		.loc 1 603 0
 1705 009a FB68     		ldr	r3, [r7, #12]
 1706 009c DAB2     		uxtb	r2, r3
 1707 009e 3B1C     		mov	r3, r7
 1708 00a0 2433     		add	r3, r3, #36
 1709 00a2 9A70     		strb	r2, [r3, #2]
 604:..\..\..\..\..\simplelink\source/socket.c ****     Msg.Cmd.FamilyAndFlags |= flags & 0x0F;
 1710              		.loc 1 604 0
 1711 00a4 3B1C     		mov	r3, r7
 1712 00a6 2433     		add	r3, r3, #36
 1713 00a8 DB78     		ldrb	r3, [r3, #3]
 1714 00aa DAB2     		uxtb	r2, r3
 1715 00ac 3B68     		ldr	r3, [r7]
 1716 00ae DBB2     		uxtb	r3, r3
 1717 00b0 191C     		add	r1, r3, #0
 1718 00b2 0F23     		mov	r3, #15
 1719 00b4 0B40     		and	r3, r1
 1720 00b6 DBB2     		uxtb	r3, r3
 1721 00b8 1343     		orr	r3, r2
 1722 00ba DBB2     		uxtb	r3, r3
 1723 00bc DAB2     		uxtb	r2, r3
 1724 00be 3B1C     		mov	r3, r7
 1725 00c0 2433     		add	r3, r3, #36
 1726 00c2 DA70     		strb	r2, [r3, #3]
 1727              	.L125:
 605:..\..\..\..\..\simplelink\source/socket.c **** 
 606:..\..\..\..\..\simplelink\source/socket.c ****     do
 607:..\..\..\..\..\simplelink\source/socket.c ****     {
 608:..\..\..\..\..\simplelink\source/socket.c ****         RetVal = _SlDrvDataWriteOp(sd, (_SlCmdCtrl_t *)&_SlSendCmdCtrl, &Msg, &CmdExt);
 1728              		.loc 1 608 0
ARM GAS  C:\Users\X0217454\AppData\Local\Temp\cc5FLHAl.s 			page 42


 1729 00c4 FB68     		ldr	r3, [r7, #12]
 1730 00c6 D8B2     		uxtb	r0, r3
 1731 00c8 2649     		ldr	r1, .L127+4
 1732 00ca 3A1C     		mov	r2, r7
 1733 00cc 2432     		add	r2, r2, #36
 1734 00ce 3B1C     		mov	r3, r7
 1735 00d0 1433     		add	r3, r3, #20
 1736 00d2 FFF7FEFF 		bl	_SlDrvDataWriteOp
 1737 00d6 031C     		mov	r3, r0
 1738 00d8 BB62     		str	r3, [r7, #40]
 609:..\..\..\..\..\simplelink\source/socket.c ****         if(SL_OS_RET_CODE_OK == RetVal)
 1739              		.loc 1 609 0
 1740 00da BB6A     		ldr	r3, [r7, #40]
 1741 00dc 002B     		cmp	r3, #0
 1742 00de 33D1     		bne	.L121
 610:..\..\..\..\..\simplelink\source/socket.c ****         {
 611:..\..\..\..\..\simplelink\source/socket.c ****             CmdExt.pTxPayload += ChunkLen;
 1743              		.loc 1 611 0
 1744 00e0 3B1C     		mov	r3, r7
 1745 00e2 1433     		add	r3, r3, #20
 1746 00e4 9A68     		ldr	r2, [r3, #8]
 1747 00e6 3B1C     		mov	r3, r7
 1748 00e8 2E33     		add	r3, r3, #46
 1749 00ea 1B88     		ldrh	r3, [r3]
 1750 00ec D218     		add	r2, r2, r3
 1751 00ee 3B1C     		mov	r3, r7
 1752 00f0 1433     		add	r3, r3, #20
 1753 00f2 9A60     		str	r2, [r3, #8]
 612:..\..\..\..\..\simplelink\source/socket.c ****             ChunkLen = (UINT8 *)pBuf + Len - CmdExt.pTxPayload;
 1754              		.loc 1 612 0
 1755 00f4 7B68     		ldr	r3, [r7, #4]
 1756 00f6 BA68     		ldr	r2, [r7, #8]
 1757 00f8 D318     		add	r3, r2, r3
 1758 00fa 1A1C     		mov	r2, r3
 1759 00fc 3B1C     		mov	r3, r7
 1760 00fe 1433     		add	r3, r3, #20
 1761 0100 9B68     		ldr	r3, [r3, #8]
 1762 0102 D21A     		sub	r2, r2, r3
 1763 0104 3B1C     		mov	r3, r7
 1764 0106 2E33     		add	r3, r3, #46
 1765 0108 1A80     		strh	r2, [r3]
 613:..\..\..\..\..\simplelink\source/socket.c ****             ChunkLen = _sl_TruncatePayloadByProtocol(sd,ChunkLen);
 1766              		.loc 1 613 0
 1767 010a FB68     		ldr	r3, [r7, #12]
 1768 010c DAB2     		uxtb	r2, r3
 1769 010e 3B1C     		mov	r3, r7
 1770 0110 2E33     		add	r3, r3, #46
 1771 0112 1B88     		ldrh	r3, [r3]
 1772 0114 101C     		mov	r0, r2
 1773 0116 191C     		mov	r1, r3
 1774 0118 FFF7FEFF 		bl	_sl_TruncatePayloadByProtocol
 1775 011c 021C     		mov	r2, r0
 1776 011e 3B1C     		mov	r3, r7
 1777 0120 2E33     		add	r3, r3, #46
 1778 0122 1A80     		strh	r2, [r3]
 614:..\..\..\..\..\simplelink\source/socket.c ****             CmdExt.TxPayloadLen = ChunkLen;
 1779              		.loc 1 614 0
ARM GAS  C:\Users\X0217454\AppData\Local\Temp\cc5FLHAl.s 			page 43


 1780 0124 3B1C     		mov	r3, r7
 1781 0126 1433     		add	r3, r3, #20
 1782 0128 3A1C     		mov	r2, r7
 1783 012a 2E32     		add	r2, r2, #46
 1784 012c 1288     		ldrh	r2, [r2]
 1785 012e 1A80     		strh	r2, [r3]
 615:..\..\..\..\..\simplelink\source/socket.c ****             Msg.Cmd.StatusOrLen = ChunkLen;
 1786              		.loc 1 615 0
 1787 0130 3B1C     		mov	r3, r7
 1788 0132 2433     		add	r3, r3, #36
 1789 0134 3A1C     		mov	r2, r7
 1790 0136 2E32     		add	r2, r2, #46
 1791 0138 1288     		ldrh	r2, [r2]
 1792 013a 1A80     		strh	r2, [r3]
 616:..\..\..\..\..\simplelink\source/socket.c ****         }
 617:..\..\..\..\..\simplelink\source/socket.c ****         else
 618:..\..\..\..\..\simplelink\source/socket.c ****         {
 619:..\..\..\..\..\simplelink\source/socket.c ****             return RetVal;
 620:..\..\..\..\..\simplelink\source/socket.c ****         }
 621:..\..\..\..\..\simplelink\source/socket.c ****     }while((ChunkLen > 0) && (runSingleChunk==FALSE));
 1793              		.loc 1 621 0
 1794 013c 3B1C     		mov	r3, r7
 1795 013e 2E33     		add	r3, r3, #46
 1796 0140 1B88     		ldrh	r3, [r3]
 1797 0142 002B     		cmp	r3, #0
 1798 0144 02D1     		bne	.L122
 1799 0146 06E0     		b	.L123
 1800              	.L121:
 619:..\..\..\..\..\simplelink\source/socket.c ****             return RetVal;
 1801              		.loc 1 619 0
 1802 0148 BB6A     		ldr	r3, [r7, #40]
 1803 014a 05E0     		b	.L126
 1804              	.L122:
 1805              		.loc 1 621 0 discriminator 1
 1806 014c 3B1C     		mov	r3, r7
 1807 014e 2D33     		add	r3, r3, #45
 1808 0150 1B78     		ldrb	r3, [r3]
 1809 0152 002B     		cmp	r3, #0
 1810 0154 B6D0     		beq	.L125
 1811              	.L123:
 622:..\..\..\..\..\simplelink\source/socket.c ****     
 623:..\..\..\..\..\simplelink\source/socket.c ****     return (int)Len;
 1812              		.loc 1 623 0
 1813 0156 7B68     		ldr	r3, [r7, #4]
 1814              	.L126:
 624:..\..\..\..\..\simplelink\source/socket.c **** }
 1815              		.loc 1 624 0
 1816 0158 181C     		mov	r0, r3
 1817 015a BD46     		mov	sp, r7
 1818 015c 0CB0     		add	sp, sp, #48
 1819              		@ sp needed for prologue
 1820 015e 80BD     		pop	{r7, pc}
 1821              	.L128:
 1822              		.align	2
 1823              	.L127:
 1824 0160 00000000 		.word	g_pCB
 1825 0164 00000000 		.word	_SlSendCmdCtrl
ARM GAS  C:\Users\X0217454\AppData\Local\Temp\cc5FLHAl.s 			page 44


 1826              		.cfi_endproc
 1827              	.LFE10:
 1828              		.size	sl_Send, .-sl_Send
 1829              		.global	_SlListenCmdCtrl
 1830              		.section	.rodata
 1831              		.align	2
 1832              		.type	_SlListenCmdCtrl, %object
 1833              		.size	_SlListenCmdCtrl, 4
 1834              	_SlListenCmdCtrl:
 1835 0010 0594     		.short	-27643
 1836 0012 04       		.byte	4
 1837 0013 04       		.byte	4
 1838              		.section	.text.sl_Listen,"ax",%progbits
 1839              		.align	2
 1840              		.global	sl_Listen
 1841              		.code	16
 1842              		.thumb_func
 1843              		.type	sl_Listen, %function
 1844              	sl_Listen:
 1845              	.LFB11:
 625:..\..\..\..\..\simplelink\source/socket.c **** #endif
 626:..\..\..\..\..\simplelink\source/socket.c **** 
 627:..\..\..\..\..\simplelink\source/socket.c **** /*******************************************************************************/
 628:..\..\..\..\..\simplelink\source/socket.c **** /*  sl_Listen */
 629:..\..\..\..\..\simplelink\source/socket.c **** /*******************************************************************************/
 630:..\..\..\..\..\simplelink\source/socket.c **** typedef union
 631:..\..\..\..\..\simplelink\source/socket.c **** {
 632:..\..\..\..\..\simplelink\source/socket.c **** 	_ListenCommand_t    Cmd;
 633:..\..\..\..\..\simplelink\source/socket.c ****     _BasicResponse_t    Rsp;
 634:..\..\..\..\..\simplelink\source/socket.c **** }_SlListenMsg_u;
 635:..\..\..\..\..\simplelink\source/socket.c **** 
 636:..\..\..\..\..\simplelink\source/socket.c **** const _SlCmdCtrl_t _SlListenCmdCtrl =
 637:..\..\..\..\..\simplelink\source/socket.c **** {
 638:..\..\..\..\..\simplelink\source/socket.c ****     SL_OPCODE_SOCKET_LISTEN,
 639:..\..\..\..\..\simplelink\source/socket.c ****     sizeof(_ListenCommand_t),
 640:..\..\..\..\..\simplelink\source/socket.c ****     sizeof(_BasicResponse_t),
 641:..\..\..\..\..\simplelink\source/socket.c **** };
 642:..\..\..\..\..\simplelink\source/socket.c **** 
 643:..\..\..\..\..\simplelink\source/socket.c **** #if _SL_INCLUDE_FUNC(sl_Listen)
 644:..\..\..\..\..\simplelink\source/socket.c **** int sl_Listen(int sd, int backlog)
 645:..\..\..\..\..\simplelink\source/socket.c **** {
 1846              		.loc 1 645 0
 1847              		.cfi_startproc
 1848 0000 80B5     		push	{r7, lr}
 1849              	.LCFI33:
 1850              		.cfi_def_cfa_offset 8
 1851              		.cfi_offset 7, -8
 1852              		.cfi_offset 14, -4
 1853 0002 84B0     		sub	sp, sp, #16
 1854              	.LCFI34:
 1855              		.cfi_def_cfa_offset 24
 1856 0004 00AF     		add	r7, sp, #0
 1857              	.LCFI35:
 1858              		.cfi_def_cfa_register 7
 1859 0006 7860     		str	r0, [r7, #4]
 1860 0008 3960     		str	r1, [r7]
 646:..\..\..\..\..\simplelink\source/socket.c ****     _SlListenMsg_u  Msg;
ARM GAS  C:\Users\X0217454\AppData\Local\Temp\cc5FLHAl.s 			page 45


 647:..\..\..\..\..\simplelink\source/socket.c **** 
 648:..\..\..\..\..\simplelink\source/socket.c ****     Msg.Cmd.sd = sd;
 1861              		.loc 1 648 0
 1862 000a 7B68     		ldr	r3, [r7, #4]
 1863 000c DAB2     		uxtb	r2, r3
 1864 000e 3B1C     		mov	r3, r7
 1865 0010 0833     		add	r3, r3, #8
 1866 0012 1A70     		strb	r2, [r3]
 649:..\..\..\..\..\simplelink\source/socket.c ****     Msg.Cmd.backlog = backlog;
 1867              		.loc 1 649 0
 1868 0014 3B68     		ldr	r3, [r7]
 1869 0016 DAB2     		uxtb	r2, r3
 1870 0018 3B1C     		mov	r3, r7
 1871 001a 0833     		add	r3, r3, #8
 1872 001c 5A70     		strb	r2, [r3, #1]
 1873              	.LBB12:
 650:..\..\..\..\..\simplelink\source/socket.c **** 
 651:..\..\..\..\..\simplelink\source/socket.c ****     VERIFY_RET_OK(_SlDrvCmdOp((_SlCmdCtrl_t *)&_SlListenCmdCtrl, &Msg, NULL));
 1874              		.loc 1 651 0
 1875 001e 0B4A     		ldr	r2, .L133
 1876 0020 3B1C     		mov	r3, r7
 1877 0022 0833     		add	r3, r3, #8
 1878 0024 101C     		mov	r0, r2
 1879 0026 191C     		mov	r1, r3
 1880 0028 0022     		mov	r2, #0
 1881 002a FFF7FEFF 		bl	_SlDrvCmdOp
 1882 002e 031C     		mov	r3, r0
 1883 0030 FB60     		str	r3, [r7, #12]
 1884 0032 FB68     		ldr	r3, [r7, #12]
 1885 0034 002B     		cmp	r3, #0
 1886 0036 00D0     		beq	.L130
 1887              	.L131:
 1888              		.loc 1 651 0 is_stmt 0 discriminator 1
 1889 0038 FEE7     		b	.L131
 1890              	.L130:
 1891              	.LBE12:
 652:..\..\..\..\..\simplelink\source/socket.c **** 
 653:..\..\..\..\..\simplelink\source/socket.c ****     return (int)Msg.Rsp.status;
 1892              		.loc 1 653 0 is_stmt 1
 1893 003a 3B1C     		mov	r3, r7
 1894 003c 0833     		add	r3, r3, #8
 1895 003e 1B88     		ldrh	r3, [r3]
 1896 0040 1BB2     		sxth	r3, r3
 654:..\..\..\..\..\simplelink\source/socket.c **** }
 1897              		.loc 1 654 0
 1898 0042 181C     		mov	r0, r3
 1899 0044 BD46     		mov	sp, r7
 1900 0046 04B0     		add	sp, sp, #16
 1901              		@ sp needed for prologue
 1902 0048 80BD     		pop	{r7, pc}
 1903              	.L134:
 1904 004a C046     		.align	2
 1905              	.L133:
 1906 004c 00000000 		.word	_SlListenCmdCtrl
 1907              		.cfi_endproc
 1908              	.LFE11:
 1909              		.size	sl_Listen, .-sl_Listen
ARM GAS  C:\Users\X0217454\AppData\Local\Temp\cc5FLHAl.s 			page 46


 1910              		.global	_SlAcceptCmdCtrl
 1911              		.section	.rodata
 1912              		.align	2
 1913              		.type	_SlAcceptCmdCtrl, %object
 1914              		.size	_SlAcceptCmdCtrl, 4
 1915              	_SlAcceptCmdCtrl:
 1916 0014 0394     		.short	-27645
 1917 0016 04       		.byte	4
 1918 0017 04       		.byte	4
 1919              		.section	.text.sl_Accept,"ax",%progbits
 1920              		.align	2
 1921              		.global	sl_Accept
 1922              		.code	16
 1923              		.thumb_func
 1924              		.type	sl_Accept, %function
 1925              	sl_Accept:
 1926              	.LFB12:
 655:..\..\..\..\..\simplelink\source/socket.c **** #endif
 656:..\..\..\..\..\simplelink\source/socket.c **** 
 657:..\..\..\..\..\simplelink\source/socket.c **** /*******************************************************************************/
 658:..\..\..\..\..\simplelink\source/socket.c **** /*  sl_Accept */
 659:..\..\..\..\..\simplelink\source/socket.c **** /*******************************************************************************/
 660:..\..\..\..\..\simplelink\source/socket.c **** typedef union
 661:..\..\..\..\..\simplelink\source/socket.c **** {
 662:..\..\..\..\..\simplelink\source/socket.c **** 	_AcceptCommand_t    Cmd;
 663:..\..\..\..\..\simplelink\source/socket.c **** 	_SocketResponse_t   Rsp;
 664:..\..\..\..\..\simplelink\source/socket.c **** }_SlSockAcceptMsg_u;
 665:..\..\..\..\..\simplelink\source/socket.c **** 
 666:..\..\..\..\..\simplelink\source/socket.c **** const _SlCmdCtrl_t _SlAcceptCmdCtrl =
 667:..\..\..\..\..\simplelink\source/socket.c **** {
 668:..\..\..\..\..\simplelink\source/socket.c ****     SL_OPCODE_SOCKET_ACCEPT,
 669:..\..\..\..\..\simplelink\source/socket.c ****     sizeof(_AcceptCommand_t),
 670:..\..\..\..\..\simplelink\source/socket.c ****     sizeof(_BasicResponse_t),
 671:..\..\..\..\..\simplelink\source/socket.c **** };
 672:..\..\..\..\..\simplelink\source/socket.c **** 
 673:..\..\..\..\..\simplelink\source/socket.c **** #if _SL_INCLUDE_FUNC(sl_Accept)
 674:..\..\..\..\..\simplelink\source/socket.c **** int sl_Accept(int sd, SlSockAddr_t *addr, SlSocklen_t *addrlen)
 675:..\..\..\..\..\simplelink\source/socket.c **** {
 1927              		.loc 1 675 0
 1928              		.cfi_startproc
 1929 0000 80B5     		push	{r7, lr}
 1930              	.LCFI36:
 1931              		.cfi_def_cfa_offset 8
 1932              		.cfi_offset 7, -8
 1933              		.cfi_offset 14, -4
 1934 0002 8EB0     		sub	sp, sp, #56
 1935              	.LCFI37:
 1936              		.cfi_def_cfa_offset 64
 1937 0004 00AF     		add	r7, sp, #0
 1938              	.LCFI38:
 1939              		.cfi_def_cfa_register 7
 1940 0006 F860     		str	r0, [r7, #12]
 1941 0008 B960     		str	r1, [r7, #8]
 1942 000a 7A60     		str	r2, [r7, #4]
 676:..\..\..\..\..\simplelink\source/socket.c **** 	_SlSockAcceptMsg_u      Msg;
 677:..\..\..\..\..\simplelink\source/socket.c ****     _SlReturnVal_t          RetVal;
 678:..\..\..\..\..\simplelink\source/socket.c ****     _SocketAddrResponse_u   AsyncRsp;
ARM GAS  C:\Users\X0217454\AppData\Local\Temp\cc5FLHAl.s 			page 47


 679:..\..\..\..\..\simplelink\source/socket.c **** 
 680:..\..\..\..\..\simplelink\source/socket.c **** 	UINT8 pObjIdx = MAX_CONCURRENT_ACTIONS;
 1943              		.loc 1 680 0
 1944 000c 3B1C     		mov	r3, r7
 1945 000e 3333     		add	r3, r3, #51
 1946 0010 0A22     		mov	r2, #10
 1947 0012 1A70     		strb	r2, [r3]
 681:..\..\..\..\..\simplelink\source/socket.c **** 
 682:..\..\..\..\..\simplelink\source/socket.c **** 
 683:..\..\..\..\..\simplelink\source/socket.c ****     Msg.Cmd.sd = sd;
 1948              		.loc 1 683 0
 1949 0014 FB68     		ldr	r3, [r7, #12]
 1950 0016 DAB2     		uxtb	r2, r3
 1951 0018 3B1C     		mov	r3, r7
 1952 001a 1C33     		add	r3, r3, #28
 1953 001c 1A70     		strb	r2, [r3]
 684:..\..\..\..\..\simplelink\source/socket.c ****     Msg.Cmd.family = (sizeof(SlSockAddrIn_t) == *addrlen) ? SL_AF_INET : SL_AF_INET6;
 1954              		.loc 1 684 0
 1955 001e 7B68     		ldr	r3, [r7, #4]
 1956 0020 1B68     		ldr	r3, [r3]
 1957 0022 102B     		cmp	r3, #16
 1958 0024 01D1     		bne	.L136
 1959              		.loc 1 684 0 is_stmt 0 discriminator 1
 1960 0026 0223     		mov	r3, #2
 1961 0028 00E0     		b	.L137
 1962              	.L136:
 1963              		.loc 1 684 0 discriminator 2
 1964 002a 0323     		mov	r3, #3
 1965              	.L137:
 1966              		.loc 1 684 0 discriminator 3
 1967 002c 3A1C     		mov	r2, r7
 1968 002e 1C32     		add	r2, r2, #28
 1969 0030 5370     		strb	r3, [r2, #1]
 685:..\..\..\..\..\simplelink\source/socket.c **** 
 686:..\..\..\..\..\simplelink\source/socket.c **** 	/* Use Obj to issue the command, if not available try later */
 687:..\..\..\..\..\simplelink\source/socket.c **** 	pObjIdx = _SlDrvWaitForPoolObj(ACCEPT_ID, sd  & BSD_SOCKET_ID_MASK);
 1970              		.loc 1 687 0 is_stmt 1 discriminator 3
 1971 0032 FB68     		ldr	r3, [r7, #12]
 1972 0034 DAB2     		uxtb	r2, r3
 1973 0036 0F23     		mov	r3, #15
 1974 0038 1340     		and	r3, r2
 1975 003a DBB2     		uxtb	r3, r3
 1976 003c 0820     		mov	r0, #8
 1977 003e 191C     		mov	r1, r3
 1978 0040 FFF7FEFF 		bl	_SlDrvWaitForPoolObj
 1979 0044 021C     		mov	r2, r0
 1980 0046 3B1C     		mov	r3, r7
 1981 0048 3333     		add	r3, r3, #51
 1982 004a 1A70     		strb	r2, [r3]
 688:..\..\..\..\..\simplelink\source/socket.c **** 	
 689:..\..\..\..\..\simplelink\source/socket.c **** 	if (MAX_CONCURRENT_ACTIONS == pObjIdx)
 1983              		.loc 1 689 0 discriminator 3
 1984 004c 3B1C     		mov	r3, r7
 1985 004e 3333     		add	r3, r3, #51
 1986 0050 1B78     		ldrb	r3, [r3]
 1987 0052 0A2B     		cmp	r3, #10
 1988 0054 01D1     		bne	.L138
ARM GAS  C:\Users\X0217454\AppData\Local\Temp\cc5FLHAl.s 			page 48


 690:..\..\..\..\..\simplelink\source/socket.c **** 	{
 691:..\..\..\..\..\simplelink\source/socket.c **** 		return SL_POOL_IS_EMPTY;
 1989              		.loc 1 691 0
 1990 0056 5D4B     		ldr	r3, .L157
 1991 0058 B3E0     		b	.L156
 1992              	.L138:
 1993              	.LBB13:
 692:..\..\..\..\..\simplelink\source/socket.c **** 	}
 693:..\..\..\..\..\simplelink\source/socket.c **** 	
 694:..\..\..\..\..\simplelink\source/socket.c ****     OSI_RET_OK_CHECK(sl_LockObjLock(&g_pCB->ProtectionLockObj, SL_OS_WAIT_FOREVER));
 1994              		.loc 1 694 0
 1995 005a 5D4B     		ldr	r3, .L157+4
 1996 005c 1B68     		ldr	r3, [r3]
 1997 005e 9033     		add	r3, r3, #144
 1998 0060 181C     		mov	r0, r3
 1999 0062 3321     		mov	r1, #51
 2000 0064 4422     		mov	r2, #68
 2001 0066 FF23     		mov	r3, #255
 2002 0068 FFF7FEFF 		bl	_SlNonOsSemGet
 2003 006c 031C     		mov	r3, r0
 2004 006e FB62     		str	r3, [r7, #44]
 2005 0070 FB6A     		ldr	r3, [r7, #44]
 2006 0072 002B     		cmp	r3, #0
 2007 0074 00D0     		beq	.L140
 2008              	.L141:
 2009              		.loc 1 694 0 is_stmt 0 discriminator 1
 2010 0076 FEE7     		b	.L141
 2011              	.L140:
 2012              	.LBE13:
 695:..\..\..\..\..\simplelink\source/socket.c **** 
 696:..\..\..\..\..\simplelink\source/socket.c **** 	g_pCB->ObjPool[pObjIdx].pRespArgs = (UINT8 *)&AsyncRsp;
 2013              		.loc 1 696 0 is_stmt 1
 2014 0078 554B     		ldr	r3, .L157+4
 2015 007a 1968     		ldr	r1, [r3]
 2016 007c 3B1C     		mov	r3, r7
 2017 007e 3333     		add	r3, r3, #51
 2018 0080 1A78     		ldrb	r2, [r3]
 2019 0082 131C     		mov	r3, r2
 2020 0084 5B00     		lsl	r3, r3, #1
 2021 0086 9B18     		add	r3, r3, r2
 2022 0088 9B00     		lsl	r3, r3, #2
 2023 008a CB18     		add	r3, r1, r3
 2024 008c 1433     		add	r3, r3, #20
 2025 008e 3A1C     		mov	r2, r7
 2026 0090 1032     		add	r2, r2, #16
 2027 0092 1A60     		str	r2, [r3]
 2028              	.LBB14:
 697:..\..\..\..\..\simplelink\source/socket.c **** 
 698:..\..\..\..\..\simplelink\source/socket.c ****     OSI_RET_OK_CHECK(sl_LockObjUnlock(&g_pCB->ProtectionLockObj));
 2029              		.loc 1 698 0
 2030 0094 4E4B     		ldr	r3, .L157+4
 2031 0096 1B68     		ldr	r3, [r3]
 2032 0098 9033     		add	r3, r3, #144
 2033 009a 181C     		mov	r0, r3
 2034 009c 3321     		mov	r1, #51
 2035 009e FFF7FEFF 		bl	_SlNonOsSemSet
 2036 00a2 031C     		mov	r3, r0
ARM GAS  C:\Users\X0217454\AppData\Local\Temp\cc5FLHAl.s 			page 49


 2037 00a4 BB62     		str	r3, [r7, #40]
 2038 00a6 BB6A     		ldr	r3, [r7, #40]
 2039 00a8 002B     		cmp	r3, #0
 2040 00aa 00D0     		beq	.L142
 2041              	.L143:
 2042              		.loc 1 698 0 is_stmt 0 discriminator 1
 2043 00ac FEE7     		b	.L143
 2044              	.L142:
 2045              	.LBE14:
 2046              	.LBB15:
 699:..\..\..\..\..\simplelink\source/socket.c **** 	/* send the command */
 700:..\..\..\..\..\simplelink\source/socket.c ****     VERIFY_RET_OK(_SlDrvCmdOp((_SlCmdCtrl_t *)&_SlAcceptCmdCtrl, &Msg, NULL));
 2047              		.loc 1 700 0 is_stmt 1
 2048 00ae 494A     		ldr	r2, .L157+8
 2049 00b0 3B1C     		mov	r3, r7
 2050 00b2 1C33     		add	r3, r3, #28
 2051 00b4 101C     		mov	r0, r2
 2052 00b6 191C     		mov	r1, r3
 2053 00b8 0022     		mov	r2, #0
 2054 00ba FFF7FEFF 		bl	_SlDrvCmdOp
 2055 00be 031C     		mov	r3, r0
 2056 00c0 7B62     		str	r3, [r7, #36]
 2057 00c2 7B6A     		ldr	r3, [r7, #36]
 2058 00c4 002B     		cmp	r3, #0
 2059 00c6 00D0     		beq	.L144
 2060              	.L145:
 2061              		.loc 1 700 0 is_stmt 0 discriminator 1
 2062 00c8 FEE7     		b	.L145
 2063              	.L144:
 2064              	.LBE15:
 701:..\..\..\..\..\simplelink\source/socket.c ****     VERIFY_PROTOCOL(Msg.Rsp.sd == sd);
 2065              		.loc 1 701 0 is_stmt 1
 2066 00ca 3B1C     		mov	r3, r7
 2067 00cc 1C33     		add	r3, r3, #28
 2068 00ce 9B78     		ldrb	r3, [r3, #2]
 2069 00d0 1A1C     		mov	r2, r3
 2070 00d2 FB68     		ldr	r3, [r7, #12]
 2071 00d4 9A42     		cmp	r2, r3
 2072 00d6 00D0     		beq	.L146
 2073              	.L147:
 2074              		.loc 1 701 0 is_stmt 0 discriminator 1
 2075 00d8 FEE7     		b	.L147
 2076              	.L146:
 702:..\..\..\..\..\simplelink\source/socket.c **** 
 703:..\..\..\..\..\simplelink\source/socket.c ****     RetVal = Msg.Rsp.statusOrLen;
 2077              		.loc 1 703 0 is_stmt 1
 2078 00da 3B1C     		mov	r3, r7
 2079 00dc 1C33     		add	r3, r3, #28
 2080 00de 1B88     		ldrh	r3, [r3]
 2081 00e0 1BB2     		sxth	r3, r3
 2082 00e2 7B63     		str	r3, [r7, #52]
 704:..\..\..\..\..\simplelink\source/socket.c **** 
 705:..\..\..\..\..\simplelink\source/socket.c ****     if(SL_OS_RET_CODE_OK == RetVal)
 2083              		.loc 1 705 0
 2084 00e4 7B6B     		ldr	r3, [r7, #52]
 2085 00e6 002B     		cmp	r3, #0
 2086 00e8 64D1     		bne	.L148
ARM GAS  C:\Users\X0217454\AppData\Local\Temp\cc5FLHAl.s 			page 50


 2087              	.LBB16:
 706:..\..\..\..\..\simplelink\source/socket.c ****     {
 707:..\..\..\..\..\simplelink\source/socket.c ****         /*  wait for async and get Data Read parameters */
 708:..\..\..\..\..\simplelink\source/socket.c **** 		OSI_RET_OK_CHECK(sl_SyncObjWait(&g_pCB->ObjPool[pObjIdx].SyncObj, SL_OS_WAIT_FOREVER));
 2088              		.loc 1 708 0
 2089 00ea 394B     		ldr	r3, .L157+4
 2090 00ec 1968     		ldr	r1, [r3]
 2091 00ee 3B1C     		mov	r3, r7
 2092 00f0 3333     		add	r3, r3, #51
 2093 00f2 1A78     		ldrb	r2, [r3]
 2094 00f4 131C     		mov	r3, r2
 2095 00f6 5B00     		lsl	r3, r3, #1
 2096 00f8 9B18     		add	r3, r3, r2
 2097 00fa 9B00     		lsl	r3, r3, #2
 2098 00fc 1033     		add	r3, r3, #16
 2099 00fe CB18     		add	r3, r1, r3
 2100 0100 181C     		mov	r0, r3
 2101 0102 2221     		mov	r1, #34
 2102 0104 1122     		mov	r2, #17
 2103 0106 FF23     		mov	r3, #255
 2104 0108 FFF7FEFF 		bl	_SlNonOsSemGet
 2105 010c 031C     		mov	r3, r0
 2106 010e 3B62     		str	r3, [r7, #32]
 2107 0110 3B6A     		ldr	r3, [r7, #32]
 2108 0112 002B     		cmp	r3, #0
 2109 0114 00D0     		beq	.L149
 2110              	.L150:
 2111              		.loc 1 708 0 is_stmt 0 discriminator 1
 2112 0116 FEE7     		b	.L150
 2113              	.L149:
 2114              	.LBE16:
 709:..\..\..\..\..\simplelink\source/socket.c **** 
 710:..\..\..\..\..\simplelink\source/socket.c ****         VERIFY_PROTOCOL(AsyncRsp.IpV4.sd == sd);
 2115              		.loc 1 710 0 is_stmt 1
 2116 0118 3B1C     		mov	r3, r7
 2117 011a 1033     		add	r3, r3, #16
 2118 011c 9B78     		ldrb	r3, [r3, #2]
 2119 011e 1A1C     		mov	r2, r3
 2120 0120 FB68     		ldr	r3, [r7, #12]
 2121 0122 9A42     		cmp	r2, r3
 2122 0124 00D0     		beq	.L151
 2123              	.L152:
 2124              		.loc 1 710 0 is_stmt 0 discriminator 1
 2125 0126 FEE7     		b	.L152
 2126              	.L151:
 711:..\..\..\..\..\simplelink\source/socket.c **** 
 712:..\..\..\..\..\simplelink\source/socket.c ****         RetVal = AsyncRsp.IpV4.statusOrLen;
 2127              		.loc 1 712 0 is_stmt 1
 2128 0128 3B1C     		mov	r3, r7
 2129 012a 1033     		add	r3, r3, #16
 2130 012c 1B88     		ldrh	r3, [r3]
 2131 012e 1BB2     		sxth	r3, r3
 2132 0130 7B63     		str	r3, [r7, #52]
 713:..\..\..\..\..\simplelink\source/socket.c ****         if( (NULL != addr) && (NULL != addrlen) )  
 2133              		.loc 1 713 0
 2134 0132 BB68     		ldr	r3, [r7, #8]
 2135 0134 002B     		cmp	r3, #0
ARM GAS  C:\Users\X0217454\AppData\Local\Temp\cc5FLHAl.s 			page 51


 2136 0136 3DD0     		beq	.L148
 2137              		.loc 1 713 0 is_stmt 0 discriminator 1
 2138 0138 7B68     		ldr	r3, [r7, #4]
 2139 013a 002B     		cmp	r3, #0
 2140 013c 3AD0     		beq	.L148
 714:..\..\..\..\..\simplelink\source/socket.c ****         {
 715:..\..\..\..\..\simplelink\source/socket.c **** #if 0 /*  Kept for backup */
 716:..\..\..\..\..\simplelink\source/socket.c ****             _sl_ParseAddress(&AsyncRsp, addr, addrlen);
 717:..\..\..\..\..\simplelink\source/socket.c **** #else
 718:..\..\..\..\..\simplelink\source/socket.c ****     	   addr->sa_family = AsyncRsp.IpV4.family;
 2141              		.loc 1 718 0 is_stmt 1
 2142 013e 3B1C     		mov	r3, r7
 2143 0140 1033     		add	r3, r3, #16
 2144 0142 DB78     		ldrb	r3, [r3, #3]
 2145 0144 1A1C     		mov	r2, r3
 2146 0146 BB68     		ldr	r3, [r7, #8]
 2147 0148 1A80     		strh	r2, [r3]
 719:..\..\..\..\..\simplelink\source/socket.c **** 
 720:..\..\..\..\..\simplelink\source/socket.c ****     	    if(SL_AF_INET == addr->sa_family)
 2148              		.loc 1 720 0
 2149 014a BB68     		ldr	r3, [r7, #8]
 2150 014c 1B88     		ldrh	r3, [r3]
 2151 014e 022B     		cmp	r3, #2
 2152 0150 12D1     		bne	.L153
 721:..\..\..\..\..\simplelink\source/socket.c ****     	    {
 722:..\..\..\..\..\simplelink\source/socket.c ****               if( *addrlen == sizeof( SlSockAddrIn_t ) )
 2153              		.loc 1 722 0
 2154 0152 7B68     		ldr	r3, [r7, #4]
 2155 0154 1B68     		ldr	r3, [r3]
 2156 0156 102B     		cmp	r3, #16
 2157 0158 0AD1     		bne	.L154
 723:..\..\..\..\..\simplelink\source/socket.c ****               {
 724:..\..\..\..\..\simplelink\source/socket.c ****                 ((SlSockAddrIn_t *)addr)->sin_port         = AsyncRsp.IpV4.port;
 2158              		.loc 1 724 0
 2159 015a 3B1C     		mov	r3, r7
 2160 015c 1033     		add	r3, r3, #16
 2161 015e 9A88     		ldrh	r2, [r3, #4]
 2162 0160 BB68     		ldr	r3, [r7, #8]
 2163 0162 5A80     		strh	r2, [r3, #2]
 725:..\..\..\..\..\simplelink\source/socket.c ****                 ((SlSockAddrIn_t *)addr)->sin_addr.s_addr  = AsyncRsp.IpV4.address;
 2164              		.loc 1 725 0
 2165 0164 3B1C     		mov	r3, r7
 2166 0166 1033     		add	r3, r3, #16
 2167 0168 9A68     		ldr	r2, [r3, #8]
 2168 016a BB68     		ldr	r3, [r7, #8]
 2169 016c 5A60     		str	r2, [r3, #4]
 2170 016e 21E0     		b	.L148
 2171              	.L154:
 726:..\..\..\..\..\simplelink\source/socket.c ****               }
 727:..\..\..\..\..\simplelink\source/socket.c ****               else
 728:..\..\..\..\..\simplelink\source/socket.c ****               {
 729:..\..\..\..\..\simplelink\source/socket.c ****                 *addrlen = 0;
 2172              		.loc 1 729 0
 2173 0170 7B68     		ldr	r3, [r7, #4]
 2174 0172 0022     		mov	r2, #0
 2175 0174 1A60     		str	r2, [r3]
 2176 0176 1DE0     		b	.L148
ARM GAS  C:\Users\X0217454\AppData\Local\Temp\cc5FLHAl.s 			page 52


 2177              	.L153:
 730:..\..\..\..\..\simplelink\source/socket.c ****               }
 731:..\..\..\..\..\simplelink\source/socket.c ****     	    }
 732:..\..\..\..\..\simplelink\source/socket.c ****     	    else if (SL_AF_INET6_EUI_48 == addr->sa_family )
 2178              		.loc 1 732 0
 2179 0178 BB68     		ldr	r3, [r7, #8]
 2180 017a 1B88     		ldrh	r3, [r3]
 2181 017c 092B     		cmp	r3, #9
 2182 017e 19D1     		bne	.L148
 733:..\..\..\..\..\simplelink\source/socket.c ****     	    {
 734:..\..\..\..\..\simplelink\source/socket.c ****                 if( *addrlen == sizeof( SlSockAddrIn6_t ) )
 2183              		.loc 1 734 0
 2184 0180 7B68     		ldr	r3, [r7, #4]
 2185 0182 1B68     		ldr	r3, [r3]
 2186 0184 1C2B     		cmp	r3, #28
 2187 0186 12D1     		bne	.L155
 735:..\..\..\..\..\simplelink\source/socket.c ****               {
 736:..\..\..\..\..\simplelink\source/socket.c ****                 ((SlSockAddrIn6_t *)addr)->sin6_port                   = AsyncRsp.IpV6EUI48.port   
 2188              		.loc 1 736 0
 2189 0188 3B1C     		mov	r3, r7
 2190 018a 1033     		add	r3, r3, #16
 2191 018c 9A88     		ldrh	r2, [r3, #4]
 2192 018e BB68     		ldr	r3, [r7, #8]
 2193 0190 5A80     		strh	r2, [r3, #2]
 737:..\..\..\..\..\simplelink\source/socket.c ****                 /*  will be called from here and from _sl_BuildAddress*/
 738:..\..\..\..\..\simplelink\source/socket.c ****                 sl_Memcpy(((SlSockAddrIn6_t *)addr)->sin6_addr._S6_un._S6_u8, AsyncRsp.IpV6EUI48.ad
 2194              		.loc 1 738 0
 2195 0192 BB68     		ldr	r3, [r7, #8]
 2196 0194 1A1C     		mov	r2, r3
 2197 0196 0832     		add	r2, r2, #8
 2198 0198 3B1C     		mov	r3, r7
 2199 019a 1633     		add	r3, r3, #22
 2200 019c 111C     		mov	r1, r2
 2201 019e 1A1C     		mov	r2, r3
 2202 01a0 0623     		mov	r3, #6
 2203 01a2 081C     		mov	r0, r1
 2204 01a4 111C     		mov	r1, r2
 2205 01a6 1A1C     		mov	r2, r3
 2206 01a8 FFF7FEFF 		bl	memcpy
 2207 01ac 02E0     		b	.L148
 2208              	.L155:
 739:..\..\..\..\..\simplelink\source/socket.c ****               }
 740:..\..\..\..\..\simplelink\source/socket.c ****               else
 741:..\..\..\..\..\simplelink\source/socket.c ****               {
 742:..\..\..\..\..\simplelink\source/socket.c ****                 *addrlen = 0;
 2209              		.loc 1 742 0
 2210 01ae 7B68     		ldr	r3, [r7, #4]
 2211 01b0 0022     		mov	r2, #0
 2212 01b2 1A60     		str	r2, [r3]
 2213              	.L148:
 743:..\..\..\..\..\simplelink\source/socket.c ****               }
 744:..\..\..\..\..\simplelink\source/socket.c ****     	    }
 745:..\..\..\..\..\simplelink\source/socket.c **** #ifdef SL_SUPPORT_IPV6
 746:..\..\..\..\..\simplelink\source/socket.c ****     	    else
 747:..\..\..\..\..\simplelink\source/socket.c ****     	    {
 748:..\..\..\..\..\simplelink\source/socket.c ****               if( *addrlen == sizeof( sockaddr_in6 ) )
 749:..\..\..\..\..\simplelink\source/socket.c ****               {
ARM GAS  C:\Users\X0217454\AppData\Local\Temp\cc5FLHAl.s 			page 53


 750:..\..\..\..\..\simplelink\source/socket.c ****     	        ((sockaddr_in6 *)addr)->sin6_port                   = AsyncRsp.IpV6.port    ;
 751:..\..\..\..\..\simplelink\source/socket.c ****     	        sl_Memcpy(((sockaddr_in6 *)addr)->sin6_addr._S6_un._S6_u32, AsyncRsp.IpV6.address, 16)
 752:..\..\..\..\..\simplelink\source/socket.c ****               }
 753:..\..\..\..\..\simplelink\source/socket.c ****               else
 754:..\..\..\..\..\simplelink\source/socket.c ****               {
 755:..\..\..\..\..\simplelink\source/socket.c ****                 *addrlen = 0;
 756:..\..\..\..\..\simplelink\source/socket.c ****               }
 757:..\..\..\..\..\simplelink\source/socket.c ****     	    }
 758:..\..\..\..\..\simplelink\source/socket.c **** #endif
 759:..\..\..\..\..\simplelink\source/socket.c **** #endif			
 760:..\..\..\..\..\simplelink\source/socket.c ****         }
 761:..\..\..\..\..\simplelink\source/socket.c ****     }
 762:..\..\..\..\..\simplelink\source/socket.c **** 
 763:..\..\..\..\..\simplelink\source/socket.c ****     _SlDrvReleasePoolObj(pObjIdx);
 2214              		.loc 1 763 0
 2215 01b4 3B1C     		mov	r3, r7
 2216 01b6 3333     		add	r3, r3, #51
 2217 01b8 1B78     		ldrb	r3, [r3]
 2218 01ba 181C     		mov	r0, r3
 2219 01bc FFF7FEFF 		bl	_SlDrvReleasePoolObj
 764:..\..\..\..\..\simplelink\source/socket.c ****     return (int)RetVal;
 2220              		.loc 1 764 0
 2221 01c0 7B6B     		ldr	r3, [r7, #52]
 2222              	.L156:
 765:..\..\..\..\..\simplelink\source/socket.c **** }
 2223              		.loc 1 765 0
 2224 01c2 181C     		mov	r0, r3
 2225 01c4 BD46     		mov	sp, r7
 2226 01c6 0EB0     		add	sp, sp, #56
 2227              		@ sp needed for prologue
 2228 01c8 80BD     		pop	{r7, pc}
 2229              	.L158:
 2230 01ca C046     		.align	2
 2231              	.L157:
 2232 01cc 30F8FFFF 		.word	-2000
 2233 01d0 00000000 		.word	g_pCB
 2234 01d4 00000000 		.word	_SlAcceptCmdCtrl
 2235              		.cfi_endproc
 2236              	.LFE12:
 2237              		.size	sl_Accept, .-sl_Accept
 2238              		.section	.text.sl_Htonl,"ax",%progbits
 2239              		.align	2
 2240              		.global	sl_Htonl
 2241              		.code	16
 2242              		.thumb_func
 2243              		.type	sl_Htonl, %function
 2244              	sl_Htonl:
 2245              	.LFB13:
 766:..\..\..\..\..\simplelink\source/socket.c **** #endif
 767:..\..\..\..\..\simplelink\source/socket.c **** 
 768:..\..\..\..\..\simplelink\source/socket.c **** 
 769:..\..\..\..\..\simplelink\source/socket.c **** /*******************************************************************************/
 770:..\..\..\..\..\simplelink\source/socket.c **** /*  sl_Htonl */
 771:..\..\..\..\..\simplelink\source/socket.c **** /*******************************************************************************/
 772:..\..\..\..\..\simplelink\source/socket.c **** unsigned long sl_Htonl( unsigned long val )
 773:..\..\..\..\..\simplelink\source/socket.c **** {
 2246              		.loc 1 773 0
ARM GAS  C:\Users\X0217454\AppData\Local\Temp\cc5FLHAl.s 			page 54


 2247              		.cfi_startproc
 2248 0000 80B5     		push	{r7, lr}
 2249              	.LCFI39:
 2250              		.cfi_def_cfa_offset 8
 2251              		.cfi_offset 7, -8
 2252              		.cfi_offset 14, -4
 2253 0002 84B0     		sub	sp, sp, #16
 2254              	.LCFI40:
 2255              		.cfi_def_cfa_offset 24
 2256 0004 00AF     		add	r7, sp, #0
 2257              	.LCFI41:
 2258              		.cfi_def_cfa_register 7
 2259 0006 7860     		str	r0, [r7, #4]
 774:..\..\..\..\..\simplelink\source/socket.c ****   unsigned long i = 1; 
 2260              		.loc 1 774 0
 2261 0008 0123     		mov	r3, #1
 2262 000a BB60     		str	r3, [r7, #8]
 775:..\..\..\..\..\simplelink\source/socket.c ****   char *p = (char *)&i;  
 2263              		.loc 1 775 0
 2264 000c 3B1C     		mov	r3, r7
 2265 000e 0833     		add	r3, r3, #8
 2266 0010 FB60     		str	r3, [r7, #12]
 776:..\..\..\..\..\simplelink\source/socket.c ****   if (p[0] == 1) /* little endian */
 2267              		.loc 1 776 0
 2268 0012 FB68     		ldr	r3, [r7, #12]
 2269 0014 1B78     		ldrb	r3, [r3]
 2270 0016 012B     		cmp	r3, #1
 2271 0018 14D1     		bne	.L160
 777:..\..\..\..\..\simplelink\source/socket.c ****   {
 778:..\..\..\..\..\simplelink\source/socket.c ****     p[0] = ((char*)&val)[3];
 2272              		.loc 1 778 0
 2273 001a FB1D     		add	r3, r7, #7
 2274 001c 1A78     		ldrb	r2, [r3]
 2275 001e FB68     		ldr	r3, [r7, #12]
 2276 0020 1A70     		strb	r2, [r3]
 779:..\..\..\..\..\simplelink\source/socket.c ****     p[1] = ((char*)&val)[2];
 2277              		.loc 1 779 0
 2278 0022 FB68     		ldr	r3, [r7, #12]
 2279 0024 0133     		add	r3, r3, #1
 2280 0026 BA1D     		add	r2, r7, #6
 2281 0028 1278     		ldrb	r2, [r2]
 2282 002a 1A70     		strb	r2, [r3]
 780:..\..\..\..\..\simplelink\source/socket.c ****     p[2] = ((char*)&val)[1];
 2283              		.loc 1 780 0
 2284 002c FB68     		ldr	r3, [r7, #12]
 2285 002e 0233     		add	r3, r3, #2
 2286 0030 7A1D     		add	r2, r7, #5
 2287 0032 1278     		ldrb	r2, [r2]
 2288 0034 1A70     		strb	r2, [r3]
 781:..\..\..\..\..\simplelink\source/socket.c ****     p[3] = ((char*)&val)[0];
 2289              		.loc 1 781 0
 2290 0036 FB68     		ldr	r3, [r7, #12]
 2291 0038 0333     		add	r3, r3, #3
 2292 003a 3A1D     		add	r2, r7, #4
 2293 003c 1278     		ldrb	r2, [r2]
 2294 003e 1A70     		strb	r2, [r3]
 782:..\..\..\..\..\simplelink\source/socket.c ****     return i;
ARM GAS  C:\Users\X0217454\AppData\Local\Temp\cc5FLHAl.s 			page 55


 2295              		.loc 1 782 0
 2296 0040 BB68     		ldr	r3, [r7, #8]
 2297 0042 00E0     		b	.L162
 2298              	.L160:
 783:..\..\..\..\..\simplelink\source/socket.c ****   }
 784:..\..\..\..\..\simplelink\source/socket.c ****   else /* big endian */
 785:..\..\..\..\..\simplelink\source/socket.c ****   {
 786:..\..\..\..\..\simplelink\source/socket.c ****     return val; 
 2299              		.loc 1 786 0
 2300 0044 7B68     		ldr	r3, [r7, #4]
 2301              	.L162:
 787:..\..\..\..\..\simplelink\source/socket.c ****   }
 788:..\..\..\..\..\simplelink\source/socket.c **** }
 2302              		.loc 1 788 0
 2303 0046 181C     		mov	r0, r3
 2304 0048 BD46     		mov	sp, r7
 2305 004a 04B0     		add	sp, sp, #16
 2306              		@ sp needed for prologue
 2307 004c 80BD     		pop	{r7, pc}
 2308              		.cfi_endproc
 2309              	.LFE13:
 2310              		.size	sl_Htonl, .-sl_Htonl
 2311 004e C046     		.section	.text.sl_Htons,"ax",%progbits
 2312              		.align	2
 2313              		.global	sl_Htons
 2314              		.code	16
 2315              		.thumb_func
 2316              		.type	sl_Htons, %function
 2317              	sl_Htons:
 2318              	.LFB14:
 789:..\..\..\..\..\simplelink\source/socket.c **** 
 790:..\..\..\..\..\simplelink\source/socket.c **** /*******************************************************************************/
 791:..\..\..\..\..\simplelink\source/socket.c **** /*  sl_Htonl */
 792:..\..\..\..\..\simplelink\source/socket.c **** /*******************************************************************************/
 793:..\..\..\..\..\simplelink\source/socket.c **** unsigned short sl_Htons( unsigned short val )
 794:..\..\..\..\..\simplelink\source/socket.c **** {
 2319              		.loc 1 794 0
 2320              		.cfi_startproc
 2321 0000 80B5     		push	{r7, lr}
 2322              	.LCFI42:
 2323              		.cfi_def_cfa_offset 8
 2324              		.cfi_offset 7, -8
 2325              		.cfi_offset 14, -4
 2326 0002 84B0     		sub	sp, sp, #16
 2327              	.LCFI43:
 2328              		.cfi_def_cfa_offset 24
 2329 0004 00AF     		add	r7, sp, #0
 2330              	.LCFI44:
 2331              		.cfi_def_cfa_register 7
 2332 0006 021C     		mov	r2, r0
 2333 0008 BB1D     		add	r3, r7, #6
 2334 000a 1A80     		strh	r2, [r3]
 795:..\..\..\..\..\simplelink\source/socket.c ****   short i = 1; 
 2335              		.loc 1 795 0
 2336 000c 3B1C     		mov	r3, r7
 2337 000e 0A33     		add	r3, r3, #10
 2338 0010 0122     		mov	r2, #1
ARM GAS  C:\Users\X0217454\AppData\Local\Temp\cc5FLHAl.s 			page 56


 2339 0012 1A80     		strh	r2, [r3]
 796:..\..\..\..\..\simplelink\source/socket.c ****   char *p = (char *)&i;  
 2340              		.loc 1 796 0
 2341 0014 3B1C     		mov	r3, r7
 2342 0016 0A33     		add	r3, r3, #10
 2343 0018 FB60     		str	r3, [r7, #12]
 797:..\..\..\..\..\simplelink\source/socket.c ****   if (p[0] == 1) /* little endian */
 2344              		.loc 1 797 0
 2345 001a FB68     		ldr	r3, [r7, #12]
 2346 001c 1B78     		ldrb	r3, [r3]
 2347 001e 012B     		cmp	r3, #1
 2348 0020 0DD1     		bne	.L164
 798:..\..\..\..\..\simplelink\source/socket.c ****   {
 799:..\..\..\..\..\simplelink\source/socket.c ****     p[0] = ((char*)&val)[1];
 2349              		.loc 1 799 0
 2350 0022 BB1D     		add	r3, r7, #6
 2351 0024 5A78     		ldrb	r2, [r3, #1]
 2352 0026 FB68     		ldr	r3, [r7, #12]
 2353 0028 1A70     		strb	r2, [r3]
 800:..\..\..\..\..\simplelink\source/socket.c ****     p[1] = ((char*)&val)[0];
 2354              		.loc 1 800 0
 2355 002a FB68     		ldr	r3, [r7, #12]
 2356 002c 0133     		add	r3, r3, #1
 2357 002e BA1D     		add	r2, r7, #6
 2358 0030 1278     		ldrb	r2, [r2]
 2359 0032 1A70     		strb	r2, [r3]
 801:..\..\..\..\..\simplelink\source/socket.c ****     return i;
 2360              		.loc 1 801 0
 2361 0034 3B1C     		mov	r3, r7
 2362 0036 0A33     		add	r3, r3, #10
 2363 0038 1B88     		ldrh	r3, [r3]
 2364 003a 9BB2     		uxth	r3, r3
 2365 003c 01E0     		b	.L166
 2366              	.L164:
 802:..\..\..\..\..\simplelink\source/socket.c ****   }
 803:..\..\..\..\..\simplelink\source/socket.c ****   else /* big endian */
 804:..\..\..\..\..\simplelink\source/socket.c ****   {
 805:..\..\..\..\..\simplelink\source/socket.c ****     return val; 
 2367              		.loc 1 805 0
 2368 003e BB1D     		add	r3, r7, #6
 2369 0040 1B88     		ldrh	r3, [r3]
 2370              	.L166:
 806:..\..\..\..\..\simplelink\source/socket.c ****   }
 807:..\..\..\..\..\simplelink\source/socket.c **** }
 2371              		.loc 1 807 0
 2372 0042 181C     		mov	r0, r3
 2373 0044 BD46     		mov	sp, r7
 2374 0046 04B0     		add	sp, sp, #16
 2375              		@ sp needed for prologue
 2376 0048 80BD     		pop	{r7, pc}
 2377              		.cfi_endproc
 2378              	.LFE14:
 2379              		.size	sl_Htons, .-sl_Htons
 2380 004a C046     		.section	.text._sl_HandleAsync_Accept,"ax",%progbits
 2381              		.align	2
 2382              		.global	_sl_HandleAsync_Accept
 2383              		.code	16
ARM GAS  C:\Users\X0217454\AppData\Local\Temp\cc5FLHAl.s 			page 57


 2384              		.thumb_func
 2385              		.type	_sl_HandleAsync_Accept, %function
 2386              	_sl_HandleAsync_Accept:
 2387              	.LFB15:
 808:..\..\..\..\..\simplelink\source/socket.c **** 
 809:..\..\..\..\..\simplelink\source/socket.c **** /*******************************************************************************/
 810:..\..\..\..\..\simplelink\source/socket.c **** /*   _sl_HandleAsync_Accept */
 811:..\..\..\..\..\simplelink\source/socket.c **** /*******************************************************************************/
 812:..\..\..\..\..\simplelink\source/socket.c **** void _sl_HandleAsync_Accept(void *pVoidBuf)
 813:..\..\..\..\..\simplelink\source/socket.c **** {
 2388              		.loc 1 813 0
 2389              		.cfi_startproc
 2390 0000 80B5     		push	{r7, lr}
 2391              	.LCFI45:
 2392              		.cfi_def_cfa_offset 8
 2393              		.cfi_offset 7, -8
 2394              		.cfi_offset 14, -4
 2395 0002 86B0     		sub	sp, sp, #24
 2396              	.LCFI46:
 2397              		.cfi_def_cfa_offset 32
 2398 0004 00AF     		add	r7, sp, #0
 2399              	.LCFI47:
 2400              		.cfi_def_cfa_register 7
 2401 0006 7860     		str	r0, [r7, #4]
 814:..\..\..\..\..\simplelink\source/socket.c ****     _SocketAddrResponse_u      *pMsgArgs   = (_SocketAddrResponse_u *)_SL_RESP_ARGS_START(pVoidBuf)
 2402              		.loc 1 814 0
 2403 0008 7B68     		ldr	r3, [r7, #4]
 2404 000a 0833     		add	r3, r3, #8
 2405 000c 7B61     		str	r3, [r7, #20]
 2406              	.LBB17:
 815:..\..\..\..\..\simplelink\source/socket.c **** 
 816:..\..\..\..\..\simplelink\source/socket.c ****     OSI_RET_OK_CHECK(sl_LockObjLock(&g_pCB->ProtectionLockObj, SL_OS_WAIT_FOREVER));
 2407              		.loc 1 816 0
 2408 000e 294B     		ldr	r3, .L178
 2409 0010 1B68     		ldr	r3, [r3]
 2410 0012 9033     		add	r3, r3, #144
 2411 0014 181C     		mov	r0, r3
 2412 0016 3321     		mov	r1, #51
 2413 0018 4422     		mov	r2, #68
 2414 001a FF23     		mov	r3, #255
 2415 001c FFF7FEFF 		bl	_SlNonOsSemGet
 2416 0020 031C     		mov	r3, r0
 2417 0022 3B61     		str	r3, [r7, #16]
 2418 0024 3B69     		ldr	r3, [r7, #16]
 2419 0026 002B     		cmp	r3, #0
 2420 0028 00D0     		beq	.L168
 2421              	.L169:
 2422              		.loc 1 816 0 is_stmt 0 discriminator 1
 2423 002a FEE7     		b	.L169
 2424              	.L168:
 2425              	.LBE17:
 817:..\..\..\..\..\simplelink\source/socket.c **** 
 818:..\..\..\..\..\simplelink\source/socket.c ****     VERIFY_PROTOCOL(( pMsgArgs->IpV4.sd & BSD_SOCKET_ID_MASK) <= SL_MAX_SOCKETS);
 2426              		.loc 1 818 0 is_stmt 1
 2427 002c 7B69     		ldr	r3, [r7, #20]
 2428 002e 9B78     		ldrb	r3, [r3, #2]
 2429 0030 1A1C     		mov	r2, r3
ARM GAS  C:\Users\X0217454\AppData\Local\Temp\cc5FLHAl.s 			page 58


 2430 0032 0F23     		mov	r3, #15
 2431 0034 1340     		and	r3, r2
 2432 0036 082B     		cmp	r3, #8
 2433 0038 00DD     		ble	.L170
 2434              	.L171:
 2435              		.loc 1 818 0 is_stmt 0 discriminator 1
 2436 003a FEE7     		b	.L171
 2437              	.L170:
 819:..\..\..\..\..\simplelink\source/socket.c ****     VERIFY_SOCKET_CB(NULL != g_pCB->ObjPool[g_pCB->FunctionParams.AsyncExt.ActionIndex].pRespArgs);
 820:..\..\..\..\..\simplelink\source/socket.c **** 
 821:..\..\..\..\..\simplelink\source/socket.c **** 	memcpy(g_pCB->ObjPool[g_pCB->FunctionParams.AsyncExt.ActionIndex].pRespArgs, pMsgArgs,sizeof(_Sock
 2438              		.loc 1 821 0 is_stmt 1
 2439 003c 1D4B     		ldr	r3, .L178
 2440 003e 1968     		ldr	r1, [r3]
 2441 0040 1C4B     		ldr	r3, .L178
 2442 0042 1A68     		ldr	r2, [r3]
 2443 0044 AC23     		mov	r3, #172
 2444 0046 D35C     		ldrb	r3, [r2, r3]
 2445 0048 1A1C     		mov	r2, r3
 2446 004a 131C     		mov	r3, r2
 2447 004c 5B00     		lsl	r3, r3, #1
 2448 004e 9B18     		add	r3, r3, r2
 2449 0050 9B00     		lsl	r3, r3, #2
 2450 0052 CB18     		add	r3, r1, r3
 2451 0054 1433     		add	r3, r3, #20
 2452 0056 1A68     		ldr	r2, [r3]
 2453 0058 7B69     		ldr	r3, [r7, #20]
 2454 005a 101C     		mov	r0, r2
 2455 005c 191C     		mov	r1, r3
 2456 005e 0C22     		mov	r2, #12
 2457 0060 FFF7FEFF 		bl	memcpy
 2458              	.LBB18:
 822:..\..\..\..\..\simplelink\source/socket.c **** 	OSI_RET_OK_CHECK(sl_SyncObjSignal(&g_pCB->ObjPool[g_pCB->FunctionParams.AsyncExt.ActionIndex].Sync
 2459              		.loc 1 822 0
 2460 0064 134B     		ldr	r3, .L178
 2461 0066 1968     		ldr	r1, [r3]
 2462 0068 124B     		ldr	r3, .L178
 2463 006a 1A68     		ldr	r2, [r3]
 2464 006c AC23     		mov	r3, #172
 2465 006e D35C     		ldrb	r3, [r2, r3]
 2466 0070 1A1C     		mov	r2, r3
 2467 0072 131C     		mov	r3, r2
 2468 0074 5B00     		lsl	r3, r3, #1
 2469 0076 9B18     		add	r3, r3, r2
 2470 0078 9B00     		lsl	r3, r3, #2
 2471 007a 1033     		add	r3, r3, #16
 2472 007c CB18     		add	r3, r1, r3
 2473 007e 181C     		mov	r0, r3
 2474 0080 2221     		mov	r1, #34
 2475 0082 FFF7FEFF 		bl	_SlNonOsSemSet
 2476 0086 031C     		mov	r3, r0
 2477 0088 FB60     		str	r3, [r7, #12]
 2478 008a FB68     		ldr	r3, [r7, #12]
 2479 008c 002B     		cmp	r3, #0
 2480 008e 00D0     		beq	.L172
 2481              	.L173:
 2482              		.loc 1 822 0 is_stmt 0 discriminator 1
ARM GAS  C:\Users\X0217454\AppData\Local\Temp\cc5FLHAl.s 			page 59


 2483 0090 FEE7     		b	.L173
 2484              	.L172:
 2485              	.LBE18:
 2486              	.LBB19:
 823:..\..\..\..\..\simplelink\source/socket.c **** 
 824:..\..\..\..\..\simplelink\source/socket.c ****     OSI_RET_OK_CHECK(sl_LockObjUnlock(&g_pCB->ProtectionLockObj));
 2487              		.loc 1 824 0 is_stmt 1
 2488 0092 084B     		ldr	r3, .L178
 2489 0094 1B68     		ldr	r3, [r3]
 2490 0096 9033     		add	r3, r3, #144
 2491 0098 181C     		mov	r0, r3
 2492 009a 3321     		mov	r1, #51
 2493 009c FFF7FEFF 		bl	_SlNonOsSemSet
 2494 00a0 031C     		mov	r3, r0
 2495 00a2 BB60     		str	r3, [r7, #8]
 2496 00a4 BB68     		ldr	r3, [r7, #8]
 2497 00a6 002B     		cmp	r3, #0
 2498 00a8 00D0     		beq	.L177
 2499              	.L175:
 2500              		.loc 1 824 0 is_stmt 0 discriminator 1
 2501 00aa FEE7     		b	.L175
 2502              	.L177:
 2503              	.LBE19:
 825:..\..\..\..\..\simplelink\source/socket.c ****     return;
 2504              		.loc 1 825 0 is_stmt 1
 2505 00ac C046     		mov	r8, r8
 2506              	.L167:
 826:..\..\..\..\..\simplelink\source/socket.c **** }
 2507              		.loc 1 826 0
 2508 00ae BD46     		mov	sp, r7
 2509 00b0 06B0     		add	sp, sp, #24
 2510              		@ sp needed for prologue
 2511 00b2 80BD     		pop	{r7, pc}
 2512              	.L179:
 2513              		.align	2
 2514              	.L178:
 2515 00b4 00000000 		.word	g_pCB
 2516              		.cfi_endproc
 2517              	.LFE15:
 2518              		.size	_sl_HandleAsync_Accept, .-_sl_HandleAsync_Accept
 2519              		.global	_SlRecvCmdCtrl
 2520              		.section	.rodata
 2521              		.align	2
 2522              		.type	_SlRecvCmdCtrl, %object
 2523              		.size	_SlRecvCmdCtrl, 4
 2524              	_SlRecvCmdCtrl:
 2525 0018 0A94     		.short	-27638
 2526 001a 04       		.byte	4
 2527 001b 04       		.byte	4
 2528              		.section	.text.sl_Recv,"ax",%progbits
 2529              		.align	2
 2530              		.global	sl_Recv
 2531              		.code	16
 2532              		.thumb_func
 2533              		.type	sl_Recv, %function
 2534              	sl_Recv:
 2535              	.LFB16:
ARM GAS  C:\Users\X0217454\AppData\Local\Temp\cc5FLHAl.s 			page 60


 827:..\..\..\..\..\simplelink\source/socket.c **** 
 828:..\..\..\..\..\simplelink\source/socket.c **** /*******************************************************************************/
 829:..\..\..\..\..\simplelink\source/socket.c **** /*  sl_Recv */
 830:..\..\..\..\..\simplelink\source/socket.c **** /*******************************************************************************/
 831:..\..\..\..\..\simplelink\source/socket.c **** typedef union
 832:..\..\..\..\..\simplelink\source/socket.c **** {
 833:..\..\..\..\..\simplelink\source/socket.c **** 	_sendRecvCommand_t  Cmd;
 834:..\..\..\..\..\simplelink\source/socket.c **** 	_SocketResponse_t   Rsp;    
 835:..\..\..\..\..\simplelink\source/socket.c **** }_SlRecvMsg_u;
 836:..\..\..\..\..\simplelink\source/socket.c **** 
 837:..\..\..\..\..\simplelink\source/socket.c **** const _SlCmdCtrl_t _SlRecvCmdCtrl =
 838:..\..\..\..\..\simplelink\source/socket.c **** {
 839:..\..\..\..\..\simplelink\source/socket.c ****     SL_OPCODE_SOCKET_RECV,
 840:..\..\..\..\..\simplelink\source/socket.c ****     sizeof(_sendRecvCommand_t),
 841:..\..\..\..\..\simplelink\source/socket.c ****     sizeof(_SocketResponse_t)
 842:..\..\..\..\..\simplelink\source/socket.c **** };
 843:..\..\..\..\..\simplelink\source/socket.c **** 
 844:..\..\..\..\..\simplelink\source/socket.c **** #if _SL_INCLUDE_FUNC(sl_Recv)
 845:..\..\..\..\..\simplelink\source/socket.c **** int sl_Recv(int sd, void *pBuf, int Len, int flags)
 846:..\..\..\..\..\simplelink\source/socket.c **** {
 2536              		.loc 1 846 0
 2537              		.cfi_startproc
 2538 0000 80B5     		push	{r7, lr}
 2539              	.LCFI48:
 2540              		.cfi_def_cfa_offset 8
 2541              		.cfi_offset 7, -8
 2542              		.cfi_offset 14, -4
 2543 0002 8AB0     		sub	sp, sp, #40
 2544              	.LCFI49:
 2545              		.cfi_def_cfa_offset 48
 2546 0004 00AF     		add	r7, sp, #0
 2547              	.LCFI50:
 2548              		.cfi_def_cfa_register 7
 2549 0006 F860     		str	r0, [r7, #12]
 2550 0008 B960     		str	r1, [r7, #8]
 2551 000a 7A60     		str	r2, [r7, #4]
 2552 000c 3B60     		str	r3, [r7]
 847:..\..\..\..\..\simplelink\source/socket.c ****     _SlRecvMsg_u    Msg;
 848:..\..\..\..\..\simplelink\source/socket.c ****     _SlCmdExt_t     CmdExt;
 849:..\..\..\..\..\simplelink\source/socket.c ****     _SlReturnVal_t status;
 850:..\..\..\..\..\simplelink\source/socket.c **** 
 851:..\..\..\..\..\simplelink\source/socket.c ****     CmdExt.TxPayloadLen = 0;
 2553              		.loc 1 851 0
 2554 000e 3B1C     		mov	r3, r7
 2555 0010 1033     		add	r3, r3, #16
 2556 0012 0022     		mov	r2, #0
 2557 0014 1A80     		strh	r2, [r3]
 852:..\..\..\..\..\simplelink\source/socket.c ****     CmdExt.RxPayloadLen = Len;
 2558              		.loc 1 852 0
 2559 0016 7B68     		ldr	r3, [r7, #4]
 2560 0018 9AB2     		uxth	r2, r3
 2561 001a 3B1C     		mov	r3, r7
 2562 001c 1033     		add	r3, r3, #16
 2563 001e 5A80     		strh	r2, [r3, #2]
 853:..\..\..\..\..\simplelink\source/socket.c ****     CmdExt.pTxPayload = NULL;
 2564              		.loc 1 853 0
 2565 0020 3B1C     		mov	r3, r7
ARM GAS  C:\Users\X0217454\AppData\Local\Temp\cc5FLHAl.s 			page 61


 2566 0022 1033     		add	r3, r3, #16
 2567 0024 0022     		mov	r2, #0
 2568 0026 9A60     		str	r2, [r3, #8]
 854:..\..\..\..\..\simplelink\source/socket.c ****     CmdExt.pRxPayload = (UINT8 *)pBuf;
 2569              		.loc 1 854 0
 2570 0028 3B1C     		mov	r3, r7
 2571 002a 1033     		add	r3, r3, #16
 2572 002c BA68     		ldr	r2, [r7, #8]
 2573 002e DA60     		str	r2, [r3, #12]
 855:..\..\..\..\..\simplelink\source/socket.c **** 
 856:..\..\..\..\..\simplelink\source/socket.c ****     Msg.Cmd.sd = sd;
 2574              		.loc 1 856 0
 2575 0030 FB68     		ldr	r3, [r7, #12]
 2576 0032 DAB2     		uxtb	r2, r3
 2577 0034 3B1C     		mov	r3, r7
 2578 0036 2033     		add	r3, r3, #32
 2579 0038 9A70     		strb	r2, [r3, #2]
 857:..\..\..\..\..\simplelink\source/socket.c ****     Msg.Cmd.StatusOrLen = Len;
 2580              		.loc 1 857 0
 2581 003a 7B68     		ldr	r3, [r7, #4]
 2582 003c 9AB2     		uxth	r2, r3
 2583 003e 3B1C     		mov	r3, r7
 2584 0040 2033     		add	r3, r3, #32
 2585 0042 1A80     		strh	r2, [r3]
 858:..\..\..\..\..\simplelink\source/socket.c **** 
 859:..\..\..\..\..\simplelink\source/socket.c ****     /*  no size truncation in recv path */
 860:..\..\..\..\..\simplelink\source/socket.c ****     CmdExt.RxPayloadLen = Msg.Cmd.StatusOrLen;
 2586              		.loc 1 860 0
 2587 0044 3B1C     		mov	r3, r7
 2588 0046 2033     		add	r3, r3, #32
 2589 0048 1A88     		ldrh	r2, [r3]
 2590 004a 3B1C     		mov	r3, r7
 2591 004c 1033     		add	r3, r3, #16
 2592 004e 5A80     		strh	r2, [r3, #2]
 861:..\..\..\..\..\simplelink\source/socket.c **** 
 862:..\..\..\..\..\simplelink\source/socket.c ****     Msg.Cmd.FamilyAndFlags = flags & 0x0F;
 2593              		.loc 1 862 0
 2594 0050 3B68     		ldr	r3, [r7]
 2595 0052 DAB2     		uxtb	r2, r3
 2596 0054 0F23     		mov	r3, #15
 2597 0056 1340     		and	r3, r2
 2598 0058 DAB2     		uxtb	r2, r3
 2599 005a 3B1C     		mov	r3, r7
 2600 005c 2033     		add	r3, r3, #32
 2601 005e DA70     		strb	r2, [r3, #3]
 863:..\..\..\..\..\simplelink\source/socket.c **** 
 864:..\..\..\..\..\simplelink\source/socket.c ****     status = _SlDrvDataReadOp((_SlSd_t)sd, (_SlCmdCtrl_t *)&_SlRecvCmdCtrl, &Msg, &CmdExt);
 2602              		.loc 1 864 0
 2603 0060 FB68     		ldr	r3, [r7, #12]
 2604 0062 D8B2     		uxtb	r0, r3
 2605 0064 0A49     		ldr	r1, .L184
 2606 0066 3A1C     		mov	r2, r7
 2607 0068 2032     		add	r2, r2, #32
 2608 006a 3B1C     		mov	r3, r7
 2609 006c 1033     		add	r3, r3, #16
 2610 006e FFF7FEFF 		bl	_SlDrvDataReadOp
 2611 0072 031C     		mov	r3, r0
ARM GAS  C:\Users\X0217454\AppData\Local\Temp\cc5FLHAl.s 			page 62


 2612 0074 7B62     		str	r3, [r7, #36]
 865:..\..\..\..\..\simplelink\source/socket.c ****     if( status != SL_OS_RET_CODE_OK )
 2613              		.loc 1 865 0
 2614 0076 7B6A     		ldr	r3, [r7, #36]
 2615 0078 002B     		cmp	r3, #0
 2616 007a 01D0     		beq	.L181
 866:..\..\..\..\..\simplelink\source/socket.c ****     {
 867:..\..\..\..\..\simplelink\source/socket.c **** 	return status;
 2617              		.loc 1 867 0
 2618 007c 7B6A     		ldr	r3, [r7, #36]
 2619 007e 03E0     		b	.L183
 2620              	.L181:
 868:..\..\..\..\..\simplelink\source/socket.c ****     }
 869:..\..\..\..\..\simplelink\source/socket.c ****      
 870:..\..\..\..\..\simplelink\source/socket.c ****     /*  if the Device side sends less than expected it is not the Driver's role */
 871:..\..\..\..\..\simplelink\source/socket.c ****     /*  the returned value could be smaller than the requested size */
 872:..\..\..\..\..\simplelink\source/socket.c ****     return (int)Msg.Rsp.statusOrLen;
 2621              		.loc 1 872 0
 2622 0080 3B1C     		mov	r3, r7
 2623 0082 2033     		add	r3, r3, #32
 2624 0084 1B88     		ldrh	r3, [r3]
 2625 0086 1BB2     		sxth	r3, r3
 2626              	.L183:
 873:..\..\..\..\..\simplelink\source/socket.c **** }
 2627              		.loc 1 873 0
 2628 0088 181C     		mov	r0, r3
 2629 008a BD46     		mov	sp, r7
 2630 008c 0AB0     		add	sp, sp, #40
 2631              		@ sp needed for prologue
 2632 008e 80BD     		pop	{r7, pc}
 2633              	.L185:
 2634              		.align	2
 2635              	.L184:
 2636 0090 00000000 		.word	_SlRecvCmdCtrl
 2637              		.cfi_endproc
 2638              	.LFE16:
 2639              		.size	sl_Recv, .-sl_Recv
 2640              		.global	_SlSetSockOptCmdCtrl
 2641              		.section	.rodata
 2642              		.align	2
 2643              		.type	_SlSetSockOptCmdCtrl, %object
 2644              		.size	_SlSetSockOptCmdCtrl, 4
 2645              	_SlSetSockOptCmdCtrl:
 2646 001c 0894     		.short	-27640
 2647 001e 04       		.byte	4
 2648 001f 04       		.byte	4
 2649              		.section	.text.sl_SetSockOpt,"ax",%progbits
 2650              		.align	2
 2651              		.global	sl_SetSockOpt
 2652              		.code	16
 2653              		.thumb_func
 2654              		.type	sl_SetSockOpt, %function
 2655              	sl_SetSockOpt:
 2656              	.LFB17:
 874:..\..\..\..\..\simplelink\source/socket.c **** #endif
 875:..\..\..\..\..\simplelink\source/socket.c **** 
 876:..\..\..\..\..\simplelink\source/socket.c **** /*******************************************************************************/
ARM GAS  C:\Users\X0217454\AppData\Local\Temp\cc5FLHAl.s 			page 63


 877:..\..\..\..\..\simplelink\source/socket.c **** /*  sl_SetSockOpt */
 878:..\..\..\..\..\simplelink\source/socket.c **** /*******************************************************************************/
 879:..\..\..\..\..\simplelink\source/socket.c **** typedef union
 880:..\..\..\..\..\simplelink\source/socket.c **** {
 881:..\..\..\..\..\simplelink\source/socket.c **** 	_setSockOptCommand_t    Cmd;
 882:..\..\..\..\..\simplelink\source/socket.c **** 	_SocketResponse_t       Rsp;    
 883:..\..\..\..\..\simplelink\source/socket.c **** }_SlSetSockOptMsg_u;
 884:..\..\..\..\..\simplelink\source/socket.c **** 
 885:..\..\..\..\..\simplelink\source/socket.c **** const _SlCmdCtrl_t _SlSetSockOptCmdCtrl =
 886:..\..\..\..\..\simplelink\source/socket.c **** {
 887:..\..\..\..\..\simplelink\source/socket.c ****     SL_OPCODE_SOCKET_SETSOCKOPT,
 888:..\..\..\..\..\simplelink\source/socket.c ****     sizeof(_setSockOptCommand_t),
 889:..\..\..\..\..\simplelink\source/socket.c ****     sizeof(_SocketResponse_t)
 890:..\..\..\..\..\simplelink\source/socket.c **** };
 891:..\..\..\..\..\simplelink\source/socket.c **** 
 892:..\..\..\..\..\simplelink\source/socket.c **** #if _SL_INCLUDE_FUNC(sl_SetSockOpt)
 893:..\..\..\..\..\simplelink\source/socket.c **** int sl_SetSockOpt(int sd, int level, int optname, const void *optval, SlSocklen_t optlen)
 894:..\..\..\..\..\simplelink\source/socket.c **** {
 2657              		.loc 1 894 0
 2658              		.cfi_startproc
 2659 0000 80B5     		push	{r7, lr}
 2660              	.LCFI51:
 2661              		.cfi_def_cfa_offset 8
 2662              		.cfi_offset 7, -8
 2663              		.cfi_offset 14, -4
 2664 0002 8AB0     		sub	sp, sp, #40
 2665              	.LCFI52:
 2666              		.cfi_def_cfa_offset 48
 2667 0004 00AF     		add	r7, sp, #0
 2668              	.LCFI53:
 2669              		.cfi_def_cfa_register 7
 2670 0006 F860     		str	r0, [r7, #12]
 2671 0008 B960     		str	r1, [r7, #8]
 2672 000a 7A60     		str	r2, [r7, #4]
 2673 000c 3B60     		str	r3, [r7]
 895:..\..\..\..\..\simplelink\source/socket.c ****     _SlSetSockOptMsg_u    Msg;
 896:..\..\..\..\..\simplelink\source/socket.c ****     _SlCmdExt_t           CmdExt;
 897:..\..\..\..\..\simplelink\source/socket.c **** 
 898:..\..\..\..\..\simplelink\source/socket.c ****     CmdExt.TxPayloadLen = optlen;
 2674              		.loc 1 898 0
 2675 000e 3B6B     		ldr	r3, [r7, #48]
 2676 0010 9AB2     		uxth	r2, r3
 2677 0012 3B1C     		mov	r3, r7
 2678 0014 1033     		add	r3, r3, #16
 2679 0016 1A80     		strh	r2, [r3]
 899:..\..\..\..\..\simplelink\source/socket.c ****     CmdExt.RxPayloadLen = 0;
 2680              		.loc 1 899 0
 2681 0018 3B1C     		mov	r3, r7
 2682 001a 1033     		add	r3, r3, #16
 2683 001c 0022     		mov	r2, #0
 2684 001e 5A80     		strh	r2, [r3, #2]
 900:..\..\..\..\..\simplelink\source/socket.c ****     CmdExt.pTxPayload = (UINT8 *)optval;
 2685              		.loc 1 900 0
 2686 0020 3B1C     		mov	r3, r7
 2687 0022 1033     		add	r3, r3, #16
 2688 0024 3A68     		ldr	r2, [r7]
 2689 0026 9A60     		str	r2, [r3, #8]
ARM GAS  C:\Users\X0217454\AppData\Local\Temp\cc5FLHAl.s 			page 64


 901:..\..\..\..\..\simplelink\source/socket.c ****     CmdExt.pRxPayload = NULL;
 2690              		.loc 1 901 0
 2691 0028 3B1C     		mov	r3, r7
 2692 002a 1033     		add	r3, r3, #16
 2693 002c 0022     		mov	r2, #0
 2694 002e DA60     		str	r2, [r3, #12]
 902:..\..\..\..\..\simplelink\source/socket.c **** 
 903:..\..\..\..\..\simplelink\source/socket.c ****     Msg.Cmd.sd = sd;
 2695              		.loc 1 903 0
 2696 0030 FB68     		ldr	r3, [r7, #12]
 2697 0032 DAB2     		uxtb	r2, r3
 2698 0034 3B1C     		mov	r3, r7
 2699 0036 2033     		add	r3, r3, #32
 2700 0038 1A70     		strb	r2, [r3]
 904:..\..\..\..\..\simplelink\source/socket.c ****     Msg.Cmd.level = level;
 2701              		.loc 1 904 0
 2702 003a BB68     		ldr	r3, [r7, #8]
 2703 003c DAB2     		uxtb	r2, r3
 2704 003e 3B1C     		mov	r3, r7
 2705 0040 2033     		add	r3, r3, #32
 2706 0042 5A70     		strb	r2, [r3, #1]
 905:..\..\..\..\..\simplelink\source/socket.c ****     Msg.Cmd.optionLen = optlen;
 2707              		.loc 1 905 0
 2708 0044 3B6B     		ldr	r3, [r7, #48]
 2709 0046 DAB2     		uxtb	r2, r3
 2710 0048 3B1C     		mov	r3, r7
 2711 004a 2033     		add	r3, r3, #32
 2712 004c DA70     		strb	r2, [r3, #3]
 906:..\..\..\..\..\simplelink\source/socket.c ****     Msg.Cmd.optionName = optname;
 2713              		.loc 1 906 0
 2714 004e 7B68     		ldr	r3, [r7, #4]
 2715 0050 DAB2     		uxtb	r2, r3
 2716 0052 3B1C     		mov	r3, r7
 2717 0054 2033     		add	r3, r3, #32
 2718 0056 9A70     		strb	r2, [r3, #2]
 2719              	.LBB20:
 907:..\..\..\..\..\simplelink\source/socket.c **** 
 908:..\..\..\..\..\simplelink\source/socket.c ****     VERIFY_RET_OK(_SlDrvCmdOp((_SlCmdCtrl_t *)&_SlSetSockOptCmdCtrl, &Msg, &CmdExt));
 2720              		.loc 1 908 0
 2721 0058 0B49     		ldr	r1, .L190
 2722 005a 3A1C     		mov	r2, r7
 2723 005c 2032     		add	r2, r2, #32
 2724 005e 3B1C     		mov	r3, r7
 2725 0060 1033     		add	r3, r3, #16
 2726 0062 081C     		mov	r0, r1
 2727 0064 111C     		mov	r1, r2
 2728 0066 1A1C     		mov	r2, r3
 2729 0068 FFF7FEFF 		bl	_SlDrvCmdOp
 2730 006c 031C     		mov	r3, r0
 2731 006e 7B62     		str	r3, [r7, #36]
 2732 0070 7B6A     		ldr	r3, [r7, #36]
 2733 0072 002B     		cmp	r3, #0
 2734 0074 00D0     		beq	.L187
 2735              	.L188:
 2736              		.loc 1 908 0 is_stmt 0 discriminator 1
 2737 0076 FEE7     		b	.L188
 2738              	.L187:
ARM GAS  C:\Users\X0217454\AppData\Local\Temp\cc5FLHAl.s 			page 65


 2739              	.LBE20:
 909:..\..\..\..\..\simplelink\source/socket.c **** 
 910:..\..\..\..\..\simplelink\source/socket.c ****     return (int)Msg.Rsp.statusOrLen;
 2740              		.loc 1 910 0 is_stmt 1
 2741 0078 3B1C     		mov	r3, r7
 2742 007a 2033     		add	r3, r3, #32
 2743 007c 1B88     		ldrh	r3, [r3]
 2744 007e 1BB2     		sxth	r3, r3
 911:..\..\..\..\..\simplelink\source/socket.c **** }
 2745              		.loc 1 911 0
 2746 0080 181C     		mov	r0, r3
 2747 0082 BD46     		mov	sp, r7
 2748 0084 0AB0     		add	sp, sp, #40
 2749              		@ sp needed for prologue
 2750 0086 80BD     		pop	{r7, pc}
 2751              	.L191:
 2752              		.align	2
 2753              	.L190:
 2754 0088 00000000 		.word	_SlSetSockOptCmdCtrl
 2755              		.cfi_endproc
 2756              	.LFE17:
 2757              		.size	sl_SetSockOpt, .-sl_SetSockOpt
 2758              		.global	_SlGetSockOptCmdCtrl
 2759              		.section	.rodata
 2760              		.align	2
 2761              		.type	_SlGetSockOptCmdCtrl, %object
 2762              		.size	_SlGetSockOptCmdCtrl, 4
 2763              	_SlGetSockOptCmdCtrl:
 2764 0020 0994     		.short	-27639
 2765 0022 04       		.byte	4
 2766 0023 04       		.byte	4
 2767              		.section	.text.sl_GetSockOpt,"ax",%progbits
 2768              		.align	2
 2769              		.global	sl_GetSockOpt
 2770              		.code	16
 2771              		.thumb_func
 2772              		.type	sl_GetSockOpt, %function
 2773              	sl_GetSockOpt:
 2774              	.LFB18:
 912:..\..\..\..\..\simplelink\source/socket.c **** #endif
 913:..\..\..\..\..\simplelink\source/socket.c **** 
 914:..\..\..\..\..\simplelink\source/socket.c **** /*******************************************************************************/
 915:..\..\..\..\..\simplelink\source/socket.c **** /*  sl_GetSockOpt */
 916:..\..\..\..\..\simplelink\source/socket.c **** /*******************************************************************************/
 917:..\..\..\..\..\simplelink\source/socket.c **** typedef union
 918:..\..\..\..\..\simplelink\source/socket.c **** {
 919:..\..\..\..\..\simplelink\source/socket.c **** 	_getSockOptCommand_t    Cmd;
 920:..\..\..\..\..\simplelink\source/socket.c **** 	_getSockOptResponse_t   Rsp;    
 921:..\..\..\..\..\simplelink\source/socket.c **** }_SlGetSockOptMsg_u;
 922:..\..\..\..\..\simplelink\source/socket.c **** 
 923:..\..\..\..\..\simplelink\source/socket.c **** const _SlCmdCtrl_t _SlGetSockOptCmdCtrl =
 924:..\..\..\..\..\simplelink\source/socket.c **** {
 925:..\..\..\..\..\simplelink\source/socket.c ****     SL_OPCODE_SOCKET_GETSOCKOPT,
 926:..\..\..\..\..\simplelink\source/socket.c ****     sizeof(_getSockOptCommand_t),
 927:..\..\..\..\..\simplelink\source/socket.c ****     sizeof(_getSockOptResponse_t)
 928:..\..\..\..\..\simplelink\source/socket.c **** };
 929:..\..\..\..\..\simplelink\source/socket.c **** 
ARM GAS  C:\Users\X0217454\AppData\Local\Temp\cc5FLHAl.s 			page 66


 930:..\..\..\..\..\simplelink\source/socket.c **** #if _SL_INCLUDE_FUNC(sl_GetSockOpt)
 931:..\..\..\..\..\simplelink\source/socket.c **** int sl_GetSockOpt(int sd, int level, int optname, void *optval, SlSocklen_t *optlen)
 932:..\..\..\..\..\simplelink\source/socket.c **** {
 2775              		.loc 1 932 0
 2776              		.cfi_startproc
 2777 0000 80B5     		push	{r7, lr}
 2778              	.LCFI54:
 2779              		.cfi_def_cfa_offset 8
 2780              		.cfi_offset 7, -8
 2781              		.cfi_offset 14, -4
 2782 0002 8AB0     		sub	sp, sp, #40
 2783              	.LCFI55:
 2784              		.cfi_def_cfa_offset 48
 2785 0004 00AF     		add	r7, sp, #0
 2786              	.LCFI56:
 2787              		.cfi_def_cfa_register 7
 2788 0006 F860     		str	r0, [r7, #12]
 2789 0008 B960     		str	r1, [r7, #8]
 2790 000a 7A60     		str	r2, [r7, #4]
 2791 000c 3B60     		str	r3, [r7]
 933:..\..\..\..\..\simplelink\source/socket.c ****     _SlGetSockOptMsg_u    Msg;
 934:..\..\..\..\..\simplelink\source/socket.c ****     _SlCmdExt_t           CmdExt;
 935:..\..\..\..\..\simplelink\source/socket.c **** 
 936:..\..\..\..\..\simplelink\source/socket.c **** 	if (*optlen == 0)
 2792              		.loc 1 936 0
 2793 000e 3B6B     		ldr	r3, [r7, #48]
 2794 0010 1B68     		ldr	r3, [r3]
 2795 0012 002B     		cmp	r3, #0
 2796 0014 01D1     		bne	.L193
 937:..\..\..\..\..\simplelink\source/socket.c **** 	{
 938:..\..\..\..\..\simplelink\source/socket.c **** 		return SL_EZEROLEN;
 2797              		.loc 1 938 0
 2798 0016 2E4B     		ldr	r3, .L199
 2799 0018 55E0     		b	.L198
 2800              	.L193:
 939:..\..\..\..\..\simplelink\source/socket.c **** 	}
 940:..\..\..\..\..\simplelink\source/socket.c ****     CmdExt.TxPayloadLen = 0;
 2801              		.loc 1 940 0
 2802 001a 3B1C     		mov	r3, r7
 2803 001c 1033     		add	r3, r3, #16
 2804 001e 0022     		mov	r2, #0
 2805 0020 1A80     		strh	r2, [r3]
 941:..\..\..\..\..\simplelink\source/socket.c ****     CmdExt.RxPayloadLen = *optlen;
 2806              		.loc 1 941 0
 2807 0022 3B6B     		ldr	r3, [r7, #48]
 2808 0024 1B68     		ldr	r3, [r3]
 2809 0026 9AB2     		uxth	r2, r3
 2810 0028 3B1C     		mov	r3, r7
 2811 002a 1033     		add	r3, r3, #16
 2812 002c 5A80     		strh	r2, [r3, #2]
 942:..\..\..\..\..\simplelink\source/socket.c ****     CmdExt.pTxPayload = NULL;
 2813              		.loc 1 942 0
 2814 002e 3B1C     		mov	r3, r7
 2815 0030 1033     		add	r3, r3, #16
 2816 0032 0022     		mov	r2, #0
 2817 0034 9A60     		str	r2, [r3, #8]
 943:..\..\..\..\..\simplelink\source/socket.c ****     CmdExt.pRxPayload = optval;
ARM GAS  C:\Users\X0217454\AppData\Local\Temp\cc5FLHAl.s 			page 67


 2818              		.loc 1 943 0
 2819 0036 3B1C     		mov	r3, r7
 2820 0038 1033     		add	r3, r3, #16
 2821 003a 3A68     		ldr	r2, [r7]
 2822 003c DA60     		str	r2, [r3, #12]
 944:..\..\..\..\..\simplelink\source/socket.c **** 	CmdExt.ActualRxPayloadLen = 0;
 2823              		.loc 1 944 0
 2824 003e 3B1C     		mov	r3, r7
 2825 0040 1033     		add	r3, r3, #16
 2826 0042 0022     		mov	r2, #0
 2827 0044 9A80     		strh	r2, [r3, #4]
 945:..\..\..\..\..\simplelink\source/socket.c **** 
 946:..\..\..\..\..\simplelink\source/socket.c ****     Msg.Cmd.sd = sd;
 2828              		.loc 1 946 0
 2829 0046 FB68     		ldr	r3, [r7, #12]
 2830 0048 DAB2     		uxtb	r2, r3
 2831 004a 3B1C     		mov	r3, r7
 2832 004c 2033     		add	r3, r3, #32
 2833 004e 1A70     		strb	r2, [r3]
 947:..\..\..\..\..\simplelink\source/socket.c ****     Msg.Cmd.level = level;
 2834              		.loc 1 947 0
 2835 0050 BB68     		ldr	r3, [r7, #8]
 2836 0052 DAB2     		uxtb	r2, r3
 2837 0054 3B1C     		mov	r3, r7
 2838 0056 2033     		add	r3, r3, #32
 2839 0058 5A70     		strb	r2, [r3, #1]
 948:..\..\..\..\..\simplelink\source/socket.c ****     Msg.Cmd.optionLen = *optlen;
 2840              		.loc 1 948 0
 2841 005a 3B6B     		ldr	r3, [r7, #48]
 2842 005c 1B68     		ldr	r3, [r3]
 2843 005e DAB2     		uxtb	r2, r3
 2844 0060 3B1C     		mov	r3, r7
 2845 0062 2033     		add	r3, r3, #32
 2846 0064 DA70     		strb	r2, [r3, #3]
 949:..\..\..\..\..\simplelink\source/socket.c ****     Msg.Cmd.optionName = optname;
 2847              		.loc 1 949 0
 2848 0066 7B68     		ldr	r3, [r7, #4]
 2849 0068 DAB2     		uxtb	r2, r3
 2850 006a 3B1C     		mov	r3, r7
 2851 006c 2033     		add	r3, r3, #32
 2852 006e 9A70     		strb	r2, [r3, #2]
 2853              	.LBB21:
 950:..\..\..\..\..\simplelink\source/socket.c **** 
 951:..\..\..\..\..\simplelink\source/socket.c ****     VERIFY_RET_OK(_SlDrvCmdOp((_SlCmdCtrl_t *)&_SlGetSockOptCmdCtrl, &Msg, &CmdExt));
 2854              		.loc 1 951 0
 2855 0070 1849     		ldr	r1, .L199+4
 2856 0072 3A1C     		mov	r2, r7
 2857 0074 2032     		add	r2, r2, #32
 2858 0076 3B1C     		mov	r3, r7
 2859 0078 1033     		add	r3, r3, #16
 2860 007a 081C     		mov	r0, r1
 2861 007c 111C     		mov	r1, r2
 2862 007e 1A1C     		mov	r2, r3
 2863 0080 FFF7FEFF 		bl	_SlDrvCmdOp
 2864 0084 031C     		mov	r3, r0
 2865 0086 7B62     		str	r3, [r7, #36]
 2866 0088 7B6A     		ldr	r3, [r7, #36]
ARM GAS  C:\Users\X0217454\AppData\Local\Temp\cc5FLHAl.s 			page 68


 2867 008a 002B     		cmp	r3, #0
 2868 008c 00D0     		beq	.L195
 2869              	.L196:
 2870              		.loc 1 951 0 is_stmt 0 discriminator 1
 2871 008e FEE7     		b	.L196
 2872              	.L195:
 2873              	.LBE21:
 952:..\..\..\..\..\simplelink\source/socket.c **** 
 953:..\..\..\..\..\simplelink\source/socket.c **** 	if (CmdExt.RxPayloadLen < CmdExt.ActualRxPayloadLen) 
 2874              		.loc 1 953 0 is_stmt 1
 2875 0090 3B1C     		mov	r3, r7
 2876 0092 1033     		add	r3, r3, #16
 2877 0094 5A88     		ldrh	r2, [r3, #2]
 2878 0096 3B1C     		mov	r3, r7
 2879 0098 1033     		add	r3, r3, #16
 2880 009a 9B88     		ldrh	r3, [r3, #4]
 2881 009c 9A42     		cmp	r2, r3
 2882 009e 07D2     		bcs	.L197
 954:..\..\..\..\..\simplelink\source/socket.c **** 	{
 955:..\..\..\..\..\simplelink\source/socket.c **** 	    *optlen = Msg.Rsp.optionLen;
 2883              		.loc 1 955 0
 2884 00a0 3B1C     		mov	r3, r7
 2885 00a2 2033     		add	r3, r3, #32
 2886 00a4 DB78     		ldrb	r3, [r3, #3]
 2887 00a6 1A1C     		mov	r2, r3
 2888 00a8 3B6B     		ldr	r3, [r7, #48]
 2889 00aa 1A60     		str	r2, [r3]
 956:..\..\..\..\..\simplelink\source/socket.c **** 	   return SL_ESMALLBUF;
 2890              		.loc 1 956 0
 2891 00ac 0A4B     		ldr	r3, .L199+8
 2892 00ae 0AE0     		b	.L198
 2893              	.L197:
 957:..\..\..\..\..\simplelink\source/socket.c **** 	}
 958:..\..\..\..\..\simplelink\source/socket.c **** 	else
 959:..\..\..\..\..\simplelink\source/socket.c **** 	{
 960:..\..\..\..\..\simplelink\source/socket.c **** 		*optlen = (UINT8)CmdExt.ActualRxPayloadLen;
 2894              		.loc 1 960 0
 2895 00b0 3B1C     		mov	r3, r7
 2896 00b2 1033     		add	r3, r3, #16
 2897 00b4 9B88     		ldrh	r3, [r3, #4]
 2898 00b6 DBB2     		uxtb	r3, r3
 2899 00b8 1A1C     		mov	r2, r3
 2900 00ba 3B6B     		ldr	r3, [r7, #48]
 2901 00bc 1A60     		str	r2, [r3]
 961:..\..\..\..\..\simplelink\source/socket.c **** 	}
 962:..\..\..\..\..\simplelink\source/socket.c ****     return (int)Msg.Rsp.status;
 2902              		.loc 1 962 0
 2903 00be 3B1C     		mov	r3, r7
 2904 00c0 2033     		add	r3, r3, #32
 2905 00c2 1B88     		ldrh	r3, [r3]
 2906 00c4 1BB2     		sxth	r3, r3
 2907              	.L198:
 963:..\..\..\..\..\simplelink\source/socket.c **** }
 2908              		.loc 1 963 0
 2909 00c6 181C     		mov	r0, r3
 2910 00c8 BD46     		mov	sp, r7
 2911 00ca 0AB0     		add	sp, sp, #40
ARM GAS  C:\Users\X0217454\AppData\Local\Temp\cc5FLHAl.s 			page 69


 2912              		@ sp needed for prologue
 2913 00cc 80BD     		pop	{r7, pc}
 2914              	.L200:
 2915 00ce C046     		.align	2
 2916              	.L199:
 2917 00d0 2EF8FFFF 		.word	-2002
 2918 00d4 00000000 		.word	_SlGetSockOptCmdCtrl
 2919 00d8 2FF8FFFF 		.word	-2001
 2920              		.cfi_endproc
 2921              	.LFE18:
 2922              		.size	sl_GetSockOpt, .-sl_GetSockOpt
 2923              		.global	_SlSelectCmdCtrl
 2924              		.section	.rodata
 2925              		.align	2
 2926              		.type	_SlSelectCmdCtrl, %object
 2927              		.size	_SlSelectCmdCtrl, 4
 2928              	_SlSelectCmdCtrl:
 2929 0024 0794     		.short	-27641
 2930 0026 0C       		.byte	12
 2931 0027 04       		.byte	4
 2932              		.section	.text.sl_Select,"ax",%progbits
 2933              		.align	2
 2934              		.global	sl_Select
 2935              		.code	16
 2936              		.thumb_func
 2937              		.type	sl_Select, %function
 2938              	sl_Select:
 2939              	.LFB19:
 964:..\..\..\..\..\simplelink\source/socket.c **** #endif
 965:..\..\..\..\..\simplelink\source/socket.c **** 
 966:..\..\..\..\..\simplelink\source/socket.c **** /*******************************************************************************/
 967:..\..\..\..\..\simplelink\source/socket.c **** /*  sl_Select */
 968:..\..\..\..\..\simplelink\source/socket.c **** /* ******************************************************************************/
 969:..\..\..\..\..\simplelink\source/socket.c **** typedef union
 970:..\..\..\..\..\simplelink\source/socket.c **** {
 971:..\..\..\..\..\simplelink\source/socket.c **** 	_SelectCommand_t   Cmd;
 972:..\..\..\..\..\simplelink\source/socket.c **** 	_BasicResponse_t   Rsp;    
 973:..\..\..\..\..\simplelink\source/socket.c **** }_SlSelectMsg_u;
 974:..\..\..\..\..\simplelink\source/socket.c **** 
 975:..\..\..\..\..\simplelink\source/socket.c **** const _SlCmdCtrl_t _SlSelectCmdCtrl =
 976:..\..\..\..\..\simplelink\source/socket.c **** {
 977:..\..\..\..\..\simplelink\source/socket.c ****     SL_OPCODE_SOCKET_SELECT,
 978:..\..\..\..\..\simplelink\source/socket.c ****     sizeof(_SelectCommand_t),
 979:..\..\..\..\..\simplelink\source/socket.c ****     sizeof(_BasicResponse_t)
 980:..\..\..\..\..\simplelink\source/socket.c **** };
 981:..\..\..\..\..\simplelink\source/socket.c **** 
 982:..\..\..\..\..\simplelink\source/socket.c **** #if _SL_INCLUDE_FUNC(sl_Select)
 983:..\..\..\..\..\simplelink\source/socket.c **** int sl_Select(int nfds, SlFdSet_t *readsds, SlFdSet_t *writesds, SlFdSet_t *exceptsds, struct SlTim
 984:..\..\..\..\..\simplelink\source/socket.c **** {
 2940              		.loc 1 984 0
 2941              		.cfi_startproc
 2942 0000 80B5     		push	{r7, lr}
 2943              	.LCFI57:
 2944              		.cfi_def_cfa_offset 8
 2945              		.cfi_offset 7, -8
 2946              		.cfi_offset 14, -4
 2947 0002 8EB0     		sub	sp, sp, #56
ARM GAS  C:\Users\X0217454\AppData\Local\Temp\cc5FLHAl.s 			page 70


 2948              	.LCFI58:
 2949              		.cfi_def_cfa_offset 64
 2950 0004 00AF     		add	r7, sp, #0
 2951              	.LCFI59:
 2952              		.cfi_def_cfa_register 7
 2953 0006 F860     		str	r0, [r7, #12]
 2954 0008 B960     		str	r1, [r7, #8]
 2955 000a 7A60     		str	r2, [r7, #4]
 2956 000c 3B60     		str	r3, [r7]
 985:..\..\..\..\..\simplelink\source/socket.c ****     _SlSelectMsg_u          Msg;
 986:..\..\..\..\..\simplelink\source/socket.c ****     _SelectAsyncResponse_t  AsyncRsp;
 987:..\..\..\..\..\simplelink\source/socket.c **** 	UINT8 pObjIdx = MAX_CONCURRENT_ACTIONS;
 2957              		.loc 1 987 0
 2958 000e 3B1C     		mov	r3, r7
 2959 0010 3733     		add	r3, r3, #55
 2960 0012 0A22     		mov	r2, #10
 2961 0014 1A70     		strb	r2, [r3]
 988:..\..\..\..\..\simplelink\source/socket.c **** 
 989:..\..\..\..\..\simplelink\source/socket.c ****     Msg.Cmd.nfds          = nfds;
 2962              		.loc 1 989 0
 2963 0016 FB68     		ldr	r3, [r7, #12]
 2964 0018 DAB2     		uxtb	r2, r3
 2965 001a 3B1C     		mov	r3, r7
 2966 001c 1833     		add	r3, r3, #24
 2967 001e 1A70     		strb	r2, [r3]
 990:..\..\..\..\..\simplelink\source/socket.c ****     Msg.Cmd.readFdsCount  = 0;
 2968              		.loc 1 990 0
 2969 0020 3B1C     		mov	r3, r7
 2970 0022 1833     		add	r3, r3, #24
 2971 0024 0022     		mov	r2, #0
 2972 0026 5A70     		strb	r2, [r3, #1]
 991:..\..\..\..\..\simplelink\source/socket.c ****     Msg.Cmd.writeFdsCount = 0;
 2973              		.loc 1 991 0
 2974 0028 3B1C     		mov	r3, r7
 2975 002a 1833     		add	r3, r3, #24
 2976 002c 0022     		mov	r2, #0
 2977 002e 9A70     		strb	r2, [r3, #2]
 992:..\..\..\..\..\simplelink\source/socket.c ****     
 993:..\..\..\..\..\simplelink\source/socket.c ****     Msg.Cmd.readFds = 0;
 2978              		.loc 1 993 0
 2979 0030 3B1C     		mov	r3, r7
 2980 0032 1833     		add	r3, r3, #24
 2981 0034 0022     		mov	r2, #0
 2982 0036 9A80     		strh	r2, [r3, #4]
 994:..\..\..\..\..\simplelink\source/socket.c ****     Msg.Cmd.writeFds = 0; 
 2983              		.loc 1 994 0
 2984 0038 3B1C     		mov	r3, r7
 2985 003a 1833     		add	r3, r3, #24
 2986 003c 0022     		mov	r2, #0
 2987 003e DA80     		strh	r2, [r3, #6]
 995:..\..\..\..\..\simplelink\source/socket.c ****     
 996:..\..\..\..\..\simplelink\source/socket.c ****     if( readsds )
 2988              		.loc 1 996 0
 2989 0040 BB68     		ldr	r3, [r7, #8]
 2990 0042 002B     		cmp	r3, #0
 2991 0044 05D0     		beq	.L202
 997:..\..\..\..\..\simplelink\source/socket.c ****     {
ARM GAS  C:\Users\X0217454\AppData\Local\Temp\cc5FLHAl.s 			page 71


 998:..\..\..\..\..\simplelink\source/socket.c ****        Msg.Cmd.readFds       = (UINT16)readsds->fd_array[0];  
 2992              		.loc 1 998 0
 2993 0046 BB68     		ldr	r3, [r7, #8]
 2994 0048 1B68     		ldr	r3, [r3]
 2995 004a 9AB2     		uxth	r2, r3
 2996 004c 3B1C     		mov	r3, r7
 2997 004e 1833     		add	r3, r3, #24
 2998 0050 9A80     		strh	r2, [r3, #4]
 2999              	.L202:
 999:..\..\..\..\..\simplelink\source/socket.c ****     }
1000:..\..\..\..\..\simplelink\source/socket.c ****     if( writesds )
 3000              		.loc 1 1000 0
 3001 0052 7B68     		ldr	r3, [r7, #4]
 3002 0054 002B     		cmp	r3, #0
 3003 0056 05D0     		beq	.L203
1001:..\..\..\..\..\simplelink\source/socket.c ****     {
1002:..\..\..\..\..\simplelink\source/socket.c ****        Msg.Cmd.writeFds      = (UINT16)writesds->fd_array[0]; 
 3004              		.loc 1 1002 0
 3005 0058 7B68     		ldr	r3, [r7, #4]
 3006 005a 1B68     		ldr	r3, [r3]
 3007 005c 9AB2     		uxth	r2, r3
 3008 005e 3B1C     		mov	r3, r7
 3009 0060 1833     		add	r3, r3, #24
 3010 0062 DA80     		strh	r2, [r3, #6]
 3011              	.L203:
1003:..\..\..\..\..\simplelink\source/socket.c ****     }
1004:..\..\..\..\..\simplelink\source/socket.c **** 	if( NULL == timeout )
 3012              		.loc 1 1004 0
 3013 0064 3B6C     		ldr	r3, [r7, #64]
 3014 0066 002B     		cmp	r3, #0
 3015 0068 0AD1     		bne	.L204
1005:..\..\..\..\..\simplelink\source/socket.c **** 	{
1006:..\..\..\..\..\simplelink\source/socket.c **** 		Msg.Cmd.tv_sec = 0xffff;
 3016              		.loc 1 1006 0
 3017 006a 3B1C     		mov	r3, r7
 3018 006c 1833     		add	r3, r3, #24
 3019 006e 0122     		mov	r2, #1
 3020 0070 5242     		neg	r2, r2
 3021 0072 5A81     		strh	r2, [r3, #10]
1007:..\..\..\..\..\simplelink\source/socket.c **** 		Msg.Cmd.tv_usec = 0xffff;
 3022              		.loc 1 1007 0
 3023 0074 3B1C     		mov	r3, r7
 3024 0076 1833     		add	r3, r3, #24
 3025 0078 0122     		mov	r2, #1
 3026 007a 5242     		neg	r2, r2
 3027 007c 1A81     		strh	r2, [r3, #8]
 3028 007e 26E0     		b	.L205
 3029              	.L204:
1008:..\..\..\..\..\simplelink\source/socket.c **** 	}
1009:..\..\..\..\..\simplelink\source/socket.c **** 	else
1010:..\..\..\..\..\simplelink\source/socket.c **** 	{
1011:..\..\..\..\..\simplelink\source/socket.c **** 		if( 0xffff <= timeout->tv_sec )	
 3030              		.loc 1 1011 0
 3031 0080 3B6C     		ldr	r3, [r7, #64]
 3032 0082 1A68     		ldr	r2, [r3]
 3033 0084 5A4B     		ldr	r3, .L222
 3034 0086 9A42     		cmp	r2, r3
ARM GAS  C:\Users\X0217454\AppData\Local\Temp\cc5FLHAl.s 			page 72


 3035 0088 05D9     		bls	.L206
1012:..\..\..\..\..\simplelink\source/socket.c **** 		{
1013:..\..\..\..\..\simplelink\source/socket.c **** 			Msg.Cmd.tv_sec = 0xffff;
 3036              		.loc 1 1013 0
 3037 008a 3B1C     		mov	r3, r7
 3038 008c 1833     		add	r3, r3, #24
 3039 008e 0122     		mov	r2, #1
 3040 0090 5242     		neg	r2, r2
 3041 0092 5A81     		strh	r2, [r3, #10]
 3042 0094 05E0     		b	.L207
 3043              	.L206:
1014:..\..\..\..\..\simplelink\source/socket.c **** 		}
1015:..\..\..\..\..\simplelink\source/socket.c **** 		else
1016:..\..\..\..\..\simplelink\source/socket.c **** 		{
1017:..\..\..\..\..\simplelink\source/socket.c **** 			Msg.Cmd.tv_sec = (UINT16)timeout->tv_sec;
 3044              		.loc 1 1017 0
 3045 0096 3B6C     		ldr	r3, [r7, #64]
 3046 0098 1B68     		ldr	r3, [r3]
 3047 009a 9AB2     		uxth	r2, r3
 3048 009c 3B1C     		mov	r3, r7
 3049 009e 1833     		add	r3, r3, #24
 3050 00a0 5A81     		strh	r2, [r3, #10]
 3051              	.L207:
1018:..\..\..\..\..\simplelink\source/socket.c **** 		}
1019:..\..\..\..\..\simplelink\source/socket.c **** 		timeout->tv_usec = timeout->tv_usec >> 10;  /*  convert to milliseconds */
 3052              		.loc 1 1019 0
 3053 00a2 3B6C     		ldr	r3, [r7, #64]
 3054 00a4 5B68     		ldr	r3, [r3, #4]
 3055 00a6 9A0A     		lsr	r2, r3, #10
 3056 00a8 3B6C     		ldr	r3, [r7, #64]
 3057 00aa 5A60     		str	r2, [r3, #4]
1020:..\..\..\..\..\simplelink\source/socket.c **** 		if( 0xffff <= timeout->tv_usec )	
 3058              		.loc 1 1020 0
 3059 00ac 3B6C     		ldr	r3, [r7, #64]
 3060 00ae 5A68     		ldr	r2, [r3, #4]
 3061 00b0 4F4B     		ldr	r3, .L222
 3062 00b2 9A42     		cmp	r2, r3
 3063 00b4 05D9     		bls	.L208
1021:..\..\..\..\..\simplelink\source/socket.c **** 		{
1022:..\..\..\..\..\simplelink\source/socket.c **** 			Msg.Cmd.tv_usec = 0xffff;
 3064              		.loc 1 1022 0
 3065 00b6 3B1C     		mov	r3, r7
 3066 00b8 1833     		add	r3, r3, #24
 3067 00ba 0122     		mov	r2, #1
 3068 00bc 5242     		neg	r2, r2
 3069 00be 1A81     		strh	r2, [r3, #8]
 3070 00c0 05E0     		b	.L205
 3071              	.L208:
1023:..\..\..\..\..\simplelink\source/socket.c **** 		}
1024:..\..\..\..\..\simplelink\source/socket.c **** 		else
1025:..\..\..\..\..\simplelink\source/socket.c **** 		{
1026:..\..\..\..\..\simplelink\source/socket.c **** 			Msg.Cmd.tv_usec = (UINT16)timeout->tv_usec;
 3072              		.loc 1 1026 0
 3073 00c2 3B6C     		ldr	r3, [r7, #64]
 3074 00c4 5B68     		ldr	r3, [r3, #4]
 3075 00c6 9AB2     		uxth	r2, r3
 3076 00c8 3B1C     		mov	r3, r7
ARM GAS  C:\Users\X0217454\AppData\Local\Temp\cc5FLHAl.s 			page 73


 3077 00ca 1833     		add	r3, r3, #24
 3078 00cc 1A81     		strh	r2, [r3, #8]
 3079              	.L205:
1027:..\..\..\..\..\simplelink\source/socket.c **** 		}
1028:..\..\..\..\..\simplelink\source/socket.c **** 	}
1029:..\..\..\..\..\simplelink\source/socket.c **** 
1030:..\..\..\..\..\simplelink\source/socket.c **** 	/* Use Obj to issue the command, if not available try later */
1031:..\..\..\..\..\simplelink\source/socket.c **** 	pObjIdx = _SlDrvWaitForPoolObj(SELECT_ID, SL_MAX_SOCKETS);
 3080              		.loc 1 1031 0
 3081 00ce 0A20     		mov	r0, #10
 3082 00d0 0821     		mov	r1, #8
 3083 00d2 FFF7FEFF 		bl	_SlDrvWaitForPoolObj
 3084 00d6 021C     		mov	r2, r0
 3085 00d8 3B1C     		mov	r3, r7
 3086 00da 3733     		add	r3, r3, #55
 3087 00dc 1A70     		strb	r2, [r3]
1032:..\..\..\..\..\simplelink\source/socket.c **** 
1033:..\..\..\..\..\simplelink\source/socket.c **** 	if (MAX_CONCURRENT_ACTIONS == pObjIdx)
 3088              		.loc 1 1033 0
 3089 00de 3B1C     		mov	r3, r7
 3090 00e0 3733     		add	r3, r3, #55
 3091 00e2 1B78     		ldrb	r3, [r3]
 3092 00e4 0A2B     		cmp	r3, #10
 3093 00e6 01D1     		bne	.L209
1034:..\..\..\..\..\simplelink\source/socket.c **** 	{
1035:..\..\..\..\..\simplelink\source/socket.c **** 		return SL_POOL_IS_EMPTY;
 3094              		.loc 1 1035 0
 3095 00e8 424B     		ldr	r3, .L222+4
 3096 00ea 7CE0     		b	.L221
 3097              	.L209:
 3098              	.LBB22:
1036:..\..\..\..\..\simplelink\source/socket.c **** 	}
1037:..\..\..\..\..\simplelink\source/socket.c **** 	OSI_RET_OK_CHECK(sl_LockObjLock(&g_pCB->ProtectionLockObj, SL_OS_WAIT_FOREVER));
 3099              		.loc 1 1037 0
 3100 00ec 424B     		ldr	r3, .L222+8
 3101 00ee 1B68     		ldr	r3, [r3]
 3102 00f0 9033     		add	r3, r3, #144
 3103 00f2 181C     		mov	r0, r3
 3104 00f4 3321     		mov	r1, #51
 3105 00f6 4422     		mov	r2, #68
 3106 00f8 FF23     		mov	r3, #255
 3107 00fa FFF7FEFF 		bl	_SlNonOsSemGet
 3108 00fe 031C     		mov	r3, r0
 3109 0100 3B63     		str	r3, [r7, #48]
 3110 0102 3B6B     		ldr	r3, [r7, #48]
 3111 0104 002B     		cmp	r3, #0
 3112 0106 00D0     		beq	.L211
 3113              	.L212:
 3114              		.loc 1 1037 0 is_stmt 0 discriminator 1
 3115 0108 FEE7     		b	.L212
 3116              	.L211:
 3117              	.LBE22:
1038:..\..\..\..\..\simplelink\source/socket.c **** 
1039:..\..\..\..\..\simplelink\source/socket.c **** 	g_pCB->ObjPool[pObjIdx].pRespArgs =  (UINT8 *)&AsyncRsp;
 3118              		.loc 1 1039 0 is_stmt 1
 3119 010a 3B4B     		ldr	r3, .L222+8
 3120 010c 1968     		ldr	r1, [r3]
ARM GAS  C:\Users\X0217454\AppData\Local\Temp\cc5FLHAl.s 			page 74


 3121 010e 3B1C     		mov	r3, r7
 3122 0110 3733     		add	r3, r3, #55
 3123 0112 1A78     		ldrb	r2, [r3]
 3124 0114 131C     		mov	r3, r2
 3125 0116 5B00     		lsl	r3, r3, #1
 3126 0118 9B18     		add	r3, r3, r2
 3127 011a 9B00     		lsl	r3, r3, #2
 3128 011c CB18     		add	r3, r1, r3
 3129 011e 1433     		add	r3, r3, #20
 3130 0120 3A1C     		mov	r2, r7
 3131 0122 1032     		add	r2, r2, #16
 3132 0124 1A60     		str	r2, [r3]
 3133              	.LBB23:
1040:..\..\..\..\..\simplelink\source/socket.c **** 
1041:..\..\..\..\..\simplelink\source/socket.c ****     OSI_RET_OK_CHECK(sl_LockObjUnlock(&g_pCB->ProtectionLockObj));
 3134              		.loc 1 1041 0
 3135 0126 344B     		ldr	r3, .L222+8
 3136 0128 1B68     		ldr	r3, [r3]
 3137 012a 9033     		add	r3, r3, #144
 3138 012c 181C     		mov	r0, r3
 3139 012e 3321     		mov	r1, #51
 3140 0130 FFF7FEFF 		bl	_SlNonOsSemSet
 3141 0134 031C     		mov	r3, r0
 3142 0136 FB62     		str	r3, [r7, #44]
 3143 0138 FB6A     		ldr	r3, [r7, #44]
 3144 013a 002B     		cmp	r3, #0
 3145 013c 00D0     		beq	.L213
 3146              	.L214:
 3147              		.loc 1 1041 0 is_stmt 0 discriminator 1
 3148 013e FEE7     		b	.L214
 3149              	.L213:
 3150              	.LBE23:
 3151              	.LBB24:
1042:..\..\..\..\..\simplelink\source/socket.c **** 	/* send the command */
1043:..\..\..\..\..\simplelink\source/socket.c ****     VERIFY_RET_OK(_SlDrvCmdOp((_SlCmdCtrl_t *)&_SlSelectCmdCtrl, &Msg, NULL));
 3152              		.loc 1 1043 0 is_stmt 1
 3153 0140 2E4A     		ldr	r2, .L222+12
 3154 0142 3B1C     		mov	r3, r7
 3155 0144 1833     		add	r3, r3, #24
 3156 0146 101C     		mov	r0, r2
 3157 0148 191C     		mov	r1, r3
 3158 014a 0022     		mov	r2, #0
 3159 014c FFF7FEFF 		bl	_SlDrvCmdOp
 3160 0150 031C     		mov	r3, r0
 3161 0152 BB62     		str	r3, [r7, #40]
 3162 0154 BB6A     		ldr	r3, [r7, #40]
 3163 0156 002B     		cmp	r3, #0
 3164 0158 00D0     		beq	.L215
 3165              	.L216:
 3166              		.loc 1 1043 0 is_stmt 0 discriminator 1
 3167 015a FEE7     		b	.L216
 3168              	.L215:
 3169              	.LBE24:
1044:..\..\..\..\..\simplelink\source/socket.c **** 
1045:..\..\..\..\..\simplelink\source/socket.c ****     if(SL_OS_RET_CODE_OK == (int)Msg.Rsp.status)
 3170              		.loc 1 1045 0 is_stmt 1
 3171 015c 3B1C     		mov	r3, r7
ARM GAS  C:\Users\X0217454\AppData\Local\Temp\cc5FLHAl.s 			page 75


 3172 015e 1833     		add	r3, r3, #24
 3173 0160 1B88     		ldrh	r3, [r3]
 3174 0162 002B     		cmp	r3, #0
 3175 0164 35D1     		bne	.L217
 3176              	.LBB25:
1046:..\..\..\..\..\simplelink\source/socket.c ****     {
1047:..\..\..\..\..\simplelink\source/socket.c ****         OSI_RET_OK_CHECK(sl_SyncObjWait(&g_pCB->ObjPool[pObjIdx].SyncObj, SL_OS_WAIT_FOREVER));
 3177              		.loc 1 1047 0
 3178 0166 244B     		ldr	r3, .L222+8
 3179 0168 1968     		ldr	r1, [r3]
 3180 016a 3B1C     		mov	r3, r7
 3181 016c 3733     		add	r3, r3, #55
 3182 016e 1A78     		ldrb	r2, [r3]
 3183 0170 131C     		mov	r3, r2
 3184 0172 5B00     		lsl	r3, r3, #1
 3185 0174 9B18     		add	r3, r3, r2
 3186 0176 9B00     		lsl	r3, r3, #2
 3187 0178 1033     		add	r3, r3, #16
 3188 017a CB18     		add	r3, r1, r3
 3189 017c 181C     		mov	r0, r3
 3190 017e 2221     		mov	r1, #34
 3191 0180 1122     		mov	r2, #17
 3192 0182 FF23     		mov	r3, #255
 3193 0184 FFF7FEFF 		bl	_SlNonOsSemGet
 3194 0188 031C     		mov	r3, r0
 3195 018a 7B62     		str	r3, [r7, #36]
 3196 018c 7B6A     		ldr	r3, [r7, #36]
 3197 018e 002B     		cmp	r3, #0
 3198 0190 00D0     		beq	.L218
 3199              	.L219:
 3200              		.loc 1 1047 0 is_stmt 0 discriminator 1
 3201 0192 FEE7     		b	.L219
 3202              	.L218:
 3203              	.LBE25:
1048:..\..\..\..\..\simplelink\source/socket.c ****         Msg.Rsp.status = AsyncRsp.status;
 3204              		.loc 1 1048 0 is_stmt 1
 3205 0194 3B1C     		mov	r3, r7
 3206 0196 1033     		add	r3, r3, #16
 3207 0198 1B88     		ldrh	r3, [r3]
 3208 019a 9AB2     		uxth	r2, r3
 3209 019c 3B1C     		mov	r3, r7
 3210 019e 1833     		add	r3, r3, #24
 3211 01a0 1A80     		strh	r2, [r3]
1049:..\..\..\..\..\simplelink\source/socket.c **** 
1050:..\..\..\..\..\simplelink\source/socket.c ****         if(  ((int)Msg.Rsp.status) >= 0 )
 3212              		.loc 1 1050 0
 3213 01a2 3B1C     		mov	r3, r7
 3214 01a4 1833     		add	r3, r3, #24
 3215 01a6 1B88     		ldrh	r3, [r3]
 3216 01a8 1BB2     		sxth	r3, r3
 3217 01aa 002B     		cmp	r3, #0
 3218 01ac 11DB     		blt	.L217
1051:..\..\..\..\..\simplelink\source/socket.c ****         {
1052:..\..\..\..\..\simplelink\source/socket.c ****             if( readsds )
 3219              		.loc 1 1052 0
 3220 01ae BB68     		ldr	r3, [r7, #8]
 3221 01b0 002B     		cmp	r3, #0
ARM GAS  C:\Users\X0217454\AppData\Local\Temp\cc5FLHAl.s 			page 76


 3222 01b2 05D0     		beq	.L220
1053:..\..\..\..\..\simplelink\source/socket.c ****             {
1054:..\..\..\..\..\simplelink\source/socket.c ****                readsds->fd_array[0]  = AsyncRsp.readFds;
 3223              		.loc 1 1054 0
 3224 01b4 3B1C     		mov	r3, r7
 3225 01b6 1033     		add	r3, r3, #16
 3226 01b8 9B88     		ldrh	r3, [r3, #4]
 3227 01ba 1A1C     		mov	r2, r3
 3228 01bc BB68     		ldr	r3, [r7, #8]
 3229 01be 1A60     		str	r2, [r3]
 3230              	.L220:
1055:..\..\..\..\..\simplelink\source/socket.c ****             }
1056:..\..\..\..\..\simplelink\source/socket.c ****             if( writesds )
 3231              		.loc 1 1056 0
 3232 01c0 7B68     		ldr	r3, [r7, #4]
 3233 01c2 002B     		cmp	r3, #0
 3234 01c4 05D0     		beq	.L217
1057:..\..\..\..\..\simplelink\source/socket.c ****             {
1058:..\..\..\..\..\simplelink\source/socket.c ****                writesds->fd_array[0] = AsyncRsp.writeFds;      
 3235              		.loc 1 1058 0
 3236 01c6 3B1C     		mov	r3, r7
 3237 01c8 1033     		add	r3, r3, #16
 3238 01ca DB88     		ldrh	r3, [r3, #6]
 3239 01cc 1A1C     		mov	r2, r3
 3240 01ce 7B68     		ldr	r3, [r7, #4]
 3241 01d0 1A60     		str	r2, [r3]
 3242              	.L217:
1059:..\..\..\..\..\simplelink\source/socket.c ****             }
1060:..\..\..\..\..\simplelink\source/socket.c ****         }
1061:..\..\..\..\..\simplelink\source/socket.c ****     }
1062:..\..\..\..\..\simplelink\source/socket.c **** 
1063:..\..\..\..\..\simplelink\source/socket.c ****     _SlDrvReleasePoolObj(pObjIdx);
 3243              		.loc 1 1063 0
 3244 01d2 3B1C     		mov	r3, r7
 3245 01d4 3733     		add	r3, r3, #55
 3246 01d6 1B78     		ldrb	r3, [r3]
 3247 01d8 181C     		mov	r0, r3
 3248 01da FFF7FEFF 		bl	_SlDrvReleasePoolObj
1064:..\..\..\..\..\simplelink\source/socket.c ****     return (int)Msg.Rsp.status;
 3249              		.loc 1 1064 0
 3250 01de 3B1C     		mov	r3, r7
 3251 01e0 1833     		add	r3, r3, #24
 3252 01e2 1B88     		ldrh	r3, [r3]
 3253 01e4 1BB2     		sxth	r3, r3
 3254              	.L221:
1065:..\..\..\..\..\simplelink\source/socket.c **** }
 3255              		.loc 1 1065 0
 3256 01e6 181C     		mov	r0, r3
 3257 01e8 BD46     		mov	sp, r7
 3258 01ea 0EB0     		add	sp, sp, #56
 3259              		@ sp needed for prologue
 3260 01ec 80BD     		pop	{r7, pc}
 3261              	.L223:
 3262 01ee C046     		.align	2
 3263              	.L222:
 3264 01f0 FEFF0000 		.word	65534
 3265 01f4 30F8FFFF 		.word	-2000
ARM GAS  C:\Users\X0217454\AppData\Local\Temp\cc5FLHAl.s 			page 77


 3266 01f8 00000000 		.word	g_pCB
 3267 01fc 00000000 		.word	_SlSelectCmdCtrl
 3268              		.cfi_endproc
 3269              	.LFE19:
 3270              		.size	sl_Select, .-sl_Select
 3271              		.section	.text.SL_FD_SET,"ax",%progbits
 3272              		.align	2
 3273              		.global	SL_FD_SET
 3274              		.code	16
 3275              		.thumb_func
 3276              		.type	SL_FD_SET, %function
 3277              	SL_FD_SET:
 3278              	.LFB20:
1066:..\..\..\..\..\simplelink\source/socket.c **** 
1067:..\..\..\..\..\simplelink\source/socket.c **** /*  Select helper functions */
1068:..\..\..\..\..\simplelink\source/socket.c **** /*******************************************************************************/
1069:..\..\..\..\..\simplelink\source/socket.c **** /*  SL_FD_SET */
1070:..\..\..\..\..\simplelink\source/socket.c **** /* ******************************************************************************/
1071:..\..\..\..\..\simplelink\source/socket.c **** void SL_FD_SET(int fd, SlFdSet_t *fdset)
1072:..\..\..\..\..\simplelink\source/socket.c **** {
 3279              		.loc 1 1072 0
 3280              		.cfi_startproc
 3281 0000 80B5     		push	{r7, lr}
 3282              	.LCFI60:
 3283              		.cfi_def_cfa_offset 8
 3284              		.cfi_offset 7, -8
 3285              		.cfi_offset 14, -4
 3286 0002 82B0     		sub	sp, sp, #8
 3287              	.LCFI61:
 3288              		.cfi_def_cfa_offset 16
 3289 0004 00AF     		add	r7, sp, #0
 3290              	.LCFI62:
 3291              		.cfi_def_cfa_register 7
 3292 0006 7860     		str	r0, [r7, #4]
 3293 0008 3960     		str	r1, [r7]
1073:..\..\..\..\..\simplelink\source/socket.c ****    fdset->fd_array[0] |=  (1<< (fd & BSD_SOCKET_ID_MASK));
 3294              		.loc 1 1073 0
 3295 000a 3B68     		ldr	r3, [r7]
 3296 000c 1A68     		ldr	r2, [r3]
 3297 000e 7968     		ldr	r1, [r7, #4]
 3298 0010 0F23     		mov	r3, #15
 3299 0012 0B40     		and	r3, r1
 3300 0014 0121     		mov	r1, #1
 3301 0016 081C     		mov	r0, r1
 3302 0018 9840     		lsl	r0, r0, r3
 3303 001a 031C     		mov	r3, r0
 3304 001c 1A43     		orr	r2, r3
 3305 001e 3B68     		ldr	r3, [r7]
 3306 0020 1A60     		str	r2, [r3]
1074:..\..\..\..\..\simplelink\source/socket.c **** }
 3307              		.loc 1 1074 0
 3308 0022 BD46     		mov	sp, r7
 3309 0024 02B0     		add	sp, sp, #8
 3310              		@ sp needed for prologue
 3311 0026 80BD     		pop	{r7, pc}
 3312              		.cfi_endproc
 3313              	.LFE20:
ARM GAS  C:\Users\X0217454\AppData\Local\Temp\cc5FLHAl.s 			page 78


 3314              		.size	SL_FD_SET, .-SL_FD_SET
 3315              		.section	.text.SL_FD_CLR,"ax",%progbits
 3316              		.align	2
 3317              		.global	SL_FD_CLR
 3318              		.code	16
 3319              		.thumb_func
 3320              		.type	SL_FD_CLR, %function
 3321              	SL_FD_CLR:
 3322              	.LFB21:
1075:..\..\..\..\..\simplelink\source/socket.c **** /*******************************************************************************/
1076:..\..\..\..\..\simplelink\source/socket.c **** /*  SL_FD_CLR */
1077:..\..\..\..\..\simplelink\source/socket.c **** /*******************************************************************************/
1078:..\..\..\..\..\simplelink\source/socket.c **** void SL_FD_CLR(int fd, SlFdSet_t *fdset)
1079:..\..\..\..\..\simplelink\source/socket.c **** {
 3323              		.loc 1 1079 0
 3324              		.cfi_startproc
 3325 0000 80B5     		push	{r7, lr}
 3326              	.LCFI63:
 3327              		.cfi_def_cfa_offset 8
 3328              		.cfi_offset 7, -8
 3329              		.cfi_offset 14, -4
 3330 0002 82B0     		sub	sp, sp, #8
 3331              	.LCFI64:
 3332              		.cfi_def_cfa_offset 16
 3333 0004 00AF     		add	r7, sp, #0
 3334              	.LCFI65:
 3335              		.cfi_def_cfa_register 7
 3336 0006 7860     		str	r0, [r7, #4]
 3337 0008 3960     		str	r1, [r7]
1080:..\..\..\..\..\simplelink\source/socket.c ****   fdset->fd_array[0] &=  ~(1<< (fd & BSD_SOCKET_ID_MASK));
 3338              		.loc 1 1080 0
 3339 000a 3B68     		ldr	r3, [r7]
 3340 000c 1B68     		ldr	r3, [r3]
 3341 000e 7968     		ldr	r1, [r7, #4]
 3342 0010 0F22     		mov	r2, #15
 3343 0012 0A40     		and	r2, r1
 3344 0014 0121     		mov	r1, #1
 3345 0016 081C     		mov	r0, r1
 3346 0018 9040     		lsl	r0, r0, r2
 3347 001a 021C     		mov	r2, r0
 3348 001c D243     		mvn	r2, r2
 3349 001e 1A40     		and	r2, r3
 3350 0020 3B68     		ldr	r3, [r7]
 3351 0022 1A60     		str	r2, [r3]
1081:..\..\..\..\..\simplelink\source/socket.c **** }
 3352              		.loc 1 1081 0
 3353 0024 BD46     		mov	sp, r7
 3354 0026 02B0     		add	sp, sp, #8
 3355              		@ sp needed for prologue
 3356 0028 80BD     		pop	{r7, pc}
 3357              		.cfi_endproc
 3358              	.LFE21:
 3359              		.size	SL_FD_CLR, .-SL_FD_CLR
 3360 002a C046     		.section	.text.SL_FD_ISSET,"ax",%progbits
 3361              		.align	2
 3362              		.global	SL_FD_ISSET
 3363              		.code	16
ARM GAS  C:\Users\X0217454\AppData\Local\Temp\cc5FLHAl.s 			page 79


 3364              		.thumb_func
 3365              		.type	SL_FD_ISSET, %function
 3366              	SL_FD_ISSET:
 3367              	.LFB22:
1082:..\..\..\..\..\simplelink\source/socket.c **** /*******************************************************************************/
1083:..\..\..\..\..\simplelink\source/socket.c **** /*  SL_FD_ISSET */
1084:..\..\..\..\..\simplelink\source/socket.c **** /*******************************************************************************/
1085:..\..\..\..\..\simplelink\source/socket.c **** int  SL_FD_ISSET(int fd, SlFdSet_t *fdset)
1086:..\..\..\..\..\simplelink\source/socket.c **** {
 3368              		.loc 1 1086 0
 3369              		.cfi_startproc
 3370 0000 80B5     		push	{r7, lr}
 3371              	.LCFI66:
 3372              		.cfi_def_cfa_offset 8
 3373              		.cfi_offset 7, -8
 3374              		.cfi_offset 14, -4
 3375 0002 82B0     		sub	sp, sp, #8
 3376              	.LCFI67:
 3377              		.cfi_def_cfa_offset 16
 3378 0004 00AF     		add	r7, sp, #0
 3379              	.LCFI68:
 3380              		.cfi_def_cfa_register 7
 3381 0006 7860     		str	r0, [r7, #4]
 3382 0008 3960     		str	r1, [r7]
1087:..\..\..\..\..\simplelink\source/socket.c ****   if( fdset->fd_array[0] & (1<< (fd & BSD_SOCKET_ID_MASK)) )
 3383              		.loc 1 1087 0
 3384 000a 3B68     		ldr	r3, [r7]
 3385 000c 1B68     		ldr	r3, [r3]
 3386 000e 7968     		ldr	r1, [r7, #4]
 3387 0010 0F22     		mov	r2, #15
 3388 0012 0A40     		and	r2, r1
 3389 0014 0121     		mov	r1, #1
 3390 0016 081C     		mov	r0, r1
 3391 0018 9040     		lsl	r0, r0, r2
 3392 001a 021C     		mov	r2, r0
 3393 001c 1340     		and	r3, r2
 3394 001e 01D0     		beq	.L227
1088:..\..\..\..\..\simplelink\source/socket.c ****   {
1089:..\..\..\..\..\simplelink\source/socket.c ****     return 1;
 3395              		.loc 1 1089 0
 3396 0020 0123     		mov	r3, #1
 3397 0022 00E0     		b	.L228
 3398              	.L227:
1090:..\..\..\..\..\simplelink\source/socket.c ****   }
1091:..\..\..\..\..\simplelink\source/socket.c ****   return 0;
 3399              		.loc 1 1091 0
 3400 0024 0023     		mov	r3, #0
 3401              	.L228:
1092:..\..\..\..\..\simplelink\source/socket.c **** }
 3402              		.loc 1 1092 0
 3403 0026 181C     		mov	r0, r3
 3404 0028 BD46     		mov	sp, r7
 3405 002a 02B0     		add	sp, sp, #8
 3406              		@ sp needed for prologue
 3407 002c 80BD     		pop	{r7, pc}
 3408              		.cfi_endproc
 3409              	.LFE22:
ARM GAS  C:\Users\X0217454\AppData\Local\Temp\cc5FLHAl.s 			page 80


 3410              		.size	SL_FD_ISSET, .-SL_FD_ISSET
 3411 002e C046     		.section	.text.SL_FD_ZERO,"ax",%progbits
 3412              		.align	2
 3413              		.global	SL_FD_ZERO
 3414              		.code	16
 3415              		.thumb_func
 3416              		.type	SL_FD_ZERO, %function
 3417              	SL_FD_ZERO:
 3418              	.LFB23:
1093:..\..\..\..\..\simplelink\source/socket.c **** /*******************************************************************************/
1094:..\..\..\..\..\simplelink\source/socket.c **** /*  SL_FD_ZERO */
1095:..\..\..\..\..\simplelink\source/socket.c **** /*******************************************************************************/  
1096:..\..\..\..\..\simplelink\source/socket.c **** void SL_FD_ZERO(SlFdSet_t *fdset)
1097:..\..\..\..\..\simplelink\source/socket.c **** {
 3419              		.loc 1 1097 0
 3420              		.cfi_startproc
 3421 0000 80B5     		push	{r7, lr}
 3422              	.LCFI69:
 3423              		.cfi_def_cfa_offset 8
 3424              		.cfi_offset 7, -8
 3425              		.cfi_offset 14, -4
 3426 0002 82B0     		sub	sp, sp, #8
 3427              	.LCFI70:
 3428              		.cfi_def_cfa_offset 16
 3429 0004 00AF     		add	r7, sp, #0
 3430              	.LCFI71:
 3431              		.cfi_def_cfa_register 7
 3432 0006 7860     		str	r0, [r7, #4]
1098:..\..\..\..\..\simplelink\source/socket.c ****   fdset->fd_array[0] = 0;
 3433              		.loc 1 1098 0
 3434 0008 7B68     		ldr	r3, [r7, #4]
 3435 000a 0022     		mov	r2, #0
 3436 000c 1A60     		str	r2, [r3]
1099:..\..\..\..\..\simplelink\source/socket.c **** }
 3437              		.loc 1 1099 0
 3438 000e BD46     		mov	sp, r7
 3439 0010 02B0     		add	sp, sp, #8
 3440              		@ sp needed for prologue
 3441 0012 80BD     		pop	{r7, pc}
 3442              		.cfi_endproc
 3443              	.LFE23:
 3444              		.size	SL_FD_ZERO, .-SL_FD_ZERO
 3445              		.section	.text._sl_HandleAsync_Select,"ax",%progbits
 3446              		.align	2
 3447              		.global	_sl_HandleAsync_Select
 3448              		.code	16
 3449              		.thumb_func
 3450              		.type	_sl_HandleAsync_Select, %function
 3451              	_sl_HandleAsync_Select:
 3452              	.LFB24:
1100:..\..\..\..\..\simplelink\source/socket.c **** 
1101:..\..\..\..\..\simplelink\source/socket.c **** #endif
1102:..\..\..\..\..\simplelink\source/socket.c **** 
1103:..\..\..\..\..\simplelink\source/socket.c **** /*******************************************************************************/
1104:..\..\..\..\..\simplelink\source/socket.c **** /*   _sl_HandleAsync_Select */
1105:..\..\..\..\..\simplelink\source/socket.c **** /*******************************************************************************/
1106:..\..\..\..\..\simplelink\source/socket.c **** void _sl_HandleAsync_Select(void *pVoidBuf)
ARM GAS  C:\Users\X0217454\AppData\Local\Temp\cc5FLHAl.s 			page 81


1107:..\..\..\..\..\simplelink\source/socket.c **** {
 3453              		.loc 1 1107 0
 3454              		.cfi_startproc
 3455 0000 80B5     		push	{r7, lr}
 3456              	.LCFI72:
 3457              		.cfi_def_cfa_offset 8
 3458              		.cfi_offset 7, -8
 3459              		.cfi_offset 14, -4
 3460 0002 86B0     		sub	sp, sp, #24
 3461              	.LCFI73:
 3462              		.cfi_def_cfa_offset 32
 3463 0004 00AF     		add	r7, sp, #0
 3464              	.LCFI74:
 3465              		.cfi_def_cfa_register 7
 3466 0006 7860     		str	r0, [r7, #4]
1108:..\..\..\..\..\simplelink\source/socket.c ****     _SelectAsyncResponse_t     *pMsgArgs   = (_SelectAsyncResponse_t *)_SL_RESP_ARGS_START(pVoidBuf
 3467              		.loc 1 1108 0
 3468 0008 7B68     		ldr	r3, [r7, #4]
 3469 000a 0833     		add	r3, r3, #8
 3470 000c 7B61     		str	r3, [r7, #20]
 3471              	.LBB26:
1109:..\..\..\..\..\simplelink\source/socket.c **** 
1110:..\..\..\..\..\simplelink\source/socket.c ****     OSI_RET_OK_CHECK(sl_LockObjLock(&g_pCB->ProtectionLockObj, SL_OS_WAIT_FOREVER));
 3472              		.loc 1 1110 0
 3473 000e 254B     		ldr	r3, .L239
 3474 0010 1B68     		ldr	r3, [r3]
 3475 0012 9033     		add	r3, r3, #144
 3476 0014 181C     		mov	r0, r3
 3477 0016 3321     		mov	r1, #51
 3478 0018 4422     		mov	r2, #68
 3479 001a FF23     		mov	r3, #255
 3480 001c FFF7FEFF 		bl	_SlNonOsSemGet
 3481 0020 031C     		mov	r3, r0
 3482 0022 3B61     		str	r3, [r7, #16]
 3483 0024 3B69     		ldr	r3, [r7, #16]
 3484 0026 002B     		cmp	r3, #0
 3485 0028 00D0     		beq	.L231
 3486              	.L232:
 3487              		.loc 1 1110 0 is_stmt 0 discriminator 1
 3488 002a FEE7     		b	.L232
 3489              	.L231:
 3490              	.LBE26:
1111:..\..\..\..\..\simplelink\source/socket.c **** 
1112:..\..\..\..\..\simplelink\source/socket.c ****     VERIFY_SOCKET_CB(NULL != g_pCB->ObjPool[g_pCB->FunctionParams.AsyncExt.ActionIndex].pRespArgs);
1113:..\..\..\..\..\simplelink\source/socket.c **** 
1114:..\..\..\..\..\simplelink\source/socket.c ****     memcpy(g_pCB->ObjPool[g_pCB->FunctionParams.AsyncExt.ActionIndex].pRespArgs, pMsgArgs, sizeof(_
 3491              		.loc 1 1114 0 is_stmt 1
 3492 002c 1D4B     		ldr	r3, .L239
 3493 002e 1968     		ldr	r1, [r3]
 3494 0030 1C4B     		ldr	r3, .L239
 3495 0032 1A68     		ldr	r2, [r3]
 3496 0034 AC23     		mov	r3, #172
 3497 0036 D35C     		ldrb	r3, [r2, r3]
 3498 0038 1A1C     		mov	r2, r3
 3499 003a 131C     		mov	r3, r2
 3500 003c 5B00     		lsl	r3, r3, #1
 3501 003e 9B18     		add	r3, r3, r2
ARM GAS  C:\Users\X0217454\AppData\Local\Temp\cc5FLHAl.s 			page 82


 3502 0040 9B00     		lsl	r3, r3, #2
 3503 0042 CB18     		add	r3, r1, r3
 3504 0044 1433     		add	r3, r3, #20
 3505 0046 1A68     		ldr	r2, [r3]
 3506 0048 7B69     		ldr	r3, [r7, #20]
 3507 004a 101C     		mov	r0, r2
 3508 004c 191C     		mov	r1, r3
 3509 004e 0822     		mov	r2, #8
 3510 0050 FFF7FEFF 		bl	memcpy
 3511              	.LBB27:
1115:..\..\..\..\..\simplelink\source/socket.c ****     OSI_RET_OK_CHECK(sl_SyncObjSignal(&g_pCB->ObjPool[g_pCB->FunctionParams.AsyncExt.ActionIndex].S
 3512              		.loc 1 1115 0
 3513 0054 134B     		ldr	r3, .L239
 3514 0056 1968     		ldr	r1, [r3]
 3515 0058 124B     		ldr	r3, .L239
 3516 005a 1A68     		ldr	r2, [r3]
 3517 005c AC23     		mov	r3, #172
 3518 005e D35C     		ldrb	r3, [r2, r3]
 3519 0060 1A1C     		mov	r2, r3
 3520 0062 131C     		mov	r3, r2
 3521 0064 5B00     		lsl	r3, r3, #1
 3522 0066 9B18     		add	r3, r3, r2
 3523 0068 9B00     		lsl	r3, r3, #2
 3524 006a 1033     		add	r3, r3, #16
 3525 006c CB18     		add	r3, r1, r3
 3526 006e 181C     		mov	r0, r3
 3527 0070 2221     		mov	r1, #34
 3528 0072 FFF7FEFF 		bl	_SlNonOsSemSet
 3529 0076 031C     		mov	r3, r0
 3530 0078 FB60     		str	r3, [r7, #12]
 3531 007a FB68     		ldr	r3, [r7, #12]
 3532 007c 002B     		cmp	r3, #0
 3533 007e 00D0     		beq	.L233
 3534              	.L234:
 3535              		.loc 1 1115 0 is_stmt 0 discriminator 1
 3536 0080 FEE7     		b	.L234
 3537              	.L233:
 3538              	.LBE27:
 3539              	.LBB28:
1116:..\..\..\..\..\simplelink\source/socket.c **** 
1117:..\..\..\..\..\simplelink\source/socket.c ****     OSI_RET_OK_CHECK(sl_LockObjUnlock(&g_pCB->ProtectionLockObj));
 3540              		.loc 1 1117 0 is_stmt 1
 3541 0082 084B     		ldr	r3, .L239
 3542 0084 1B68     		ldr	r3, [r3]
 3543 0086 9033     		add	r3, r3, #144
 3544 0088 181C     		mov	r0, r3
 3545 008a 3321     		mov	r1, #51
 3546 008c FFF7FEFF 		bl	_SlNonOsSemSet
 3547 0090 031C     		mov	r3, r0
 3548 0092 BB60     		str	r3, [r7, #8]
 3549 0094 BB68     		ldr	r3, [r7, #8]
 3550 0096 002B     		cmp	r3, #0
 3551 0098 00D0     		beq	.L238
 3552              	.L236:
 3553              		.loc 1 1117 0 is_stmt 0 discriminator 1
 3554 009a FEE7     		b	.L236
 3555              	.L238:
ARM GAS  C:\Users\X0217454\AppData\Local\Temp\cc5FLHAl.s 			page 83


 3556              	.LBE28:
1118:..\..\..\..\..\simplelink\source/socket.c ****     return;
 3557              		.loc 1 1118 0 is_stmt 1
 3558 009c C046     		mov	r8, r8
 3559              	.L230:
1119:..\..\..\..\..\simplelink\source/socket.c **** }
 3560              		.loc 1 1119 0
 3561 009e BD46     		mov	sp, r7
 3562 00a0 06B0     		add	sp, sp, #24
 3563              		@ sp needed for prologue
 3564 00a2 80BD     		pop	{r7, pc}
 3565              	.L240:
 3566              		.align	2
 3567              	.L239:
 3568 00a4 00000000 		.word	g_pCB
 3569              		.cfi_endproc
 3570              	.LFE24:
 3571              		.size	_sl_HandleAsync_Select, .-_sl_HandleAsync_Select
 3572              		.text
 3573              	.Letext0:
 3574              		.file 2 "..\\..\\..\\..\\..\\simplelink\\source\\datatypes.h"
 3575              		.file 3 "..\\..\\..\\..\\..\\simplelink\\include/simplelink.h"
 3576              		.file 4 "..\\..\\..\\..\\..\\simplelink\\include/../source/nonos.h"
 3577              		.file 5 "..\\..\\..\\..\\..\\simplelink\\include/socket.h"
 3578              		.file 6 "..\\..\\..\\..\\..\\simplelink\\include/device.h"
 3579              		.file 7 "..\\..\\..\\..\\..\\simplelink\\source\\protocol.h"
 3580              		.file 8 "..\\..\\..\\..\\..\\simplelink\\source\\driver.h"