ARM GAS  C:\Users\X0217454\AppData\Local\Temp\cc5FLHAl.s 			page 1


   1              		.cpu cortex-m0
   2              		.fpu softvfp
   3              		.eabi_attribute 20, 1
   4              		.eabi_attribute 21, 1
   5              		.eabi_attribute 23, 3
   6              		.eabi_attribute 24, 1
   7              		.eabi_attribute 25, 1
   8              		.eabi_attribute 26, 1
   9              		.eabi_attribute 30, 6
  10              		.eabi_attribute 34, 0
  11              		.eabi_attribute 18, 4
  12              		.code	16
  13              		.file	"socket.c"
  14              		.text
  15              	.Ltext0:
  16              		.cfi_sections	.debug_frame
  17              		.section	.text._sl_BuildAddress,"ax",%progbits
  18              		.align	2
  19              		.global	_sl_BuildAddress
  20              		.code	16
  21              		.thumb_func
  22              		.type	_sl_BuildAddress, %function
  23              	_sl_BuildAddress:
  24              	.LFB0:
  25              		.file 1 "..\\..\\..\\..\\..\\simplelink\\source\\socket.c"
   1:..\..\..\..\..\simplelink\source/socket.c **** /*
   2:..\..\..\..\..\simplelink\source/socket.c ****  * socket.c - CC31xx/CC32xx Host Driver Implementation
   3:..\..\..\..\..\simplelink\source/socket.c ****  *
   4:..\..\..\..\..\simplelink\source/socket.c ****  * Copyright (C) 2014 Texas Instruments Incorporated - http://www.ti.com/ 
   5:..\..\..\..\..\simplelink\source/socket.c ****  * 
   6:..\..\..\..\..\simplelink\source/socket.c ****  * 
   7:..\..\..\..\..\simplelink\source/socket.c ****  *  Redistribution and use in source and binary forms, with or without 
   8:..\..\..\..\..\simplelink\source/socket.c ****  *  modification, are permitted provided that the following conditions 
   9:..\..\..\..\..\simplelink\source/socket.c ****  *  are met:
  10:..\..\..\..\..\simplelink\source/socket.c ****  *
  11:..\..\..\..\..\simplelink\source/socket.c ****  *    Redistributions of source code must retain the above copyright 
  12:..\..\..\..\..\simplelink\source/socket.c ****  *    notice, this list of conditions and the following disclaimer.
  13:..\..\..\..\..\simplelink\source/socket.c ****  *
  14:..\..\..\..\..\simplelink\source/socket.c ****  *    Redistributions in binary form must reproduce the above copyright
  15:..\..\..\..\..\simplelink\source/socket.c ****  *    notice, this list of conditions and the following disclaimer in the 
  16:..\..\..\..\..\simplelink\source/socket.c ****  *    documentation and/or other materials provided with the   
  17:..\..\..\..\..\simplelink\source/socket.c ****  *    distribution.
  18:..\..\..\..\..\simplelink\source/socket.c ****  *
  19:..\..\..\..\..\simplelink\source/socket.c ****  *    Neither the name of Texas Instruments Incorporated nor the names of
  20:..\..\..\..\..\simplelink\source/socket.c ****  *    its contributors may be used to endorse or promote products derived
  21:..\..\..\..\..\simplelink\source/socket.c ****  *    from this software without specific prior written permission.
  22:..\..\..\..\..\simplelink\source/socket.c ****  *
  23:..\..\..\..\..\simplelink\source/socket.c ****  *  THIS SOFTWARE IS PROVIDED BY THE COPYRIGHT HOLDERS AND CONTRIBUTORS 
  24:..\..\..\..\..\simplelink\source/socket.c ****  *  "AS IS" AND ANY EXPRESS OR IMPLIED WARRANTIES, INCLUDING, BUT NOT 
  25:..\..\..\..\..\simplelink\source/socket.c ****  *  LIMITED TO, THE IMPLIED WARRANTIES OF MERCHANTABILITY AND FITNESS FOR
  26:..\..\..\..\..\simplelink\source/socket.c ****  *  A PARTICULAR PURPOSE ARE DISCLAIMED. IN NO EVENT SHALL THE COPYRIGHT 
  27:..\..\..\..\..\simplelink\source/socket.c ****  *  OWNER OR CONTRIBUTORS BE LIABLE FOR ANY DIRECT, INDIRECT, INCIDENTAL, 
  28:..\..\..\..\..\simplelink\source/socket.c ****  *  SPECIAL, EXEMPLARY, OR CONSEQUENTIAL DAMAGES (INCLUDING, BUT NOT 
  29:..\..\..\..\..\simplelink\source/socket.c ****  *  LIMITED TO, PROCUREMENT OF SUBSTITUTE GOODS OR SERVICES; LOSS OF USE,
  30:..\..\..\..\..\simplelink\source/socket.c ****  *  DATA, OR PROFITS; OR BUSINESS INTERRUPTION) HOWEVER CAUSED AND ON ANY
  31:..\..\..\..\..\simplelink\source/socket.c ****  *  THEORY OF LIABILITY, WHETHER IN CONTRACT, STRICT LIABILITY, OR TORT 
  32:..\..\..\..\..\simplelink\source/socket.c ****  *  (INCLUDING NEGLIGENCE OR OTHERWISE) ARISING IN ANY WAY OUT OF THE USE 
ARM GAS  C:\Users\X0217454\AppData\Local\Temp\cc5FLHAl.s 			page 2


  33:..\..\..\..\..\simplelink\source/socket.c ****  *  OF THIS SOFTWARE, EVEN IF ADVISED OF THE POSSIBILITY OF SUCH DAMAGE.
  34:..\..\..\..\..\simplelink\source/socket.c ****  *
  35:..\..\..\..\..\simplelink\source/socket.c **** */
  36:..\..\..\..\..\simplelink\source/socket.c ****     
  37:..\..\..\..\..\simplelink\source/socket.c **** 
  38:..\..\..\..\..\simplelink\source/socket.c **** /*****************************************************************************
  39:..\..\..\..\..\simplelink\source/socket.c **** 
  40:..\..\..\..\..\simplelink\source/socket.c ****     API Prototypes
  41:..\..\..\..\..\simplelink\source/socket.c **** 
  42:..\..\..\..\..\simplelink\source/socket.c ****  *****************************************************************************/
  43:..\..\..\..\..\simplelink\source/socket.c **** 
  44:..\..\..\..\..\simplelink\source/socket.c **** #include "datatypes.h"
  45:..\..\..\..\..\simplelink\source/socket.c **** #include "simplelink.h"
  46:..\..\..\..\..\simplelink\source/socket.c **** #include "protocol.h"
  47:..\..\..\..\..\simplelink\source/socket.c **** #include "driver.h"
  48:..\..\..\..\..\simplelink\source/socket.c **** 
  49:..\..\..\..\..\simplelink\source/socket.c **** 
  50:..\..\..\..\..\simplelink\source/socket.c **** void   _sl_BuildAddress(const SlSockAddr_t *addr, int addrlen, _SocketAddrCommand_u    *pCmd);
  51:..\..\..\..\..\simplelink\source/socket.c **** void   _sl_ParseAddress(_SocketAddrResponse_u *pRsp, SlSockAddr_t *addr, SlSocklen_t *addrlen);
  52:..\..\..\..\..\simplelink\source/socket.c **** void   _sl_HandleAsync_Connect(void *pVoidBuf);
  53:..\..\..\..\..\simplelink\source/socket.c **** void   _sl_HandleAsync_Accept(void *pVoidBuf);
  54:..\..\..\..\..\simplelink\source/socket.c **** void   _sl_HandleAsync_Select(void *pVoidBuf);
  55:..\..\..\..\..\simplelink\source/socket.c **** unsigned int _sl_TruncatePayloadByProtocol(const UINT8 pSd,const unsigned int length);  
  56:..\..\..\..\..\simplelink\source/socket.c **** 
  57:..\..\..\..\..\simplelink\source/socket.c **** 
  58:..\..\..\..\..\simplelink\source/socket.c **** 
  59:..\..\..\..\..\simplelink\source/socket.c **** /* ******************************************************************************/
  60:..\..\..\..\..\simplelink\source/socket.c **** /*  _sl_BuildAddress */
  61:..\..\..\..\..\simplelink\source/socket.c **** /* ******************************************************************************/
  62:..\..\..\..\..\simplelink\source/socket.c **** void _sl_BuildAddress(const SlSockAddr_t *addr, int addrlen, _SocketAddrCommand_u    *pCmd)
  63:..\..\..\..\..\simplelink\source/socket.c **** {
  26              		.loc 1 63 0
  27              		.cfi_startproc
  28 0000 80B5     		push	{r7, lr}
  29              	.LCFI0:
  30              		.cfi_def_cfa_offset 8
  31              		.cfi_offset 7, -8
  32              		.cfi_offset 14, -4
  33 0002 84B0     		sub	sp, sp, #16
  34              	.LCFI1:
  35              		.cfi_def_cfa_offset 24
  36 0004 00AF     		add	r7, sp, #0
  37              	.LCFI2:
  38              		.cfi_def_cfa_register 7
  39 0006 F860     		str	r0, [r7, #12]
  40 0008 B960     		str	r1, [r7, #8]
  41 000a 7A60     		str	r2, [r7, #4]
  64:..\..\..\..\..\simplelink\source/socket.c **** 
  65:..\..\..\..\..\simplelink\source/socket.c ****     /*  Note: parsing of family and port in the generic way for all IPV4, IPV6 and EUI48 */
  66:..\..\..\..\..\simplelink\source/socket.c ****     /*  is possible as long as these parameters are in the same offset and size for these */
  67:..\..\..\..\..\simplelink\source/socket.c ****     /*  three families. */
  68:..\..\..\..\..\simplelink\source/socket.c ****     pCmd->IpV4.FamilyAndFlags = (addr->sa_family << 4) & 0xF0;
  42              		.loc 1 68 0
  43 000c FB68     		ldr	r3, [r7, #12]
  44 000e 1B88     		ldrh	r3, [r3]
  45 0010 1B01     		lsl	r3, r3, #4
  46 0012 DAB2     		uxtb	r2, r3
ARM GAS  C:\Users\X0217454\AppData\Local\Temp\cc5FLHAl.s 			page 3


  47 0014 7B68     		ldr	r3, [r7, #4]
  48 0016 DA70     		strb	r2, [r3, #3]
  69:..\..\..\..\..\simplelink\source/socket.c ****     pCmd->IpV4.port = ((SlSockAddrIn_t *)addr)->sin_port;
  49              		.loc 1 69 0
  50 0018 FB68     		ldr	r3, [r7, #12]
  51 001a 5A88     		ldrh	r2, [r3, #2]
  52 001c 7B68     		ldr	r3, [r7, #4]
  53 001e 9A80     		strh	r2, [r3, #4]
  70:..\..\..\..\..\simplelink\source/socket.c **** 
  71:..\..\..\..\..\simplelink\source/socket.c ****     if(SL_AF_INET == addr->sa_family)
  54              		.loc 1 71 0
  55 0020 FB68     		ldr	r3, [r7, #12]
  56 0022 1B88     		ldrh	r3, [r3]
  57 0024 022B     		cmp	r3, #2
  58 0026 04D1     		bne	.L2
  72:..\..\..\..\..\simplelink\source/socket.c ****     {
  73:..\..\..\..\..\simplelink\source/socket.c ****         pCmd->IpV4.address  = ((SlSockAddrIn_t *)addr)->sin_addr.s_addr;
  59              		.loc 1 73 0
  60 0028 FB68     		ldr	r3, [r7, #12]
  61 002a 5A68     		ldr	r2, [r3, #4]
  62 002c 7B68     		ldr	r3, [r7, #4]
  63 002e 9A60     		str	r2, [r3, #8]
  64 0030 0CE0     		b	.L1
  65              	.L2:
  74:..\..\..\..\..\simplelink\source/socket.c ****     }
  75:..\..\..\..\..\simplelink\source/socket.c ****     else if (SL_AF_INET6_EUI_48 == addr->sa_family )
  66              		.loc 1 75 0
  67 0032 FB68     		ldr	r3, [r7, #12]
  68 0034 1B88     		ldrh	r3, [r3]
  69 0036 092B     		cmp	r3, #9
  70 0038 08D1     		bne	.L1
  76:..\..\..\..\..\simplelink\source/socket.c ****     {
  77:..\..\..\..\..\simplelink\source/socket.c ****         sl_Memcpy( pCmd->IpV6EUI48.address,((SlSockAddrIn6_t *)addr)->sin6_addr._S6_un._S6_u8, 6);
  71              		.loc 1 77 0
  72 003a 7B68     		ldr	r3, [r7, #4]
  73 003c 9A1D     		add	r2, r3, #6
  74 003e FB68     		ldr	r3, [r7, #12]
  75 0040 0833     		add	r3, r3, #8
  76 0042 101C     		mov	r0, r2
  77 0044 191C     		mov	r1, r3
  78 0046 0622     		mov	r2, #6
  79 0048 FFF7FEFF 		bl	memcpy
  80              	.L1:
  78:..\..\..\..\..\simplelink\source/socket.c ****     }
  79:..\..\..\..\..\simplelink\source/socket.c **** #ifdef SL_SUPPORT_IPV6
  80:..\..\..\..\..\simplelink\source/socket.c ****     else
  81:..\..\..\..\..\simplelink\source/socket.c ****     {
  82:..\..\..\..\..\simplelink\source/socket.c ****         sl_Memcpy(pCmd->IpV6.address, ((sockaddr_in6 *)addr)->sin6_addr._S6_un._S6_u32, 16 );
  83:..\..\..\..\..\simplelink\source/socket.c ****     }
  84:..\..\..\..\..\simplelink\source/socket.c **** #endif
  85:..\..\..\..\..\simplelink\source/socket.c **** }
  81              		.loc 1 85 0
  82 004c BD46     		mov	sp, r7
  83 004e 04B0     		add	sp, sp, #16
  84              		@ sp needed for prologue
  85 0050 80BD     		pop	{r7, pc}
  86              		.cfi_endproc
ARM GAS  C:\Users\X0217454\AppData\Local\Temp\cc5FLHAl.s 			page 4


  87              	.LFE0:
  88              		.size	_sl_BuildAddress, .-_sl_BuildAddress
  89 0052 C046     		.section	.text._sl_TruncatePayloadByProtocol,"ax",%progbits
  90              		.align	2
  91              		.global	_sl_TruncatePayloadByProtocol
  92              		.code	16
  93              		.thumb_func
  94              		.type	_sl_TruncatePayloadByProtocol, %function
  95              	_sl_TruncatePayloadByProtocol:
  96              	.LFB1:
  86:..\..\..\..\..\simplelink\source/socket.c **** 
  87:..\..\..\..\..\simplelink\source/socket.c **** /* ******************************************************************************/
  88:..\..\..\..\..\simplelink\source/socket.c **** /*  _sl_TruncatePayloadByProtocol */
  89:..\..\..\..\..\simplelink\source/socket.c **** /* ******************************************************************************/
  90:..\..\..\..\..\simplelink\source/socket.c **** unsigned int _sl_TruncatePayloadByProtocol(const _SlSd_t sd,const unsigned int length)
  91:..\..\..\..\..\simplelink\source/socket.c **** {
  97              		.loc 1 91 0
  98              		.cfi_startproc
  99 0000 80B5     		push	{r7, lr}
 100              	.LCFI3:
 101              		.cfi_def_cfa_offset 8
 102              		.cfi_offset 7, -8
 103              		.cfi_offset 14, -4
 104 0002 84B0     		sub	sp, sp, #16
 105              	.LCFI4:
 106              		.cfi_def_cfa_offset 24
 107 0004 00AF     		add	r7, sp, #0
 108              	.LCFI5:
 109              		.cfi_def_cfa_register 7
 110 0006 021C     		mov	r2, r0
 111 0008 3960     		str	r1, [r7]
 112 000a FB1D     		add	r3, r7, #7
 113 000c 1A70     		strb	r2, [r3]
  92:..\..\..\..\..\simplelink\source/socket.c ****    unsigned int maxLength; 
  93:..\..\..\..\..\simplelink\source/socket.c ****    
  94:..\..\..\..\..\simplelink\source/socket.c ****    switch(sd & SL_SOCKET_PAYLOAD_TYPE_MASK)
 114              		.loc 1 94 0
 115 000e FB1D     		add	r3, r7, #7
 116 0010 1A78     		ldrb	r2, [r3]
 117 0012 F023     		mov	r3, #240
 118 0014 1340     		and	r3, r2
 119 0016 502B     		cmp	r3, #80
 120 0018 28D0     		beq	.L10
 121 001a 0CDC     		bgt	.L15
 122 001c 202B     		cmp	r3, #32
 123 001e 1ED0     		beq	.L8
 124 0020 04DC     		bgt	.L16
 125 0022 002B     		cmp	r3, #0
 126 0024 14D0     		beq	.L6
 127 0026 102B     		cmp	r3, #16
 128 0028 16D0     		beq	.L7
 129 002a 2FE0     		b	.L5
 130              	.L16:
 131 002c 302B     		cmp	r3, #48
 132 002e 19D0     		beq	.L9
 133 0030 402B     		cmp	r3, #64
 134 0032 1BD0     		beq	.L10
ARM GAS  C:\Users\X0217454\AppData\Local\Temp\cc5FLHAl.s 			page 5


 135 0034 2AE0     		b	.L5
 136              	.L15:
 137 0036 802B     		cmp	r3, #128
 138 0038 1ED0     		beq	.L12
 139 003a 04DC     		bgt	.L17
 140 003c 602B     		cmp	r3, #96
 141 003e 18D0     		beq	.L11
 142 0040 702B     		cmp	r3, #112
 143 0042 16D0     		beq	.L11
 144 0044 22E0     		b	.L5
 145              	.L17:
 146 0046 902B     		cmp	r3, #144
 147 0048 19D0     		beq	.L13
 148 004a A02B     		cmp	r3, #160
 149 004c 1AD0     		beq	.L14
 150 004e 1DE0     		b	.L5
 151              	.L6:
  95:..\..\..\..\..\simplelink\source/socket.c ****    {
  96:..\..\..\..\..\simplelink\source/socket.c ****       case SL_SOCKET_PAYLOAD_TYPE_UDP_IPV4:
  97:..\..\..\..\..\simplelink\source/socket.c ****          maxLength = 1472;
 152              		.loc 1 97 0
 153 0050 B823     		mov	r3, #184
 154 0052 DB00     		lsl	r3, r3, #3
 155 0054 FB60     		str	r3, [r7, #12]
  98:..\..\..\..\..\simplelink\source/socket.c ****       break;
 156              		.loc 1 98 0
 157 0056 1DE0     		b	.L18
 158              	.L7:
  99:..\..\..\..\..\simplelink\source/socket.c ****       
 100:..\..\..\..\..\simplelink\source/socket.c ****       case SL_SOCKET_PAYLOAD_TYPE_TCP_IPV4:
 101:..\..\..\..\..\simplelink\source/socket.c ****          maxLength = 1460;
 159              		.loc 1 101 0
 160 0058 144B     		ldr	r3, .L21
 161 005a FB60     		str	r3, [r7, #12]
 102:..\..\..\..\..\simplelink\source/socket.c ****       break;
 162              		.loc 1 102 0
 163 005c 1AE0     		b	.L18
 164              	.L8:
 103:..\..\..\..\..\simplelink\source/socket.c ****       
 104:..\..\..\..\..\simplelink\source/socket.c ****       case SL_SOCKET_PAYLOAD_TYPE_UDP_IPV6:
 105:..\..\..\..\..\simplelink\source/socket.c ****          maxLength = 1452;
 165              		.loc 1 105 0
 166 005e 144B     		ldr	r3, .L21+4
 167 0060 FB60     		str	r3, [r7, #12]
 106:..\..\..\..\..\simplelink\source/socket.c ****       break;
 168              		.loc 1 106 0
 169 0062 17E0     		b	.L18
 170              	.L9:
 107:..\..\..\..\..\simplelink\source/socket.c ****       
 108:..\..\..\..\..\simplelink\source/socket.c ****       case SL_SOCKET_PAYLOAD_TYPE_TCP_IPV6:
 109:..\..\..\..\..\simplelink\source/socket.c **** 		  maxLength = 1440;
 171              		.loc 1 109 0
 172 0064 B423     		mov	r3, #180
 173 0066 DB00     		lsl	r3, r3, #3
 174 0068 FB60     		str	r3, [r7, #12]
 110:..\..\..\..\..\simplelink\source/socket.c **** 	  break;
 175              		.loc 1 110 0
ARM GAS  C:\Users\X0217454\AppData\Local\Temp\cc5FLHAl.s 			page 6


 176 006a 13E0     		b	.L18
 177              	.L10:
 111:..\..\..\..\..\simplelink\source/socket.c ****       case SL_SOCKET_PAYLOAD_TYPE_TCP_IPV4_SECURE:
 112:..\..\..\..\..\simplelink\source/socket.c ****       case SL_SOCKET_PAYLOAD_TYPE_UDP_IPV4_SECURE:
 113:..\..\..\..\..\simplelink\source/socket.c **** 		  maxLength = 1402;
 178              		.loc 1 113 0
 179 006c 114B     		ldr	r3, .L21+8
 180 006e FB60     		str	r3, [r7, #12]
 114:..\..\..\..\..\simplelink\source/socket.c **** 	  break;
 181              		.loc 1 114 0
 182 0070 10E0     		b	.L18
 183              	.L11:
 115:..\..\..\..\..\simplelink\source/socket.c ****       case SL_SOCKET_PAYLOAD_TYPE_UDP_IPV6_SECURE:
 116:..\..\..\..\..\simplelink\source/socket.c ****       case SL_SOCKET_PAYLOAD_TYPE_TCP_IPV6_SECURE:
 117:..\..\..\..\..\simplelink\source/socket.c ****          maxLength = 1396;
 184              		.loc 1 117 0
 185 0072 114B     		ldr	r3, .L21+12
 186 0074 FB60     		str	r3, [r7, #12]
 118:..\..\..\..\..\simplelink\source/socket.c ****       break;
 187              		.loc 1 118 0
 188 0076 0DE0     		b	.L18
 189              	.L12:
 119:..\..\..\..\..\simplelink\source/socket.c ****       case SL_SOCKET_PAYLOAD_TYPE_RAW_TRANCEIVER:
 120:..\..\..\..\..\simplelink\source/socket.c ****            maxLength = 1476;
 190              		.loc 1 120 0
 191 0078 104B     		ldr	r3, .L21+16
 192 007a FB60     		str	r3, [r7, #12]
 121:..\..\..\..\..\simplelink\source/socket.c ****       break;
 193              		.loc 1 121 0
 194 007c 0AE0     		b	.L18
 195              	.L13:
 122:..\..\..\..\..\simplelink\source/socket.c ****      case SL_SOCKET_PAYLOAD_TYPE_RAW_PACKET:
 123:..\..\..\..\..\simplelink\source/socket.c ****            maxLength = 1514;
 196              		.loc 1 123 0
 197 007e 104B     		ldr	r3, .L21+20
 198 0080 FB60     		str	r3, [r7, #12]
 124:..\..\..\..\..\simplelink\source/socket.c ****       break;
 199              		.loc 1 124 0
 200 0082 07E0     		b	.L18
 201              	.L14:
 125:..\..\..\..\..\simplelink\source/socket.c **** 	 case SL_SOCKET_PAYLOAD_TYPE_RAW_IP4:
 126:..\..\..\..\..\simplelink\source/socket.c ****            maxLength = 1480;
 202              		.loc 1 126 0
 203 0084 B923     		mov	r3, #185
 204 0086 DB00     		lsl	r3, r3, #3
 205 0088 FB60     		str	r3, [r7, #12]
 127:..\..\..\..\..\simplelink\source/socket.c ****       break;
 206              		.loc 1 127 0
 207 008a 03E0     		b	.L18
 208              	.L5:
 128:..\..\..\..\..\simplelink\source/socket.c ****       default:
 129:..\..\..\..\..\simplelink\source/socket.c ****            maxLength = 1440;
 209              		.loc 1 129 0
 210 008c B423     		mov	r3, #180
 211 008e DB00     		lsl	r3, r3, #3
 212 0090 FB60     		str	r3, [r7, #12]
 130:..\..\..\..\..\simplelink\source/socket.c ****       break;
ARM GAS  C:\Users\X0217454\AppData\Local\Temp\cc5FLHAl.s 			page 7


 213              		.loc 1 130 0
 214 0092 C046     		mov	r8, r8
 215              	.L18:
 131:..\..\..\..\..\simplelink\source/socket.c ****    }
 132:..\..\..\..\..\simplelink\source/socket.c ****    
 133:..\..\..\..\..\simplelink\source/socket.c ****    if( length > maxLength )
 216              		.loc 1 133 0
 217 0094 3A68     		ldr	r2, [r7]
 218 0096 FB68     		ldr	r3, [r7, #12]
 219 0098 9A42     		cmp	r2, r3
 220 009a 01D9     		bls	.L19
 134:..\..\..\..\..\simplelink\source/socket.c ****    {
 135:..\..\..\..\..\simplelink\source/socket.c ****       return maxLength;
 221              		.loc 1 135 0
 222 009c FB68     		ldr	r3, [r7, #12]
 223 009e 00E0     		b	.L20
 224              	.L19:
 136:..\..\..\..\..\simplelink\source/socket.c ****    }
 137:..\..\..\..\..\simplelink\source/socket.c ****    else
 138:..\..\..\..\..\simplelink\source/socket.c ****    {
 139:..\..\..\..\..\simplelink\source/socket.c ****       return length;
 225              		.loc 1 139 0
 226 00a0 3B68     		ldr	r3, [r7]
 227              	.L20:
 140:..\..\..\..\..\simplelink\source/socket.c ****    }
 141:..\..\..\..\..\simplelink\source/socket.c **** }
 228              		.loc 1 141 0
 229 00a2 181C     		mov	r0, r3
 230 00a4 BD46     		mov	sp, r7
 231 00a6 04B0     		add	sp, sp, #16
 232              		@ sp needed for prologue
 233 00a8 80BD     		pop	{r7, pc}
 234              	.L22:
 235 00aa C046     		.align	2
 236              	.L21:
 237 00ac B4050000 		.word	1460
 238 00b0 AC050000 		.word	1452
 239 00b4 7A050000 		.word	1402
 240 00b8 74050000 		.word	1396
 241 00bc C4050000 		.word	1476
 242 00c0 EA050000 		.word	1514
 243              		.cfi_endproc
 244              	.LFE1:
 245              		.size	_sl_TruncatePayloadByProtocol, .-_sl_TruncatePayloadByProtocol
 246              		.section	.text._sl_ParseAddress,"ax",%progbits
 247              		.align	2
 248              		.global	_sl_ParseAddress
 249              		.code	16
 250              		.thumb_func
 251              		.type	_sl_ParseAddress, %function
 252              	_sl_ParseAddress:
 253              	.LFB2:
 142:..\..\..\..\..\simplelink\source/socket.c **** 
 143:..\..\..\..\..\simplelink\source/socket.c **** /*******************************************************************************/
 144:..\..\..\..\..\simplelink\source/socket.c **** /*  _sl_ParseAddress */
 145:..\..\..\..\..\simplelink\source/socket.c **** /*******************************************************************************/
 146:..\..\..\..\..\simplelink\source/socket.c **** void _sl_ParseAddress(_SocketAddrResponse_u    *pRsp, SlSockAddr_t *addr, SlSocklen_t *addrlen)
ARM GAS  C:\Users\X0217454\AppData\Local\Temp\cc5FLHAl.s 			page 8


 147:..\..\..\..\..\simplelink\source/socket.c **** {
 254              		.loc 1 147 0
 255              		.cfi_startproc
 256 0000 80B5     		push	{r7, lr}
 257              	.LCFI6:
 258              		.cfi_def_cfa_offset 8
 259              		.cfi_offset 7, -8
 260              		.cfi_offset 14, -4
 261 0002 84B0     		sub	sp, sp, #16
 262              	.LCFI7:
 263              		.cfi_def_cfa_offset 24
 264 0004 00AF     		add	r7, sp, #0
 265              	.LCFI8:
 266              		.cfi_def_cfa_register 7
 267 0006 F860     		str	r0, [r7, #12]
 268 0008 B960     		str	r1, [r7, #8]
 269 000a 7A60     		str	r2, [r7, #4]
 148:..\..\..\..\..\simplelink\source/socket.c ****     /*  Note: parsing of family and port in the generic way for all IPV4, IPV6 and EUI48 */
 149:..\..\..\..\..\simplelink\source/socket.c ****     /*  is possible as long as these parameters are in the same offset and size for these */
 150:..\..\..\..\..\simplelink\source/socket.c ****     /*  three families. */
 151:..\..\..\..\..\simplelink\source/socket.c ****     addr->sa_family                 = pRsp->IpV4.family;
 270              		.loc 1 151 0
 271 000c FB68     		ldr	r3, [r7, #12]
 272 000e DB78     		ldrb	r3, [r3, #3]
 273 0010 1A1C     		mov	r2, r3
 274 0012 BB68     		ldr	r3, [r7, #8]
 275 0014 1A80     		strh	r2, [r3]
 152:..\..\..\..\..\simplelink\source/socket.c ****     ((SlSockAddrIn_t *)addr)->sin_port = pRsp->IpV4.port;
 276              		.loc 1 152 0
 277 0016 FB68     		ldr	r3, [r7, #12]
 278 0018 9A88     		ldrh	r2, [r3, #4]
 279 001a BB68     		ldr	r3, [r7, #8]
 280 001c 5A80     		strh	r2, [r3, #2]
 153:..\..\..\..\..\simplelink\source/socket.c **** 
 154:..\..\..\..\..\simplelink\source/socket.c ****     *addrlen = (SL_AF_INET == addr->sa_family) ? sizeof(SlSockAddrIn_t) : sizeof(SlSockAddrIn6_t);
 281              		.loc 1 154 0
 282 001e BB68     		ldr	r3, [r7, #8]
 283 0020 1B88     		ldrh	r3, [r3]
 284 0022 022B     		cmp	r3, #2
 285 0024 01D1     		bne	.L24
 286              		.loc 1 154 0 is_stmt 0 discriminator 1
 287 0026 1022     		mov	r2, #16
 288 0028 00E0     		b	.L25
 289              	.L24:
 290              		.loc 1 154 0 discriminator 2
 291 002a 1C22     		mov	r2, #28
 292              	.L25:
 293              		.loc 1 154 0 discriminator 3
 294 002c 7B68     		ldr	r3, [r7, #4]
 295 002e 1A60     		str	r2, [r3]
 155:..\..\..\..\..\simplelink\source/socket.c **** 
 156:..\..\..\..\..\simplelink\source/socket.c ****     if(SL_AF_INET == addr->sa_family)
 296              		.loc 1 156 0 is_stmt 1 discriminator 3
 297 0030 BB68     		ldr	r3, [r7, #8]
 298 0032 1B88     		ldrh	r3, [r3]
 299 0034 022B     		cmp	r3, #2
 300 0036 04D1     		bne	.L26
ARM GAS  C:\Users\X0217454\AppData\Local\Temp\cc5FLHAl.s 			page 9


 157:..\..\..\..\..\simplelink\source/socket.c ****     {
 158:..\..\..\..\..\simplelink\source/socket.c ****         ((SlSockAddrIn_t *)addr)->sin_addr.s_addr  = pRsp->IpV4.address;
 301              		.loc 1 158 0
 302 0038 FB68     		ldr	r3, [r7, #12]
 303 003a 9A68     		ldr	r2, [r3, #8]
 304 003c BB68     		ldr	r3, [r7, #8]
 305 003e 5A60     		str	r2, [r3, #4]
 306 0040 0DE0     		b	.L23
 307              	.L26:
 159:..\..\..\..\..\simplelink\source/socket.c ****     }
 160:..\..\..\..\..\simplelink\source/socket.c ****     else if (SL_AF_INET6_EUI_48 == addr->sa_family )
 308              		.loc 1 160 0
 309 0042 BB68     		ldr	r3, [r7, #8]
 310 0044 1B88     		ldrh	r3, [r3]
 311 0046 092B     		cmp	r3, #9
 312 0048 09D1     		bne	.L23
 161:..\..\..\..\..\simplelink\source/socket.c ****     {
 162:..\..\..\..\..\simplelink\source/socket.c ****         sl_Memcpy(((SlSockAddrIn6_t *)addr)->sin6_addr._S6_un._S6_u8, pRsp->IpV6EUI48.address, 6);
 313              		.loc 1 162 0
 314 004a BB68     		ldr	r3, [r7, #8]
 315 004c 1A1C     		mov	r2, r3
 316 004e 0832     		add	r2, r2, #8
 317 0050 FB68     		ldr	r3, [r7, #12]
 318 0052 0633     		add	r3, r3, #6
 319 0054 101C     		mov	r0, r2
 320 0056 191C     		mov	r1, r3
 321 0058 0622     		mov	r2, #6
 322 005a FFF7FEFF 		bl	memcpy
 323              	.L23:
 163:..\..\..\..\..\simplelink\source/socket.c ****     }
 164:..\..\..\..\..\simplelink\source/socket.c **** #ifdef SL_SUPPORT_IPV6
 165:..\..\..\..\..\simplelink\source/socket.c ****     else
 166:..\..\..\..\..\simplelink\source/socket.c ****     {
 167:..\..\..\..\..\simplelink\source/socket.c ****         sl_Memcpy(((sockaddr_in6 *)addr)->sin6_addr._S6_un._S6_u32, pRsp->IpV6.address, 16);
 168:..\..\..\..\..\simplelink\source/socket.c ****     }
 169:..\..\..\..\..\simplelink\source/socket.c **** #endif
 170:..\..\..\..\..\simplelink\source/socket.c **** }
 324              		.loc 1 170 0
 325 005e BD46     		mov	sp, r7
 326 0060 04B0     		add	sp, sp, #16
 327              		@ sp needed for prologue
 328 0062 80BD     		pop	{r7, pc}
 329              		.cfi_endproc
 330              	.LFE2:
 331              		.size	_sl_ParseAddress, .-_sl_ParseAddress
 332              		.global	_SlSockSocketCmdCtrl
 333              		.section	.rodata
 334              		.align	2
 335              		.type	_SlSockSocketCmdCtrl, %object
 336              		.size	_SlSockSocketCmdCtrl, 4
 337              	_SlSockSocketCmdCtrl:
 338 0000 0194     		.short	-27647
 339 0002 04       		.byte	4
 340 0003 04       		.byte	4
 341              		.section	.text.sl_Socket,"ax",%progbits
 342              		.align	2
 343              		.global	sl_Socket
ARM GAS  C:\Users\X0217454\AppData\Local\Temp\cc5FLHAl.s 			page 10


 344              		.code	16
 345              		.thumb_func
 346              		.type	sl_Socket, %function
 347              	sl_Socket:
 348              	.LFB3:
 171:..\..\..\..\..\simplelink\source/socket.c **** 
 172:..\..\..\..\..\simplelink\source/socket.c **** /*******************************************************************************/
 173:..\..\..\..\..\simplelink\source/socket.c **** /* sl_Socket */
 174:..\..\..\..\..\simplelink\source/socket.c **** /*******************************************************************************/
 175:..\..\..\..\..\simplelink\source/socket.c **** typedef union
 176:..\..\..\..\..\simplelink\source/socket.c **** {
 177:..\..\..\..\..\simplelink\source/socket.c ****         UINT32                  Dummy;
 178:..\..\..\..\..\simplelink\source/socket.c **** 	_SocketCommand_t 	Cmd;
 179:..\..\..\..\..\simplelink\source/socket.c **** 	_SocketResponse_t	Rsp;
 180:..\..\..\..\..\simplelink\source/socket.c **** }_SlSockSocketMsg_u;
 181:..\..\..\..\..\simplelink\source/socket.c **** 
 182:..\..\..\..\..\simplelink\source/socket.c **** const _SlCmdCtrl_t _SlSockSocketCmdCtrl =
 183:..\..\..\..\..\simplelink\source/socket.c **** {
 184:..\..\..\..\..\simplelink\source/socket.c ****     SL_OPCODE_SOCKET_SOCKET,
 185:..\..\..\..\..\simplelink\source/socket.c ****     sizeof(_SocketCommand_t),
 186:..\..\..\..\..\simplelink\source/socket.c ****     sizeof(_SocketResponse_t)
 187:..\..\..\..\..\simplelink\source/socket.c **** };
 188:..\..\..\..\..\simplelink\source/socket.c **** 
 189:..\..\..\..\..\simplelink\source/socket.c **** #if _SL_INCLUDE_FUNC(sl_Socket)
 190:..\..\..\..\..\simplelink\source/socket.c **** int sl_Socket(int Domain, int Type, int Protocol)
 191:..\..\..\..\..\simplelink\source/socket.c **** {
 349              		.loc 1 191 0
 350              		.cfi_startproc
 351 0000 80B5     		push	{r7, lr}
 352              	.LCFI9:
 353              		.cfi_def_cfa_offset 8
 354              		.cfi_offset 7, -8
 355              		.cfi_offset 14, -4
 356 0002 86B0     		sub	sp, sp, #24
 357              	.LCFI10:
 358              		.cfi_def_cfa_offset 32
 359 0004 00AF     		add	r7, sp, #0
 360              	.LCFI11:
 361              		.cfi_def_cfa_register 7
 362 0006 F860     		str	r0, [r7, #12]
 363 0008 B960     		str	r1, [r7, #8]
 364 000a 7A60     		str	r2, [r7, #4]
 192:..\..\..\..\..\simplelink\source/socket.c ****     _SlSockSocketMsg_u  Msg;
 193:..\..\..\..\..\simplelink\source/socket.c **** 
 194:..\..\..\..\..\simplelink\source/socket.c ****     Msg.Cmd.Domain	    = (UINT8)Domain;
 365              		.loc 1 194 0
 366 000c FB68     		ldr	r3, [r7, #12]
 367 000e DAB2     		uxtb	r2, r3
 368 0010 3B1C     		mov	r3, r7
 369 0012 1033     		add	r3, r3, #16
 370 0014 1A70     		strb	r2, [r3]
 195:..\..\..\..\..\simplelink\source/socket.c ****     Msg.Cmd.Type     	= (UINT8)Type;
 371              		.loc 1 195 0
 372 0016 BB68     		ldr	r3, [r7, #8]
 373 0018 DAB2     		uxtb	r2, r3
 374 001a 3B1C     		mov	r3, r7
 375 001c 1133     		add	r3, r3, #17
ARM GAS  C:\Users\X0217454\AppData\Local\Temp\cc5FLHAl.s 			page 11


 376 001e 1A70     		strb	r2, [r3]
 196:..\..\..\..\..\simplelink\source/socket.c ****     Msg.Cmd.Protocol 	= (UINT8)Protocol;
 377              		.loc 1 196 0
 378 0020 7B68     		ldr	r3, [r7, #4]
 379 0022 DAB2     		uxtb	r2, r3
 380 0024 3B1C     		mov	r3, r7
 381 0026 1233     		add	r3, r3, #18
 382 0028 1A70     		strb	r2, [r3]
 383              	.LBB2:
 197:..\..\..\..\..\simplelink\source/socket.c **** 
 198:..\..\..\..\..\simplelink\source/socket.c ****     VERIFY_RET_OK(_SlDrvCmdOp((_SlCmdCtrl_t *)&_SlSockSocketCmdCtrl, &Msg, NULL));
 384              		.loc 1 198 0
 385 002a 104A     		ldr	r2, .L34
 386 002c 3B1C     		mov	r3, r7
 387 002e 1033     		add	r3, r3, #16
 388 0030 101C     		mov	r0, r2
 389 0032 191C     		mov	r1, r3
 390 0034 0022     		mov	r2, #0
 391 0036 FFF7FEFF 		bl	_SlDrvCmdOp
 392 003a 031C     		mov	r3, r0
 393 003c 7B61     		str	r3, [r7, #20]
 394 003e 7B69     		ldr	r3, [r7, #20]
 395 0040 002B     		cmp	r3, #0
 396 0042 00D0     		beq	.L29
 397              	.L30:
 398              		.loc 1 198 0 is_stmt 0 discriminator 1
 399 0044 FEE7     		b	.L30
 400              	.L29:
 401              	.LBE2:
 199:..\..\..\..\..\simplelink\source/socket.c **** 
 200:..\..\..\..\..\simplelink\source/socket.c ****     if( Msg.Rsp.statusOrLen < 0 )
 402              		.loc 1 200 0 is_stmt 1
 403 0046 3B1C     		mov	r3, r7
 404 0048 1033     		add	r3, r3, #16
 405 004a 1B88     		ldrh	r3, [r3]
 406 004c 1BB2     		sxth	r3, r3
 407 004e 002B     		cmp	r3, #0
 408 0050 04DA     		bge	.L31
 201:..\..\..\..\..\simplelink\source/socket.c **** 	{
 202:..\..\..\..\..\simplelink\source/socket.c **** 		return( Msg.Rsp.statusOrLen );
 409              		.loc 1 202 0
 410 0052 3B1C     		mov	r3, r7
 411 0054 1033     		add	r3, r3, #16
 412 0056 1B88     		ldrh	r3, [r3]
 413 0058 1BB2     		sxth	r3, r3
 414 005a 02E0     		b	.L33
 415              	.L31:
 203:..\..\..\..\..\simplelink\source/socket.c **** 	}
 204:..\..\..\..\..\simplelink\source/socket.c **** 	else
 205:..\..\..\..\..\simplelink\source/socket.c **** 	{
 206:..\..\..\..\..\simplelink\source/socket.c ****     return (int)((UINT8)Msg.Rsp.sd);
 416              		.loc 1 206 0
 417 005c 3B1C     		mov	r3, r7
 418 005e 1233     		add	r3, r3, #18
 419 0060 1B78     		ldrb	r3, [r3]
 420              	.L33:
 207:..\..\..\..\..\simplelink\source/socket.c **** }
ARM GAS  C:\Users\X0217454\AppData\Local\Temp\cc5FLHAl.s 			page 12


 208:..\..\..\..\..\simplelink\source/socket.c **** }
 421              		.loc 1 208 0
 422 0062 181C     		mov	r0, r3
 423 0064 BD46     		mov	sp, r7
 424 0066 06B0     		add	sp, sp, #24
 425              		@ sp needed for prologue
 426 0068 80BD     		pop	{r7, pc}
 427              	.L35:
 428 006a C046     		.align	2
 429              	.L34:
 430 006c 00000000 		.word	_SlSockSocketCmdCtrl
 431              		.cfi_endproc
 432              	.LFE3:
 433              		.size	sl_Socket, .-sl_Socket
 434              		.global	_SlSockCloseCmdCtrl
 435              		.section	.rodata
 436              		.align	2
 437              		.type	_SlSockCloseCmdCtrl, %object
 438              		.size	_SlSockCloseCmdCtrl, 4
 439              	_SlSockCloseCmdCtrl:
 440 0004 0294     		.short	-27646
 441 0006 04       		.byte	4
 442 0007 04       		.byte	4
 443              		.section	.text.sl_Close,"ax",%progbits
 444              		.align	2
 445              		.global	sl_Close
 446              		.code	16
 447              		.thumb_func
 448              		.type	sl_Close, %function
 449              	sl_Close:
 450              	.LFB4:
 209:..\..\..\..\..\simplelink\source/socket.c **** #endif
 210:..\..\..\..\..\simplelink\source/socket.c **** 
 211:..\..\..\..\..\simplelink\source/socket.c **** /*******************************************************************************/
 212:..\..\..\..\..\simplelink\source/socket.c **** /*  sl_Close  */
 213:..\..\..\..\..\simplelink\source/socket.c **** /*******************************************************************************/
 214:..\..\..\..\..\simplelink\source/socket.c **** typedef union
 215:..\..\..\..\..\simplelink\source/socket.c **** {
 216:..\..\..\..\..\simplelink\source/socket.c **** 	_CloseCommand_t	    Cmd;
 217:..\..\..\..\..\simplelink\source/socket.c **** 	_SocketResponse_t	Rsp;
 218:..\..\..\..\..\simplelink\source/socket.c **** }_SlSockCloseMsg_u;
 219:..\..\..\..\..\simplelink\source/socket.c **** 
 220:..\..\..\..\..\simplelink\source/socket.c **** const _SlCmdCtrl_t _SlSockCloseCmdCtrl =
 221:..\..\..\..\..\simplelink\source/socket.c **** {
 222:..\..\..\..\..\simplelink\source/socket.c **** 	SL_OPCODE_SOCKET_CLOSE,
 223:..\..\..\..\..\simplelink\source/socket.c ****     sizeof(_CloseCommand_t),
 224:..\..\..\..\..\simplelink\source/socket.c ****     sizeof(_SocketResponse_t)
 225:..\..\..\..\..\simplelink\source/socket.c **** };
 226:..\..\..\..\..\simplelink\source/socket.c **** 
 227:..\..\..\..\..\simplelink\source/socket.c **** #if _SL_INCLUDE_FUNC(sl_Close)
 228:..\..\..\..\..\simplelink\source/socket.c **** int sl_Close(int sd)
 229:..\..\..\..\..\simplelink\source/socket.c **** {
 451              		.loc 1 229 0
 452              		.cfi_startproc
 453 0000 80B5     		push	{r7, lr}
 454              	.LCFI12:
 455              		.cfi_def_cfa_offset 8
ARM GAS  C:\Users\X0217454\AppData\Local\Temp\cc5FLHAl.s 			page 13


 456              		.cfi_offset 7, -8
 457              		.cfi_offset 14, -4
 458 0002 84B0     		sub	sp, sp, #16
 459              	.LCFI13:
 460              		.cfi_def_cfa_offset 24
 461 0004 00AF     		add	r7, sp, #0
 462              	.LCFI14:
 463              		.cfi_def_cfa_register 7
 464 0006 7860     		str	r0, [r7, #4]
 230:..\..\..\..\..\simplelink\source/socket.c **** 	_SlSockCloseMsg_u   Msg;
 231:..\..\..\..\..\simplelink\source/socket.c **** 
 232:..\..\..\..\..\simplelink\source/socket.c ****     Msg.Cmd.sd = (UINT8)sd;
 465              		.loc 1 232 0
 466 0008 7B68     		ldr	r3, [r7, #4]
 467 000a DAB2     		uxtb	r2, r3
 468 000c 3B1C     		mov	r3, r7
 469 000e 0833     		add	r3, r3, #8
 470 0010 1A70     		strb	r2, [r3]
 471              	.LBB3:
 233:..\..\..\..\..\simplelink\source/socket.c **** 
 234:..\..\..\..\..\simplelink\source/socket.c ****     VERIFY_RET_OK(_SlDrvCmdOp((_SlCmdCtrl_t *)&_SlSockCloseCmdCtrl, &Msg, NULL));
 472              		.loc 1 234 0
 473 0012 0B4A     		ldr	r2, .L40
 474 0014 3B1C     		mov	r3, r7
 475 0016 0833     		add	r3, r3, #8
 476 0018 101C     		mov	r0, r2
 477 001a 191C     		mov	r1, r3
 478 001c 0022     		mov	r2, #0
 479 001e FFF7FEFF 		bl	_SlDrvCmdOp
 480 0022 031C     		mov	r3, r0
 481 0024 FB60     		str	r3, [r7, #12]
 482 0026 FB68     		ldr	r3, [r7, #12]
 483 0028 002B     		cmp	r3, #0
 484 002a 00D0     		beq	.L37
 485              	.L38:
 486              		.loc 1 234 0 is_stmt 0 discriminator 1
 487 002c FEE7     		b	.L38
 488              	.L37:
 489              	.LBE3:
 235:..\..\..\..\..\simplelink\source/socket.c **** 
 236:..\..\..\..\..\simplelink\source/socket.c ****     return Msg.Rsp.statusOrLen;
 490              		.loc 1 236 0 is_stmt 1
 491 002e 3B1C     		mov	r3, r7
 492 0030 0833     		add	r3, r3, #8
 493 0032 1B88     		ldrh	r3, [r3]
 494 0034 1BB2     		sxth	r3, r3
 237:..\..\..\..\..\simplelink\source/socket.c **** }
 495              		.loc 1 237 0
 496 0036 181C     		mov	r0, r3
 497 0038 BD46     		mov	sp, r7
 498 003a 04B0     		add	sp, sp, #16
 499              		@ sp needed for prologue
 500 003c 80BD     		pop	{r7, pc}
 501              	.L41:
 502 003e C046     		.align	2
 503              	.L40:
 504 0040 00000000 		.word	_SlSockCloseCmdCtrl
ARM GAS  C:\Users\X0217454\AppData\Local\Temp\cc5FLHAl.s 			page 14


 505              		.cfi_endproc
 506              	.LFE4:
 507              		.size	sl_Close, .-sl_Close
 508              		.section	.text.sl_Bind,"ax",%progbits
 509              		.align	2
 510              		.global	sl_Bind
 511              		.code	16
 512              		.thumb_func
 513              		.type	sl_Bind, %function
 514              	sl_Bind:
 515              	.LFB5:
 238:..\..\..\..\..\simplelink\source/socket.c **** #endif
 239:..\..\..\..\..\simplelink\source/socket.c **** 
 240:..\..\..\..\..\simplelink\source/socket.c **** /*******************************************************************************/
 241:..\..\..\..\..\simplelink\source/socket.c **** /*  sl_Bind */
 242:..\..\..\..\..\simplelink\source/socket.c **** /*******************************************************************************/
 243:..\..\..\..\..\simplelink\source/socket.c **** typedef union
 244:..\..\..\..\..\simplelink\source/socket.c **** {
 245:..\..\..\..\..\simplelink\source/socket.c **** 	_SocketAddrCommand_u    Cmd;
 246:..\..\..\..\..\simplelink\source/socket.c **** 	_SocketResponse_t	    Rsp;
 247:..\..\..\..\..\simplelink\source/socket.c **** }_SlSockBindMsg_u;
 248:..\..\..\..\..\simplelink\source/socket.c **** 
 249:..\..\..\..\..\simplelink\source/socket.c **** #if _SL_INCLUDE_FUNC(sl_Bind)
 250:..\..\..\..\..\simplelink\source/socket.c **** int sl_Bind(int sd, const SlSockAddr_t *addr, int addrlen)
 251:..\..\..\..\..\simplelink\source/socket.c **** {
 516              		.loc 1 251 0
 517              		.cfi_startproc
 518 0000 80B5     		push	{r7, lr}
 519              	.LCFI15:
 520              		.cfi_def_cfa_offset 8
 521              		.cfi_offset 7, -8
 522              		.cfi_offset 14, -4
 523 0002 8AB0     		sub	sp, sp, #40
 524              	.LCFI16:
 525              		.cfi_def_cfa_offset 48
 526 0004 00AF     		add	r7, sp, #0
 527              	.LCFI17:
 528              		.cfi_def_cfa_register 7
 529 0006 F860     		str	r0, [r7, #12]
 530 0008 B960     		str	r1, [r7, #8]
 531 000a 7A60     		str	r2, [r7, #4]
 252:..\..\..\..\..\simplelink\source/socket.c **** 	_SlSockBindMsg_u    Msg;
 253:..\..\..\..\..\simplelink\source/socket.c ****     _SlCmdCtrl_t         CmdCtrl = {0, 0, sizeof(_SocketResponse_t)};
 532              		.loc 1 253 0
 533 000c 3B1C     		mov	r3, r7
 534 000e 1433     		add	r3, r3, #20
 535 0010 0022     		mov	r2, #0
 536 0012 1A80     		strh	r2, [r3]
 537 0014 3B1C     		mov	r3, r7
 538 0016 1433     		add	r3, r3, #20
 539 0018 0022     		mov	r2, #0
 540 001a 9A70     		strb	r2, [r3, #2]
 541 001c 3B1C     		mov	r3, r7
 542 001e 1433     		add	r3, r3, #20
 543 0020 0422     		mov	r2, #4
 544 0022 DA70     		strb	r2, [r3, #3]
 254:..\..\..\..\..\simplelink\source/socket.c **** 
ARM GAS  C:\Users\X0217454\AppData\Local\Temp\cc5FLHAl.s 			page 15


 255:..\..\..\..\..\simplelink\source/socket.c ****     switch(addr->sa_family)
 545              		.loc 1 255 0
 546 0024 BB68     		ldr	r3, [r7, #8]
 547 0026 1B88     		ldrh	r3, [r3]
 548 0028 022B     		cmp	r3, #2
 549 002a 02D0     		beq	.L44
 550 002c 092B     		cmp	r3, #9
 551 002e 09D0     		beq	.L45
 552 0030 11E0     		b	.L51
 553              	.L44:
 256:..\..\..\..\..\simplelink\source/socket.c ****     {
 257:..\..\..\..\..\simplelink\source/socket.c ****         case SL_AF_INET :
 258:..\..\..\..\..\simplelink\source/socket.c ****             CmdCtrl.Opcode = SL_OPCODE_SOCKET_BIND;
 554              		.loc 1 258 0
 555 0032 3B1C     		mov	r3, r7
 556 0034 1433     		add	r3, r3, #20
 557 0036 1E4A     		ldr	r2, .L52
 558 0038 1A80     		strh	r2, [r3]
 259:..\..\..\..\..\simplelink\source/socket.c ****             CmdCtrl.TxDescLen = sizeof(_SocketAddrIPv4Command_t);
 559              		.loc 1 259 0
 560 003a 3B1C     		mov	r3, r7
 561 003c 1433     		add	r3, r3, #20
 562 003e 0C22     		mov	r2, #12
 563 0040 9A70     		strb	r2, [r3, #2]
 260:..\..\..\..\..\simplelink\source/socket.c ****             break;
 564              		.loc 1 260 0
 565 0042 0BE0     		b	.L46
 566              	.L45:
 261:..\..\..\..\..\simplelink\source/socket.c ****         case SL_AF_INET6_EUI_48:
 262:..\..\..\..\..\simplelink\source/socket.c ****             CmdCtrl.Opcode = SL_OPCODE_SOCKET_BIND_V6;
 567              		.loc 1 262 0
 568 0044 3B1C     		mov	r3, r7
 569 0046 1433     		add	r3, r3, #20
 570 0048 1A4A     		ldr	r2, .L52+4
 571 004a 1A80     		strh	r2, [r3]
 263:..\..\..\..\..\simplelink\source/socket.c ****             CmdCtrl.TxDescLen = sizeof(_SocketAddrIPv6EUI48Command_t);
 572              		.loc 1 263 0
 573 004c 3B1C     		mov	r3, r7
 574 004e 1433     		add	r3, r3, #20
 575 0050 0C22     		mov	r2, #12
 576 0052 9A70     		strb	r2, [r3, #2]
 264:..\..\..\..\..\simplelink\source/socket.c ****         	break;
 577              		.loc 1 264 0
 578 0054 02E0     		b	.L46
 579              	.L51:
 265:..\..\..\..\..\simplelink\source/socket.c **** #ifdef SL_SUPPORT_IPV6
 266:..\..\..\..\..\simplelink\source/socket.c ****         case AF_INET6:
 267:..\..\..\..\..\simplelink\source/socket.c ****             CmdCtrl.Opcode = SL_OPCODE_SOCKET_BIND_V6;
 268:..\..\..\..\..\simplelink\source/socket.c ****             CmdCtrl.TxDescLen = sizeof(_SocketAddrIPv6Command_t);
 269:..\..\..\..\..\simplelink\source/socket.c ****             break;
 270:..\..\..\..\..\simplelink\source/socket.c **** #endif
 271:..\..\..\..\..\simplelink\source/socket.c ****         case SL_AF_RF   :
 272:..\..\..\..\..\simplelink\source/socket.c ****         default:
 273:..\..\..\..\..\simplelink\source/socket.c ****             return SL_RET_CODE_INVALID_INPUT;
 580              		.loc 1 273 0
 581 0056 0223     		mov	r3, #2
 582 0058 5B42     		neg	r3, r3
ARM GAS  C:\Users\X0217454\AppData\Local\Temp\cc5FLHAl.s 			page 16


 583 005a 24E0     		b	.L50
 584              	.L46:
 274:..\..\..\..\..\simplelink\source/socket.c ****     }
 275:..\..\..\..\..\simplelink\source/socket.c **** 
 276:..\..\..\..\..\simplelink\source/socket.c ****     Msg.Cmd.IpV4.lenOrPadding = 0;
 585              		.loc 1 276 0
 586 005c 3B1C     		mov	r3, r7
 587 005e 1833     		add	r3, r3, #24
 588 0060 0022     		mov	r2, #0
 589 0062 1A80     		strh	r2, [r3]
 277:..\..\..\..\..\simplelink\source/socket.c ****     Msg.Cmd.IpV4.sd = (UINT8)sd;
 590              		.loc 1 277 0
 591 0064 FB68     		ldr	r3, [r7, #12]
 592 0066 DAB2     		uxtb	r2, r3
 593 0068 3B1C     		mov	r3, r7
 594 006a 1833     		add	r3, r3, #24
 595 006c 9A70     		strb	r2, [r3, #2]
 278:..\..\..\..\..\simplelink\source/socket.c **** 
 279:..\..\..\..\..\simplelink\source/socket.c ****     _sl_BuildAddress(addr, addrlen, &Msg.Cmd);
 596              		.loc 1 279 0
 597 006e B968     		ldr	r1, [r7, #8]
 598 0070 7A68     		ldr	r2, [r7, #4]
 599 0072 3B1C     		mov	r3, r7
 600 0074 1833     		add	r3, r3, #24
 601 0076 081C     		mov	r0, r1
 602 0078 111C     		mov	r1, r2
 603 007a 1A1C     		mov	r2, r3
 604 007c FFF7FEFF 		bl	_sl_BuildAddress
 605              	.LBB4:
 280:..\..\..\..\..\simplelink\source/socket.c **** 
 281:..\..\..\..\..\simplelink\source/socket.c ****     VERIFY_RET_OK(_SlDrvCmdOp((_SlCmdCtrl_t *)&CmdCtrl, &Msg, NULL));
 606              		.loc 1 281 0
 607 0080 3A1C     		mov	r2, r7
 608 0082 1432     		add	r2, r2, #20
 609 0084 3B1C     		mov	r3, r7
 610 0086 1833     		add	r3, r3, #24
 611 0088 101C     		mov	r0, r2
 612 008a 191C     		mov	r1, r3
 613 008c 0022     		mov	r2, #0
 614 008e FFF7FEFF 		bl	_SlDrvCmdOp
 615 0092 031C     		mov	r3, r0
 616 0094 7B62     		str	r3, [r7, #36]
 617 0096 7B6A     		ldr	r3, [r7, #36]
 618 0098 002B     		cmp	r3, #0
 619 009a 00D0     		beq	.L48
 620              	.L49:
 621              		.loc 1 281 0 is_stmt 0 discriminator 1
 622 009c FEE7     		b	.L49
 623              	.L48:
 624              	.LBE4:
 282:..\..\..\..\..\simplelink\source/socket.c **** 
 283:..\..\..\..\..\simplelink\source/socket.c ****     return Msg.Rsp.statusOrLen;
 625              		.loc 1 283 0 is_stmt 1
 626 009e 3B1C     		mov	r3, r7
 627 00a0 1833     		add	r3, r3, #24
 628 00a2 1B88     		ldrh	r3, [r3]
 629 00a4 1BB2     		sxth	r3, r3
ARM GAS  C:\Users\X0217454\AppData\Local\Temp\cc5FLHAl.s 			page 17


 630              	.L50:
 284:..\..\..\..\..\simplelink\source/socket.c **** }
 631              		.loc 1 284 0
 632 00a6 181C     		mov	r0, r3
 633 00a8 BD46     		mov	sp, r7
 634 00aa 0AB0     		add	sp, sp, #40
 635              		@ sp needed for prologue
 636 00ac 80BD     		pop	{r7, pc}
 637              	.L53:
 638 00ae C046     		.align	2
 639              	.L52:
 640 00b0 0494FFFF 		.word	-27644
 641 00b4 0496FFFF 		.word	-27132
 642              		.cfi_endproc
 643              	.LFE5:
 644              		.size	sl_Bind, .-sl_Bind
 645              		.section	.text.sl_SendTo,"ax",%progbits
 646              		.align	2
 647              		.global	sl_SendTo
 648              		.code	16
 649              		.thumb_func
 650              		.type	sl_SendTo, %function
 651              	sl_SendTo:
 652              	.LFB6:
 285:..\..\..\..\..\simplelink\source/socket.c **** #endif
 286:..\..\..\..\..\simplelink\source/socket.c **** 
 287:..\..\..\..\..\simplelink\source/socket.c **** /*******************************************************************************/
 288:..\..\..\..\..\simplelink\source/socket.c **** /*  sl_Sendto */
 289:..\..\..\..\..\simplelink\source/socket.c **** /*******************************************************************************/
 290:..\..\..\..\..\simplelink\source/socket.c **** typedef union
 291:..\..\..\..\..\simplelink\source/socket.c **** {
 292:..\..\..\..\..\simplelink\source/socket.c ****     _SocketAddrCommand_u    Cmd;
 293:..\..\..\..\..\simplelink\source/socket.c ****     /*  no response for 'sendto' commands*/
 294:..\..\..\..\..\simplelink\source/socket.c **** }_SlSendtoMsg_u;
 295:..\..\..\..\..\simplelink\source/socket.c **** 
 296:..\..\..\..\..\simplelink\source/socket.c **** #if _SL_INCLUDE_FUNC(sl_SendTo)
 297:..\..\..\..\..\simplelink\source/socket.c **** int sl_SendTo(int sd, const void *pBuf, int Len, int flags, const SlSockAddr_t *to, SlSocklen_t tol
 298:..\..\..\..\..\simplelink\source/socket.c **** {
 653              		.loc 1 298 0
 654              		.cfi_startproc
 655 0000 80B5     		push	{r7, lr}
 656              	.LCFI18:
 657              		.cfi_def_cfa_offset 8
 658              		.cfi_offset 7, -8
 659              		.cfi_offset 14, -4
 660 0002 8EB0     		sub	sp, sp, #56
 661              	.LCFI19:
 662              		.cfi_def_cfa_offset 64
 663 0004 00AF     		add	r7, sp, #0
 664              	.LCFI20:
 665              		.cfi_def_cfa_register 7
 666 0006 F860     		str	r0, [r7, #12]
 667 0008 B960     		str	r1, [r7, #8]
 668 000a 7A60     		str	r2, [r7, #4]
 669 000c 3B60     		str	r3, [r7]
 299:..\..\..\..\..\simplelink\source/socket.c ****     _SlSendtoMsg_u   Msg;
 300:..\..\..\..\..\simplelink\source/socket.c ****     _SlCmdCtrl_t     CmdCtrl = {0, 0, 0};
ARM GAS  C:\Users\X0217454\AppData\Local\Temp\cc5FLHAl.s 			page 18


 670              		.loc 1 300 0
 671 000e 3B1C     		mov	r3, r7
 672 0010 2033     		add	r3, r3, #32
 673 0012 0022     		mov	r2, #0
 674 0014 1A80     		strh	r2, [r3]
 675 0016 3B1C     		mov	r3, r7
 676 0018 2033     		add	r3, r3, #32
 677 001a 0022     		mov	r2, #0
 678 001c 9A70     		strb	r2, [r3, #2]
 679 001e 3B1C     		mov	r3, r7
 680 0020 2033     		add	r3, r3, #32
 681 0022 0022     		mov	r2, #0
 682 0024 DA70     		strb	r2, [r3, #3]
 301:..\..\..\..\..\simplelink\source/socket.c ****     _SlCmdExt_t      CmdExt;
 302:..\..\..\..\..\simplelink\source/socket.c ****     UINT16           ChunkLen;
 303:..\..\..\..\..\simplelink\source/socket.c ****     int              RetVal;
 304:..\..\..\..\..\simplelink\source/socket.c **** 
 305:..\..\..\..\..\simplelink\source/socket.c ****     CmdExt.TxPayloadLen = (UINT16)Len;
 683              		.loc 1 305 0
 684 0026 7B68     		ldr	r3, [r7, #4]
 685 0028 9AB2     		uxth	r2, r3
 686 002a 3B1C     		mov	r3, r7
 687 002c 1033     		add	r3, r3, #16
 688 002e 1A80     		strh	r2, [r3]
 306:..\..\..\..\..\simplelink\source/socket.c ****     CmdExt.RxPayloadLen = 0;
 689              		.loc 1 306 0
 690 0030 3B1C     		mov	r3, r7
 691 0032 1033     		add	r3, r3, #16
 692 0034 0022     		mov	r2, #0
 693 0036 5A80     		strh	r2, [r3, #2]
 307:..\..\..\..\..\simplelink\source/socket.c ****     CmdExt.pTxPayload = (UINT8 *)pBuf;
 694              		.loc 1 307 0
 695 0038 3B1C     		mov	r3, r7
 696 003a 1033     		add	r3, r3, #16
 697 003c BA68     		ldr	r2, [r7, #8]
 698 003e 9A60     		str	r2, [r3, #8]
 308:..\..\..\..\..\simplelink\source/socket.c ****     CmdExt.pRxPayload = NULL;
 699              		.loc 1 308 0
 700 0040 3B1C     		mov	r3, r7
 701 0042 1033     		add	r3, r3, #16
 702 0044 0022     		mov	r2, #0
 703 0046 DA60     		str	r2, [r3, #12]
 309:..\..\..\..\..\simplelink\source/socket.c **** 
 310:..\..\..\..\..\simplelink\source/socket.c **** 
 311:..\..\..\..\..\simplelink\source/socket.c ****     switch(to->sa_family)
 704              		.loc 1 311 0
 705 0048 3B6C     		ldr	r3, [r7, #64]
 706 004a 1B88     		ldrh	r3, [r3]
 707 004c 022B     		cmp	r3, #2
 708 004e 02D0     		beq	.L56
 709 0050 092B     		cmp	r3, #9
 710 0052 09D0     		beq	.L57
 711 0054 11E0     		b	.L64
 712              	.L56:
 312:..\..\..\..\..\simplelink\source/socket.c ****     {
 313:..\..\..\..\..\simplelink\source/socket.c ****         case SL_AF_INET:
 314:..\..\..\..\..\simplelink\source/socket.c ****             CmdCtrl.Opcode = SL_OPCODE_SOCKET_SENDTO;
ARM GAS  C:\Users\X0217454\AppData\Local\Temp\cc5FLHAl.s 			page 19


 713              		.loc 1 314 0
 714 0056 3B1C     		mov	r3, r7
 715 0058 2033     		add	r3, r3, #32
 716 005a 494A     		ldr	r2, .L66
 717 005c 1A80     		strh	r2, [r3]
 315:..\..\..\..\..\simplelink\source/socket.c ****             CmdCtrl.TxDescLen = sizeof(_SocketAddrIPv4Command_t);
 718              		.loc 1 315 0
 719 005e 3B1C     		mov	r3, r7
 720 0060 2033     		add	r3, r3, #32
 721 0062 0C22     		mov	r2, #12
 722 0064 9A70     		strb	r2, [r3, #2]
 316:..\..\..\..\..\simplelink\source/socket.c ****             break;
 723              		.loc 1 316 0
 724 0066 0BE0     		b	.L58
 725              	.L57:
 317:..\..\..\..\..\simplelink\source/socket.c ****         case SL_AF_INET6_EUI_48:
 318:..\..\..\..\..\simplelink\source/socket.c ****             CmdCtrl.Opcode = SL_OPCODE_SOCKET_BIND_V6;
 726              		.loc 1 318 0
 727 0068 3B1C     		mov	r3, r7
 728 006a 2033     		add	r3, r3, #32
 729 006c 454A     		ldr	r2, .L66+4
 730 006e 1A80     		strh	r2, [r3]
 319:..\..\..\..\..\simplelink\source/socket.c ****             CmdCtrl.TxDescLen = sizeof(_SocketAddrIPv6EUI48Command_t);
 731              		.loc 1 319 0
 732 0070 3B1C     		mov	r3, r7
 733 0072 2033     		add	r3, r3, #32
 734 0074 0C22     		mov	r2, #12
 735 0076 9A70     		strb	r2, [r3, #2]
 320:..\..\..\..\..\simplelink\source/socket.c ****         	break;
 736              		.loc 1 320 0
 737 0078 02E0     		b	.L58
 738              	.L64:
 321:..\..\..\..\..\simplelink\source/socket.c **** #ifdef SL_SUPPORT_IPV6
 322:..\..\..\..\..\simplelink\source/socket.c ****         case AF_INET6:
 323:..\..\..\..\..\simplelink\source/socket.c ****             CmdCtrl.Opcode = SL_OPCODE_SOCKET_SENDTO_V6;
 324:..\..\..\..\..\simplelink\source/socket.c ****             CmdCtrl.TxDescLen = sizeof(_SocketAddrIPv6Command_t);
 325:..\..\..\..\..\simplelink\source/socket.c ****             break;
 326:..\..\..\..\..\simplelink\source/socket.c **** #endif
 327:..\..\..\..\..\simplelink\source/socket.c ****         case SL_AF_RF:
 328:..\..\..\..\..\simplelink\source/socket.c ****         default:
 329:..\..\..\..\..\simplelink\source/socket.c ****             return SL_RET_CODE_INVALID_INPUT;
 739              		.loc 1 329 0
 740 007a 0223     		mov	r3, #2
 741 007c 5B42     		neg	r3, r3
 742 007e 7AE0     		b	.L63
 743              	.L58:
 330:..\..\..\..\..\simplelink\source/socket.c ****     }
 331:..\..\..\..\..\simplelink\source/socket.c **** 
 332:..\..\..\..\..\simplelink\source/socket.c ****     ChunkLen = _sl_TruncatePayloadByProtocol(sd,Len);
 744              		.loc 1 332 0
 745 0080 FB68     		ldr	r3, [r7, #12]
 746 0082 DAB2     		uxtb	r2, r3
 747 0084 7B68     		ldr	r3, [r7, #4]
 748 0086 101C     		mov	r0, r2
 749 0088 191C     		mov	r1, r3
 750 008a FFF7FEFF 		bl	_sl_TruncatePayloadByProtocol
 751 008e 021C     		mov	r2, r0
ARM GAS  C:\Users\X0217454\AppData\Local\Temp\cc5FLHAl.s 			page 20


 752 0090 3B1C     		mov	r3, r7
 753 0092 3633     		add	r3, r3, #54
 754 0094 1A80     		strh	r2, [r3]
 333:..\..\..\..\..\simplelink\source/socket.c ****     Msg.Cmd.IpV4.lenOrPadding = ChunkLen;
 755              		.loc 1 333 0
 756 0096 3B1C     		mov	r3, r7
 757 0098 3633     		add	r3, r3, #54
 758 009a 1A88     		ldrh	r2, [r3]
 759 009c 3B1C     		mov	r3, r7
 760 009e 2433     		add	r3, r3, #36
 761 00a0 1A80     		strh	r2, [r3]
 334:..\..\..\..\..\simplelink\source/socket.c ****     CmdExt.TxPayloadLen = ChunkLen;
 762              		.loc 1 334 0
 763 00a2 3B1C     		mov	r3, r7
 764 00a4 1033     		add	r3, r3, #16
 765 00a6 3A1C     		mov	r2, r7
 766 00a8 3632     		add	r2, r2, #54
 767 00aa 1288     		ldrh	r2, [r2]
 768 00ac 1A80     		strh	r2, [r3]
 335:..\..\..\..\..\simplelink\source/socket.c **** 
 336:..\..\..\..\..\simplelink\source/socket.c ****     Msg.Cmd.IpV4.sd = (UINT8)sd;
 769              		.loc 1 336 0
 770 00ae FB68     		ldr	r3, [r7, #12]
 771 00b0 DAB2     		uxtb	r2, r3
 772 00b2 3B1C     		mov	r3, r7
 773 00b4 2433     		add	r3, r3, #36
 774 00b6 9A70     		strb	r2, [r3, #2]
 337:..\..\..\..\..\simplelink\source/socket.c **** 
 338:..\..\..\..\..\simplelink\source/socket.c ****     _sl_BuildAddress(to, tolen, &Msg.Cmd);
 775              		.loc 1 338 0
 776 00b8 7A6C     		ldr	r2, [r7, #68]
 777 00ba 396C     		ldr	r1, [r7, #64]
 778 00bc 3B1C     		mov	r3, r7
 779 00be 2433     		add	r3, r3, #36
 780 00c0 081C     		mov	r0, r1
 781 00c2 111C     		mov	r1, r2
 782 00c4 1A1C     		mov	r2, r3
 783 00c6 FFF7FEFF 		bl	_sl_BuildAddress
 339:..\..\..\..\..\simplelink\source/socket.c **** 
 340:..\..\..\..\..\simplelink\source/socket.c ****     Msg.Cmd.IpV4.FamilyAndFlags |= flags & 0x0F;
 784              		.loc 1 340 0
 785 00ca 3B1C     		mov	r3, r7
 786 00cc 2433     		add	r3, r3, #36
 787 00ce DB78     		ldrb	r3, [r3, #3]
 788 00d0 DAB2     		uxtb	r2, r3
 789 00d2 3B68     		ldr	r3, [r7]
 790 00d4 DBB2     		uxtb	r3, r3
 791 00d6 191C     		add	r1, r3, #0
 792 00d8 0F23     		mov	r3, #15
 793 00da 0B40     		and	r3, r1
 794 00dc DBB2     		uxtb	r3, r3
 795 00de 1343     		orr	r3, r2
 796 00e0 DBB2     		uxtb	r3, r3
 797 00e2 DAB2     		uxtb	r2, r3
 798 00e4 3B1C     		mov	r3, r7
 799 00e6 2433     		add	r3, r3, #36
 800 00e8 DA70     		strb	r2, [r3, #3]
ARM GAS  C:\Users\X0217454\AppData\Local\Temp\cc5FLHAl.s 			page 21


 801              	.L61:
 341:..\..\..\..\..\simplelink\source/socket.c **** 
 342:..\..\..\..\..\simplelink\source/socket.c ****     do
 343:..\..\..\..\..\simplelink\source/socket.c ****     {
 344:..\..\..\..\..\simplelink\source/socket.c ****         RetVal = _SlDrvDataWriteOp((_SlSd_t)sd, &CmdCtrl, &Msg, &CmdExt);
 802              		.loc 1 344 0
 803 00ea FB68     		ldr	r3, [r7, #12]
 804 00ec D8B2     		uxtb	r0, r3
 805 00ee 391C     		mov	r1, r7
 806 00f0 2031     		add	r1, r1, #32
 807 00f2 3A1C     		mov	r2, r7
 808 00f4 2432     		add	r2, r2, #36
 809 00f6 3B1C     		mov	r3, r7
 810 00f8 1033     		add	r3, r3, #16
 811 00fa FFF7FEFF 		bl	_SlDrvDataWriteOp
 812 00fe 031C     		mov	r3, r0
 813 0100 3B63     		str	r3, [r7, #48]
 345:..\..\..\..\..\simplelink\source/socket.c **** 
 346:..\..\..\..\..\simplelink\source/socket.c ****         if(SL_OS_RET_CODE_OK == RetVal)
 814              		.loc 1 346 0
 815 0102 3B6B     		ldr	r3, [r7, #48]
 816 0104 002B     		cmp	r3, #0
 817 0106 33D1     		bne	.L60
 347:..\..\..\..\..\simplelink\source/socket.c ****         {
 348:..\..\..\..\..\simplelink\source/socket.c ****             CmdExt.pTxPayload += ChunkLen;
 818              		.loc 1 348 0
 819 0108 3B1C     		mov	r3, r7
 820 010a 1033     		add	r3, r3, #16
 821 010c 9A68     		ldr	r2, [r3, #8]
 822 010e 3B1C     		mov	r3, r7
 823 0110 3633     		add	r3, r3, #54
 824 0112 1B88     		ldrh	r3, [r3]
 825 0114 D218     		add	r2, r2, r3
 826 0116 3B1C     		mov	r3, r7
 827 0118 1033     		add	r3, r3, #16
 828 011a 9A60     		str	r2, [r3, #8]
 349:..\..\..\..\..\simplelink\source/socket.c ****             ChunkLen = (UINT16)((UINT8 *)pBuf + Len - CmdExt.pTxPayload);
 829              		.loc 1 349 0
 830 011c 7B68     		ldr	r3, [r7, #4]
 831 011e BA68     		ldr	r2, [r7, #8]
 832 0120 D318     		add	r3, r2, r3
 833 0122 1A1C     		mov	r2, r3
 834 0124 3B1C     		mov	r3, r7
 835 0126 1033     		add	r3, r3, #16
 836 0128 9B68     		ldr	r3, [r3, #8]
 837 012a D21A     		sub	r2, r2, r3
 838 012c 3B1C     		mov	r3, r7
 839 012e 3633     		add	r3, r3, #54
 840 0130 1A80     		strh	r2, [r3]
 350:..\..\..\..\..\simplelink\source/socket.c ****             ChunkLen = _sl_TruncatePayloadByProtocol(sd,ChunkLen);
 841              		.loc 1 350 0
 842 0132 FB68     		ldr	r3, [r7, #12]
 843 0134 DAB2     		uxtb	r2, r3
 844 0136 3B1C     		mov	r3, r7
 845 0138 3633     		add	r3, r3, #54
 846 013a 1B88     		ldrh	r3, [r3]
 847 013c 101C     		mov	r0, r2
ARM GAS  C:\Users\X0217454\AppData\Local\Temp\cc5FLHAl.s 			page 22


 848 013e 191C     		mov	r1, r3
 849 0140 FFF7FEFF 		bl	_sl_TruncatePayloadByProtocol
 850 0144 021C     		mov	r2, r0
 851 0146 3B1C     		mov	r3, r7
 852 0148 3633     		add	r3, r3, #54
 853 014a 1A80     		strh	r2, [r3]
 351:..\..\..\..\..\simplelink\source/socket.c ****             CmdExt.TxPayloadLen = ChunkLen;
 854              		.loc 1 351 0
 855 014c 3B1C     		mov	r3, r7
 856 014e 1033     		add	r3, r3, #16
 857 0150 3A1C     		mov	r2, r7
 858 0152 3632     		add	r2, r2, #54
 859 0154 1288     		ldrh	r2, [r2]
 860 0156 1A80     		strh	r2, [r3]
 352:..\..\..\..\..\simplelink\source/socket.c ****             Msg.Cmd.IpV4.lenOrPadding = ChunkLen;
 861              		.loc 1 352 0
 862 0158 3B1C     		mov	r3, r7
 863 015a 3633     		add	r3, r3, #54
 864 015c 1A88     		ldrh	r2, [r3]
 865 015e 3B1C     		mov	r3, r7
 866 0160 2433     		add	r3, r3, #36
 867 0162 1A80     		strh	r2, [r3]
 353:..\..\..\..\..\simplelink\source/socket.c ****         }
 354:..\..\..\..\..\simplelink\source/socket.c ****         else
 355:..\..\..\..\..\simplelink\source/socket.c ****         {
 356:..\..\..\..\..\simplelink\source/socket.c ****             return RetVal;
 357:..\..\..\..\..\simplelink\source/socket.c ****         }
 358:..\..\..\..\..\simplelink\source/socket.c ****     }while(ChunkLen > 0);
 868              		.loc 1 358 0
 869 0164 3B1C     		mov	r3, r7
 870 0166 3633     		add	r3, r3, #54
 871 0168 1B88     		ldrh	r3, [r3]
 872 016a 002B     		cmp	r3, #0
 873 016c BDD1     		bne	.L61
 874 016e 01E0     		b	.L65
 875              	.L60:
 356:..\..\..\..\..\simplelink\source/socket.c ****             return RetVal;
 876              		.loc 1 356 0
 877 0170 3B6B     		ldr	r3, [r7, #48]
 878 0172 00E0     		b	.L63
 879              	.L65:
 359:..\..\..\..\..\simplelink\source/socket.c **** 
 360:..\..\..\..\..\simplelink\source/socket.c ****     return (int)Len;
 880              		.loc 1 360 0
 881 0174 7B68     		ldr	r3, [r7, #4]
 882              	.L63:
 361:..\..\..\..\..\simplelink\source/socket.c **** }
 883              		.loc 1 361 0
 884 0176 181C     		mov	r0, r3
 885 0178 BD46     		mov	sp, r7
 886 017a 0EB0     		add	sp, sp, #56
 887              		@ sp needed for prologue
 888 017c 80BD     		pop	{r7, pc}
 889              	.L67:
 890 017e C046     		.align	2
 891              	.L66:
 892 0180 0D94FFFF 		.word	-27635
ARM GAS  C:\Users\X0217454\AppData\Local\Temp\cc5FLHAl.s 			page 23


 893 0184 0496FFFF 		.word	-27132
 894              		.cfi_endproc
 895              	.LFE6:
 896              		.size	sl_SendTo, .-sl_SendTo
 897              		.global	_SlRecvfomCmdCtrl
 898              		.section	.rodata
 899              		.align	2
 900              		.type	_SlRecvfomCmdCtrl, %object
 901              		.size	_SlRecvfomCmdCtrl, 4
 902              	_SlRecvfomCmdCtrl:
 903 0008 0B94     		.short	-27637
 904 000a 04       		.byte	4
 905 000b 0C       		.byte	12
 906              		.section	.text.sl_RecvFrom,"ax",%progbits
 907              		.align	2
 908              		.global	sl_RecvFrom
 909              		.code	16
 910              		.thumb_func
 911              		.type	sl_RecvFrom, %function
 912              	sl_RecvFrom:
 913              	.LFB7:
 362:..\..\..\..\..\simplelink\source/socket.c **** #endif
 363:..\..\..\..\..\simplelink\source/socket.c **** 
 364:..\..\..\..\..\simplelink\source/socket.c **** /*******************************************************************************/
 365:..\..\..\..\..\simplelink\source/socket.c **** /*  sl_Recvfrom */
 366:..\..\..\..\..\simplelink\source/socket.c **** /*******************************************************************************/
 367:..\..\..\..\..\simplelink\source/socket.c **** typedef union
 368:..\..\..\..\..\simplelink\source/socket.c **** {
 369:..\..\..\..\..\simplelink\source/socket.c ****     _sendRecvCommand_t	    Cmd;
 370:..\..\..\..\..\simplelink\source/socket.c ****     _SocketAddrResponse_u	Rsp;
 371:..\..\..\..\..\simplelink\source/socket.c **** }_SlRecvfromMsg_u;
 372:..\..\..\..\..\simplelink\source/socket.c **** 
 373:..\..\..\..\..\simplelink\source/socket.c **** const _SlCmdCtrl_t _SlRecvfomCmdCtrl =
 374:..\..\..\..\..\simplelink\source/socket.c **** {
 375:..\..\..\..\..\simplelink\source/socket.c **** 	SL_OPCODE_SOCKET_RECVFROM,
 376:..\..\..\..\..\simplelink\source/socket.c ****     sizeof(_sendRecvCommand_t),
 377:..\..\..\..\..\simplelink\source/socket.c ****     sizeof(_SocketAddrResponse_u)
 378:..\..\..\..\..\simplelink\source/socket.c **** };
 379:..\..\..\..\..\simplelink\source/socket.c **** 
 380:..\..\..\..\..\simplelink\source/socket.c **** #if _SL_INCLUDE_FUNC(sl_RecvFrom)
 381:..\..\..\..\..\simplelink\source/socket.c **** int sl_RecvFrom(int sd, void *buf, int Len, int flags, SlSockAddr_t *from, SlSocklen_t *fromlen)
 382:..\..\..\..\..\simplelink\source/socket.c **** {
 914              		.loc 1 382 0
 915              		.cfi_startproc
 916 0000 80B5     		push	{r7, lr}
 917              	.LCFI21:
 918              		.cfi_def_cfa_offset 8
 919              		.cfi_offset 7, -8
 920              		.cfi_offset 14, -4
 921 0002 8CB0     		sub	sp, sp, #48
 922              	.LCFI22:
 923              		.cfi_def_cfa_offset 56
 924 0004 00AF     		add	r7, sp, #0
 925              	.LCFI23:
 926              		.cfi_def_cfa_register 7
 927 0006 F860     		str	r0, [r7, #12]
 928 0008 B960     		str	r1, [r7, #8]
ARM GAS  C:\Users\X0217454\AppData\Local\Temp\cc5FLHAl.s 			page 24


 929 000a 7A60     		str	r2, [r7, #4]
 930 000c 3B60     		str	r3, [r7]
 383:..\..\..\..\..\simplelink\source/socket.c ****     _SlRecvfromMsg_u    Msg;
 384:..\..\..\..\..\simplelink\source/socket.c ****     _SlCmdExt_t         CmdExt;
 385:..\..\..\..\..\simplelink\source/socket.c ****     int                 RetVal;
 386:..\..\..\..\..\simplelink\source/socket.c **** 
 387:..\..\..\..\..\simplelink\source/socket.c ****     CmdExt.TxPayloadLen = 0;
 931              		.loc 1 387 0
 932 000e 3B1C     		mov	r3, r7
 933 0010 1033     		add	r3, r3, #16
 934 0012 0022     		mov	r2, #0
 935 0014 1A80     		strh	r2, [r3]
 388:..\..\..\..\..\simplelink\source/socket.c ****     CmdExt.RxPayloadLen = Len;
 936              		.loc 1 388 0
 937 0016 7B68     		ldr	r3, [r7, #4]
 938 0018 9AB2     		uxth	r2, r3
 939 001a 3B1C     		mov	r3, r7
 940 001c 1033     		add	r3, r3, #16
 941 001e 5A80     		strh	r2, [r3, #2]
 389:..\..\..\..\..\simplelink\source/socket.c ****     CmdExt.pTxPayload = NULL;
 942              		.loc 1 389 0
 943 0020 3B1C     		mov	r3, r7
 944 0022 1033     		add	r3, r3, #16
 945 0024 0022     		mov	r2, #0
 946 0026 9A60     		str	r2, [r3, #8]
 390:..\..\..\..\..\simplelink\source/socket.c ****     CmdExt.pRxPayload = (UINT8 *)buf;
 947              		.loc 1 390 0
 948 0028 3B1C     		mov	r3, r7
 949 002a 1033     		add	r3, r3, #16
 950 002c BA68     		ldr	r2, [r7, #8]
 951 002e DA60     		str	r2, [r3, #12]
 391:..\..\..\..\..\simplelink\source/socket.c **** 
 392:..\..\..\..\..\simplelink\source/socket.c **** 
 393:..\..\..\..\..\simplelink\source/socket.c ****     Msg.Cmd.sd = sd;
 952              		.loc 1 393 0
 953 0030 FB68     		ldr	r3, [r7, #12]
 954 0032 DAB2     		uxtb	r2, r3
 955 0034 3B1C     		mov	r3, r7
 956 0036 2033     		add	r3, r3, #32
 957 0038 9A70     		strb	r2, [r3, #2]
 394:..\..\..\..\..\simplelink\source/socket.c ****     Msg.Cmd.StatusOrLen = Len;
 958              		.loc 1 394 0
 959 003a 7B68     		ldr	r3, [r7, #4]
 960 003c 9AB2     		uxth	r2, r3
 961 003e 3B1C     		mov	r3, r7
 962 0040 2033     		add	r3, r3, #32
 963 0042 1A80     		strh	r2, [r3]
 395:..\..\..\..\..\simplelink\source/socket.c ****     /*  no size truncation in recv path */
 396:..\..\..\..\..\simplelink\source/socket.c ****     CmdExt.RxPayloadLen = Msg.Cmd.StatusOrLen;
 964              		.loc 1 396 0
 965 0044 3B1C     		mov	r3, r7
 966 0046 2033     		add	r3, r3, #32
 967 0048 1A88     		ldrh	r2, [r3]
 968 004a 3B1C     		mov	r3, r7
 969 004c 1033     		add	r3, r3, #16
 970 004e 5A80     		strh	r2, [r3, #2]
 397:..\..\..\..\..\simplelink\source/socket.c **** 
ARM GAS  C:\Users\X0217454\AppData\Local\Temp\cc5FLHAl.s 			page 25


 398:..\..\..\..\..\simplelink\source/socket.c ****     if(sizeof(SlSockAddrIn_t) == *fromlen)
 971              		.loc 1 398 0
 972 0050 FB6B     		ldr	r3, [r7, #60]
 973 0052 1B68     		ldr	r3, [r3]
 974 0054 102B     		cmp	r3, #16
 975 0056 04D1     		bne	.L69
 399:..\..\..\..\..\simplelink\source/socket.c ****     {
 400:..\..\..\..\..\simplelink\source/socket.c ****         Msg.Cmd.FamilyAndFlags = SL_AF_INET;
 976              		.loc 1 400 0
 977 0058 3B1C     		mov	r3, r7
 978 005a 2033     		add	r3, r3, #32
 979 005c 0222     		mov	r2, #2
 980 005e DA70     		strb	r2, [r3, #3]
 981 0060 0BE0     		b	.L70
 982              	.L69:
 401:..\..\..\..\..\simplelink\source/socket.c ****     }
 402:..\..\..\..\..\simplelink\source/socket.c ****     else if (sizeof(SlSockAddrIn6_t) == *fromlen)
 983              		.loc 1 402 0
 984 0062 FB6B     		ldr	r3, [r7, #60]
 985 0064 1B68     		ldr	r3, [r3]
 986 0066 1C2B     		cmp	r3, #28
 987 0068 04D1     		bne	.L71
 403:..\..\..\..\..\simplelink\source/socket.c ****     {
 404:..\..\..\..\..\simplelink\source/socket.c ****         Msg.Cmd.FamilyAndFlags = SL_AF_INET6;
 988              		.loc 1 404 0
 989 006a 3B1C     		mov	r3, r7
 990 006c 2033     		add	r3, r3, #32
 991 006e 0322     		mov	r2, #3
 992 0070 DA70     		strb	r2, [r3, #3]
 993 0072 02E0     		b	.L70
 994              	.L71:
 405:..\..\..\..\..\simplelink\source/socket.c ****     }
 406:..\..\..\..\..\simplelink\source/socket.c ****     else
 407:..\..\..\..\..\simplelink\source/socket.c ****     {
 408:..\..\..\..\..\simplelink\source/socket.c ****         return SL_RET_CODE_INVALID_INPUT;
 995              		.loc 1 408 0
 996 0074 0223     		mov	r3, #2
 997 0076 5B42     		neg	r3, r3
 998 0078 66E0     		b	.L78
 999              	.L70:
 409:..\..\..\..\..\simplelink\source/socket.c ****     }
 410:..\..\..\..\..\simplelink\source/socket.c **** 
 411:..\..\..\..\..\simplelink\source/socket.c ****     Msg.Cmd.FamilyAndFlags = (Msg.Cmd.FamilyAndFlags << 4) & 0xF0;
 1000              		.loc 1 411 0
 1001 007a 3B1C     		mov	r3, r7
 1002 007c 2033     		add	r3, r3, #32
 1003 007e DB78     		ldrb	r3, [r3, #3]
 1004 0080 1B01     		lsl	r3, r3, #4
 1005 0082 DAB2     		uxtb	r2, r3
 1006 0084 3B1C     		mov	r3, r7
 1007 0086 2033     		add	r3, r3, #32
 1008 0088 DA70     		strb	r2, [r3, #3]
 412:..\..\..\..\..\simplelink\source/socket.c ****     Msg.Cmd.FamilyAndFlags |= flags & 0x0F;
 1009              		.loc 1 412 0
 1010 008a 3B1C     		mov	r3, r7
 1011 008c 2033     		add	r3, r3, #32
 1012 008e DB78     		ldrb	r3, [r3, #3]
ARM GAS  C:\Users\X0217454\AppData\Local\Temp\cc5FLHAl.s 			page 26


 1013 0090 DAB2     		uxtb	r2, r3
 1014 0092 3B68     		ldr	r3, [r7]
 1015 0094 DBB2     		uxtb	r3, r3
 1016 0096 191C     		add	r1, r3, #0
 1017 0098 0F23     		mov	r3, #15
 1018 009a 0B40     		and	r3, r1
 1019 009c DBB2     		uxtb	r3, r3
 1020 009e 1343     		orr	r3, r2
 1021 00a0 DBB2     		uxtb	r3, r3
 1022 00a2 DAB2     		uxtb	r2, r3
 1023 00a4 3B1C     		mov	r3, r7
 1024 00a6 2033     		add	r3, r3, #32
 1025 00a8 DA70     		strb	r2, [r3, #3]
 413:..\..\..\..\..\simplelink\source/socket.c **** 
 414:..\..\..\..\..\simplelink\source/socket.c ****     RetVal = _SlDrvDataReadOp((_SlSd_t)sd, (_SlCmdCtrl_t *)&_SlRecvfomCmdCtrl, &Msg, &CmdExt);
 1026              		.loc 1 414 0
 1027 00aa FB68     		ldr	r3, [r7, #12]
 1028 00ac D8B2     		uxtb	r0, r3
 1029 00ae 2849     		ldr	r1, .L79
 1030 00b0 3A1C     		mov	r2, r7
 1031 00b2 2032     		add	r2, r2, #32
 1032 00b4 3B1C     		mov	r3, r7
 1033 00b6 1033     		add	r3, r3, #16
 1034 00b8 FFF7FEFF 		bl	_SlDrvDataReadOp
 1035 00bc 031C     		mov	r3, r0
 1036 00be FB62     		str	r3, [r7, #44]
 415:..\..\..\..\..\simplelink\source/socket.c ****     if( RetVal != SL_OS_RET_CODE_OK )
 1037              		.loc 1 415 0
 1038 00c0 FB6A     		ldr	r3, [r7, #44]
 1039 00c2 002B     		cmp	r3, #0
 1040 00c4 01D0     		beq	.L73
 416:..\..\..\..\..\simplelink\source/socket.c ****     {
 417:..\..\..\..\..\simplelink\source/socket.c **** 	return RetVal;
 1041              		.loc 1 417 0
 1042 00c6 FB6A     		ldr	r3, [r7, #44]
 1043 00c8 3EE0     		b	.L78
 1044              	.L73:
 418:..\..\..\..\..\simplelink\source/socket.c ****     }
 419:..\..\..\..\..\simplelink\source/socket.c **** 
 420:..\..\..\..\..\simplelink\source/socket.c ****     RetVal = Msg.Rsp.IpV4.statusOrLen;
 1045              		.loc 1 420 0
 1046 00ca 3B1C     		mov	r3, r7
 1047 00cc 2033     		add	r3, r3, #32
 1048 00ce 1B88     		ldrh	r3, [r3]
 1049 00d0 1BB2     		sxth	r3, r3
 1050 00d2 FB62     		str	r3, [r7, #44]
 421:..\..\..\..\..\simplelink\source/socket.c **** 
 422:..\..\..\..\..\simplelink\source/socket.c ****     if(RetVal >= 0)
 1051              		.loc 1 422 0
 1052 00d4 FB6A     		ldr	r3, [r7, #44]
 1053 00d6 002B     		cmp	r3, #0
 1054 00d8 35DB     		blt	.L74
 423:..\..\..\..\..\simplelink\source/socket.c ****     {
 424:..\..\..\..\..\simplelink\source/socket.c ****         VERIFY_PROTOCOL(sd == Msg.Rsp.IpV4.sd);
 1055              		.loc 1 424 0
 1056 00da 3B1C     		mov	r3, r7
 1057 00dc 2033     		add	r3, r3, #32
ARM GAS  C:\Users\X0217454\AppData\Local\Temp\cc5FLHAl.s 			page 27


 1058 00de 9B78     		ldrb	r3, [r3, #2]
 1059 00e0 1A1C     		mov	r2, r3
 1060 00e2 FB68     		ldr	r3, [r7, #12]
 1061 00e4 9A42     		cmp	r2, r3
 1062 00e6 00D0     		beq	.L75
 1063              	.L76:
 1064              		.loc 1 424 0 is_stmt 0 discriminator 1
 1065 00e8 FEE7     		b	.L76
 1066              	.L75:
 425:..\..\..\..\..\simplelink\source/socket.c **** #if 0
 426:..\..\..\..\..\simplelink\source/socket.c ****         _sl_ParseAddress(&Msg.Rsp, from, fromlen);
 427:..\..\..\..\..\simplelink\source/socket.c **** #else
 428:..\..\..\..\..\simplelink\source/socket.c ****         from->sa_family = Msg.Rsp.IpV4.family;
 1067              		.loc 1 428 0 is_stmt 1
 1068 00ea 3B1C     		mov	r3, r7
 1069 00ec 2033     		add	r3, r3, #32
 1070 00ee DB78     		ldrb	r3, [r3, #3]
 1071 00f0 1A1C     		mov	r2, r3
 1072 00f2 BB6B     		ldr	r3, [r7, #56]
 1073 00f4 1A80     		strh	r2, [r3]
 429:..\..\..\..\..\simplelink\source/socket.c ****         if(SL_AF_INET == from->sa_family)
 1074              		.loc 1 429 0
 1075 00f6 BB6B     		ldr	r3, [r7, #56]
 1076 00f8 1B88     		ldrh	r3, [r3]
 1077 00fa 022B     		cmp	r3, #2
 1078 00fc 0DD1     		bne	.L77
 430:..\..\..\..\..\simplelink\source/socket.c ****         {
 431:..\..\..\..\..\simplelink\source/socket.c ****             ((SlSockAddrIn_t *)from)->sin_port = Msg.Rsp.IpV4.port;
 1079              		.loc 1 431 0
 1080 00fe 3B1C     		mov	r3, r7
 1081 0100 2033     		add	r3, r3, #32
 1082 0102 9A88     		ldrh	r2, [r3, #4]
 1083 0104 BB6B     		ldr	r3, [r7, #56]
 1084 0106 5A80     		strh	r2, [r3, #2]
 432:..\..\..\..\..\simplelink\source/socket.c ****             ((SlSockAddrIn_t *)from)->sin_addr.s_addr = Msg.Rsp.IpV4.address;
 1085              		.loc 1 432 0
 1086 0108 3B1C     		mov	r3, r7
 1087 010a 2033     		add	r3, r3, #32
 1088 010c 9A68     		ldr	r2, [r3, #8]
 1089 010e BB6B     		ldr	r3, [r7, #56]
 1090 0110 5A60     		str	r2, [r3, #4]
 433:..\..\..\..\..\simplelink\source/socket.c ****             *fromlen = sizeof(SlSockAddrIn_t);
 1091              		.loc 1 433 0
 1092 0112 FB6B     		ldr	r3, [r7, #60]
 1093 0114 1022     		mov	r2, #16
 1094 0116 1A60     		str	r2, [r3]
 1095 0118 15E0     		b	.L74
 1096              	.L77:
 434:..\..\..\..\..\simplelink\source/socket.c ****         }
 435:..\..\..\..\..\simplelink\source/socket.c ****         else if (SL_AF_INET6_EUI_48 == from->sa_family )
 1097              		.loc 1 435 0
 1098 011a BB6B     		ldr	r3, [r7, #56]
 1099 011c 1B88     		ldrh	r3, [r3]
 1100 011e 092B     		cmp	r3, #9
 1101 0120 11D1     		bne	.L74
 436:..\..\..\..\..\simplelink\source/socket.c ****          {
 437:..\..\..\..\..\simplelink\source/socket.c ****             ((SlSockAddrIn6_t *)from)->sin6_port  = Msg.Rsp.IpV6EUI48.port;
ARM GAS  C:\Users\X0217454\AppData\Local\Temp\cc5FLHAl.s 			page 28


 1102              		.loc 1 437 0
 1103 0122 3B1C     		mov	r3, r7
 1104 0124 2033     		add	r3, r3, #32
 1105 0126 9A88     		ldrh	r2, [r3, #4]
 1106 0128 BB6B     		ldr	r3, [r7, #56]
 1107 012a 5A80     		strh	r2, [r3, #2]
 438:..\..\..\..\..\simplelink\source/socket.c ****             sl_Memcpy(((SlSockAddrIn6_t *)from)->sin6_addr._S6_un._S6_u8, Msg.Rsp.IpV6EUI48.address
 1108              		.loc 1 438 0
 1109 012c BB6B     		ldr	r3, [r7, #56]
 1110 012e 1A1C     		mov	r2, r3
 1111 0130 0832     		add	r2, r2, #8
 1112 0132 3B1C     		mov	r3, r7
 1113 0134 2633     		add	r3, r3, #38
 1114 0136 111C     		mov	r1, r2
 1115 0138 1A1C     		mov	r2, r3
 1116 013a 0623     		mov	r3, #6
 1117 013c 081C     		mov	r0, r1
 1118 013e 111C     		mov	r1, r2
 1119 0140 1A1C     		mov	r2, r3
 1120 0142 FFF7FEFF 		bl	memcpy
 1121              	.L74:
 439:..\..\..\..\..\simplelink\source/socket.c ****          }
 440:..\..\..\..\..\simplelink\source/socket.c **** #ifdef SL_SUPPORT_IPV6
 441:..\..\..\..\..\simplelink\source/socket.c ****         else if(AF_INET6 == from->sa_family)
 442:..\..\..\..\..\simplelink\source/socket.c ****         {
 443:..\..\..\..\..\simplelink\source/socket.c ****             VERIFY_PROTOCOL(*fromlen >= sizeof(sockaddr_in6));
 444:..\..\..\..\..\simplelink\source/socket.c **** 
 445:..\..\..\..\..\simplelink\source/socket.c ****             ((sockaddr_in6 *)from)->sin6_port = Msg.Rsp.IpV6.port;
 446:..\..\..\..\..\simplelink\source/socket.c ****             sl_Memcpy(((sockaddr_in6 *)from)->sin6_addr._S6_un._S6_u32, Msg.Rsp.IpV6.address, 16);
 447:..\..\..\..\..\simplelink\source/socket.c ****             *fromlen = sizeof(sockaddr_in6);
 448:..\..\..\..\..\simplelink\source/socket.c ****         }
 449:..\..\..\..\..\simplelink\source/socket.c **** #endif
 450:..\..\..\..\..\simplelink\source/socket.c **** #endif
 451:..\..\..\..\..\simplelink\source/socket.c ****     }
 452:..\..\..\..\..\simplelink\source/socket.c **** 
 453:..\..\..\..\..\simplelink\source/socket.c ****     return (int)RetVal;
 1122              		.loc 1 453 0
 1123 0146 FB6A     		ldr	r3, [r7, #44]
 1124              	.L78:
 454:..\..\..\..\..\simplelink\source/socket.c **** }
 1125              		.loc 1 454 0
 1126 0148 181C     		mov	r0, r3
 1127 014a BD46     		mov	sp, r7
 1128 014c 0CB0     		add	sp, sp, #48
 1129              		@ sp needed for prologue
 1130 014e 80BD     		pop	{r7, pc}
 1131              	.L80:
 1132              		.align	2
 1133              	.L79:
 1134 0150 00000000 		.word	_SlRecvfomCmdCtrl
 1135              		.cfi_endproc
 1136              	.LFE7:
 1137              		.size	sl_RecvFrom, .-sl_RecvFrom
 1138              		.section	.text.sl_Connect,"ax",%progbits
 1139              		.align	2
 1140              		.global	sl_Connect
 1141              		.code	16
ARM GAS  C:\Users\X0217454\AppData\Local\Temp\cc5FLHAl.s 			page 29


 1142              		.thumb_func
 1143              		.type	sl_Connect, %function
 1144              	sl_Connect:
 1145              	.LFB8:
 455:..\..\..\..\..\simplelink\source/socket.c **** #endif
 456:..\..\..\..\..\simplelink\source/socket.c **** 
 457:..\..\..\..\..\simplelink\source/socket.c **** /*******************************************************************************/
 458:..\..\..\..\..\simplelink\source/socket.c **** /*  sl_Connect */
 459:..\..\..\..\..\simplelink\source/socket.c **** /*******************************************************************************/
 460:..\..\..\..\..\simplelink\source/socket.c **** typedef union
 461:..\..\..\..\..\simplelink\source/socket.c **** {
 462:..\..\..\..\..\simplelink\source/socket.c **** 	_SocketAddrCommand_u    Cmd;
 463:..\..\..\..\..\simplelink\source/socket.c **** 	_SocketResponse_t	    Rsp;
 464:..\..\..\..\..\simplelink\source/socket.c **** }_SlSockConnectMsg_u;
 465:..\..\..\..\..\simplelink\source/socket.c **** 
 466:..\..\..\..\..\simplelink\source/socket.c **** #if _SL_INCLUDE_FUNC(sl_Connect)
 467:..\..\..\..\..\simplelink\source/socket.c **** int sl_Connect(int sd, const SlSockAddr_t *addr, int addrlen)
 468:..\..\..\..\..\simplelink\source/socket.c **** {
 1146              		.loc 1 468 0
 1147              		.cfi_startproc
 1148 0000 80B5     		push	{r7, lr}
 1149              	.LCFI24:
 1150              		.cfi_def_cfa_offset 8
 1151              		.cfi_offset 7, -8
 1152              		.cfi_offset 14, -4
 1153 0002 90B0     		sub	sp, sp, #64
 1154              	.LCFI25:
 1155              		.cfi_def_cfa_offset 72
 1156 0004 00AF     		add	r7, sp, #0
 1157              	.LCFI26:
 1158              		.cfi_def_cfa_register 7
 1159 0006 F860     		str	r0, [r7, #12]
 1160 0008 B960     		str	r1, [r7, #8]
 1161 000a 7A60     		str	r2, [r7, #4]
 469:..\..\..\..\..\simplelink\source/socket.c **** 	_SlSockConnectMsg_u  Msg;
 470:..\..\..\..\..\simplelink\source/socket.c **** 	_SlReturnVal_t       RetVal;
 471:..\..\..\..\..\simplelink\source/socket.c ****     _SlCmdCtrl_t         CmdCtrl = {0, 0, sizeof(_SocketResponse_t)};
 1162              		.loc 1 471 0
 1163 000c 3B1C     		mov	r3, r7
 1164 000e 1833     		add	r3, r3, #24
 1165 0010 0022     		mov	r2, #0
 1166 0012 1A80     		strh	r2, [r3]
 1167 0014 3B1C     		mov	r3, r7
 1168 0016 1833     		add	r3, r3, #24
 1169 0018 0022     		mov	r2, #0
 1170 001a 9A70     		strb	r2, [r3, #2]
 1171 001c 3B1C     		mov	r3, r7
 1172 001e 1833     		add	r3, r3, #24
 1173 0020 0422     		mov	r2, #4
 1174 0022 DA70     		strb	r2, [r3, #3]
 472:..\..\..\..\..\simplelink\source/socket.c ****     _SocketResponse_t    AsyncRsp;
 473:..\..\..\..\..\simplelink\source/socket.c **** 	UINT8 pObjIdx = MAX_CONCURRENT_ACTIONS;
 1175              		.loc 1 473 0
 1176 0024 3B1C     		mov	r3, r7
 1177 0026 3B33     		add	r3, r3, #59
 1178 0028 0A22     		mov	r2, #10
 1179 002a 1A70     		strb	r2, [r3]
ARM GAS  C:\Users\X0217454\AppData\Local\Temp\cc5FLHAl.s 			page 30


 474:..\..\..\..\..\simplelink\source/socket.c **** 
 475:..\..\..\..\..\simplelink\source/socket.c **** 
 476:..\..\..\..\..\simplelink\source/socket.c ****     switch(addr->sa_family)
 1180              		.loc 1 476 0
 1181 002c BB68     		ldr	r3, [r7, #8]
 1182 002e 1B88     		ldrh	r3, [r3]
 1183 0030 022B     		cmp	r3, #2
 1184 0032 02D0     		beq	.L83
 1185 0034 092B     		cmp	r3, #9
 1186 0036 09D0     		beq	.L84
 1187 0038 11E0     		b	.L102
 1188              	.L83:
 477:..\..\..\..\..\simplelink\source/socket.c ****     {
 478:..\..\..\..\..\simplelink\source/socket.c ****         case SL_AF_INET :
 479:..\..\..\..\..\simplelink\source/socket.c ****             CmdCtrl.Opcode = SL_OPCODE_SOCKET_CONNECT;
 1189              		.loc 1 479 0
 1190 003a 3B1C     		mov	r3, r7
 1191 003c 1833     		add	r3, r3, #24
 1192 003e 584A     		ldr	r2, .L103
 1193 0040 1A80     		strh	r2, [r3]
 480:..\..\..\..\..\simplelink\source/socket.c ****             CmdCtrl.TxDescLen = sizeof(_SocketAddrIPv4Command_t);
 1194              		.loc 1 480 0
 1195 0042 3B1C     		mov	r3, r7
 1196 0044 1833     		add	r3, r3, #24
 1197 0046 0C22     		mov	r2, #12
 1198 0048 9A70     		strb	r2, [r3, #2]
 481:..\..\..\..\..\simplelink\source/socket.c ****             break;
 1199              		.loc 1 481 0
 1200 004a 0BE0     		b	.L85
 1201              	.L84:
 482:..\..\..\..\..\simplelink\source/socket.c ****         case  SL_AF_INET6_EUI_48:
 483:..\..\..\..\..\simplelink\source/socket.c ****             CmdCtrl.Opcode = SL_OPCODE_SOCKET_CONNECT_V6;
 1202              		.loc 1 483 0
 1203 004c 3B1C     		mov	r3, r7
 1204 004e 1833     		add	r3, r3, #24
 1205 0050 544A     		ldr	r2, .L103+4
 1206 0052 1A80     		strh	r2, [r3]
 484:..\..\..\..\..\simplelink\source/socket.c ****             CmdCtrl.TxDescLen = sizeof(_SocketAddrIPv6EUI48Command_t);
 1207              		.loc 1 484 0
 1208 0054 3B1C     		mov	r3, r7
 1209 0056 1833     		add	r3, r3, #24
 1210 0058 0C22     		mov	r2, #12
 1211 005a 9A70     		strb	r2, [r3, #2]
 485:..\..\..\..\..\simplelink\source/socket.c ****         	break;
 1212              		.loc 1 485 0
 1213 005c 02E0     		b	.L85
 1214              	.L102:
 486:..\..\..\..\..\simplelink\source/socket.c **** #ifdef SL_SUPPORT_IPV6
 487:..\..\..\..\..\simplelink\source/socket.c ****         case AF_INET6:
 488:..\..\..\..\..\simplelink\source/socket.c ****             CmdCtrl.Opcode = SL_OPCODE_SOCKET_CONNECT_V6;
 489:..\..\..\..\..\simplelink\source/socket.c ****             CmdCtrl.TxDescLen = sizeof(_SocketAddrIPv6Command_t);
 490:..\..\..\..\..\simplelink\source/socket.c ****             break;
 491:..\..\..\..\..\simplelink\source/socket.c **** #endif
 492:..\..\..\..\..\simplelink\source/socket.c ****         case SL_AF_RF   :
 493:..\..\..\..\..\simplelink\source/socket.c ****         default:
 494:..\..\..\..\..\simplelink\source/socket.c ****             return SL_RET_CODE_INVALID_INPUT;
 1215              		.loc 1 494 0
ARM GAS  C:\Users\X0217454\AppData\Local\Temp\cc5FLHAl.s 			page 31


 1216 005e 0223     		mov	r3, #2
 1217 0060 5B42     		neg	r3, r3
 1218 0062 99E0     		b	.L101
 1219              	.L85:
 495:..\..\..\..\..\simplelink\source/socket.c ****     }
 496:..\..\..\..\..\simplelink\source/socket.c **** 
 497:..\..\..\..\..\simplelink\source/socket.c ****     Msg.Cmd.IpV4.lenOrPadding = 0;
 1220              		.loc 1 497 0
 1221 0064 3B1C     		mov	r3, r7
 1222 0066 1C33     		add	r3, r3, #28
 1223 0068 0022     		mov	r2, #0
 1224 006a 1A80     		strh	r2, [r3]
 498:..\..\..\..\..\simplelink\source/socket.c ****     Msg.Cmd.IpV4.sd = sd;
 1225              		.loc 1 498 0
 1226 006c FB68     		ldr	r3, [r7, #12]
 1227 006e DAB2     		uxtb	r2, r3
 1228 0070 3B1C     		mov	r3, r7
 1229 0072 1C33     		add	r3, r3, #28
 1230 0074 9A70     		strb	r2, [r3, #2]
 499:..\..\..\..\..\simplelink\source/socket.c **** 
 500:..\..\..\..\..\simplelink\source/socket.c ****     _sl_BuildAddress(addr, addrlen, &Msg.Cmd);
 1231              		.loc 1 500 0
 1232 0076 B968     		ldr	r1, [r7, #8]
 1233 0078 7A68     		ldr	r2, [r7, #4]
 1234 007a 3B1C     		mov	r3, r7
 1235 007c 1C33     		add	r3, r3, #28
 1236 007e 081C     		mov	r0, r1
 1237 0080 111C     		mov	r1, r2
 1238 0082 1A1C     		mov	r2, r3
 1239 0084 FFF7FEFF 		bl	_sl_BuildAddress
 501:..\..\..\..\..\simplelink\source/socket.c **** 
 502:..\..\..\..\..\simplelink\source/socket.c **** 	/* Use Obj to issue the command, if not available try later */
 503:..\..\..\..\..\simplelink\source/socket.c **** 	pObjIdx = _SlDrvWaitForPoolObj(CONNECT_ID, sd  & BSD_SOCKET_ID_MASK);
 1240              		.loc 1 503 0
 1241 0088 FB68     		ldr	r3, [r7, #12]
 1242 008a DAB2     		uxtb	r2, r3
 1243 008c 0F23     		mov	r3, #15
 1244 008e 1340     		and	r3, r2
 1245 0090 DBB2     		uxtb	r3, r3
 1246 0092 0920     		mov	r0, #9
 1247 0094 191C     		mov	r1, r3
 1248 0096 FFF7FEFF 		bl	_SlDrvWaitForPoolObj
 1249 009a 021C     		mov	r2, r0
 1250 009c 3B1C     		mov	r3, r7
 1251 009e 3B33     		add	r3, r3, #59
 1252 00a0 1A70     		strb	r2, [r3]
 504:..\..\..\..\..\simplelink\source/socket.c **** 
 505:..\..\..\..\..\simplelink\source/socket.c **** 	if (MAX_CONCURRENT_ACTIONS == pObjIdx)
 1253              		.loc 1 505 0
 1254 00a2 3B1C     		mov	r3, r7
 1255 00a4 3B33     		add	r3, r3, #59
 1256 00a6 1B78     		ldrb	r3, [r3]
 1257 00a8 0A2B     		cmp	r3, #10
 1258 00aa 01D1     		bne	.L87
 506:..\..\..\..\..\simplelink\source/socket.c **** 	{
 507:..\..\..\..\..\simplelink\source/socket.c **** 		return SL_POOL_IS_EMPTY;
 1259              		.loc 1 507 0
ARM GAS  C:\Users\X0217454\AppData\Local\Temp\cc5FLHAl.s 			page 32


 1260 00ac 3E4B     		ldr	r3, .L103+8
 1261 00ae 73E0     		b	.L101
 1262              	.L87:
 1263              	.LBB5:
 508:..\..\..\..\..\simplelink\source/socket.c **** 	}
 509:..\..\..\..\..\simplelink\source/socket.c **** 	OSI_RET_OK_CHECK(sl_LockObjLock(&g_pCB->ProtectionLockObj, SL_OS_WAIT_FOREVER));
 1264              		.loc 1 509 0
 1265 00b0 3E4B     		ldr	r3, .L103+12
 1266 00b2 1B68     		ldr	r3, [r3]
 1267 00b4 9033     		add	r3, r3, #144
 1268 00b6 181C     		mov	r0, r3
 1269 00b8 3321     		mov	r1, #51
 1270 00ba 4422     		mov	r2, #68
 1271 00bc FF23     		mov	r3, #255
 1272 00be FFF7FEFF 		bl	_SlNonOsSemGet
 1273 00c2 031C     		mov	r3, r0
 1274 00c4 7B63     		str	r3, [r7, #52]
 1275 00c6 7B6B     		ldr	r3, [r7, #52]
 1276 00c8 002B     		cmp	r3, #0
 1277 00ca 00D0     		beq	.L88
 1278              	.L89:
 1279              		.loc 1 509 0 is_stmt 0 discriminator 1
 1280 00cc FEE7     		b	.L89
 1281              	.L88:
 1282              	.LBE5:
 510:..\..\..\..\..\simplelink\source/socket.c **** 
 511:..\..\..\..\..\simplelink\source/socket.c **** 	g_pCB->ObjPool[pObjIdx].pRespArgs =  (UINT8 *)&AsyncRsp;
 1283              		.loc 1 511 0 is_stmt 1
 1284 00ce 374B     		ldr	r3, .L103+12
 1285 00d0 1968     		ldr	r1, [r3]
 1286 00d2 3B1C     		mov	r3, r7
 1287 00d4 3B33     		add	r3, r3, #59
 1288 00d6 1A78     		ldrb	r2, [r3]
 1289 00d8 131C     		mov	r3, r2
 1290 00da 5B00     		lsl	r3, r3, #1
 1291 00dc 9B18     		add	r3, r3, r2
 1292 00de 9B00     		lsl	r3, r3, #2
 1293 00e0 CB18     		add	r3, r1, r3
 1294 00e2 1433     		add	r3, r3, #20
 1295 00e4 3A1C     		mov	r2, r7
 1296 00e6 1432     		add	r2, r2, #20
 1297 00e8 1A60     		str	r2, [r3]
 1298              	.LBB6:
 512:..\..\..\..\..\simplelink\source/socket.c **** 
 513:..\..\..\..\..\simplelink\source/socket.c ****     OSI_RET_OK_CHECK(sl_LockObjUnlock(&g_pCB->ProtectionLockObj));
 1299              		.loc 1 513 0
 1300 00ea 304B     		ldr	r3, .L103+12
 1301 00ec 1B68     		ldr	r3, [r3]
 1302 00ee 9033     		add	r3, r3, #144
 1303 00f0 181C     		mov	r0, r3
 1304 00f2 3321     		mov	r1, #51
 1305 00f4 FFF7FEFF 		bl	_SlNonOsSemSet
 1306 00f8 031C     		mov	r3, r0
 1307 00fa 3B63     		str	r3, [r7, #48]
 1308 00fc 3B6B     		ldr	r3, [r7, #48]
 1309 00fe 002B     		cmp	r3, #0
 1310 0100 00D0     		beq	.L90
ARM GAS  C:\Users\X0217454\AppData\Local\Temp\cc5FLHAl.s 			page 33


 1311              	.L91:
 1312              		.loc 1 513 0 is_stmt 0 discriminator 1
 1313 0102 FEE7     		b	.L91
 1314              	.L90:
 1315              	.LBE6:
 1316              	.LBB7:
 514:..\..\..\..\..\simplelink\source/socket.c **** 	
 515:..\..\..\..\..\simplelink\source/socket.c **** 	/* send the command */
 516:..\..\..\..\..\simplelink\source/socket.c ****     VERIFY_RET_OK(_SlDrvCmdOp((_SlCmdCtrl_t *)&CmdCtrl, &Msg, NULL));
 1317              		.loc 1 516 0 is_stmt 1
 1318 0104 3A1C     		mov	r2, r7
 1319 0106 1832     		add	r2, r2, #24
 1320 0108 3B1C     		mov	r3, r7
 1321 010a 1C33     		add	r3, r3, #28
 1322 010c 101C     		mov	r0, r2
 1323 010e 191C     		mov	r1, r3
 1324 0110 0022     		mov	r2, #0
 1325 0112 FFF7FEFF 		bl	_SlDrvCmdOp
 1326 0116 031C     		mov	r3, r0
 1327 0118 FB62     		str	r3, [r7, #44]
 1328 011a FB6A     		ldr	r3, [r7, #44]
 1329 011c 002B     		cmp	r3, #0
 1330 011e 00D0     		beq	.L92
 1331              	.L93:
 1332              		.loc 1 516 0 is_stmt 0 discriminator 1
 1333 0120 FEE7     		b	.L93
 1334              	.L92:
 1335              	.LBE7:
 517:..\..\..\..\..\simplelink\source/socket.c ****     VERIFY_PROTOCOL(Msg.Rsp.sd == sd)
 1336              		.loc 1 517 0 is_stmt 1
 1337 0122 3B1C     		mov	r3, r7
 1338 0124 1C33     		add	r3, r3, #28
 1339 0126 9B78     		ldrb	r3, [r3, #2]
 1340 0128 1A1C     		mov	r2, r3
 1341 012a FB68     		ldr	r3, [r7, #12]
 1342 012c 9A42     		cmp	r2, r3
 1343 012e 00D0     		beq	.L94
 1344              	.L95:
 1345              		.loc 1 517 0 is_stmt 0 discriminator 1
 1346 0130 FEE7     		b	.L95
 1347              	.L94:
 518:..\..\..\..\..\simplelink\source/socket.c **** 
 519:..\..\..\..\..\simplelink\source/socket.c **** 	RetVal = Msg.Rsp.statusOrLen;
 1348              		.loc 1 519 0 is_stmt 1
 1349 0132 3B1C     		mov	r3, r7
 1350 0134 1C33     		add	r3, r3, #28
 1351 0136 1B88     		ldrh	r3, [r3]
 1352 0138 1BB2     		sxth	r3, r3
 1353 013a FB63     		str	r3, [r7, #60]
 520:..\..\..\..\..\simplelink\source/socket.c **** 
 521:..\..\..\..\..\simplelink\source/socket.c ****     if(SL_RET_CODE_OK == RetVal)
 1354              		.loc 1 521 0
 1355 013c FB6B     		ldr	r3, [r7, #60]
 1356 013e 002B     		cmp	r3, #0
 1357 0140 23D1     		bne	.L96
 1358              	.LBB8:
 522:..\..\..\..\..\simplelink\source/socket.c ****     {
ARM GAS  C:\Users\X0217454\AppData\Local\Temp\cc5FLHAl.s 			page 34


 523:..\..\..\..\..\simplelink\source/socket.c **** 		/*  wait for async and get Data Read parameters */
 524:..\..\..\..\..\simplelink\source/socket.c ****         OSI_RET_OK_CHECK(sl_SyncObjWait(&g_pCB->ObjPool[pObjIdx].SyncObj, SL_OS_WAIT_FOREVER));
 1359              		.loc 1 524 0
 1360 0142 1A4B     		ldr	r3, .L103+12
 1361 0144 1968     		ldr	r1, [r3]
 1362 0146 3B1C     		mov	r3, r7
 1363 0148 3B33     		add	r3, r3, #59
 1364 014a 1A78     		ldrb	r2, [r3]
 1365 014c 131C     		mov	r3, r2
 1366 014e 5B00     		lsl	r3, r3, #1
 1367 0150 9B18     		add	r3, r3, r2
 1368 0152 9B00     		lsl	r3, r3, #2
 1369 0154 1033     		add	r3, r3, #16
 1370 0156 CB18     		add	r3, r1, r3
 1371 0158 181C     		mov	r0, r3
 1372 015a 2221     		mov	r1, #34
 1373 015c 1122     		mov	r2, #17
 1374 015e FF23     		mov	r3, #255
 1375 0160 FFF7FEFF 		bl	_SlNonOsSemGet
 1376 0164 031C     		mov	r3, r0
 1377 0166 BB62     		str	r3, [r7, #40]
 1378 0168 BB6A     		ldr	r3, [r7, #40]
 1379 016a 002B     		cmp	r3, #0
 1380 016c 00D0     		beq	.L97
 1381              	.L98:
 1382              		.loc 1 524 0 is_stmt 0 discriminator 1
 1383 016e FEE7     		b	.L98
 1384              	.L97:
 1385              	.LBE8:
 525:..\..\..\..\..\simplelink\source/socket.c **** 
 526:..\..\..\..\..\simplelink\source/socket.c ****         VERIFY_PROTOCOL(AsyncRsp.sd == sd);
 1386              		.loc 1 526 0 is_stmt 1
 1387 0170 3B1C     		mov	r3, r7
 1388 0172 1433     		add	r3, r3, #20
 1389 0174 9B78     		ldrb	r3, [r3, #2]
 1390 0176 1A1C     		mov	r2, r3
 1391 0178 FB68     		ldr	r3, [r7, #12]
 1392 017a 9A42     		cmp	r2, r3
 1393 017c 00D0     		beq	.L99
 1394              	.L100:
 1395              		.loc 1 526 0 is_stmt 0 discriminator 1
 1396 017e FEE7     		b	.L100
 1397              	.L99:
 527:..\..\..\..\..\simplelink\source/socket.c **** 
 528:..\..\..\..\..\simplelink\source/socket.c ****         RetVal = AsyncRsp.statusOrLen;
 1398              		.loc 1 528 0 is_stmt 1
 1399 0180 3B1C     		mov	r3, r7
 1400 0182 1433     		add	r3, r3, #20
 1401 0184 1B88     		ldrh	r3, [r3]
 1402 0186 1BB2     		sxth	r3, r3
 1403 0188 FB63     		str	r3, [r7, #60]
 1404              	.L96:
 529:..\..\..\..\..\simplelink\source/socket.c ****     }
 530:..\..\..\..\..\simplelink\source/socket.c ****     _SlDrvReleasePoolObj(pObjIdx);
 1405              		.loc 1 530 0
 1406 018a 3B1C     		mov	r3, r7
 1407 018c 3B33     		add	r3, r3, #59
ARM GAS  C:\Users\X0217454\AppData\Local\Temp\cc5FLHAl.s 			page 35


 1408 018e 1B78     		ldrb	r3, [r3]
 1409 0190 181C     		mov	r0, r3
 1410 0192 FFF7FEFF 		bl	_SlDrvReleasePoolObj
 531:..\..\..\..\..\simplelink\source/socket.c ****     return RetVal;
 1411              		.loc 1 531 0
 1412 0196 FB6B     		ldr	r3, [r7, #60]
 1413              	.L101:
 532:..\..\..\..\..\simplelink\source/socket.c **** }
 1414              		.loc 1 532 0
 1415 0198 181C     		mov	r0, r3
 1416 019a BD46     		mov	sp, r7
 1417 019c 10B0     		add	sp, sp, #64
 1418              		@ sp needed for prologue
 1419 019e 80BD     		pop	{r7, pc}
 1420              	.L104:
 1421              		.align	2
 1422              	.L103:
 1423 01a0 0694FFFF 		.word	-27642
 1424 01a4 0696FFFF 		.word	-27130
 1425 01a8 30F8FFFF 		.word	-2000
 1426 01ac 00000000 		.word	g_pCB
 1427              		.cfi_endproc
 1428              	.LFE8:
 1429              		.size	sl_Connect, .-sl_Connect
 1430              		.section	.text._sl_HandleAsync_Connect,"ax",%progbits
 1431              		.align	2
 1432              		.global	_sl_HandleAsync_Connect
 1433              		.code	16
 1434              		.thumb_func
 1435              		.type	_sl_HandleAsync_Connect, %function
 1436              	_sl_HandleAsync_Connect:
 1437              	.LFB9:
 533:..\..\..\..\..\simplelink\source/socket.c **** #endif
 534:..\..\..\..\..\simplelink\source/socket.c **** 
 535:..\..\..\..\..\simplelink\source/socket.c **** /*******************************************************************************/
 536:..\..\..\..\..\simplelink\source/socket.c **** /*   _sl_HandleAsync_Connect */
 537:..\..\..\..\..\simplelink\source/socket.c **** /*******************************************************************************/
 538:..\..\..\..\..\simplelink\source/socket.c **** void _sl_HandleAsync_Connect(void *pVoidBuf)
 539:..\..\..\..\..\simplelink\source/socket.c **** {
 1438              		.loc 1 539 0
 1439              		.cfi_startproc
 1440 0000 80B5     		push	{r7, lr}
 1441              	.LCFI27:
 1442              		.cfi_def_cfa_offset 8
 1443              		.cfi_offset 7, -8
 1444              		.cfi_offset 14, -4
 1445 0002 86B0     		sub	sp, sp, #24
 1446              	.LCFI28:
 1447              		.cfi_def_cfa_offset 32
 1448 0004 00AF     		add	r7, sp, #0
 1449              	.LCFI29:
 1450              		.cfi_def_cfa_register 7
 1451 0006 7860     		str	r0, [r7, #4]
 540:..\..\..\..\..\simplelink\source/socket.c ****     _SocketResponse_t          *pMsgArgs   = (_SocketResponse_t *)_SL_RESP_ARGS_START(pVoidBuf);
 1452              		.loc 1 540 0
 1453 0008 7B68     		ldr	r3, [r7, #4]
 1454 000a 0833     		add	r3, r3, #8
ARM GAS  C:\Users\X0217454\AppData\Local\Temp\cc5FLHAl.s 			page 36


 1455 000c 7B61     		str	r3, [r7, #20]
 1456              	.LBB9:
 541:..\..\..\..\..\simplelink\source/socket.c **** 
 542:..\..\..\..\..\simplelink\source/socket.c ****     OSI_RET_OK_CHECK(sl_LockObjLock(&g_pCB->ProtectionLockObj, SL_OS_WAIT_FOREVER));
 1457              		.loc 1 542 0
 1458 000e 304B     		ldr	r3, .L116
 1459 0010 1B68     		ldr	r3, [r3]
 1460 0012 9033     		add	r3, r3, #144
 1461 0014 181C     		mov	r0, r3
 1462 0016 3321     		mov	r1, #51
 1463 0018 4422     		mov	r2, #68
 1464 001a FF23     		mov	r3, #255
 1465 001c FFF7FEFF 		bl	_SlNonOsSemGet
 1466 0020 031C     		mov	r3, r0
 1467 0022 3B61     		str	r3, [r7, #16]
 1468 0024 3B69     		ldr	r3, [r7, #16]
 1469 0026 002B     		cmp	r3, #0
 1470 0028 00D0     		beq	.L106
 1471              	.L107:
 1472              		.loc 1 542 0 is_stmt 0 discriminator 1
 1473 002a FEE7     		b	.L107
 1474              	.L106:
 1475              	.LBE9:
 543:..\..\..\..\..\simplelink\source/socket.c **** 
 544:..\..\..\..\..\simplelink\source/socket.c ****     VERIFY_PROTOCOL((pMsgArgs->sd & BSD_SOCKET_ID_MASK) <= SL_MAX_SOCKETS);
 1476              		.loc 1 544 0 is_stmt 1
 1477 002c 7B69     		ldr	r3, [r7, #20]
 1478 002e 9B78     		ldrb	r3, [r3, #2]
 1479 0030 1A1C     		mov	r2, r3
 1480 0032 0F23     		mov	r3, #15
 1481 0034 1340     		and	r3, r2
 1482 0036 082B     		cmp	r3, #8
 1483 0038 00DD     		ble	.L108
 1484              	.L109:
 1485              		.loc 1 544 0 is_stmt 0 discriminator 1
 1486 003a FEE7     		b	.L109
 1487              	.L108:
 545:..\..\..\..\..\simplelink\source/socket.c ****     VERIFY_SOCKET_CB(NULL != g_pCB->ObjPool[g_pCB->FunctionParams.AsyncExt.ActionIndex].pRespArgs);
 546:..\..\..\..\..\simplelink\source/socket.c **** 
 547:..\..\..\..\..\simplelink\source/socket.c ****     ((_SocketResponse_t *)(g_pCB->ObjPool[g_pCB->FunctionParams.AsyncExt.ActionIndex].pRespArgs))->
 1488              		.loc 1 547 0 is_stmt 1
 1489 003c 244B     		ldr	r3, .L116
 1490 003e 1968     		ldr	r1, [r3]
 1491 0040 234B     		ldr	r3, .L116
 1492 0042 1A68     		ldr	r2, [r3]
 1493 0044 AC23     		mov	r3, #172
 1494 0046 D35C     		ldrb	r3, [r2, r3]
 1495 0048 1A1C     		mov	r2, r3
 1496 004a 131C     		mov	r3, r2
 1497 004c 5B00     		lsl	r3, r3, #1
 1498 004e 9B18     		add	r3, r3, r2
 1499 0050 9B00     		lsl	r3, r3, #2
 1500 0052 CB18     		add	r3, r1, r3
 1501 0054 1433     		add	r3, r3, #20
 1502 0056 1B68     		ldr	r3, [r3]
 1503 0058 7A69     		ldr	r2, [r7, #20]
 1504 005a 9278     		ldrb	r2, [r2, #2]
ARM GAS  C:\Users\X0217454\AppData\Local\Temp\cc5FLHAl.s 			page 37


 1505 005c 9A70     		strb	r2, [r3, #2]
 548:..\..\..\..\..\simplelink\source/socket.c ****     ((_SocketResponse_t *)(g_pCB->ObjPool[g_pCB->FunctionParams.AsyncExt.ActionIndex].pRespArgs))->
 1506              		.loc 1 548 0
 1507 005e 1C4B     		ldr	r3, .L116
 1508 0060 1968     		ldr	r1, [r3]
 1509 0062 1B4B     		ldr	r3, .L116
 1510 0064 1A68     		ldr	r2, [r3]
 1511 0066 AC23     		mov	r3, #172
 1512 0068 D35C     		ldrb	r3, [r2, r3]
 1513 006a 1A1C     		mov	r2, r3
 1514 006c 131C     		mov	r3, r2
 1515 006e 5B00     		lsl	r3, r3, #1
 1516 0070 9B18     		add	r3, r3, r2
 1517 0072 9B00     		lsl	r3, r3, #2
 1518 0074 CB18     		add	r3, r1, r3
 1519 0076 1433     		add	r3, r3, #20
 1520 0078 1B68     		ldr	r3, [r3]
 1521 007a 7A69     		ldr	r2, [r7, #20]
 1522 007c 1288     		ldrh	r2, [r2]
 1523 007e 1A80     		strh	r2, [r3]
 1524              	.LBB10:
 549:..\..\..\..\..\simplelink\source/socket.c **** 
 550:..\..\..\..\..\simplelink\source/socket.c ****     OSI_RET_OK_CHECK(sl_SyncObjSignal(&g_pCB->ObjPool[g_pCB->FunctionParams.AsyncExt.ActionIndex].S
 1525              		.loc 1 550 0
 1526 0080 134B     		ldr	r3, .L116
 1527 0082 1968     		ldr	r1, [r3]
 1528 0084 124B     		ldr	r3, .L116
 1529 0086 1A68     		ldr	r2, [r3]
 1530 0088 AC23     		mov	r3, #172
 1531 008a D35C     		ldrb	r3, [r2, r3]
 1532 008c 1A1C     		mov	r2, r3
 1533 008e 131C     		mov	r3, r2
 1534 0090 5B00     		lsl	r3, r3, #1
 1535 0092 9B18     		add	r3, r3, r2
 1536 0094 9B00     		lsl	r3, r3, #2
 1537 0096 1033     		add	r3, r3, #16
 1538 0098 CB18     		add	r3, r1, r3
 1539 009a 181C     		mov	r0, r3
 1540 009c 2221     		mov	r1, #34
 1541 009e FFF7FEFF 		bl	_SlNonOsSemSet
 1542 00a2 031C     		mov	r3, r0
 1543 00a4 FB60     		str	r3, [r7, #12]
 1544 00a6 FB68     		ldr	r3, [r7, #12]
 1545 00a8 002B     		cmp	r3, #0
 1546 00aa 00D0     		beq	.L110
 1547              	.L111:
 1548              		.loc 1 550 0 is_stmt 0 discriminator 1
 1549 00ac FEE7     		b	.L111
 1550              	.L110:
 1551              	.LBE10:
 1552              	.LBB11:
 551:..\..\..\..\..\simplelink\source/socket.c ****     OSI_RET_OK_CHECK(sl_LockObjUnlock(&g_pCB->ProtectionLockObj));
 1553              		.loc 1 551 0 is_stmt 1
 1554 00ae 084B     		ldr	r3, .L116
 1555 00b0 1B68     		ldr	r3, [r3]
 1556 00b2 9033     		add	r3, r3, #144
 1557 00b4 181C     		mov	r0, r3
ARM GAS  C:\Users\X0217454\AppData\Local\Temp\cc5FLHAl.s 			page 38


 1558 00b6 3321     		mov	r1, #51
 1559 00b8 FFF7FEFF 		bl	_SlNonOsSemSet
 1560 00bc 031C     		mov	r3, r0
 1561 00be BB60     		str	r3, [r7, #8]
 1562 00c0 BB68     		ldr	r3, [r7, #8]
 1563 00c2 002B     		cmp	r3, #0
 1564 00c4 00D0     		beq	.L115
 1565              	.L113:
 1566              		.loc 1 551 0 is_stmt 0 discriminator 1
 1567 00c6 FEE7     		b	.L113
 1568              	.L115:
 1569              	.LBE11:
 552:..\..\..\..\..\simplelink\source/socket.c ****     return;
 1570              		.loc 1 552 0 is_stmt 1
 1571 00c8 C046     		mov	r8, r8
 1572              	.L105:
 553:..\..\..\..\..\simplelink\source/socket.c **** }
 1573              		.loc 1 553 0
 1574 00ca BD46     		mov	sp, r7
 1575 00cc 06B0     		add	sp, sp, #24
 1576              		@ sp needed for prologue
 1577 00ce 80BD     		pop	{r7, pc}
 1578              	.L117:
 1579              		.align	2
 1580              	.L116:
 1581 00d0 00000000 		.word	g_pCB
 1582              		.cfi_endproc
 1583              	.LFE9:
 1584              		.size	_sl_HandleAsync_Connect, .-_sl_HandleAsync_Connect
 1585              		.global	_SlSendCmdCtrl
 1586              		.section	.rodata
 1587              		.align	2
 1588              		.type	_SlSendCmdCtrl, %object
 1589              		.size	_SlSendCmdCtrl, 4
 1590              	_SlSendCmdCtrl:
 1591 000c 0C94     		.short	-27636
 1592 000e 04       		.byte	4
 1593 000f 00       		.byte	0
 1594              		.section	.text.sl_Send,"ax",%progbits
 1595              		.align	2
 1596              		.global	sl_Send
 1597              		.code	16
 1598              		.thumb_func
 1599              		.type	sl_Send, %function
 1600              	sl_Send:
 1601              	.LFB10:
 554:..\..\..\..\..\simplelink\source/socket.c **** 
 555:..\..\..\..\..\simplelink\source/socket.c **** /*******************************************************************************/
 556:..\..\..\..\..\simplelink\source/socket.c **** /*  sl_Sendto */
 557:..\..\..\..\..\simplelink\source/socket.c **** /*******************************************************************************/
 558:..\..\..\..\..\simplelink\source/socket.c **** typedef union
 559:..\..\..\..\..\simplelink\source/socket.c **** {
 560:..\..\..\..\..\simplelink\source/socket.c **** 	_sendRecvCommand_t    Cmd;
 561:..\..\..\..\..\simplelink\source/socket.c ****     /*  no response for 'sendto' commands*/
 562:..\..\..\..\..\simplelink\source/socket.c **** }_SlSendMsg_u;
 563:..\..\..\..\..\simplelink\source/socket.c **** 
 564:..\..\..\..\..\simplelink\source/socket.c **** const _SlCmdCtrl_t _SlSendCmdCtrl =
ARM GAS  C:\Users\X0217454\AppData\Local\Temp\cc5FLHAl.s 			page 39


 565:..\..\..\..\..\simplelink\source/socket.c **** {
 566:..\..\..\..\..\simplelink\source/socket.c ****     SL_OPCODE_SOCKET_SEND,
 567:..\..\..\..\..\simplelink\source/socket.c ****     sizeof(_sendRecvCommand_t),
 568:..\..\..\..\..\simplelink\source/socket.c ****     0
 569:..\..\..\..\..\simplelink\source/socket.c **** };
 570:..\..\..\..\..\simplelink\source/socket.c **** 
 571:..\..\..\..\..\simplelink\source/socket.c **** #if _SL_INCLUDE_FUNC(sl_Send)
 572:..\..\..\..\..\simplelink\source/socket.c **** int sl_Send(int sd, const void *pBuf, int Len, int flags)
 573:..\..\..\..\..\simplelink\source/socket.c **** {
 1602              		.loc 1 573 0
 1603              		.cfi_startproc
 1604 0000 80B5     		push	{r7, lr}
 1605              	.LCFI30:
 1606              		.cfi_def_cfa_offset 8
 1607              		.cfi_offset 7, -8
 1608              		.cfi_offset 14, -4
 1609 0002 8CB0     		sub	sp, sp, #48
 1610              	.LCFI31:
 1611              		.cfi_def_cfa_offset 56
 1612 0004 00AF     		add	r7, sp, #0
 1613              	.LCFI32:
 1614              		.cfi_def_cfa_register 7
 1615 0006 F860     		str	r0, [r7, #12]
 1616 0008 B960     		str	r1, [r7, #8]
 1617 000a 7A60     		str	r2, [r7, #4]
 1618 000c 3B60     		str	r3, [r7]
 574:..\..\..\..\..\simplelink\source/socket.c ****     _SlSendMsg_u   Msg;
 575:..\..\..\..\..\simplelink\source/socket.c ****     _SlCmdExt_t    CmdExt;
 576:..\..\..\..\..\simplelink\source/socket.c ****     UINT16         ChunkLen;
 577:..\..\..\..\..\simplelink\source/socket.c ****     int            RetVal;
 578:..\..\..\..\..\simplelink\source/socket.c **** 	UINT32         tempVal;
 579:..\..\..\..\..\simplelink\source/socket.c **** 	unsigned char  runSingleChunk = FALSE; 
 1619              		.loc 1 579 0
 1620 000e 3B1C     		mov	r3, r7
 1621 0010 2D33     		add	r3, r3, #45
 1622 0012 0022     		mov	r2, #0
 1623 0014 1A70     		strb	r2, [r3]
 580:..\..\..\..\..\simplelink\source/socket.c **** 
 581:..\..\..\..\..\simplelink\source/socket.c ****     CmdExt.TxPayloadLen = Len;
 1624              		.loc 1 581 0
 1625 0016 7B68     		ldr	r3, [r7, #4]
 1626 0018 9AB2     		uxth	r2, r3
 1627 001a 3B1C     		mov	r3, r7
 1628 001c 1433     		add	r3, r3, #20
 1629 001e 1A80     		strh	r2, [r3]
 582:..\..\..\..\..\simplelink\source/socket.c ****     CmdExt.RxPayloadLen = 0;
 1630              		.loc 1 582 0
 1631 0020 3B1C     		mov	r3, r7
 1632 0022 1433     		add	r3, r3, #20
 1633 0024 0022     		mov	r2, #0
 1634 0026 5A80     		strh	r2, [r3, #2]
 583:..\..\..\..\..\simplelink\source/socket.c ****     CmdExt.pTxPayload = (UINT8 *)pBuf;
 1635              		.loc 1 583 0
 1636 0028 3B1C     		mov	r3, r7
 1637 002a 1433     		add	r3, r3, #20
 1638 002c BA68     		ldr	r2, [r7, #8]
 1639 002e 9A60     		str	r2, [r3, #8]
ARM GAS  C:\Users\X0217454\AppData\Local\Temp\cc5FLHAl.s 			page 40


 584:..\..\..\..\..\simplelink\source/socket.c **** 
 585:..\..\..\..\..\simplelink\source/socket.c ****     /* Only for RAW transceiver type socket, relay the flags parameter in the 2 bytes (4 byte align
 586:..\..\..\..\..\simplelink\source/socket.c ****     if ((sd & SL_SOCKET_PAYLOAD_TYPE_MASK) == SL_SOCKET_PAYLOAD_TYPE_RAW_TRANCEIVER)
 1640              		.loc 1 586 0
 1641 0030 FA68     		ldr	r2, [r7, #12]
 1642 0032 F023     		mov	r3, #240
 1643 0034 1340     		and	r3, r2
 1644 0036 802B     		cmp	r3, #128
 1645 0038 14D1     		bne	.L119
 587:..\..\..\..\..\simplelink\source/socket.c ****     {
 588:..\..\..\..\..\simplelink\source/socket.c **** 		tempVal = flags;
 1646              		.loc 1 588 0
 1647 003a 3B68     		ldr	r3, [r7]
 1648 003c 3B61     		str	r3, [r7, #16]
 589:..\..\..\..\..\simplelink\source/socket.c ****         CmdExt.pRxPayload = (UINT8 *)&tempVal;
 1649              		.loc 1 589 0
 1650 003e 3B1C     		mov	r3, r7
 1651 0040 1433     		add	r3, r3, #20
 1652 0042 3A1C     		mov	r2, r7
 1653 0044 1032     		add	r2, r2, #16
 1654 0046 DA60     		str	r2, [r3, #12]
 590:..\..\..\..\..\simplelink\source/socket.c **** 		CmdExt.RxPayloadLen = 4;
 1655              		.loc 1 590 0
 1656 0048 3B1C     		mov	r3, r7
 1657 004a 1433     		add	r3, r3, #20
 1658 004c 0422     		mov	r2, #4
 1659 004e 5A80     		strh	r2, [r3, #2]
 591:..\..\..\..\..\simplelink\source/socket.c ****         g_pCB->RelayFlagsViaRxPayload = TRUE;
 1660              		.loc 1 591 0
 1661 0050 434B     		ldr	r3, .L127
 1662 0052 1A68     		ldr	r2, [r3]
 1663 0054 9B23     		mov	r3, #155
 1664 0056 0121     		mov	r1, #1
 1665 0058 D154     		strb	r1, [r2, r3]
 592:..\..\..\..\..\simplelink\source/socket.c **** 		runSingleChunk = TRUE;
 1666              		.loc 1 592 0
 1667 005a 3B1C     		mov	r3, r7
 1668 005c 2D33     		add	r3, r3, #45
 1669 005e 0122     		mov	r2, #1
 1670 0060 1A70     		strb	r2, [r3]
 1671 0062 03E0     		b	.L120
 1672              	.L119:
 593:..\..\..\..\..\simplelink\source/socket.c ****     }
 594:..\..\..\..\..\simplelink\source/socket.c ****     else
 595:..\..\..\..\..\simplelink\source/socket.c ****     {
 596:..\..\..\..\..\simplelink\source/socket.c ****         CmdExt.pRxPayload = NULL;
 1673              		.loc 1 596 0
 1674 0064 3B1C     		mov	r3, r7
 1675 0066 1433     		add	r3, r3, #20
 1676 0068 0022     		mov	r2, #0
 1677 006a DA60     		str	r2, [r3, #12]
 1678              	.L120:
 597:..\..\..\..\..\simplelink\source/socket.c ****     }
 598:..\..\..\..\..\simplelink\source/socket.c **** 
 599:..\..\..\..\..\simplelink\source/socket.c ****     ChunkLen = _sl_TruncatePayloadByProtocol(sd,Len);
 1679              		.loc 1 599 0
 1680 006c FB68     		ldr	r3, [r7, #12]
ARM GAS  C:\Users\X0217454\AppData\Local\Temp\cc5FLHAl.s 			page 41


 1681 006e DAB2     		uxtb	r2, r3
 1682 0070 7B68     		ldr	r3, [r7, #4]
 1683 0072 101C     		mov	r0, r2
 1684 0074 191C     		mov	r1, r3
 1685 0076 FFF7FEFF 		bl	_sl_TruncatePayloadByProtocol
 1686 007a 021C     		mov	r2, r0
 1687 007c 3B1C     		mov	r3, r7
 1688 007e 2E33     		add	r3, r3, #46
 1689 0080 1A80     		strh	r2, [r3]
 600:..\..\..\..\..\simplelink\source/socket.c ****     CmdExt.TxPayloadLen = ChunkLen;
 1690              		.loc 1 600 0
 1691 0082 3B1C     		mov	r3, r7
 1692 0084 1433     		add	r3, r3, #20
 1693 0086 3A1C     		mov	r2, r7
 1694 0088 2E32     		add	r2, r2, #46
 1695 008a 1288     		ldrh	r2, [r2]
 1696 008c 1A80     		strh	r2, [r3]
 601:..\..\..\..\..\simplelink\source/socket.c **** 
 602:..\..\..\..\..\simplelink\source/socket.c ****     Msg.Cmd.StatusOrLen = ChunkLen;
 1697              		.loc 1 602 0
 1698 008e 3B1C     		mov	r3, r7
 1699 0090 2433     		add	r3, r3, #36
 1700 0092 3A1C     		mov	r2, r7
 1701 0094 2E32     		add	r2, r2, #46
 1702 0096 1288     		ldrh	r2, [r2]
 1703 0098 1A80     		strh	r2, [r3]
 603:..\..\..\..\..\simplelink\source/socket.c ****     Msg.Cmd.sd = sd;
 1704              		.loc 1 603 0
 1705 009a FB68     		ldr	r3, [r7, #12]
 1706 009c DAB2     		uxtb	r2, r3
 1707 009e 3B1C     		mov	r3, r7
 1708 00a0 2433     		add	r3, r3, #36
 1709 00a2 9A70     		strb	r2, [r3, #2]
 604:..\..\..\..\..\simplelink\source/socket.c ****     Msg.Cmd.FamilyAndFlags |= flags & 0x0F;
 1710              		.loc 1 604 0
 1711 00a4 3B1C     		mov	r3, r7
 1712 00a6 2433     		add	r3, r3, #36
 1713 00a8 DB78     		ldrb	r3, [r3, #3]
 1714 00aa DAB2     		uxtb	r2, r3
 1715 00ac 3B68     		ldr	r3, [r7]
 1716 00ae DBB2     		uxtb	r3, r3
 1717 00b0 191C     		add	r1, r3, #0
 1718 00b2 0F23     		mov	r3, #15
 1719 00b4 0B40     		and	r3, r1
 1720 00b6 DBB2     		uxtb	r3, r3
 1721 00b8 1343     		orr	r3, r2
 1722 00ba DBB2     		uxtb	r3, r3
 1723 00bc DAB2     		uxtb	r2, r3
 1724 00be 3B1C     		mov	r3, r7
 1725 00c0 2433     		add	r3, r3, #36
 1726 00c2 DA70     		strb	r2, [r3, #3]
 1727              	.L125:
 605:..\..\..\..\..\simplelink\source/socket.c **** 
 606:..\..\..\..\..\simplelink\source/socket.c ****     do
 607:..\..\..\..\..\simplelink\source/socket.c ****     {
 608:..\..\..\..\..\simplelink\source/socket.c ****         RetVal = _SlDrvDataWriteOp(sd, (_SlCmdCtrl_t *)&_SlSendCmdCtrl, &Msg, &CmdExt);
 1728              		.loc 1 608 0
ARM GAS  C:\Users\X0217454\AppData\Local\Temp\cc5FLHAl.s 			page 42


 1729 00c4 FB68     		ldr	r3, [r7, #12]
 1730 00c6 D8B2     		uxtb	r0, r3
 1731 00c8 2649     		ldr	r1, .L127+4
 1732 00ca 3A1C     		mov	r2, r7
 1733 00cc 2432     		add	r2, r2, #36
 1734 00ce 3B1C     		mov	r3, r7
 1735 00d0 1433     		add	r3, r3, #20
 1736 00d2 FFF7FEFF 		bl	_SlDrvDataWriteOp
 1737 00d6 031C     		mov	r3, r0
 1738 00d8 BB62     		str	r3, [r7, #40]
 609:..\..\..\..\..\simplelink\source/socket.c ****         if(SL_OS_RET_CODE_OK == RetVal)
 1739              		.loc 1 609 0
 1740 00da BB6A     		ldr	r3, [r7, #40]
 1741 00dc 002B     		cmp	r3, #0
 1742 00de 33D1     		bne	.L121
 610:..\..\..\..\..\simplelink\source/socket.c ****         {
 611:..\..\..\..\..\simplelink\source/socket.c ****             CmdExt.pTxPayload += ChunkLen;
 1743              		.loc 1 611 0
 1744 00e0 3B1C     		mov	r3, r7
 1745 00e2 1433     		add	r3, r3, #20
 1746 00e4 9A68     		ldr	r2, [r3, #8]
 1747 00e6 3B1C     		mov	r3, r7
 1748 00e8 2E33     		add	r3, r3, #46
 1749 00ea 1B88     		ldrh	r3, [r3]
 1750 00ec D218     		add	r2, r2, r3
 1751 00ee 3B1C     		mov	r3, r7
 1752 00f0 1433     		add	r3, r3, #20
 1753 00f2 9A60     		str	r2, [r3, #8]
 612:..\..\..\..\..\simplelink\source/socket.c ****             ChunkLen = (UINT8 *)pBuf + Len - CmdExt.pTxPayload;
 1754              		.loc 1 612 0
 1755 00f4 7B68     		ldr	r3, [r7, #4]
 1756 00f6 BA68     		ldr	r2, [r7, #8]
 1757 00f8 D318     		add	r3, r2, r3
 1758 00fa 1A1C     		mov	r2, r3
 1759 00fc 3B1C     		mov	r3, r7
 1760 00fe 1433     		add	r3, r3, #20
 1761 0100 9B68     		ldr	r3, [r3, #8]
 1762 0102 D21A     		sub	r2, r2, r3
 1763 0104 3B1C     		mov	r3, r7
 1764 0106 2E33     		add	r3, r3, #46
 1765 0108 1A80     		strh	r2, [r3]
 613:..\..\..\..\..\simplelink\source/socket.c ****             ChunkLen = _sl_TruncatePayloadByProtocol(sd,ChunkLen);
 1766              		.loc 1 613 0
 1767 010a FB68     		ldr	r3, [r7, #12]
 1768 010c DAB2     		uxtb	r2, r3
 1769 010e 3B1C     		mov	r3, r7
 1770 0110 2E33     		add	r3, r3, #46
 1771 0112 1B88     		ldrh	r3, [r3]
 1772 0114 101C     		mov	r0, r2
 1773 0116 191C     		mov	r1, r3
 1774 0118 FFF7FEFF 		bl	_sl_TruncatePayloadByProtocol
 1775 011c 021C     		mov	r2, r0
 1776 011e 3B1C     		mov	r3, r7
 1777 0120 2E33     		add	r3, r3, #46
 1778 0122 1A80     		strh	r2, [r3]
 614:..\..\..\..\..\simplelink\source/socket.c ****             CmdExt.TxPayloadLen = ChunkLen;
 1779              		.loc 1 614 0
ARM GAS  C:\Users\X0217454\AppData\Local\Temp\cc5FLHAl.s 			page 43


 1780 0124 3B1C     		mov	r3, r7
 1781 0126 1433     		add	r3, r3, #20
 1782 0128 3A1C     		mov	r2, r7
 1783 012a 2E32     		add	r2, r2, #46
 1784 012c 1288     		ldrh	r2, [r2]
 1785 012e 1A80     		strh	r2, [r3]
 615:..\..\..\..\..\simplelink\source/socket.c ****             Msg.Cmd.StatusOrLen = ChunkLen;
 1786              		.loc 1 615 0
 1787 0130 3B1C     		mov	r3, r7
 1788 0132 2433     		add	r3, r3, #36
 1789 0134 3A1C     		mov	r2, r7
 1790 0136 2E32     		add	r2, r2, #46
 1791 0138 1288     		ldrh	r2, [r2]
 1792 013a 1A80     		strh	r2, [r3]
 616:..\..\..\..\..\simplelink\source/socket.c ****         }
 617:..\..\..\..\..\simplelink\source/socket.c ****         else
 618:..\..\..\..\..\simplelink\source/socket.c ****         {
 619:..\..\..\..\..\simplelink\source/socket.c ****             return RetVal;
 620:..\..\..\..\..\simplelink\source/socket.c ****         }
 621:..\..\..\..\..\simplelink\source/socket.c ****     }while((ChunkLen > 0) && (runSingleChunk==FALSE));
 1793              		.loc 1 621 0
 1794 013c 3B1C     		mov	r3, r7
 1795 013e 2E33     		add	r3, r3, #46
 1796 0140 1B88     		ldrh	r3, [r3]
 1797 0142 002B     		cmp	r3, #0
 1798 0144 02D1     		bne	.L122
 1799 0146 06E0     		b	.L123
 1800              	.L121:
 619:..\..\..\..\..\simplelink\source/socket.c ****             return RetVal;
 1801              		.loc 1 619 0
 1802 0148 BB6A     		ldr	r3, [r7, #40]
 1803 014a 05E0     		b	.L126
 1804              	.L122:
 1805              		.loc 1 621 0 discriminator 1
 1806 014c 3B1C     		mov	r3, r7
 1807 014e 2D33     		add	r3, r3, #45
 1808 0150 1B78     		ldrb	r3, [r3]
 1809 0152 002B     		cmp	r3, #0
 1810 0154 B6D0     		beq	.L125
 1811              	.L123:
 622:..\..\..\..\..\simplelink\source/socket.c ****     
 623:..\..\..\..\..\simplelink\source/socket.c ****     return (int)Len;
 1812              		.loc 1 623 0
 1813 0156 7B68     		ldr	r3, [r7, #4]
 1814              	.L126:
 624:..\..\..\..\..\simplelink\source/socket.c **** }
 1815              		.loc 1 624 0
 1816 0158 181C     		mov	r0, r3
 1817 015a BD46     		mov	sp, r7
 1818 015c 0CB0     		add	sp, sp, #48
 1819              		@ sp needed for prologue
 1820 015e 80BD     		pop	{r7, pc}
 1821              	.L128:
 1822              		.align	2
 1823              	.L127:
 1824 0160 00000000 		.word	g_pCB
 1825 0164 00000000 		.word	_SlSendCmdCtrl
ARM GAS  C:\Users\X0217454\AppData\Local\Temp\cc5FLHAl.s 			page 44


 1826              		.cfi_endproc
 1827              	.LFE10:
 1828              		.size	sl_Send, .-sl_Send
 1829              		.global	_SlListenCmdCtrl
 1830              		.section	.rodata
 1831              		.align	2
 1832              		.type	_SlListenCmdCtrl, %object
 1833              		.size	_SlListenCmdCtrl, 4
 1834              	_SlListenCmdCtrl:
 1835 0010 0594     		.short	-27643
 1836 0012 04       		.byte	4
 1837 0013 04       		.byte	4
 1838              		.section	.text.sl_Listen,"ax",%progbits
 1839              		.align	2
 1840              		.global	sl_Listen
 1841              		.code	16
 1842              		.thumb_func
 1843              		.type	sl_Listen, %function
 1844              	sl_Listen:
 1845              	.LFB11:
 625:..\..\..\..\..\simplelink\source/socket.c **** #endif
 626:..\..\..\..\..\simplelink\source/socket.c **** 
 627:..\..\..\..\..\simplelink\source/socket.c **** /*******************************************************************************/
 628:..\..\..\..\..\simplelink\source/socket.c **** /*  sl_Listen */
 629:..\..\..\..\..\simplelink\source/socket.c **** /*******************************************************************************/
 630:..\..\..\..\..\simplelink\source/socket.c **** typedef union
 631:..\..\..\..\..\simplelink\source/socket.c **** {
 632:..\..\..\..\..\simplelink\source/socket.c **** 	_ListenCommand_t    Cmd;
 633:..\..\..\..\..\simplelink\source/socket.c ****     _BasicResponse_t    Rsp;
 634:..\..\..\..\..\simplelink\source/socket.c **** }_SlListenMsg_u;
 635:..\..\..\..\..\simplelink\source/socket.c **** 
 636:..\..\..\..\..\simplelink\source/socket.c **** const _SlCmdCtrl_t _SlListenCmdCtrl =
 637:..\..\..\..\..\simplelink\source/socket.c **** {
 638:..\..\..\..\..\simplelink\source/socket.c ****     SL_OPCODE_SOCKET_LISTEN,
 639:..\..\..\..\..\simplelink\source/socket.c ****     sizeof(_ListenCommand_t),
 640:..\..\..\..\..\simplelink\source/socket.c ****     sizeof(_BasicResponse_t),
 641:..\..\..\..\..\simplelink\source/socket.c **** };
 642:..\..\..\..\..\simplelink\source/socket.c **** 
 643:..\..\..\..\..\simplelink\source/socket.c **** #if _SL_INCLUDE_FUNC(sl_Listen)
 644:..\..\..\..\..\simplelink\source/socket.c **** int sl_Listen(int sd, int backlog)
 645:..\..\..\..\..\simplelink\source/socket.c **** {
 1846              		.loc 1 645 0
 1847              		.cfi_startproc
 1848 0000 80B5     		push	{r7, lr}
 1849              	.LCFI33:
 1850              		.cfi_def_cfa_offset 8
 1851              		.cfi_offset 7, -8
 1852              		.cfi_offset 14, -4
 1853 0002 84B0     		sub	sp, sp, #16
 1854              	.LCFI34:
 1855              		.cfi_def_cfa_offset 24
 1856 0004 00AF     		add	r7, sp, #0
 1857              	.LCFI35:
 1858              		.cfi_def_cfa_register 7
 1859 0006 7860     		str	r0, [r7, #4]
 1860 0008 3960     		str	r1, [r7]
 646:..\..\..\..\..\simplelink\source/socket.c ****     _SlListenMsg_u  Msg;
ARM GAS  C:\Users\X0217454\AppData\Local\Temp\cc5FLHAl.s 			page 45


 647:..\..\..\..\..\simplelink\source/socket.c **** 
 648:..\..\..\..\..\simplelink\source/socket.c ****     Msg.Cmd.sd = sd;
 1861              		.loc 1 648 0
 1862 000a 7B68     		ldr	r3, [r7, #4]
 1863 000c DAB2     		uxtb	r2, r3
 1864 000e 3B1C     		mov	r3, r7
 1865 0010 0833     		add	r3, r3, #8
 1866 0012 1A70     		strb	r2, [r3]
 649:..\..\..\..\..\simplelink\source/socket.c ****     Msg.Cmd.backlog = backlog;
 1867              		.loc 1 649 0
 1868 0014 3B68     		ldr	r3, [r7]
 1869 0016 DAB2     		uxtb	r2, r3
 1870 0018 3B1C     		mov	r3, r7
 1871 001a 0833     		add	r3, r3, #8
 1872 001c 5A70     		strb	r2, [r3, #1]
 1873              	.LBB12:
 650:..\..\..\..\..\simplelink\source/socket.c **** 
 651:..\..\..\..\..\simplelink\source/socket.c ****     VERIFY_RET_OK(_SlDrvCmdOp((_SlCmdCtrl_t *)&_SlListenCmdCtrl, &Msg, NULL));
 1874              		.loc 1 651 0
 1875 001e 0B4A     		ldr	r2, .L133
 1876 0020 3B1C     		mov	r3, r7
 1877 0022 0833     		add	r3, r3, #8
 1878 0024 101C     		mov	r0, r2
 1879 0026 191C     		mov	r1, r3
 1880 0028 0022     		mov	r2, #0
 1881 002a FFF7FEFF 		bl	_SlDrvCmdOp
 1882 002e 031C     		mov	r3, r0
 1883 0030 FB60     		str	r3, [r7, #12]
 1884 0032 FB68     		ldr	r3, [r7, #12]
 1885 0034 002B     		cmp	r3, #0
 1886 0036 00D0     		beq	.L130
 1887              	.L131:
 1888              		.loc 1 651 0 is_stmt 0 discriminator 1
 1889 0038 FEE7     		b	.L131
 1890              	.L130:
 1891              	.LBE12:
 652:..\..\..\..\..\simplelink\source/socket.c **** 
 653:..\..\..\..\..\simplelink\source/socket.c ****     return (int)Msg.Rsp.status;
 1892              		.loc 1 653 0 is_stmt 1
 1893 003a 3B1C     		mov	r3, r7
 1894 003c 0833     		add	r3, r3, #8
 1895 003e 1B88     		ldrh	r3, [r3]
 1896 0040 1BB2     		sxth	r3, r3
 654:..\..\..\..\..\simplelink\source/socket.c **** }
 1897              		.loc 1 654 0
 1898 0042 181C     		mov	r0, r3
 1899 0044 BD46     		mov	sp, r7
 1900 0046 04B0     		add	sp, sp, #16
 1901              		@ sp needed for prologue
 1902 0048 80BD     		pop	{r7, pc}
 1903              	.L134:
 1904 004a C046     		.align	2
 1905              	.L133:
 1906 004c 00000000 		.word	_SlListenCmdCtrl
 1907              		.cfi_endproc
 1908              	.LFE11:
 1909              		.size	sl_Listen, .-sl_Listen
ARM GAS  C:\Users\X0217454\AppData\Local\Temp\cc5FLHAl.s 			page 46


 1910              		.global	_SlAcceptCmdCtrl
 1911              		.section	.rodata
 1912              		.align	2
 1913              		.type	_SlAcceptCmdCtrl, %object
 1914              		.size	_SlAcceptCmdCtrl, 4
 1915              	_SlAcceptCmdCtrl:
 1916 0014 0394     		.short	-27645
 1917 0016 04       		.byte	4
 1918 0017 04       		.byte	4
 1919              		.section	.text.sl_Accept,"ax",%progbits
 1920              		.align	2
 1921              		.global	sl_Accept
 1922              		.code	16
 1923              		.thumb_func
 1924              		.type	sl_Accept, %function
 1925              	sl_Accept:
 1926              	.LFB12:
 655:..\..\..\..\..\simplelink\source/socket.c **** #endif
 656:..\..\..\..\..\simplelink\source/socket.c **** 
 657:..\..\..\..\..\simplelink\source/socket.c **** /*******************************************************************************/
 658:..\..\..\..\..\simplelink\source/socket.c **** /*  sl_Accept */
 659:..\..\..\..\..\simplelink\source/socket.c **** /*******************************************************************************/
 660:..\..\..\..\..\simplelink\source/socket.c **** typedef union
 661:..\..\..\..\..\simplelink\source/socket.c **** {
 662:..\..\..\..\..\simplelink\source/socket.c **** 	_AcceptCommand_t    Cmd;
 663:..\..\..\..\..\simplelink\source/socket.c **** 	_SocketResponse_t   Rsp;
 664:..\..\..\..\..\simplelink\source/socket.c **** }_SlSockAcceptMsg_u;
 665:..\..\..\..\..\simplelink\source/socket.c **** 
 666:..\..\..\..\..\simplelink\source/socket.c **** const _SlCmdCtrl_t _SlAcceptCmdCtrl =
 667:..\..\..\..\..\simplelink\source/socket.c **** {
 668:..\..\..\..\..\simplelink\source/socket.c ****     SL_OPCODE_SOCKET_ACCEPT,
 669:..\..\..\..\..\simplelink\source/socket.c ****     sizeof(_AcceptCommand_t),
 670:..\..\..\..\..\simplelink\source/socket.c ****     sizeof(_BasicResponse_t),
 671:..\..\..\..\..\simplelink\source/socket.c **** };
 672:..\..\..\..\..\simplelink\source/socket.c **** 
 673:..\..\..\..\..\simplelink\source/socket.c **** #if _SL_INCLUDE_FUNC(sl_Accept)
 674:..\..\..\..\..\simplelink\source/socket.c **** int sl_Accept(int sd, SlSockAddr_t *addr, SlSocklen_t *addrlen)
 675:..\..\..\..\..\simplelink\source/socket.c **** {
 1927              		.loc 1 675 0
 1928              		.cfi_startproc
 1929 0000 80B5     		push	{r7, lr}
 1930              	.LCFI36:
 1931              		.cfi_def_cfa_offset 8
 1932              		.cfi_offset 7, -8
 1933              		.cfi_offset 14, -4
 1934 0002 8EB0     		sub	sp, sp, #56
 1935              	.LCFI37:
 1936              		.cfi_def_cfa_offset 64
 1937 0004 00AF     		add	r7, sp, #0
 1938              	.LCFI38:
 1939              		.cfi_def_cfa_register 7
 1940 0006 F860     		str	r0, [r7, #12]
 1941 0008 B960     		str	r1, [r7, #8]
 1942 000a 7A60     		str	r2, [r7, #4]
 676:..\..\..\..\..\simplelink\source/socket.c **** 	_SlSockAcceptMsg_u      Msg;
 677:..\..\..\..\..\simplelink\source/socket.c ****     _SlReturnVal_t          RetVal;
 678:..\..\..\..\..\simplelink\source/socket.c ****     _SocketAddrResponse_u   AsyncRsp;
ARM GAS  C:\Users\X0217454\AppData\Local\Temp\cc5FLHAl.s 			page 47


 679:..\..\..\..\..\simplelink\source/socket.c **** 
 680:..\..\..\..\..\simplelink\source/socket.c **** 	UINT8 pObjIdx = MAX_CONCURRENT_ACTIONS;
 1943              		.loc 1 680 0
 1944 000c 3B1C     		mov	r3, r7
 1945 000e 3333     		add	r3, r3, #51
 1946 0010 0A22     		mov	r2, #10
 1947 0012 1A70     		strb	r2, [r3]
 681:..\..\..\..\..\simplelink\source/socket.c **** 
 682:..\..\..\..\..\simplelink\source/socket.c **** 
 683:..\..\..\..\..\simplelink\source/socket.c ****     Msg.Cmd.sd = sd;
 1948              		.loc 1 683 0
 1949 0014 FB68     		ldr	r3, [r7, #12]
 1950 0016 DAB2     		uxtb	r2, r3
 1951 0018 3B1C     		mov	r3, r7
 1952 001a 1C33     		add	r3, r3, #28
 1953 001c 1A70     		strb	r2, [r3]
 684:..\..\..\..\..\simplelink\source/socket.c ****     Msg.Cmd.family = (sizeof(SlSockAddrIn_t) == *addrlen) ? SL_AF_INET : SL_AF_INET6;
 1954              		.loc 1 684 0
 1955 001e 7B68     		ldr	r3, [r7, #4]
 1956 0020 1B68     		ldr	r3, [r3]
 1957 0022 102B     		cmp	r3, #16
 1958 0024 01D1     		bne	.L136
 1959              		.loc 1 684 0 is_stmt 0 discriminator 1
 1960 0026 0223     		mov	r3, #2
 1961 0028 00E0     		b	.L137
 1962              	.L136:
 1963              		.loc 1 684 0 discriminator 2
 1964 002a 0323     		mov	r3, #3
 1965              	.L137:
 1966              		.loc 1 684 0 discriminator 3
 1967 002c 3A1C     		mov	r2, r7
 1968 002e 1C32     		add	r2, r2, #28
 1969 0030 5370     		strb	r3, [r2, #1]
 685:..\..\..\..\..\simplelink\source/socket.c **** 
 686:..\..\..\..\..\simplelink\source/socket.c **** 	/* Use Obj to issue the command, if not available try later */
 687:..\..\..\..\..\simplelink\source/socket.c **** 	pObjIdx = _SlDrvWaitForPoolObj(ACCEPT_ID, sd  & BSD_SOCKET_ID_MASK);
 1970              		.loc 1 687 0 is_stmt 1 discriminator 3
 1971 0032 FB68     		ldr	r3, [r7, #12]
 1972 0034 DAB2     		uxtb	r2, r3
 1973 0036 0F23     		mov	r3, #15
 1974 0038 1340     		and	r3, r2
 1975 003a DBB2     		uxtb	r3, r3
 1976 003c 0820     		mov	r0, #8
 1977 003e 191C     		mov	r1, r3
 1978 0040 FFF7FEFF 		bl	_SlDrvWaitForPoolObj
 1979 0044 021C     		mov	r2, r0
 1980 0046 3B1C     		mov	r3, r7
 1981 0048 3333     		add	r3, r3, #51
 1982 004a 1A70     		strb	r2, [r3]
 688:..\..\..\..\..\simplelink\source/socket.c **** 	
 689:..\..\..\..\..\simplelink\source/socket.c **** 	if (MAX_CONCURRENT_ACTIONS == pObjIdx)
 1983              		.loc 1 689 0 discriminator 3
 1984 004c 3B1C     		mov	r3, r7
 1985 004e 3333     		add	r3, r3, #51
 1986 0050 1B78     		ldrb	r3, [r3]
 1987 0052 0A2B     		cmp	r3, #10
 1988 0054 01D1     		bne	.L138
ARM GAS  C:\Users\X0217454\AppData\Local\Temp\cc5FLHAl.s 			page 48


 690:..\..\..\..\..\simplelink\source/socket.c **** 	{
 691:..\..\..\..\..\simplelink\source/socket.c **** 		return SL_POOL_IS_EMPTY;
 1989              		.loc 1 691 0
 1990 0056 5D4B     		ldr	r3, .L157
 1991 0058 B3E0     		b	.L156
 1992              	.L138:
 1993              	.LBB13:
 692:..\..\..\..\..\simplelink\source/socket.c **** 	}
 693:..\..\..\..\..\simplelink\source/socket.c **** 	
 694:..\..\..\..\..\simplelink\source/socket.c ****     OSI_RET_OK_CHECK(sl_LockObjLock(&g_pCB->ProtectionLockObj, SL_OS_WAIT_FOREVER));
 1994              		.loc 1 694 0
 1995 005a 5D4B     		ldr	r3, .L157+4
 1996 005c 1B68     		ldr	r3, [r3]
 1997 005e 9033     		add	r3, r3, #144
 1998 0060 181C     		mov	r0, r3
 1999 0062 3321     		mov	r1, #51
 2000 0064 4422     		mov	r2, #68
 2001 0066 FF23     		mov	r3, #255
 2002 0068 FFF7FEFF 		bl	_SlNonOsSemGet
 2003 006c 031C     		mov	r3, r0
 2004 006e FB62     		str	r3, [r7, #44]
 2005 0070 FB6A     		ldr	r3, [r7, #44]
 2006 0072 002B     		cmp	r3, #0
 2007 0074 00D0     		beq	.L140
 2008              	.L141:
 2009              		.loc 1 694 0 is_stmt 0 discriminator 1
 2010 0076 FEE7     		b	.L141
 2011              	.L140:
 2012              	.LBE13:
 695:..\..\..\..\..\simplelink\source/socket.c **** 
 696:..\..\..\..\..\simplelink\source/socket.c **** 	g_pCB->ObjPool[pObjIdx].pRespArgs = (UINT8 *)&AsyncRsp;
 2013              		.loc 1 696 0 is_stmt 1
 2014 0078 554B     		ldr	r3, .L157+4
 2015 007a 1968     		ldr	r1, [r3]
 2016 007c 3B1C     		mov	r3, r7
 2017 007e 3333     		add	r3, r3, #51
 2018 0080 1A78     		ldrb	r2, [r3]
 2019 0082 131C     		mov	r3, r2
 2020 0084 5B00     		lsl	r3, r3, #1
 2021 0086 9B18     		add	r3, r3, r2
 2022 0088 9B00     		lsl	r3, r3, #2
 2023 008a CB18     		add	r3, r1, r3
 2024 008c 1433     		add	r3, r3, #20
 2025 008e 3A1C     		mov	r2, r7
 2026 0090 1032     		add	r2, r2, #16
 2027 0092 1A60     		str	r2, [r3]
 2028              	.LBB14:
 697:..\..\..\..\..\simplelink\source/socket.c **** 
 698:..\..\..\..\..\simplelink\source/socket.c ****     OSI_RET_OK_CHECK(sl_LockObjUnlock(&g_pCB->ProtectionLockObj));
 2029              		.loc 1 698 0
 2030 0094 4E4B     		ldr	r3, .L157+4
 2031 0096 1B68     		ldr	r3, [r3]
 2032 0098 9033     		add	r3, r3, #144
 2033 009a 181C     		mov	r0, r3
 2034 009c 3321     		mov	r1, #51
 2035 009e FFF7FEFF 		bl	_SlNonOsSemSet
 2036 00a2 031C     		mov	r3, r0
ARM GAS  C:\Users\X0217454\AppData\Local\Temp\cc5FLHAl.s 			page 49


 2037 00a4 BB62     		str	r3, [r7, #40]
 2038 00a6 BB6A     		ldr	r3, [r7, #40]
 2039 00a8 002B     		cmp	r3, #0
 2040 00aa 00D0     		beq	.L142
 2041              	.L143:
 2042              		.loc 1 698 0 is_stmt 0 discriminator 1
 2043 00ac FEE7     		b	.L143
 2044              	.L142:
 2045              	.LBE14:
 2046              	.LBB15:
 699:..\..\..\..\..\simplelink\source/socket.c **** 	/* send the command */
 700:..\..\..\..\..\simplelink\source/socket.c ****     VERIFY_RET_OK(_SlDrvCmdOp((_SlCmdCtrl_t *)&_SlAcceptCmdCtrl, &Msg, NULL));
 2047              		.loc 1 700 0 is_stmt 1
 2048 00ae 494A     		ldr	r2, .L157+8
 2049 00b0 3B1C     		mov	r3, r7
 2050 00b2 1C33     		add	r3, r3, #28
 2051 00b4 101C     		mov	r0, r2
 2052 00b6 191C     		mov	r1, r3
 2053 00b8 0022     		mov	r2, #0
 2054 00ba FFF7FEFF 		bl	_SlDrvCmdOp
 2055 00be 031C     		mov	r3, r0
 2056 00c0 7B62     		str	r3, [r7, #36]
 2057 00c2 7B6A     		ldr	r3, [r7, #36]
 2058 00c4 002B     		cmp	r3, #0
 2059 00c6 00D0     		beq	.L144
 2060              	.L145:
 2061              		.loc 1 700 0 is_stmt 0 discriminator 1
 2062 00c8 FEE7     		b	.L145
 2063              	.L144:
 2064              	.LBE15:
 701:..\..\..\..\..\simplelink\source/socket.c ****     VERIFY_PROTOCOL(Msg.Rsp.sd == sd);
 2065              		.loc 1 701 0 is_stmt 1
 2066 00ca 3B1C     		mov	r3, r7
 2067 00cc 1C33     		add	r3, r3, #28
 2068 00ce 9B78     		ldrb	r3, [r3, #2]
 2069 00d0 1A1C     		mov	r2, r3
 2070 00d2 FB68     		ldr	r3, [r7, #12]
 2071 00d4 9A42     		cmp	r2, r3
 2072 00d6 00D0     		beq	.L146
 2073              	.L147:
 2074              		.loc 1 701 0 is_stmt 0 discriminator 1
 2075 00d8 FEE7     		b	.L147
 2076              	.L146:
 702:..\..\..\..\..\simplelink\source/socket.c **** 
 703:..\..\..\..\..\simplelink\source/socket.c ****     RetVal = Msg.Rsp.statusOrLen;
 2077              		.loc 1 703 0 is_stmt 1
 2078 00da 3B1C     		mov	r3, r7
 2079 00dc 1C33     		add	r3, r3, #28
 2080 00de 1B88     		ldrh	r3, [r3]
 2081 00e0 1BB2     		sxth	r3, r3
 2082 00e2 7B63     		str	r3, [r7, #52]
 704:..\..\..\..\..\simplelink\source/socket.c **** 
 705:..\..\..\..\..\simplelink\source/socket.c ****     if(SL_OS_RET_CODE_OK == RetVal)
 2083              		.loc 1 705 0
 2084 00e4 7B6B     		ldr	r3, [r7, #52]
 2085 00e6 002B     		cmp	r3, #0
 2086 00e8 64D1     		bne	.L148
ARM GAS  C:\Users\X0217454\AppData\Local\Temp\cc5FLHAl.s 			page 50


 2087              	.LBB16:
 706:..\..\..\..\..\simplelink\source/socket.c ****     {
 707:..\..\..\..\..\simplelink\source/socket.c ****         /*  wait for async and get Data Read parameters */
 708:..\..\..\..\..\simplelink\source/socket.c **** 		OSI_RET_OK_CHECK(sl_SyncObjWait(&g_pCB->ObjPool[pObjIdx].SyncObj, SL_OS_WAIT_FOREVER));
 2088              		.loc 1 708 0
 2089 00ea 394B     		ldr	r3, .L157+4
 2090 00ec 1968     		ldr	r1, [r3]
 2091 00ee 3B1C     		mov	r3, r7
 2092 00f0 3333     		add	r3, r3, #51
 2093 00f2 1A78     		ldrb	r2, [r3]
 2094 00f4 131C     		mov	r3, r2
 2095 00f6 5B00     		lsl	r3, r3, #1
 2096 00f8 9B18     		add	r3, r3, r2
 2097 00fa 9B00     		lsl	r3, r3, #2
 2098 00fc 1033     		add	r3, r3, #16
 2099 00fe CB18     		add	r3, r1, r3
 2100 0100 181C     		mov	r0, r3
 2101 0102 2221     		mov	r1, #34
 2102 0104 1122     		mov	r2, #17
 2103 0106 FF23     		mov	r3, #255
 2104 0108 FFF7FEFF 		bl	_SlNonOsSemGet
 2105 010c 031C     		mov	r3, r0
 2106 010e 3B62     		str	r3, [r7, #32]
 2107 0110 3B6A     		ldr	r3, [r7, #32]
 2108 0112 002B     		cmp	r3, #0
 2109 0114 00D0     		beq	.L149
 2110              	.L150:
 2111              		.loc 1 708 0 is_stmt 0 discriminator 1
 2112 0116 FEE7     		b	.L150
 2113              	.L149:
 2114              	.LBE16:
 709:..\..\..\..\..\simplelink\source/socket.c **** 
 710:..\..\..\..\..\simplelink\source/socket.c ****         VERIFY_PROTOCOL(AsyncRsp.IpV4.sd == sd);
 2115              		.loc 1 710 0 is_stmt 1
 2116 0118 3B1C     		mov	r3, r7
 2117 011a 1033     		add	r3, r3, #16
 2118 011c 9B78     		ldrb	r3, [r3, #2]
 2119 011e 1A1C     		mov	r2, r3
 2120 0120 FB68     		ldr	r3, [r7, #12]
 2121 0122 9A42     		cmp	r2, r3
 2122 0124 00D0     		beq	.L151
 2123              	.L152:
 2124              		.loc 1 710 0 is_stmt 0 discriminator 1
 2125 0126 FEE7     		b	.L152
 2126              	.L151:
 711:..\..\..\..\..\simplelink\source/socket.c **** 
 712:..\..\..\..\..\simplelink\source/socket.c ****         RetVal = AsyncRsp.IpV4.statusOrLen;
 2127              		.loc 1 712 0 is_stmt 1
 2128 0128 3B1C     		mov	r3, r7
 2129 012a 1033     		add	r3, r3, #16
 2130 012c 1B88     		ldrh	r3, [r3]
 2131 012e 1BB2     		sxth	r3, r3
 2132 0130 7B63     		str	r3, [r7, #52]
 713:..\..\..\..\..\simplelink\source/socket.c ****         if( (NULL != addr) && (NULL != addrlen) )  
 2133              		.loc 1 713 0
 2134 0132 BB68     		ldr	r3, [r7, #8]
 2135 0134 002B     		cmp	r3, #0
ARM GAS  C:\Users\X0217454\AppData\Local\Temp\cc5FLHAl.s 			page 51


 2136 0136 3DD0     		beq	.L148
 2137              		.loc 1 713 0 is_stmt 0 discriminator 1
 2138 0138 7B68     		ldr	r3, [r7, #4]
 2139 013a 002B     		cmp	r3, #0
 2140 013c 3AD0     		beq	.L148
 714:..\..\..\..\..\simplelink\source/socket.c ****         {
 715:..\..\..\..\..\simplelink\source/socket.c **** #if 0 /*  Kept for backup */
 716:..\..\..\..\..\simplelink\source/socket.c ****             _sl_ParseAddress(&AsyncRsp, addr, addrlen);
 717:..\..\..\..\..\simplelink\source/socket.c **** #else
 718:..\..\..\..\..\simplelink\source/socket.c ****     	   addr->sa_family = AsyncRsp.IpV4.family;
 2141              		.loc 1 718 0 is_stmt 1
 2142 013e 3B1C     		mov	r3, r7
 2143 0140 1033     		add	r3, r3, #16
 2144 0142 DB78     		ldrb	r3, [r3, #3]
 2145 0144 1A1C     		mov	r2, r3
 2146 0146 BB68     		ldr	r3, [r7, #8]
 2147 0148 1A80     		strh	r2, [r3]
 719:..\..\..\..\..\simplelink\source/socket.c **** 
 720:..\..\..\..\..\simplelink\source/socket.c ****     	    if(SL_AF_INET == addr->sa_family)
 2148              		.loc 1 720 0
 2149 014a BB68     		ldr	r3, [r7, #8]
 2150 014c 1B88     		ldrh	r3, [r3]
 2151 014e 022B     		cmp	r3, #2
 2152 0150 12D1     		bne	.L153
 721:..\..\..\..\..\simplelink\source/socket.c ****     	    {
 722:..\..\..\..\..\simplelink\source/socket.c ****               if( *addrlen == sizeof( SlSockAddrIn_t ) )
 2153              		.loc 1 722 0
 2154 0152 7B68     		ldr	r3, [r7, #4]
 2155 0154 1B68     		ldr	r3, [r3]
 2156 0156 102B     		cmp	r3, #16
 2157 0158 0AD1     		bne	.L154
 723:..\..\..\..\..\simplelink\source/socket.c ****               {
 724:..\..\..\..\..\simplelink\source/socket.c ****                 ((SlSockAddrIn_t *)addr)->sin_port         = AsyncRsp.IpV4.port;
 2158              		.loc 1 724 0
 2159 015a 3B1C     		mov	r3, r7
 2160 015c 1033     		add	r3, r3, #16
 2161 015e 9A88     		ldrh	r2, [r3, #4]
 2162 0160 BB68     		ldr	r3, [r7, #8]
 2163 0162 5A80     		strh	r2, [r3, #2]
 725:..\..\..\..\..\simplelink\source/socket.c ****                 ((SlSockAddrIn_t *)addr)->sin_addr.s_addr  = AsyncRsp.IpV4.address;
 2164              		.loc 1 725 0
 2165 0164 3B1C     		mov	r3, r7
 2166 0166 1033     		add	r3, r3, #16
 2167 0168 9A68     		ldr	r2, [r3, #8]
 2168 016a BB68     		ldr	r3, [r7, #8]
 2169 016c 5A60     		str	r2, [r3, #4]
 2170 016e 21E0     		b	.L148
 2171              	.L154:
 726:..\..\..\..\..\simplelink\source/socket.c ****               }
 727:..\..\..\..\..\simplelink\source/socket.c ****               else
 728:..\..\..\..\..\simplelink\source/socket.c ****               {
 729:..\..\..\..\..\simplelink\source/socket.c ****                 *addrlen = 0;
 2172              		.loc 1 729 0
 2173 0170 7B68     		ldr	r3, [r7, #4]
 2174 0172 0022     		mov	r2, #0
 2175 0174 1A60     		str	r2, [r3]
 2176 0176 1DE0     		b	.L148
ARM GAS  C:\Users\X0217454\AppData\Local\Temp\cc5FLHAl.s 			page 52


 2177              	.L153:
 730:..\..\..\..\..\simplelink\source/socket.c ****               }
 731:..\..\..\..\..\simplelink\source/socket.c ****     	    }
 732:..\..\..\..\..\simplelink\source/socket.c ****     	    else if (SL_AF_INET6_EUI_48 == addr->sa_family )
 2178              		.loc 1 732 0
 2179 0178 BB68     		ldr	r3, [r7, #8]
 2180 017a 1B88     		ldrh	r3, [r3]
 2181 017c 092B     		cmp	r3, #9
 2182 017e 19D1     		bne	.L148
 733:..\..\..\..\..\simplelink\source/socket.c ****     	    {
 734:..\..\..\..\..\simplelink\source/socket.c ****                 if( *addrlen == sizeof( SlSockAddrIn6_t ) )
 2183              		.loc 1 734 0
 2184 0180 7B68     		ldr	r3, [r7, #4]
 2185 0182 1B68     		ldr	r3, [r3]
 2186 0184 1C2B     		cmp	r3, #28
 2187 0186 12D1     		bne	.L155
 735:..\..\..\..\..\simplelink\source/socket.c ****               {
 736:..\..\..\..\..\simplelink\source/socket.c ****                 ((SlSockAddrIn6_t *)addr)->sin6_port                   = AsyncRsp.IpV6EUI48.port   
 2188              		.loc 1 736 0
 2189 0188 3B1C     		mov	r3, r7
 2190 018a 1033     		add	r3, r3, #16
 2191 018c 9A88     		ldrh	r2, [r3, #4]
 2192 018e BB68     		ldr	r3, [r7, #8]
 2193 0190 5A80     		strh	r2, [r3, #2]
 737:..\..\..\..\..\simplelink\source/socket.c ****                 /*  will be called from here and from _sl_BuildAddress*/
 738:..\..\..\..\..\simplelink\source/socket.c ****                 sl_Memcpy(((SlSockAddrIn6_t *)addr)->sin6_addr._S6_un._S6_u8, AsyncRsp.IpV6EUI48.ad
 2194              		.loc 1 738 0
 2195 0192 BB68     		ldr	r3, [r7, #8]
 2196 0194 1A1C     		mov	r2, r3
 2197 0196 0832     		add	r2, r2, #8
 2198 0198 3B1C     		mov	r3, r7
 2199 019a 1633     		add	r3, r3, #22
 2200 019c 111C     		mov	r1, r2
 2201 019e 1A1C     		mov	r2, r3
 2202 01a0 0623     		mov	r3, #6
 2203 01a2 081C     		mov	r0, r1
 2204 01a4 111C     		mov	r1, r2
 2205 01a6 1A1C     		mov	r2, r3
 2206 01a8 FFF7FEFF 		bl	memcpy
 2207 01ac 02E0     		b	.L148
 2208              	.L155:
 739:..\..\..\..\..\simplelink\source/socket.c ****               }
 740:..\..\..\..\..\simplelink\source/socket.c ****               else
 741:..\..\..\..\..\simplelink\source/socket.c ****               {
 742:..\..\..\..\..\simplelink\source/socket.c ****                 *addrlen = 0;
 2209              		.loc 1 742 0
 2210 01ae 7B68     		ldr	r3, [r7, #4]
 2211 01b0 0022     		mov	r2, #0
 2212 01b2 1A60     		str	r2, [r3]
 2213              	.L148:
 743:..\..\..\..\..\simplelink\source/socket.c ****               }
 744:..\..\..\..\..\simplelink\source/socket.c ****     	    }
 745:..\..\..\..\..\simplelink\source/socket.c **** #ifdef SL_SUPPORT_IPV6
 746:..\..\..\..\..\simplelink\source/socket.c ****     	    else
 747:..\..\..\..\..\simplelink\source/socket.c ****     	    {
 748:..\..\..\..\..\simplelink\source/socket.c ****               if( *addrlen == sizeof( sockaddr_in6 ) )
 749:..\..\..\..\..\simplelink\source/socket.c ****               {
ARM GAS  C:\Users\X0217454\AppData\Local\Temp\cc5FLHAl.s 			page 53


 750:..\..\..\..\..\simplelink\source/socket.c ****     	        ((sockaddr_in6 *)addr)->sin6_port                   = AsyncRsp.IpV6.port    ;
 751:..\..\..\..\..\simplelink\source/socket.c ****     	        sl_Memcpy(((sockaddr_in6 *)addr)->sin6_addr._S6_un._S6_u32, AsyncRsp.IpV6.address, 16)
 752:..\..\..\..\..\simplelink\source/socket.c ****               }
 753:..\..\..\..\..\simplelink\source/socket.c ****               else
 754:..\..\..\..\..\simplelink\source/socket.c ****               {
 755:..\..\..\..\..\simplelink\source/socket.c ****                 *addrlen = 0;
 756:..\..\..\..\..\simplelink\source/socket.c ****               }
 757:..\..\..\..\..\simplelink\source/socket.c ****     	    }
 758:..\..\..\..\..\simplelink\source/socket.c **** #endif
 759:..\..\..\..\..\simplelink\source/socket.c **** #endif			
 760:..\..\..\..\..\simplelink\source/socket.c ****         }
 761:..\..\..\..\..\simplelink\source/socket.c ****     }
 762:..\..\..\..\..\simplelink\source/socket.c **** 
 763:..\..\..\..\..\simplelink\source/socket.c ****     _SlDrvReleasePoolObj(pObjIdx);
 2214              		.loc 1 763 0
 2215 01b4 3B1C     		mov	r3, r7
 2216 01b6 3333     		add	r3, r3, #51
 2217 01b8 1B78     		ldrb	r3, [r3]
 2218 01ba 181C     		mov	r0, r3
 2219 01bc FFF7FEFF 		bl	_SlDrvReleasePoolObj
 764:..\..\..\..\..\simplelink\source/socket.c ****     return (int)RetVal;
 2220              		.loc 1 764 0
 2221 01c0 7B6B     		ldr	r3, [r7, #52]
 2222              	.L156:
 765:..\..\..\..\..\simplelink\source/socket.c **** }
 2223              		.loc 1 765 0
 2224 01c2 181C     		mov	r0, r3
 2225 01c4 BD46     		mov	sp, r7
 2226 01c6 0EB0     		add	sp, sp, #56
 2227              		@ sp needed for prologue
 2228 01c8 80BD     		pop	{r7, pc}
 2229              	.L158:
 2230 01ca C046     		.align	2
 2231              	.L157:
 2232 01cc 30F8FFFF 		.word	-2000
 2233 01d0 00000000 		.word	g_pCB
 2234 01d4 00000000 		.word	_SlAcceptCmdCtrl
 2235              		.cfi_endproc
 2236              	.LFE12:
 2237              		.size	sl_Accept, .-sl_Accept
 2238              		.section	.text.sl_Htonl,"ax",%progbits
 2239              		.align	2
 2240              		.global	sl_Htonl
 2241              		.code	16
 2242              		.thumb_func
 2243              		.type	sl_Htonl, %function
 2244              	sl_Htonl:
 2245              	.LFB13:
 766:..\..\..\..\..\simplelink\source/socket.c **** #endif
 767:..\..\..\..\..\simplelink\source/socket.c **** 
 768:..\..\..\..\..\simplelink\source/socket.c **** 
 769:..\..\..\..\..\simplelink\source/socket.c **** /*******************************************************************************/
 770:..\..\..\..\..\simplelink\source/socket.c **** /*  sl_Htonl */
 771:..\..\..\..\..\simplelink\source/socket.c **** /*******************************************************************************/
 772:..\..\..\..\..\simplelink\source/socket.c **** unsigned long sl_Htonl( unsigned long val )
 773:..\..\..\..\..\simplelink\source/socket.c **** {
 2246              		.loc 1 773 0
ARM GAS  C:\Users\X0217454\AppData\Local\Temp\cc5FLHAl.s 			page 54


 2247              		.cfi_startproc
 2248 0000 80B5     		push	{r7, lr}
 2249              	.LCFI39:
 2250              		.cfi_def_cfa_offset 8
 2251              		.cfi_offset 7, -8
 2252              		.cfi_offset 14, -4
 2253 0002 84B0     		sub	sp, sp, #16
 2254              	.LCFI40:
 2255              		.cfi_def_cfa_offset 24
 2256 0004 00AF     		add	r7, sp, #0
 2257              	.LCFI41:
 2258              		.cfi_def_cfa_register 7
 2259 0006 7860     		str	r0, [r7, #4]
 774:..\..\..\..\..\simplelink\source/socket.c ****   unsigned long i = 1; 
 2260              		.loc 1 774 0
 2261 0008 0123     		mov	r3, #1
 2262 000a BB60     		str	r3, [r7, #8]
 775:..\..\..\..\..\simplelink\source/socket.c ****   char *p = (char *)&i;  
 2263              		.loc 1 775 0
 2264 000c 3B1C     		mov	r3, r7
 2265 000e 0833     		add	r3, r3, #8
 2266 0010 FB60     		str	r3, [r7, #12]
 776:..\..\..\..\..\simplelink\source/socket.c ****   if (p[0] == 1) /* little endian */
 2267              		.loc 1 776 0
 2268 0012 FB68     		ldr	r3, [r7, #12]
 2269 0014 1B78     		ldrb	r3, [r3]
 2270 0016 012B     		cmp	r3, #1
 2271 0018 14D1     		bne	.L160
 777:..\..\..\..\..\simplelink\source/socket.c ****   {
 778:..\..\..\..\..\simplelink\source/socket.c ****     p[0] = ((char*)&val)[3];
 2272              		.loc 1 778 0
 2273 001a FB1D     		add	r3, r7, #7
 2274 001c 1A78     		ldrb	r2, [r3]
 2275 001e FB68     		ldr	r3, [r7, #12]
 2276 0020 1A70     		strb	r2, [r3]
 779:..\..\..\..\..\simplelink\source/socket.c ****     p[1] = ((char*)&val)[2];
 2277              		.loc 1 779 0
 2278 0022 FB68     		ldr	r3, [r7, #12]
 2279 0024 0133     		add	r3, r3, #1
 2280 0026 BA1D     		add	r2, r7, #6
 2281 0028 1278     		ldrb	r2, [r2]
 2282 002a 1A70     		strb	r2, [r3]
 780:..\..\..\..\..\simplelink\source/socket.c ****     p[2] = ((char*)&val)[1];
 2283              		.loc 1 780 0
 2284 002c FB68     		ldr	r3, [r7, #12]
 2285 002e 0233     		add	r3, r3, #2
 2286 0030 7A1D     		add	r2, r7, #5
 2287 0032 1278     		ldrb	r2, [r2]
 2288 0034 1A70     		strb	r2, [r3]
 781:..\..\..\..\..\simplelink\source/socket.c ****     p[3] = ((char*)&val)[0];
 2289              		.loc 1 781 0
 2290 0036 FB68     		ldr	r3, [r7, #12]
 2291 0038 0333     		add	r3, r3, #3
 2292 003a 3A1D     		add	r2, r7, #4
 2293 003c 1278     		ldrb	r2, [r2]
 2294 003e 1A70     		strb	r2, [r3]
 782:..\..\..\..\..\simplelink\source/socket.c ****     return i;
ARM GAS  C:\Users\X0217454\AppData\Local\Temp\cc5FLHAl.s 			page 55


 2295              		.loc 1 782 0
 2296 0040 BB68     		ldr	r3, [r7, #8]
 2297 0042 00E0     		b	.L162
 2298              	.L160:
 783:..\..\..\..\..\simplelink\source/socket.c ****   }
 784:..\..\..\..\..\simplelink\source/socket.c ****   else /* big endian */
 785:..\..\..\..\..\simplelink\source/socket.c ****   {
 786:..\..\..\..\..\simplelink\source/socket.c ****     return val; 
 2299              		.loc 1 786 0
 2300 0044 7B68     		ldr	r3, [r7, #4]
 2301              	.L162:
 787:..\..\..\..\..\simplelink\source/socket.c ****   }
 788:..\..\..\..\..\simplelink\source/socket.c **** }
 2302              		.loc 1 788 0
 2303 0046 181C     		mov	r0, r3
 2304 0048 BD46     		mov	sp, r7
 2305 004a 04B0     		add	sp, sp, #16
 2306              		@ sp needed for prologue
 2307 004c 80BD     		pop	{r7, pc}
 2308              		.cfi_endproc
 2309              	.LFE13:
 2310              		.size	sl_Htonl, .-sl_Htonl
 2311 004e C046     		.section	.text.sl_Htons,"ax",%progbits
 2312              		.align	2
 2313              		.global	sl_Htons
 2314              		.code	16
 2315              		.thumb_func
 2316              		.type	sl_Htons, %function
 2317              	sl_Htons:
 2318              	.LFB14:
 789:..\..\..\..\..\simplelink\source/socket.c **** 
 790:..\..\..\..\..\simplelink\source/socket.c **** /*******************************************************************************/
 791:..\..\..\..\..\simplelink\source/socket.c **** /*  sl_Htonl */
 792:..\..\..\..\..\simplelink\source/socket.c **** /*******************************************************************************/
 793:..\..\..\..\..\simplelink\source/socket.c **** unsigned short sl_Htons( unsigned short val )
 794:..\..\..\..\..\simplelink\source/socket.c **** {
 2319              		.loc 1 794 0
 2320              		.cfi_startproc
 2321 0000 80B5     		push	{r7, lr}
 2322              	.LCFI42:
 2323              		.cfi_def_cfa_offset 8
 2324              		.cfi_offset 7, -8
 2325              		.cfi_offset 14, -4
 2326 0002 84B0     		sub	sp, sp, #16
 2327              	.LCFI43:
 2328              		.cfi_def_cfa_offset 24
 2329 0004 00AF     		add	r7, sp, #0
 2330              	.LCFI44:
 2331              		.cfi_def_cfa_register 7
 2332 0006 021C     		mov	r2, r0
 2333 0008 BB1D     		add	r3, r7, #6
 2334 000a 1A80     		strh	r2, [r3]
 795:..\..\..\..\..\simplelink\source/socket.c ****   short i = 1; 
 2335              		.loc 1 795 0
 2336 000c 3B1C     		mov	r3, r7
 2337 000e 0A33     		add	r3, r3, #10
 2338 0010 0122     		mov	r2, #1
ARM GAS  C:\Users\X0217454\AppData\Local\Temp\cc5FLHAl.s 			page 56


 2339 0012 1A80     		strh	r2, [r3]
 796:..\..\..\..\..\simplelink\source/socket.c ****   char *p = (char *)&i;  
 2340              		.loc 1 796 0
 2341 0014 3B1C     		mov	r3, r7
 2342 0016 0A33     		add	r3, r3, #10
 2343 0018 FB60     		str	r3, [r7, #12]
 797:..\..\..\..\..\simplelink\source/socket.c ****   if (p[0] == 1) /* little endian */
 2344              		.loc 1 797 0
 2345 001a FB68     		ldr	r3, [r7, #12]
 2346 001c 1B78     		ldrb	r3, [r3]
 2347 001e 012B     		cmp	r3, #1
 2348 0020 0DD1     		bne	.L164
 798:..\..\..\..\..\simplelink\source/socket.c ****   {
 799:..\..\..\..\..\simplelink\source/socket.c ****     p[0] = ((char*)&val)[1];
 2349              		.loc 1 799 0
 2350 0022 BB1D     		add	r3, r7, #6
 2351 0024 5A78     		ldrb	r2, [r3, #1]
 2352 0026 FB68     		ldr	r3, [r7, #12]
 2353 0028 1A70     		strb	r2, [r3]
 800:..\..\..\..\..\simplelink\source/socket.c ****     p[1] = ((char*)&val)[0];
 2354              		.loc 1 800 0
 2355 002a FB68     		ldr	r3, [r7, #12]
 2356 002c 0133     		add	r3, r3, #1
 2357 002e BA1D     		add	r2, r7, #6
 2358 0030 1278     		ldrb	r2, [r2]
 2359 0032 1A70     		strb	r2, [r3]
 801:..\..\..\..\..\simplelink\source/socket.c ****     return i;
 2360              		.loc 1 801 0
 2361 0034 3B1C     		mov	r3, r7
 2362 0036 0A33     		add	r3, r3, #10
 2363 0038 1B88     		ldrh	r3, [r3]
 2364 003a 9BB2     		uxth	r3, r3
 2365 003c 01E0     		b	.L166
 2366              	.L164:
 802:..\..\..\..\..\simplelink\source/socket.c ****   }
 803:..\..\..\..\..\simplelink\source/socket.c ****   else /* big endian */
 804:..\..\..\..\..\simplelink\source/socket.c ****   {
 805:..\..\..\..\..\simplelink\source/socket.c ****     return val; 
 2367              		.loc 1 805 0
 2368 003e BB1D     		add	r3, r7, #6
 2369 0040 1B88     		ldrh	r3, [r3]
 2370              	.L166:
 806:..\..\..\..\..\simplelink\source/socket.c ****   }
 807:..\..\..\..\..\simplelink\source/socket.c **** }
 2371              		.loc 1 807 0
 2372 0042 181C     		mov	r0, r3
 2373 0044 BD46     		mov	sp, r7
 2374 0046 04B0     		add	sp, sp, #16
 2375              		@ sp needed for prologue
 2376 0048 80BD     		pop	{r7, pc}
 2377              		.cfi_endproc
 2378              	.LFE14:
 2379              		.size	sl_Htons, .-sl_Htons
 2380 004a C046     		.section	.text._sl_HandleAsync_Accept,"ax",%progbits
 2381              		.align	2
 2382              		.global	_sl_HandleAsync_Accept
 2383              		.code	16
ARM GAS  C:\Users\X0217454\AppData\Local\Temp\cc5FLHAl.s 			page 57


 2384              		.thumb_func
 2385              		.type	_sl_HandleAsync_Accept, %function
 2386              	_sl_HandleAsync_Accept:
 2387              	.LFB15:
 808:..\..\..\..\..\simplelink\source/socket.c **** 
 809:..\..\..\..\..\simplelink\source/socket.c **** /*******************************************************************************/
 810:..\..\..\..\..\simplelink\source/socket.c **** /*   _sl_HandleAsync_Accept */
 811:..\..\..\..\..\simplelink\source/socket.c **** /*******************************************************************************/
 812:..\..\..\..\..\simplelink\source/socket.c **** void _sl_HandleAsync_Accept(void *pVoidBuf)
 813:..\..\..\..\..\simplelink\source/socket.c **** {
 2388              		.loc 1 813 0
 2389              		.cfi_startproc
 2390 0000 80B5     		push	{r7, lr}
 2391              	.LCFI45:
 2392              		.cfi_def_cfa_offset 8
 2393              		.cfi_offset 7, -8
 2394              		.cfi_offset 14, -4
 2395 0002 86B0     		sub	sp, sp, #24
 2396              	.LCFI46:
 2397              		.cfi_def_cfa_offset 32
 2398 0004 00AF     		add	r7, sp, #0
 2399              	.LCFI47:
 2400              		.cfi_def_cfa_register 7
 2401 0006 7860     		str	r0, [r7, #4]
 814:..\..\..\..\..\simplelink\source/socket.c ****     _SocketAddrResponse_u      *pMsgArgs   = (_SocketAddrResponse_u *)_SL_RESP_ARGS_START(pVoidBuf)
 2402              		.loc 1 814 0
 2403 0008 7B68     		ldr	r3, [r7, #4]
 2404 000a 0833     		add	r3, r3, #8
 2405 000c 7B61     		str	r3, [r7, #20]
 2406              	.LBB17:
 815:..\..\..\..\..\simplelink\source/socket.c **** 
 816:..\..\..\..\..\simplelink\source/socket.c ****     OSI_RET_OK_CHECK(sl_LockObjLock(&g_pCB->ProtectionLockObj, SL_OS_WAIT_FOREVER));
 2407              		.loc 1 816 0
 2408 000e 294B     		ldr	r3, .L178
 2409 0010 1B68     		ldr	r3, [r3]
 2410 0012 9033     		add	r3, r3, #144
 2411 0014 181C     		mov	r0, r3
 2412 0016 3321     		mov	r1, #51
 2413 0018 4422     		mov	r2, #68
 2414 001a FF23     		mov	r3, #255
 2415 001c FFF7FEFF 		bl	_SlNonOsSemGet
 2416 0020 031C     		mov	r3, r0
 2417 0022 3B61     		str	r3, [r7, #16]
 2418 0024 3B69     		ldr	r3, [r7, #16]
 2419 0026 002B     		cmp	r3, #0
 2420 0028 00D0     		beq	.L168
 2421              	.L169:
 2422              		.loc 1 816 0 is_stmt 0 discriminator 1
 2423 002a FEE7     		b	.L169
 2424              	.L168:
 2425              	.LBE17:
 817:..\..\..\..\..\simplelink\source/socket.c **** 
 818:..\..\..\..\..\simplelink\source/socket.c ****     VERIFY_PROTOCOL(( pMsgArgs->IpV4.sd & BSD_SOCKET_ID_MASK) <= SL_MAX_SOCKETS);
 2426              		.loc 1 818 0 is_stmt 1
 2427 002c 7B69     		ldr	r3, [r7, #20]
 2428 002e 9B78     		ldrb	r3, [r3, #2]
 2429 0030 1A1C     		mov	r2, r3
ARM GAS  C:\Users\X0217454\AppData\Local\Temp\cc5FLHAl.s 			page 58


 2430 0032 0F23     		mov	r3, #15
 2431 0034 1340     		and	r3, r2
 2432 0036 082B     		cmp	r3, #8
 2433 0038 00DD     		ble	.L170
 2434              	.L171:
 2435              		.loc 1 818 0 is_stmt 0 discriminator 1
 2436 003a FEE7     		b	.L171
 2437              	.L170:
 819:..\..\..\..\..\simplelink\source/socket.c ****     VERIFY_SOCKET_CB(NULL != g_pCB->ObjPool[g_pCB->FunctionParams.AsyncExt.ActionIndex].pRespArgs);
 820:..\..\..\..\..\simplelink\source/socket.c **** 
 821:..\..\..\..\..\simplelink\source/socket.c **** 	memcpy(g_pCB->ObjPool[g_pCB->FunctionParams.AsyncExt.ActionIndex].pRespArgs, pMsgArgs,sizeof(_Sock
 2438              		.loc 1 821 0 is_stmt 1
 2439 003c 1D4B     		ldr	r3, .L178
 2440 003e 1968     		ldr	r1, [r3]
 2441 0040 1C4B     		ldr	r3, .L178
 2442 0042 1A68     		ldr	r2, [r3]
 2443 0044 AC23     		mov	r3, #172
 2444 0046 D35C     		ldrb	r3, [r2, r3]
 2445 0048 1A1C     		mov	r2, r3
 2446 004a 131C     		mov	r3, r2
 2447 004c 5B00     		lsl	r3, r3, #1
 2448 004e 9B18     		add	r3, r3, r2
 2449 0050 9B00     		lsl	r3, r3, #2
 2450 0052 CB18     		add	r3, r1, r3
 2451 0054 1433     		add	r3, r3, #20
 2452 0056 1A68     		ldr	r2, [r3]
 2453 0058 7B69     		ldr	r3, [r7, #20]
 2454 005a 101C     		mov	r0, r2
 2455 005c 191C     		mov	r1, r3
 2456 005e 0C22     		mov	r2, #12
 2457 0060 FFF7FEFF 		bl	memcpy
 2458              	.LBB18:
 822:..\..\..\..\..\simplelink\source/socket.c **** 	OSI_RET_OK_CHECK(sl_SyncObjSignal(&g_pCB->ObjPool[g_pCB->FunctionParams.AsyncExt.ActionIndex].Sync
 2459              		.loc 1 822 0
 2460 0064 134B     		ldr	r3, .L178
 2461 0066 1968     		ldr	r1, [r3]
 2462 0068 124B     		ldr	r3, .L178
 2463 006a 1A68     		ldr	r2, [r3]
 2464 006c AC23     		mov	r3, #172
 2465 006e D35C     		ldrb	r3, [r2, r3]
 2466 0070 1A1C     		mov	r2, r3
 2467 0072 131C     		mov	r3, r2
 2468 0074 5B00     		lsl	r3, r3, #1
 2469 0076 9B18     		add	r3, r3, r2
 2470 0078 9B00     		lsl	r3, r3, #2
 2471 007a 1033     		add	r3, r3, #16
 2472 007c CB18     		add	r3, r1, r3
 2473 007e 181C     		mov	r0, r3
 2474 0080 2221     		mov	r1, #34
 2475 0082 FFF7FEFF 		bl	_SlNonOsSemSet
 2476 0086 031C     		mov	r3, r0
 2477 0088 FB60     		str	r3, [r7, #12]
 2478 008a FB68     		ldr	r3, [r7, #12]
 2479 008c 002B     		cmp	r3, #0
 2480 008e 00D0     		beq	.L172
 2481              	.L173:
 2482              		.loc 1 822 0 is_stmt 0 discriminator 1
ARM GAS  C:\Users\X0217454\AppData\Local\Temp\cc5FLHAl.s 			page 59


 2483 0090 FEE7     		b	.L173
 2484              	.L172:
 2485              	.LBE18:
 2486              	.LBB19:
 823:..\..\..\..\..\simplelink\source/socket.c **** 
 824:..\..\..\..\..\simplelink\source/socket.c ****     OSI_RET_OK_CHECK(sl_LockObjUnlock(&g_pCB->ProtectionLockObj));
 2487              		.loc 1 824 0 is_stmt 1
 2488 0092 084B     		ldr	r3, .L178
 2489 0094 1B68     		ldr	r3, [r3]
 2490 0096 9033     		add	r3, r3, #144
 2491 0098 181C     		mov	r0, r3
 2492 009a 3321     		mov	r1, #51
 2493 009c FFF7FEFF 		bl	_SlNonOsSemSet
 2494 00a0 031C     		mov	r3, r0
 2495 00a2 BB60     		str	r3, [r7, #8]
 2496 00a4 BB68     		ldr	r3, [r7, #8]
 2497 00a6 002B     		cmp	r3, #0
 2498 00a8 00D0     		beq	.L177
 2499              	.L175:
 2500              		.loc 1 824 0 is_stmt 0 discriminator 1
 2501 00aa FEE7     		b	.L175
 2502              	.L177:
 2503              	.LBE19:
 825:..\..\..\..\..\simplelink\source/socket.c ****     return;
 2504              		.loc 1 825 0 is_stmt 1
 2505 00ac C046     		mov	r8, r8
 2506              	.L167:
 826:..\..\..\..\..\simplelink\source/socket.c **** }
 2507              		.loc 1 826 0
 2508 00ae BD46     		mov	sp, r7
 2509 00b0 06B0     		add	sp, sp, #24
 2510              		@ sp needed for prologue
 2511 00b2 80BD     		pop	{r7, pc}
 2512              	.L179:
 2513              		.align	2
 2514              	.L178:
 2515 00b4 00000000 		.word	g_pCB
 2516              		.cfi_endproc
 2517              	.LFE15:
 2518              		.size	_sl_HandleAsync_Accept, .-_sl_HandleAsync_Accept
 2519              		.global	_SlRecvCmdCtrl
 2520              		.section	.rodata
 2521              		.align	2
 2522              		.type	_SlRecvCmdCtrl, %object
 2523              		.size	_SlRecvCmdCtrl, 4
 2524              	_SlRecvCmdCtrl:
 2525 0018 0A94     		.short	-27638
 2526 001a 04       		.byte	4
 2527 001b 04       		.byte	4
 2528              		.section	.text.sl_Recv,"ax",%progbits
 2529              		.align	2
 2530              		.global	sl_Recv
 2531              		.code	16
 2532              		.thumb_func
 2533              		.type	sl_Recv, %function
 2534              	sl_Recv:
 2535              	.LFB16:
ARM GAS  C:\Users\X0217454\AppData\Local\Temp\cc5FLHAl.s 			page 60


 827:..\..\..\..\..\simplelink\source/socket.c **** 
 828:..\..\..\..\..\simplelink\source/socket.c **** /*******************************************************************************/
 829:..\..\..\..\..\simplelink\source/socket.c **** /*  sl_Recv */
 830:..\..\..\..\..\simplelink\source/socket.c **** /*******************************************************************************/
 831:..\..\..\..\..\simplelink\source/socket.c **** typedef union
 832:..\..\..\..\..\simplelink\source/socket.c **** {
 833:..\..\..\..\..\simplelink\source/socket.c **** 	_sendRecvCommand_t  Cmd;
 834:..\..\..\..\..\simplelink\source/socket.c **** 	_SocketResponse_t   Rsp;    
 835:..\..\..\..\..\simplelink\source/socket.c **** }_SlRecvMsg_u;
 836:..\..\..\..\..\simplelink\source/socket.c **** 
 837:..\..\..\..\..\simplelink\source/socket.c **** const _SlCmdCtrl_t _SlRecvCmdCtrl =
 838:..\..\..\..\..\simplelink\source/socket.c **** {
 839:..\..\..\..\..\simplelink\source/socket.c ****     SL_OPCODE_SOCKET_RECV,
 840:..\..\..\..\..\simplelink\source/socket.c ****     sizeof(_sendRecvCommand_t),
 841:..\..\..\..\..\simplelink\source/socket.c ****     sizeof(_SocketResponse_t)
 842:..\..\..\..\..\simplelink\source/socket.c **** };
 843:..\..\..\..\..\simplelink\source/socket.c **** 
 844:..\..\..\..\..\simplelink\source/socket.c **** #if _SL_INCLUDE_FUNC(sl_Recv)
 845:..\..\..\..\..\simplelink\source/socket.c **** int sl_Recv(int sd, void *pBuf, int Len, int flags)
 846:..\..\..\..\..\simplelink\source/socket.c **** {
 2536              		.loc 1 846 0
 2537              		.cfi_startproc
 2538 0000 80B5     		push	{r7, lr}
 2539              	.LCFI48:
 2540              		.cfi_def_cfa_offset 8
 2541              		.cfi_offset 7, -8
 2542              		.cfi_offset 14, -4
 2543 0002 8AB0     		sub	sp, sp, #40
 2544              	.LCFI49:
 2545              		.cfi_def_cfa_offset 48
 2546 0004 00AF     		add	r7, sp, #0
 2547              	.LCFI50:
 2548              		.cfi_def_cfa_register 7
 2549 0006 F860     		str	r0, [r7, #12]
 2550 0008 B960     		str	r1, [r7, #8]
 2551 000a 7A60     		str	r2, [r7, #4]
 2552 000c 3B60     		str	r3, [r7]
 847:..\..\..\..\..\simplelink\source/socket.c ****     _SlRecvMsg_u    Msg;
 848:..\..\..\..\..\simplelink\source/socket.c ****     _SlCmdExt_t     CmdExt;
 849:..\..\..\..\..\simplelink\source/socket.c ****     _SlReturnVal_t status;
 850:..\..\..\..\..\simplelink\source/socket.c **** 
 851:..\..\..\..\..\simplelink\source/socket.c ****     CmdExt.TxPayloadLen = 0;
 2553              		.loc 1 851 0
 2554 000e 3B1C     		mov	r3, r7
 2555 0010 1033     		add	r3, r3, #16
 2556 0012 0022     		mov	r2, #0
 2557 0014 1A80     		strh	r2, [r3]
 852:..\..\..\..\..\simplelink\source/socket.c ****     CmdExt.RxPayloadLen = Len;
 2558              		.loc 1 852 0
 2559 0016 7B68     		ldr	r3, [r7, #4]
 2560 0018 9AB2     		uxth	r2, r3
 2561 001a 3B1C     		mov	r3, r7
 2562 001c 1033     		add	r3, r3, #16
 2563 001e 5A80     		strh	r2, [r3, #2]
 853:..\..\..\..\..\simplelink\source/socket.c ****     CmdExt.pTxPayload = NULL;
 2564              		.loc 1 853 0
 2565 0020 3B1C     		mov	r3, r7
ARM GAS  C:\Users\X0217454\AppData\Local\Temp\cc5FLHAl.s 			page 61


 2566 0022 1033     		add	r3, r3, #16
 2567 0024 0022     		mov	r2, #0
 2568 0026 9A60     		str	r2, [r3, #8]
 854:..\..\..\..\..\simplelink\source/socket.c ****     CmdExt.pRxPayload = (UINT8 *)pBuf;
 2569              		.loc 1 854 0
 2570 0028 3B1C     		mov	r3, r7
 2571 002a 1033     		add	r3, r3, #16
 2572 002c BA68     		ldr	r2, [r7, #8]
 2573 002e DA60     		str	r2, [r3, #12]
 855:..\..\..\..\..\simplelink\source/socket.c **** 
 856:..\..\..\..\..\simplelink\source/socket.c ****     Msg.Cmd.sd = sd;
 2574              		.loc 1 856 0
 2575 0030 FB68     		ldr	r3, [r7, #12]
 2576 0032 DAB2     		uxtb	r2, r3
 2577 0034 3B1C     		mov	r3, r7
 2578 0036 2033     		add	r3, r3, #32
 2579 0038 9A70     		strb	r2, [r3, #2]
 857:..\..\..\..\..\simplelink\source/socket.c ****     Msg.Cmd.StatusOrLen = Len;
 2580              		.loc 1 857 0
 2581 003a 7B68     		ldr	r3, [r7, #4]
 2582 003c 9AB2     		uxth	r2, r3
 2583 003e 3B1C     		mov	r3, r7
 2584 0040 2033     		add	r3, r3, #32
 2585 0042 1A80     		strh	r2, [r3]
 858:..\..\..\..\..\simplelink\source/socket.c **** 
 859:..\..\..\..\..\simplelink\source/socket.c ****     /*  no size truncation in recv path */
 860:..\..\..\..\..\simplelink\source/socket.c ****     CmdExt.RxPayloadLen = Msg.Cmd.StatusOrLen;
 2586              		.loc 1 860 0
 2587 0044 3B1C     		mov	r3, r7
 2588 0046 2033     		add	r3, r3, #32
 2589 0048 1A88     		ldrh	r2, [r3]
 2590 004a 3B1C     		mov	r3, r7
 2591 004c 1033     		add	r3, r3, #16
 2592 004e 5A80     		strh	r2, [r3, #2]
 861:..\..\..\..\..\simplelink\source/socket.c **** 
 862:..\..\..\..\..\simplelink\source/socket.c ****     Msg.Cmd.FamilyAndFlags = flags & 0x0F;
 2593              		.loc 1 862 0
 2594 0050 3B68     		ldr	r3, [r7]
 2595 0052 DAB2     		uxtb	r2, r3
 2596 0054 0F23     		mov	r3, #15
 2597 0056 1340     		and	r3, r2
 2598 0058 DAB2     		uxtb	r2, r3
 2599 005a 3B1C     		mov	r3, r7
 2600 005c 2033     		add	r3, r3, #32
 2601 005e DA70     		strb	r2, [r3, #3]
 863:..\..\..\..\..\simplelink\source/socket.c **** 
 864:..\..\..\..\..\simplelink\source/socket.c ****     status = _SlDrvDataReadOp((_SlSd_t)sd, (_SlCmdCtrl_t *)&_SlRecvCmdCtrl, &Msg, &CmdExt);
 2602              		.loc 1 864 0
 2603 0060 FB68     		ldr	r3, [r7, #12]
 2604 0062 D8B2     		uxtb	r0, r3
 2605 0064 0A49     		ldr	r1, .L184
 2606 0066 3A1C     		mov	r2, r7
 2607 0068 2032     		add	r2, r2, #32
 2608 006a 3B1C     		mov	r3, r7
 2609 006c 1033     		add	r3, r3, #16
 2610 006e FFF7FEFF 		bl	_SlDrvDataReadOp
 2611 0072 031C     		mov	r3, r0
ARM GAS  C:\Users\X0217454\AppData\Local\Temp\cc5FLHAl.s 			page 62


 2612 0074 7B62     		str	r3, [r7, #36]
 865:..\..\..\..\..\simplelink\source/socket.c ****     if( status != SL_OS_RET_CODE_OK )
 2613              		.loc 1 865 0
 2614 0076 7B6A     		ldr	r3, [r7, #36]
 2615 0078 002B     		cmp	r3, #0
 2616 007a 01D0     		beq	.L181
 866:..\..\..\..\..\simplelink\source/socket.c ****     {
 867:..\..\..\..\..\simplelink\source/socket.c **** 	return status;
 2617              		.loc 1 867 0
 2618 007c 7B6A     		ldr	r3, [r7, #36]
 2619 007e 03E0     		b	.L183
 2620              	.L181:
 868:..\..\..\..\..\simplelink\source/socket.c ****     }
 869:..\..\..\..\..\simplelink\source/socket.c ****      
 870:..\..\..\..\..\simplelink\source/socket.c ****     /*  if the Device side sends less than expected it is not the Driver's role */
 871:..\..\..\..\..\simplelink\source/socket.c ****     /*  the returned value could be smaller than the requested size */
 872:..\..\..\..\..\simplelink\source/socket.c ****     return (int)Msg.Rsp.statusOrLen;
 2621              		.loc 1 872 0
 2622 0080 3B1C     		mov	r3, r7
 2623 0082 2033     		add	r3, r3, #32
 2624 0084 1B88     		ldrh	r3, [r3]
 2625 0086 1BB2     		sxth	r3, r3
 2626              	.L183:
 873:..\..\..\..\..\simplelink\source/socket.c **** }
 2627              		.loc 1 873 0
 2628 0088 181C     		mov	r0, r3
 2629 008a BD46     		mov	sp, r7
 2630 008c 0AB0     		add	sp, sp, #40
 2631              		@ sp needed for prologue
 2632 008e 80BD     		pop	{r7, pc}
 2633              	.L185:
 2634              		.align	2
 2635              	.L184:
 2636 0090 00000000 		.word	_SlRecvCmdCtrl
 2637              		.cfi_endproc
 2638              	.LFE16:
 2639              		.size	sl_Recv, .-sl_Recv
 2640              		.global	_SlSetSockOptCmdCtrl
 2641              		.section	.rodata
 2642              		.align	2
 2643              		.type	_SlSetSockOptCmdCtrl, %object
 2644              		.size	_SlSetSockOptCmdCtrl, 4
 2645              	_SlSetSockOptCmdCtrl:
 2646 001c 0894     		.short	-27640
 2647 001e 04       		.byte	4
 2648 001f 04       		.byte	4
 2649              		.section	.text.sl_SetSockOpt,"ax",%progbits
 2650              		.align	2
 2651              		.global	sl_SetSockOpt
 2652              		.code	16
 2653              		.thumb_func
 2654              		.type	sl_SetSockOpt, %function
 2655              	sl_SetSockOpt:
 2656              	.LFB17:
 874:..\..\..\..\..\simplelink\source/socket.c **** #endif
 875:..\..\..\..\..\simplelink\source/socket.c **** 
 876:..\..\..\..\..\simplelink\source/socket.c **** /*******************************************************************************/
ARM GAS  C:\Users\X0217454\AppData\Local\Temp\cc5FLHAl.s 			page 63


 877:..\..\..\..\..\simplelink\source/socket.c **** /*  sl_SetSockOpt */
 878:..\..\..\..\..\simplelink\source/socket.c **** /*******************************************************************************/
 879:..\..\..\..\..\simplelink\source/socket.c **** typedef union
 880:..\..\..\..\..\simplelink\source/socket.c **** {
 881:..\..\..\..\..\simplelink\source/socket.c **** 	_setSockOptCommand_t    Cmd;
 882:..\..\..\..\..\simplelink\source/socket.c **** 	_SocketResponse_t       Rsp;    
 883:..\..\..\..\..\simplelink\source/socket.c **** }_SlSetSockOptMsg_u;
 884:..\..\..\..\..\simplelink\source/socket.c **** 
 885:..\..\..\..\..\simplelink\source/socket.c **** const _SlCmdCtrl_t _SlSetSockOptCmdCtrl =
 886:..\..\..\..\..\simplelink\source/socket.c **** {
 887:..\..\..\..\..\simplelink\source/socket.c ****     SL_OPCODE_SOCKET_SETSOCKOPT,
 888:..\..\..\..\..\simplelink\source/socket.c ****     sizeof(_setSockOptCommand_t),
 889:..\..\..\..\..\simplelink\source/socket.c ****     sizeof(_SocketResponse_t)
 890:..\..\..\..\..\simplelink\source/socket.c **** };
 891:..\..\..\..\..\simplelink\source/socket.c **** 
 892:..\..\..\..\..\simplelink\source/socket.c **** #if _SL_INCLUDE_FUNC(sl_SetSockOpt)
 893:..\..\..\..\..\simplelink\source/socket.c **** int sl_SetSockOpt(int sd, int level, int optname, const void *optval, SlSocklen_t optlen)
 894:..\..\..\..\..\simplelink\source/socket.c **** {
 2657              		.loc 1 894 0
 2658              		.cfi_startproc
 2659 0000 80B5     		push	{r7, lr}
 2660              	.LCFI51:
 2661              		.cfi_def_cfa_offset 8
 2662              		.cfi_offset 7, -8
 2663              		.cfi_offset 14, -4
 2664 0002 8AB0     		sub	sp, sp, #40
 2665              	.LCFI52:
 2666              		.cfi_def_cfa_offset 48
 2667 0004 00AF     		add	r7, sp, #0
 2668              	.LCFI53:
 2669              		.cfi_def_cfa_register 7
 2670 0006 F860     		str	r0, [r7, #12]
 2671 0008 B960     		str	r1, [r7, #8]
 2672 000a 7A60     		str	r2, [r7, #4]
 2673 000c 3B60     		str	r3, [r7]
 895:..\..\..\..\..\simplelink\source/socket.c ****     _SlSetSockOptMsg_u    Msg;
 896:..\..\..\..\..\simplelink\source/socket.c ****     _SlCmdExt_t           CmdExt;
 897:..\..\..\..\..\simplelink\source/socket.c **** 
 898:..\..\..\..\..\simplelink\source/socket.c ****     CmdExt.TxPayloadLen = optlen;
 2674              		.loc 1 898 0
 2675 000e 3B6B     		ldr	r3, [r7, #48]
 2676 0010 9AB2     		uxth	r2, r3
 2677 0012 3B1C     		mov	r3, r7
 2678 0014 1033     		add	r3, r3, #16
 2679 0016 1A80     		strh	r2, [r3]
 899:..\..\..\..\..\simplelink\source/socket.c ****     CmdExt.RxPayloadLen = 0;
 2680              		.loc 1 899 0
 2681 0018 3B1C     		mov	r3, r7
 2682 001a 1033     		add	r3, r3, #16
 2683 001c 0022     		mov	r2, #0
 2684 001e 5A80     		strh	r2, [r3, #2]
 900:..\..\..\..\..\simplelink\source/socket.c ****     CmdExt.pTxPayload = (UINT8 *)optval;
 2685              		.loc 1 900 0
 2686 0020 3B1C     		mov	r3, r7
 2687 0022 1033     		add	r3, r3, #16
 2688 0024 3A68     		ldr	r2, [r7]
 2689 0026 9A60     		str	r2, [r3, #8]
ARM GAS  C:\Users\X0217454\AppData\Local\Temp\cc5FLHAl.s 			page 64


 901:..\..\..\..\..\simplelink\source/socket.c ****     CmdExt.pRxPayload = NULL;
 2690              		.loc 1 901 0
 2691 0028 3B1C     		mov	r3, r7
 2692 002a 1033     		add	r3, r3, #16
 2693 002c 0022     		mov	r2, #0
 2694 002e DA60     		str	r2, [r3, #12]
 902:..\..\..\..\..\simplelink\source/socket.c **** 
 903:..\..\..\..\..\simplelink\source/socket.c ****     Msg.Cmd.sd = sd;
 2695              		.loc 1 903 0
 2696 0030 FB68     		ldr	r3, [r7, #12]
 2697 0032 DAB2     		uxtb	r2, r3
 2698 0034 3B1C     		mov	r3, r7
 2699 0036 2033     		add	r3, r3, #32
 2700 0038 1A70     		strb	r2, [r3]
 904:..\..\..\..\..\simplelink\source/socket.c ****     Msg.Cmd.level = level;
 2701              		.loc 1 904 0
 2702 003a BB68     		ldr	r3, [r7, #8]
 2703 003c DAB2     		uxtb	r2, r3
 2704 003e 3B1C     		mov	r3, r7
 2705 0040 2033     		add	r3, r3, #32
 2706 0042 5A70     		strb	r2, [r3, #1]
 905:..\..\..\..\..\simplelink\source/socket.c ****     Msg.Cmd.optionLen = optlen;
 2707              		.loc 1 905 0
 2708 0044 3B6B     		ldr	r3, [r7, #48]
 2709 0046 DAB2     		uxtb	r2, r3
 2710 0048 3B1C     		mov	r3, r7
 2711 004a 2033     		add	r3, r3, #32
 2712 004c DA70     		strb	r2, [r3, #3]
 906:..\..\..\..\..\simplelink\source/socket.c ****     Msg.Cmd.optionName = optname;
 2713              		.loc 1 906 0
 2714 004e 7B68     		ldr	r3, [r7, #4]
 2715 0050 DAB2     		uxtb	r2, r3
 2716 0052 3B1C     		mov	r3, r7
 2717 0054 2033     		add	r3, r3, #32
 2718 0056 9A70     		strb	r2, [r3, #2]
 2719              	.LBB20:
 907:..\..\..\..\..\simplelink\source/socket.c **** 
 908:..\..\..\..\..\simplelink\source/socket.c ****     VERIFY_RET_OK(_SlDrvCmdOp((_SlCmdCtrl_t *)&_SlSetSockOptCmdCtrl, &Msg, &CmdExt));
 2720              		.loc 1 908 0
 2721 0058 0B49     		ldr	r1, .L190
 2722 005a 3A1C     		mov	r2, r7
 2723 005c 2032     		add	r2, r2, #32
 2724 005e 3B1C     		mov	r3, r7
 2725 0060 1033     		add	r3, r3, #16
 2726 0062 081C     		mov	r0, r1
 2727 0064 111C     		mov	r1, r2
 2728 0066 1A1C     		mov	r2, r3
 2729 0068 FFF7FEFF 		bl	_SlDrvCmdOp
 2730 006c 031C     		mov	r3, r0
 2731 006e 7B62     		str	r3, [r7, #36]
 2732 0070 7B6A     		ldr	r3, [r7, #36]
 2733 0072 002B     		cmp	r3, #0
 2734 0074 00D0     		beq	.L187
 2735              	.L188:
 2736              		.loc 1 908 0 is_stmt 0 discriminator 1
 2737 0076 FEE7     		b	.L188
 2738              	.L187:
ARM GAS  C:\Users\X0217454\AppData\Local\Temp\cc5FLHAl.s 			page 65


 2739              	.LBE20:
 909:..\..\..\..\..\simplelink\source/socket.c **** 
 910:..\..\..\..\..\simplelink\source/socket.c ****     return (int)Msg.Rsp.statusOrLen;
 2740              		.loc 1 910 0 is_stmt 1
 2741 0078 3B1C     		mov	r3, r7
 2742 007a 2033     		add	r3, r3, #32
 2743 007c 1B88     		ldrh	r3, [r3]
 2744 007e 1BB2     		sxth	r3, r3
 911:..\..\..\..\..\simplelink\source/socket.c **** }
 2745              		.loc 1 911 0
 2746 0080 181C     		mov	r0, r3
 2747 0082 BD46     		mov	sp, r7
 2748 0084 0AB0     		add	sp, sp, #40
 2749              		@ sp needed for prologue
 2750 0086 80BD     		pop	{r7, pc}
 2751              	.L191:
 2752              		.align	2
 2753              	.L190:
 2754 0088 00000000 		.word	_SlSetSockOptCmdCtrl
 2755              		.cfi_endproc
 2756              	.LFE17:
 2757              		.size	sl_SetSockOpt, .-sl_SetSockOpt
 2758              		.global	_SlGetSockOptCmdCtrl
 2759              		.section	.rodata
 2760              		.align	2
 2761              		.type	_SlGetSockOptCmdCtrl, %object
 2762              		.size	_SlGetSockOptCmdCtrl, 4
 2763              	_SlGetSockOptCmdCtrl:
 2764 0020 0994     		.short	-27639
 2765 0022 04       		.byte	4
 2766 0023 04       		.byte	4
 2767              		.section	.text.sl_GetSockOpt,"ax",%progbits
 2768              		.align	2
 2769              		.global	sl_GetSockOpt
 2770              		.code	16
 2771              		.thumb_func
 2772              		.type	sl_GetSockOpt, %function
 2773              	sl_GetSockOpt:
 2774              	.LFB18:
 912:..\..\..\..\..\simplelink\source/socket.c **** #endif
 913:..\..\..\..\..\simplelink\source/socket.c **** 
 914:..\..\..\..\..\simplelink\source/socket.c **** /*******************************************************************************/
 915:..\..\..\..\..\simplelink\source/socket.c **** /*  sl_GetSockOpt */
 916:..\..\..\..\..\simplelink\source/socket.c **** /*******************************************************************************/
 917:..\..\..\..\..\simplelink\source/socket.c **** typedef union
 918:..\..\..\..\..\simplelink\source/socket.c **** {
 919:..\..\..\..\..\simplelink\source/socket.c **** 	_getSockOptCommand_t    Cmd;
 920:..\..\..\..\..\simplelink\source/socket.c **** 	_getSockOptResponse_t   Rsp;    
 921:..\..\..\..\..\simplelink\source/socket.c **** }_SlGetSockOptMsg_u;
 922:..\..\..\..\..\simplelink\source/socket.c **** 
 923:..\..\..\..\..\simplelink\source/socket.c **** const _SlCmdCtrl_t _SlGetSockOptCmdCtrl =
 924:..\..\..\..\..\simplelink\source/socket.c **** {
 925:..\..\..\..\..\simplelink\source/socket.c ****     SL_OPCODE_SOCKET_GETSOCKOPT,
 926:..\..\..\..\..\simplelink\source/socket.c ****     sizeof(_getSockOptCommand_t),
 927:..\..\..\..\..\simplelink\source/socket.c ****     sizeof(_getSockOptResponse_t)
 928:..\..\..\..\..\simplelink\source/socket.c **** };
 929:..\..\..\..\..\simplelink\source/socket.c **** 
ARM GAS  C:\Users\X0217454\AppData\Local\Temp\cc5FLHAl.s 			page 66


 930:..\..\..\..\..\simplelink\source/socket.c **** #if _SL_INCLUDE_FUNC(sl_GetSockOpt)
 931:..\..\..\..\..\simplelink\source/socket.c **** int sl_GetSockOpt(int sd, int level, int optname, void *optval, SlSocklen_t *optlen)
 932:..\..\..\..\..\simplelink\source/socket.c **** {
 2775              		.loc 1 932 0
 2776              		.cfi_startproc
 2777 0000 80B5     		push	{r7, lr}
 2778              	.LCFI54:
 2779              		.cfi_def_cfa_offset 8
 2780              		.cfi_offset 7, -8
 2781              		.cfi_offset 14, -4
 2782 0002 8AB0     		sub	sp, sp, #40
 2783              	.LCFI55:
 2784              		.cfi_def_cfa_offset 48
 2785 0004 00AF     		add	r7, sp, #0
 2786              	.LCFI56:
 2787              		.cfi_def_cfa_register 7
 2788 0006 F860     		str	r0, [r7, #12]
 2789 0008 B960     		str	r1, [r7, #8]
 2790 000a 7A60     		str	r2, [r7, #4]
 2791 000c 3B60     		str	r3, [r7]
 933:..\..\..\..\..\simplelink\source/socket.c ****     _SlGetSockOptMsg_u    Msg;
 934:..\..\..\..\..\simplelink\source/socket.c ****     _SlCmdExt_t           CmdExt;
 935:..\..\..\..\..\simplelink\source/socket.c **** 
 936:..\..\..\..\..\simplelink\source/socket.c **** 	if (*optlen == 0)
 2792              		.loc 1 936 0
 2793 000e 3B6B     		ldr	r3, [r7, #48]
 2794 0010 1B68     		ldr	r3, [r3]
 2795 0012 002B     		cmp	r3, #0
 2796 0014 01D1     		bne	.L193
 937:..\..\..\..\..\simplelink\source/socket.c **** 	{
 938:..\..\..\..\..\simplelink\source/socket.c **** 		return SL_EZEROLEN;
 2797              		.loc 1 938 0
 2798 0016 2E4B     		ldr	r3, .L199
 2799 0018 55E0     		b	.L198
 2800              	.L193:
 939:..\..\..\..\..\simplelink\source/socket.c **** 	}
 940:..\..\..\..\..\simplelink\source/socket.c ****     CmdExt.TxPayloadLen = 0;
 2801              		.loc 1 940 0
 2802 001a 3B1C     		mov	r3, r7
 2803 001c 1033     		add	r3, r3, #16
 2804 001e 0022     		mov	r2, #0
 2805 0020 1A80     		strh	r2, [r3]
 941:..\..\..\..\..\simplelink\source/socket.c ****     CmdExt.RxPayloadLen = *optlen;
 2806              		.loc 1 941 0
 2807 0022 3B6B     		ldr	r3, [r7, #48]
 2808 0024 1B68     		ldr	r3, [r3]
 2809 0026 9AB2     		uxth	r2, r3
 2810 0028 3B1C     		mov	r3, r7
 2811 002a 1033     		add	r3, r3, #16
 2812 002c 5A80     		strh	r2, [r3, #2]
 942:..\..\..\..\..\simplelink\source/socket.c ****     CmdExt.pTxPayload = NULL;
 2813              		.loc 1 942 0
 2814 002e 3B1C     		mov	r3, r7
 2815 0030 1033     		add	r3, r3, #16
 2816 0032 0022     		mov	r2, #0
 2817 0034 9A60     		str	r2, [r3, #8]
 943:..\..\..\..\..\simplelink\source/socket.c ****     CmdExt.pRxPayload = optval;
ARM GAS  C:\Users\X0217454\AppData\Local\Temp\cc5FLHAl.s 			page 67


 2818              		.loc 1 943 0
 2819 0036 3B1C     		mov	r3, r7
 2820 0038 1033     		add	r3, r3, #16
 2821 003a 3A68     		ldr	r2, [r7]
 2822 003c DA60     		str	r2, [r3, #12]
 944:..\..\..\..\..\simplelink\source/socket.c **** 	CmdExt.ActualRxPayloadLen = 0;
 2823              		.loc 1 944 0
 2824 003e 3B1C     		mov	r3, r7
 2825 0040 1033     		add	r3, r3, #16
 2826 0042 0022     		mov	r2, #0
 2827 0044 9A80     		strh	r2, [r3, #4]
 945:..\..\..\..\..\simplelink\source/socket.c **** 
 946:..\..\..\..\..\simplelink\source/socket.c ****     Msg.Cmd.sd = sd;
 2828              		.loc 1 946 0
 2829 0046 FB68     		ldr	r3, [r7, #12]
 2830 0048 DAB2     		uxtb	r2, r3
 2831 004a 3B1C     		mov	r3, r7
 2832 004c 2033     		add	r3, r3, #32
 2833 004e 1A70     		strb	r2, [r3]
 947:..\..\..\..\..\simplelink\source/socket.c ****     Msg.Cmd.level = level;
 2834              		.loc 1 947 0
 2835 0050 BB68     		ldr	r3, [r7, #8]
 2836 0052 DAB2     		uxtb	r2, r3
 2837 0054 3B1C     		mov	r3, r7
 2838 0056 2033     		add	r3, r3, #32
 2839 0058 5A70     		strb	r2, [r3, #1]
 948:..\..\..\..\..\simplelink\source/socket.c ****     Msg.Cmd.optionLen = *optlen;
 2840              		.loc 1 948 0
 2841 005a 3B6B     		ldr	r3, [r7, #48]
 2842 005c 1B68     		ldr	r3, [r3]
 2843 005e DAB2     		uxtb	r2, r3
 2844 0060 3B1C     		mov	r3, r7
 2845 0062 2033     		add	r3, r3, #32
 2846 0064 DA70     		strb	r2, [r3, #3]
 949:..\..\..\..\..\simplelink\source/socket.c ****     Msg.Cmd.optionName = optname;
 2847              		.loc 1 949 0
 2848 0066 7B68     		ldr	r3, [r7, #4]
 2849 0068 DAB2     		uxtb	r2, r3
 2850 006a 3B1C     		mov	r3, r7
 2851 006c 2033     		add	r3, r3, #32
 2852 006e 9A70     		strb	r2, [r3, #2]
 2853              	.LBB21:
 950:..\..\..\..\..\simplelink\source/socket.c **** 
 951:..\..\..\..\..\simplelink\source/socket.c ****     VERIFY_RET_OK(_SlDrvCmdOp((_SlCmdCtrl_t *)&_SlGetSockOptCmdCtrl, &Msg, &CmdExt));
 2854              		.loc 1 951 0
 2855 0070 1849     		ldr	r1, .L199+4
 2856 0072 3A1C     		mov	r2, r7
 2857 0074 2032     		add	r2, r2, #32
 2858 0076 3B1C     		mov	r3, r7
 2859 0078 1033     		add	r3, r3, #16
 2860 007a 081C     		mov	r0, r1
 2861 007c 111C     		mov	r1, r2
 2862 007e 1A1C     		mov	r2, r3
 2863 0080 FFF7FEFF 		bl	_SlDrvCmdOp
 2864 0084 031C     		mov	r3, r0
 2865 0086 7B62     		str	r3, [r7, #36]
 2866 0088 7B6A     		ldr	r3, [r7, #36]
ARM GAS  C:\Users\X0217454\AppData\Local\Temp\cc5FLHAl.s 			page 68


 2867 008a 002B     		cmp	r3, #0
 2868 008c 00D0     		beq	.L195
 2869              	.L196:
 2870              		.loc 1 951 0 is_stmt 0 discriminator 1
 2871 008e FEE7     		b	.L196
 2872              	.L195:
 2873              	.LBE21:
 952:..\..\..\..\..\simplelink\source/socket.c **** 
 953:..\..\..\..\..\simplelink\source/socket.c **** 	if (CmdExt.RxPayloadLen < CmdExt.ActualRxPayloadLen) 
 2874              		.loc 1 953 0 is_stmt 1
 2875 0090 3B1C     		mov	r3, r7
 2876 0092 1033     		add	r3, r3, #16
 2877 0094 5A88     		ldrh	r2, [r3, #2]
 2878 0096 3B1C     		mov	r3, r7
 2879 0098 1033     		add	r3, r3, #16
 2880 009a 9B88     		ldrh	r3, [r3, #4]
 2881 009c 9A42     		cmp	r2, r3
 2882 009e 07D2     		bcs	.L197
 954:..\..\..\..\..\simplelink\source/socket.c **** 	{
 955:..\..\..\..\..\simplelink\source/socket.c **** 	    *optlen = Msg.Rsp.optionLen;
 2883              		.loc 1 955 0
 2884 00a0 3B1C     		mov	r3, r7
 2885 00a2 2033     		add	r3, r3, #32
 2886 00a4 DB78     		ldrb	r3, [r3, #3]
 2887 00a6 1A1C     		mov	r2, r3
 2888 00a8 3B6B     		ldr	r3, [r7, #48]
 2889 00aa 1A60     		str	r2, [r3]
 956:..\..\..\..\..\simplelink\source/socket.c **** 	   return SL_ESMALLBUF;
 2890              		.loc 1 956 0
 2891 00ac 0A4B     		ldr	r3, .L199+8
 2892 00ae 0AE0     		b	.L198
 2893              	.L197:
 957:..\..\..\..\..\simplelink\source/socket.c **** 	}
 958:..\..\..\..\..\simplelink\source/socket.c **** 	else
 959:..\..\..\..\..\simplelink\source/socket.c **** 	{
 960:..\..\..\..\..\simplelink\source/socket.c **** 		*optlen = (UINT8)CmdExt.ActualRxPayloadLen;
 2894              		.loc 1 960 0
 2895 00b0 3B1C     		mov	r3, r7
 2896 00b2 1033     		add	r3, r3, #16
 2897 00b4 9B88     		ldrh	r3, [r3, #4]
 2898 00b6 DBB2     		uxtb	r3, r3
 2899 00b8 1A1C     		mov	r2, r3
 2900 00ba 3B6B     		ldr	r3, [r7, #48]
 2901 00bc 1A60     		str	r2, [r3]
 961:..\..\..\..\..\simplelink\source/socket.c **** 	}
 962:..\..\..\..\..\simplelink\source/socket.c ****     return (int)Msg.Rsp.status;
 2902              		.loc 1 962 0
 2903 00be 3B1C     		mov	r3, r7
 2904 00c0 2033     		add	r3, r3, #32
 2905 00c2 1B88     		ldrh	r3, [r3]
 2906 00c4 1BB2     		sxth	r3, r3
 2907              	.L198:
 963:..\..\..\..\..\simplelink\source/socket.c **** }
 2908              		.loc 1 963 0
 2909 00c6 181C     		mov	r0, r3
 2910 00c8 BD46     		mov	sp, r7
 2911 00ca 0AB0     		add	sp, sp, #40
ARM GAS  C:\Users\X0217454\AppData\Local\Temp\cc5FLHAl.s 			page 69


 2912              		@ sp needed for prologue
 2913 00cc 80BD     		pop	{r7, pc}
 2914              	.L200:
 2915 00ce C046     		.align	2
 2916              	.L199:
 2917 00d0 2EF8FFFF 		.word	-2002
 2918 00d4 00000000 		.word	_SlGetSockOptCmdCtrl
 2919 00d8 2FF8FFFF 		.word	-2001
 2920              		.cfi_endproc
 2921              	.LFE18:
 2922              		.size	sl_GetSockOpt, .-sl_GetSockOpt
 2923              		.global	_SlSelectCmdCtrl
 2924              		.section	.rodata
 2925              		.align	2
 2926              		.type	_SlSelectCmdCtrl, %object
 2927              		.size	_SlSelectCmdCtrl, 4
 2928              	_SlSelectCmdCtrl:
 2929 0024 0794     		.short	-27641
 2930 0026 0C       		.byte	12
 2931 0027 04       		.byte	4
 2932              		.section	.text.sl_Select,"ax",%progbits
 2933              		.align	2
 2934              		.global	sl_Select
 2935              		.code	16
 2936              		.thumb_func
 2937              		.type	sl_Select, %function
 2938              	sl_Select:
 2939              	.LFB19:
 964:..\..\..\..\..\simplelink\source/socket.c **** #endif
 965:..\..\..\..\..\simplelink\source/socket.c **** 
 966:..\..\..\..\..\simplelink\source/socket.c **** /*******************************************************************************/
 967:..\..\..\..\..\simplelink\source/socket.c **** /*  sl_Select */
 968:..\..\..\..\..\simplelink\source/socket.c **** /* ******************************************************************************/
 969:..\..\..\..\..\simplelink\source/socket.c **** typedef union
 970:..\..\..\..\..\simplelink\source/socket.c **** {
 971:..\..\..\..\..\simplelink\source/socket.c **** 	_SelectCommand_t   Cmd;
 972:..\..\..\..\..\simplelink\source/socket.c **** 	_BasicResponse_t   Rsp;    
 973:..\..\..\..\..\simplelink\source/socket.c **** }_SlSelectMsg_u;
 974:..\..\..\..\..\simplelink\source/socket.c **** 
 975:..\..\..\..\..\simplelink\source/socket.c **** const _SlCmdCtrl_t _SlSelectCmdCtrl =
 976:..\..\..\..\..\simplelink\source/socket.c **** {
 977:..\..\..\..\..\simplelink\source/socket.c ****     SL_OPCODE_SOCKET_SELECT,
 978:..\..\..\..\..\simplelink\source/socket.c ****     sizeof(_SelectCommand_t),
 979:..\..\..\..\..\simplelink\source/socket.c ****     sizeof(_BasicResponse_t)
 980:..\..\..\..\..\simplelink\source/socket.c **** };
 981:..\..\..\..\..\simplelink\source/socket.c **** 
 982:..\..\..\..\..\simplelink\source/socket.c **** #if _SL_INCLUDE_FUNC(sl_Select)
 983:..\..\..\..\..\simplelink\source/socket.c **** int sl_Select(int nfds, SlFdSet_t *readsds, SlFdSet_t *writesds, SlFdSet_t *exceptsds, struct SlTim
 984:..\..\..\..\..\simplelink\source/socket.c **** {
 2940              		.loc 1 984 0
 2941              		.cfi_startproc
 2942 0000 80B5     		push	{r7, lr}
 2943              	.LCFI57:
 2944              		.cfi_def_cfa_offset 8
 2945              		.cfi_offset 7, -8
 2946              		.cfi_offset 14, -4
 2947 0002 8EB0     		sub	sp, sp, #56
ARM GAS  C:\Users\X0217454\AppData\Local\Temp\cc5FLHAl.s 			page 70


 2948              	.LCFI58:
 2949              		.cfi_def_cfa_offset 64
 2950 0004 00AF     		add	r7, sp, #0
 2951              	.LCFI59:
 2952              		.cfi_def_cfa_register 7
 2953 0006 F860     		str	r0, [r7, #12]
 2954 0008 B960     		str	r1, [r7, #8]
 2955 000a 7A60     		str	r2, [r7, #4]
 2956 000c 3B60     		str	r3, [r7]
 985:..\..\..\..\..\simplelink\source/socket.c ****     _SlSelectMsg_u          Msg;
 986:..\..\..\..\..\simplelink\source/socket.c ****     _SelectAsyncResponse_t  AsyncRsp;
 987:..\..\..\..\..\simplelink\source/socket.c **** 	UINT8 pObjIdx = MAX_CONCURRENT_ACTIONS;
 2957              		.loc 1 987 0
 2958 000e 3B1C     		mov	r3, r7
 2959 0010 3733     		add	r3, r3, #55
 2960 0012 0A22     		mov	r2, #10
 2961 0014 1A70     		strb	r2, [r3]
 988:..\..\..\..\..\simplelink\source/socket.c **** 
 989:..\..\..\..\..\simplelink\source/socket.c ****     Msg.Cmd.nfds          = nfds;
 2962              		.loc 1 989 0
 2963 0016 FB68     		ldr	r3, [r7, #12]
 2964 0018 DAB2     		uxtb	r2, r3
 2965 001a 3B1C     		mov	r3, r7
 2966 001c 1833     		add	r3, r3, #24
 2967 001e 1A70     		strb	r2, [r3]
 990:..\..\..\..\..\simplelink\source/socket.c ****     Msg.Cmd.readFdsCount  = 0;
 2968              		.loc 1 990 0
 2969 0020 3B1C     		mov	r3, r7
 2970 0022 1833     		add	r3, r3, #24
 2971 0024 0022     		mov	r2, #0
 2972 0026 5A70     		strb	r2, [r3, #1]
 991:..\..\..\..\..\simplelink\source/socket.c ****     Msg.Cmd.writeFdsCount = 0;
 2973              		.loc 1 991 0
 2974 0028 3B1C     		mov	r3, r7
 2975 002a 1833     		add	r3, r3, #24
 2976 002c 0022     		mov	r2, #0
 2977 002e 9A70     		strb	r2, [r3, #2]
 992:..\..\..\..\..\simplelink\source/socket.c ****     
 993:..\..\..\..\..\simplelink\source/socket.c ****     Msg.Cmd.readFds = 0;
 2978              		.loc 1 993 0
 2979 0030 3B1C     		mov	r3, r7
 2980 0032 1833     		add	r3, r3, #24
 2981 0034 0022     		mov	r2, #0
 2982 0036 9A80     		strh	r2, [r3, #4]
 994:..\..\..\..\..\simplelink\source/socket.c ****     Msg.Cmd.writeFds = 0; 
 2983              		.loc 1 994 0
 2984 0038 3B1C     		mov	r3, r7
 2985 003a 1833     		add	r3, r3, #24
 2986 003c 0022     		mov	r2, #0
 2987 003e DA80     		strh	r2, [r3, #6]
 995:..\..\..\..\..\simplelink\source/socket.c ****     
 996:..\..\..\..\..\simplelink\source/socket.c ****     if( readsds )
 2988              		.loc 1 996 0
 2989 0040 BB68     		ldr	r3, [r7, #8]
 2990 0042 002B     		cmp	r3, #0
 2991 0044 05D0     		beq	.L202
 997:..\..\..\..\..\simplelink\source/socket.c ****     {
ARM GAS  C:\Users\X0217454\AppData\Local\Temp\cc5FLHAl.s 			page 71


 998:..\..\..\..\..\simplelink\source/socket.c ****        Msg.Cmd.readFds       = (UINT16)readsds->fd_array[0];  
 2992              		.loc 1 998 0
 2993 0046 BB68     		ldr	r3, [r7, #8]
 2994 0048 1B68     		ldr	r3, [r3]
 2995 004a 9AB2     		uxth	r2, r3
 2996 004c 3B1C     		mov	r3, r7
 2997 004e 1833     		add	r3, r3, #24
 2998 0050 9A80     		strh	r2, [r3, #4]
 2999              	.L202:
 999:..\..\..\..\..\simplelink\source/socket.c ****     }
1000:..\..\..\..\..\simplelink\source/socket.c ****     if( writesds )
 3000              		.loc 1 1000 0
 3001 0052 7B68     		ldr	r3, [r7, #4]
 3002 0054 002B     		cmp	r3, #0
 3003 0056 05D0     		beq	.L203
1001:..\..\..\..\..\simplelink\source/socket.c ****     {
1002:..\..\..\..\..\simplelink\source/socket.c ****        Msg.Cmd.writeFds      = (UINT16)writesds->fd_array[0]; 
 3004              		.loc 1 1002 0
 3005 0058 7B68     		ldr	r3, [r7, #4]
 3006 005a 1B68     		ldr	r3, [r3]
 3007 005c 9AB2     		uxth	r2, r3
 3008 005e 3B1C     		mov	r3, r7
 3009 0060 1833     		add	r3, r3, #24
 3010 0062 DA80     		strh	r2, [r3, #6]
 3011              	.L203:
1003:..\..\..\..\..\simplelink\source/socket.c ****     }
1004:..\..\..\..\..\simplelink\source/socket.c **** 	if( NULL == timeout )
 3012              		.loc 1 1004 0
 3013 0064 3B6C     		ldr	r3, [r7, #64]
 3014 0066 002B     		cmp	r3, #0
 3015 0068 0AD1     		bne	.L204
1005:..\..\..\..\..\simplelink\source/socket.c **** 	{
1006:..\..\..\..\..\simplelink\source/socket.c **** 		Msg.Cmd.tv_sec = 0xffff;
 3016              		.loc 1 1006 0
 3017 006a 3B1C     		mov	r3, r7
 3018 006c 1833     		add	r3, r3, #24
 3019 006e 0122     		mov	r2, #1
 3020 0070 5242     		neg	r2, r2
 3021 0072 5A81     		strh	r2, [r3, #10]
1007:..\..\..\..\..\simplelink\source/socket.c **** 		Msg.Cmd.tv_usec = 0xffff;
 3022              		.loc 1 1007 0
 3023 0074 3B1C     		mov	r3, r7
 3024 0076 1833     		add	r3, r3, #24
 3025 0078 0122     		mov	r2, #1
 3026 007a 5242     		neg	r2, r2
 3027 007c 1A81     		strh	r2, [r3, #8]
 3028 007e 26E0     		b	.L205
 3029              	.L204:
1008:..\..\..\..\..\simplelink\source/socket.c **** 	}
1009:..\..\..\..\..\simplelink\source/socket.c **** 	else
1010:..\..\..\..\..\simplelink\source/socket.c **** 	{
1011:..\..\..\..\..\simplelink\source/socket.c **** 		if( 0xffff <= timeout->tv_sec )	
 3030              		.loc 1 1011 0
 3031 0080 3B6C     		ldr	r3, [r7, #64]
 3032 0082 1A68     		ldr	r2, [r3]
 3033 0084 5A4B     		ldr	r3, .L222
 3034 0086 9A42     		cmp	r2, r3
ARM GAS  C:\Users\X0217454\AppData\Local\Temp\cc5FLHAl.s 			page 72


 3035 0088 05D9     		bls	.L206
1012:..\..\..\..\..\simplelink\source/socket.c **** 		{
1013:..\..\..\..\..\simplelink\source/socket.c **** 			Msg.Cmd.tv_sec = 0xffff;
 3036              		.loc 1 1013 0
 3037 008a 3B1C     		mov	r3, r7
 3038 008c 1833     		add	r3, r3, #24
 3039 008e 0122     		mov	r2, #1
 3040 0090 5242     		neg	r2, r2
 3041 0092 5A81     		strh	r2, [r3, #10]
 3042 0094 05E0     		b	.L207
 3043              	.L206:
1014:..\..\..\..\..\simplelink\source/socket.c **** 		}
1015:..\..\..\..\..\simplelink\source/socket.c **** 		else
1016:..\..\..\..\..\simplelink\source/socket.c **** 		{
1017:..\..\..\..\..\simplelink\source/socket.c **** 			Msg.Cmd.tv_sec = (UINT16)timeout->tv_sec;
 3044              		.loc 1 1017 0
 3045 0096 3B6C     		ldr	r3, [r7, #64]
 3046 0098 1B68     		ldr	r3, [r3]
 3047 009a 9AB2     		uxth	r2, r3
 3048 009c 3B1C     		mov	r3, r7
 3049 009e 1833     		add	r3, r3, #24
 3050 00a0 5A81     		strh	r2, [r3, #10]
 3051              	.L207:
1018:..\..\..\..\..\simplelink\source/socket.c **** 		}
1019:..\..\..\..\..\simplelink\source/socket.c **** 		timeout->tv_usec = timeout->tv_usec >> 10;  /*  convert to milliseconds */
 3052              		.loc 1 1019 0
 3053 00a2 3B6C     		ldr	r3, [r7, #64]
 3054 00a4 5B68     		ldr	r3, [r3, #4]
 3055 00a6 9A0A     		lsr	r2, r3, #10
 3056 00a8 3B6C     		ldr	r3, [r7, #64]
 3057 00aa 5A60     		str	r2, [r3, #4]
1020:..\..\..\..\..\simplelink\source/socket.c **** 		if( 0xffff <= timeout->tv_usec )	
 3058              		.loc 1 1020 0
 3059 00ac 3B6C     		ldr	r3, [r7, #64]
 3060 00ae 5A68     		ldr	r2, [r3, #4]
 3061 00b0 4F4B     		ldr	r3, .L222
 3062 00b2 9A42     		cmp	r2, r3
 3063 00b4 05D9     		bls	.L208
1021:..\..\..\..\..\simplelink\source/socket.c **** 		{
1022:..\..\..\..\..\simplelink\source/socket.c **** 			Msg.Cmd.tv_usec = 0xffff;
 3064              		.loc 1 1022 0
 3065 00b6 3B1C     		mov	r3, r7
 3066 00b8 1833     		add	r3, r3, #24
 3067 00ba 0122     		mov	r2, #1
 3068 00bc 5242     		neg	r2, r2
 3069 00be 1A81     		strh	r2, [r3, #8]
 3070 00c0 05E0     		b	.L205
 3071              	.L208:
1023:..\..\..\..\..\simplelink\source/socket.c **** 		}
1024:..\..\..\..\..\simplelink\source/socket.c **** 		else
1025:..\..\..\..\..\simplelink\source/socket.c **** 		{
1026:..\..\..\..\..\simplelink\source/socket.c **** 			Msg.Cmd.tv_usec = (UINT16)timeout->tv_usec;
 3072              		.loc 1 1026 0
 3073 00c2 3B6C     		ldr	r3, [r7, #64]
 3074 00c4 5B68     		ldr	r3, [r3, #4]
 3075 00c6 9AB2     		uxth	r2, r3
 3076 00c8 3B1C     		mov	r3, r7
ARM GAS  C:\Users\X0217454\AppData\Local\Temp\cc5FLHAl.s 			page 73


 3077 00ca 1833     		add	r3, r3, #24
 3078 00cc 1A81     		strh	r2, [r3, #8]
 3079              	.L205:
1027:..\..\..\..\..\simplelink\source/socket.c **** 		}
1028:..\..\..\..\..\simplelink\source/socket.c **** 	}
1029:..\..\..\..\..\simplelink\source/socket.c **** 
1030:..\..\..\..\..\simplelink\source/socket.c **** 	/* Use Obj to issue the command, if not available try later */
1031:..\..\..\..\..\simplelink\source/socket.c **** 	pObjIdx = _SlDrvWaitForPoolObj(SELECT_ID, SL_MAX_SOCKETS);
 3080              		.loc 1 1031 0
 3081 00ce 0A20     		mov	r0, #10
 3082 00d0 0821     		mov	r1, #8
 3083 00d2 FFF7FEFF 		bl	_SlDrvWaitForPoolObj
 3084 00d6 021C     		mov	r2, r0
 3085 00d8 3B1C     		mov	r3, r7
 3086 00da 3733     		add	r3, r3, #55
 3087 00dc 1A70     		strb	r2, [r3]
1032:..\..\..\..\..\simplelink\source/socket.c **** 
1033:..\..\..\..\..\simplelink\source/socket.c **** 	if (MAX_CONCURRENT_ACTIONS == pObjIdx)
 3088              		.loc 1 1033 0
 3089 00de 3B1C     		mov	r3, r7
 3090 00e0 3733     		add	r3, r3, #55
 3091 00e2 1B78     		ldrb	r3, [r3]
 3092 00e4 0A2B     		cmp	r3, #10
 3093 00e6 01D1     		bne	.L209
1034:..\..\..\..\..\simplelink\source/socket.c **** 	{
1035:..\..\..\..\..\simplelink\source/socket.c **** 		return SL_POOL_IS_EMPTY;
 3094              		.loc 1 1035 0
 3095 00e8 424B     		ldr	r3, .L222+4
 3096 00ea 7CE0     		b	.L221
 3097              	.L209:
 3098              	.LBB22:
1036:..\..\..\..\..\simplelink\source/socket.c **** 	}
1037:..\..\..\..\..\simplelink\source/socket.c **** 	OSI_RET_OK_CHECK(sl_LockObjLock(&g_pCB->ProtectionLockObj, SL_OS_WAIT_FOREVER));
 3099              		.loc 1 1037 0
 3100 00ec 424B     		ldr	r3, .L222+8
 3101 00ee 1B68     		ldr	r3, [r3]
 3102 00f0 9033     		add	r3, r3, #144
 3103 00f2 181C     		mov	r0, r3
 3104 00f4 3321     		mov	r1, #51
 3105 00f6 4422     		mov	r2, #68
 3106 00f8 FF23     		mov	r3, #255
 3107 00fa FFF7FEFF 		bl	_SlNonOsSemGet
 3108 00fe 031C     		mov	r3, r0
 3109 0100 3B63     		str	r3, [r7, #48]
 3110 0102 3B6B     		ldr	r3, [r7, #48]
 3111 0104 002B     		cmp	r3, #0
 3112 0106 00D0     		beq	.L211
 3113              	.L212:
 3114              		.loc 1 1037 0 is_stmt 0 discriminator 1
 3115 0108 FEE7     		b	.L212
 3116              	.L211:
 3117              	.LBE22:
1038:..\..\..\..\..\simplelink\source/socket.c **** 
1039:..\..\..\..\..\simplelink\source/socket.c **** 	g_pCB->ObjPool[pObjIdx].pRespArgs =  (UINT8 *)&AsyncRsp;
 3118              		.loc 1 1039 0 is_stmt 1
 3119 010a 3B4B     		ldr	r3, .L222+8
 3120 010c 1968     		ldr	r1, [r3]
ARM GAS  C:\Users\X0217454\AppData\Local\Temp\cc5FLHAl.s 			page 74


 3121 010e 3B1C     		mov	r3, r7
 3122 0110 3733     		add	r3, r3, #55
 3123 0112 1A78     		ldrb	r2, [r3]
 3124 0114 131C     		mov	r3, r2
 3125 0116 5B00     		lsl	r3, r3, #1
 3126 0118 9B18     		add	r3, r3, r2
 3127 011a 9B00     		lsl	r3, r3, #2
 3128 011c CB18     		add	r3, r1, r3
 3129 011e 1433     		add	r3, r3, #20
 3130 0120 3A1C     		mov	r2, r7
 3131 0122 1032     		add	r2, r2, #16
 3132 0124 1A60     		str	r2, [r3]
 3133              	.LBB23:
1040:..\..\..\..\..\simplelink\source/socket.c **** 
1041:..\..\..\..\..\simplelink\source/socket.c ****     OSI_RET_OK_CHECK(sl_LockObjUnlock(&g_pCB->ProtectionLockObj));
 3134              		.loc 1 1041 0
 3135 0126 344B     		ldr	r3, .L222+8
 3136 0128 1B68     		ldr	r3, [r3]
 3137 012a 9033     		add	r3, r3, #144
 3138 012c 181C     		mov	r0, r3
 3139 012e 3321     		mov	r1, #51
 3140 0130 FFF7FEFF 		bl	_SlNonOsSemSet
 3141 0134 031C     		mov	r3, r0
 3142 0136 FB62     		str	r3, [r7, #44]
 3143 0138 FB6A     		ldr	r3, [r7, #44]
 3144 013a 002B     		cmp	r3, #0
 3145 013c 00D0     		beq	.L213
 3146              	.L214:
 3147              		.loc 1 1041 0 is_stmt 0 discriminator 1
 3148 013e FEE7     		b	.L214
 3149              	.L213:
 3150              	.LBE23:
 3151              	.LBB24:
1042:..\..\..\..\..\simplelink\source/socket.c **** 	/* send the command */
1043:..\..\..\..\..\simplelink\source/socket.c ****     VERIFY_RET_OK(_SlDrvCmdOp((_SlCmdCtrl_t *)&_SlSelectCmdCtrl, &Msg, NULL));
 3152              		.loc 1 1043 0 is_stmt 1
 3153 0140 2E4A     		ldr	r2, .L222+12
 3154 0142 3B1C     		mov	r3, r7
 3155 0144 1833     		add	r3, r3, #24
 3156 0146 101C     		mov	r0, r2
 3157 0148 191C     		mov	r1, r3
 3158 014a 0022     		mov	r2, #0
 3159 014c FFF7FEFF 		bl	_SlDrvCmdOp
 3160 0150 031C     		mov	r3, r0
 3161 0152 BB62     		str	r3, [r7, #40]
 3162 0154 BB6A     		ldr	r3, [r7, #40]
 3163 0156 002B     		cmp	r3, #0
 3164 0158 00D0     		beq	.L215
 3165              	.L216:
 3166              		.loc 1 1043 0 is_stmt 0 discriminator 1
 3167 015a FEE7     		b	.L216
 3168              	.L215:
 3169              	.LBE24:
1044:..\..\..\..\..\simplelink\source/socket.c **** 
1045:..\..\..\..\..\simplelink\source/socket.c ****     if(SL_OS_RET_CODE_OK == (int)Msg.Rsp.status)
 3170              		.loc 1 1045 0 is_stmt 1
 3171 015c 3B1C     		mov	r3, r7
ARM GAS  C:\Users\X0217454\AppData\Local\Temp\cc5FLHAl.s 			page 75


 3172 015e 1833     		add	r3, r3, #24
 3173 0160 1B88     		ldrh	r3, [r3]
 3174 0162 002B     		cmp	r3, #0
 3175 0164 35D1     		bne	.L217
 3176              	.LBB25:
1046:..\..\..\..\..\simplelink\source/socket.c ****     {
1047:..\..\..\..\..\simplelink\source/socket.c ****         OSI_RET_OK_CHECK(sl_SyncObjWait(&g_pCB->ObjPool[pObjIdx].SyncObj, SL_OS_WAIT_FOREVER));
 3177              		.loc 1 1047 0
 3178 0166 244B     		ldr	r3, .L222+8
 3179 0168 1968     		ldr	r1, [r3]
 3180 016a 3B1C     		mov	r3, r7
 3181 016c 3733     		add	r3, r3, #55
 3182 016e 1A78     		ldrb	r2, [r3]
 3183 0170 131C     		mov	r3, r2
 3184 0172 5B00     		lsl	r3, r3, #1
 3185 0174 9B18     		add	r3, r3, r2
 3186 0176 9B00     		lsl	r3, r3, #2
 3187 0178 1033     		add	r3, r3, #16
 3188 017a CB18     		add	r3, r1, r3
 3189 017c 181C     		mov	r0, r3
 3190 017e 2221     		mov	r1, #34
 3191 0180 1122     		mov	r2, #17
 3192 0182 FF23     		mov	r3, #255
 3193 0184 FFF7FEFF 		bl	_SlNonOsSemGet
 3194 0188 031C     		mov	r3, r0
 3195 018a 7B62     		str	r3, [r7, #36]
 3196 018c 7B6A     		ldr	r3, [r7, #36]
 3197 018e 002B     		cmp	r3, #0
 3198 0190 00D0     		beq	.L218
 3199              	.L219:
 3200              		.loc 1 1047 0 is_stmt 0 discriminator 1
 3201 0192 FEE7     		b	.L219
 3202              	.L218:
 3203              	.LBE25:
1048:..\..\..\..\..\simplelink\source/socket.c ****         Msg.Rsp.status = AsyncRsp.status;
 3204              		.loc 1 1048 0 is_stmt 1
 3205 0194 3B1C     		mov	r3, r7
 3206 0196 1033     		add	r3, r3, #16
 3207 0198 1B88     		ldrh	r3, [r3]
 3208 019a 9AB2     		uxth	r2, r3
 3209 019c 3B1C     		mov	r3, r7
 3210 019e 1833     		add	r3, r3, #24
 3211 01a0 1A80     		strh	r2, [r3]
1049:..\..\..\..\..\simplelink\source/socket.c **** 
1050:..\..\..\..\..\simplelink\source/socket.c ****         if(  ((int)Msg.Rsp.status) >= 0 )
 3212              		.loc 1 1050 0
 3213 01a2 3B1C     		mov	r3, r7
 3214 01a4 1833     		add	r3, r3, #24
 3215 01a6 1B88     		ldrh	r3, [r3]
 3216 01a8 1BB2     		sxth	r3, r3
 3217 01aa 002B     		cmp	r3, #0
 3218 01ac 11DB     		blt	.L217
1051:..\..\..\..\..\simplelink\source/socket.c ****         {
1052:..\..\..\..\..\simplelink\source/socket.c ****             if( readsds )
 3219              		.loc 1 1052 0
 3220 01ae BB68     		ldr	r3, [r7, #8]
 3221 01b0 002B     		cmp	r3, #0
ARM GAS  C:\Users\X0217454\AppData\Local\Temp\cc5FLHAl.s 			page 76


 3222 01b2 05D0     		beq	.L220
1053:..\..\..\..\..\simplelink\source/socket.c ****             {
1054:..\..\..\..\..\simplelink\source/socket.c ****                readsds->fd_array[0]  = AsyncRsp.readFds;
 3223              		.loc 1 1054 0
 3224 01b4 3B1C     		mov	r3, r7
 3225 01b6 1033     		add	r3, r3, #16
 3226 01b8 9B88     		ldrh	r3, [r3, #4]
 3227 01ba 1A1C     		mov	r2, r3
 3228 01bc BB68     		ldr	r3, [r7, #8]
 3229 01be 1A60     		str	r2, [r3]
 3230              	.L220:
1055:..\..\..\..\..\simplelink\source/socket.c ****             }
1056:..\..\..\..\..\simplelink\source/socket.c ****             if( writesds )
 3231              		.loc 1 1056 0
 3232 01c0 7B68     		ldr	r3, [r7, #4]
 3233 01c2 002B     		cmp	r3, #0
 3234 01c4 05D0     		beq	.L217
1057:..\..\..\..\..\simplelink\source/socket.c ****             {
1058:..\..\..\..\..\simplelink\source/socket.c ****                writesds->fd_array[0] = AsyncRsp.writeFds;      
 3235              		.loc 1 1058 0
 3236 01c6 3B1C     		mov	r3, r7
 3237 01c8 1033     		add	r3, r3, #16
 3238 01ca DB88     		ldrh	r3, [r3, #6]
 3239 01cc 1A1C     		mov	r2, r3
 3240 01ce 7B68     		ldr	r3, [r7, #4]
 3241 01d0 1A60     		str	r2, [r3]
 3242              	.L217:
1059:..\..\..\..\..\simplelink\source/socket.c ****             }
1060:..\..\..\..\..\simplelink\source/socket.c ****         }
1061:..\..\..\..\..\simplelink\source/socket.c ****     }
1062:..\..\..\..\..\simplelink\source/socket.c **** 
1063:..\..\..\..\..\simplelink\source/socket.c ****     _SlDrvReleasePoolObj(pObjIdx);
 3243              		.loc 1 1063 0
 3244 01d2 3B1C     		mov	r3, r7
 3245 01d4 3733     		add	r3, r3, #55
 3246 01d6 1B78     		ldrb	r3, [r3]
 3247 01d8 181C     		mov	r0, r3
 3248 01da FFF7FEFF 		bl	_SlDrvReleasePoolObj
1064:..\..\..\..\..\simplelink\source/socket.c ****     return (int)Msg.Rsp.status;
 3249              		.loc 1 1064 0
 3250 01de 3B1C     		mov	r3, r7
 3251 01e0 1833     		add	r3, r3, #24
 3252 01e2 1B88     		ldrh	r3, [r3]
 3253 01e4 1BB2     		sxth	r3, r3
 3254              	.L221:
1065:..\..\..\..\..\simplelink\source/socket.c **** }
 3255              		.loc 1 1065 0
 3256 01e6 181C     		mov	r0, r3
 3257 01e8 BD46     		mov	sp, r7
 3258 01ea 0EB0     		add	sp, sp, #56
 3259              		@ sp needed for prologue
 3260 01ec 80BD     		pop	{r7, pc}
 3261              	.L223:
 3262 01ee C046     		.align	2
 3263              	.L222:
 3264 01f0 FEFF0000 		.word	65534
 3265 01f4 30F8FFFF 		.word	-2000
ARM GAS  C:\Users\X0217454\AppData\Local\Temp\cc5FLHAl.s 			page 77


 3266 01f8 00000000 		.word	g_pCB
 3267 01fc 00000000 		.word	_SlSelectCmdCtrl
 3268              		.cfi_endproc
 3269              	.LFE19:
 3270              		.size	sl_Select, .-sl_Select
 3271              		.section	.text.SL_FD_SET,"ax",%progbits
 3272              		.align	2
 3273              		.global	SL_FD_SET
 3274              		.code	16
 3275              		.thumb_func
 3276              		.type	SL_FD_SET, %function
 3277              	SL_FD_SET:
 3278              	.LFB20:
1066:..\..\..\..\..\simplelink\source/socket.c **** 
1067:..\..\..\..\..\simplelink\source/socket.c **** /*  Select helper functions */
1068:..\..\..\..\..\simplelink\source/socket.c **** /*******************************************************************************/
1069:..\..\..\..\..\simplelink\source/socket.c **** /*  SL_FD_SET */
1070:..\..\..\..\..\simplelink\source/socket.c **** /* ******************************************************************************/
1071:..\..\..\..\..\simplelink\source/socket.c **** void SL_FD_SET(int fd, SlFdSet_t *fdset)
1072:..\..\..\..\..\simplelink\source/socket.c **** {
 3279              		.loc 1 1072 0
 3280              		.cfi_startproc
 3281 0000 80B5     		push	{r7, lr}
 3282              	.LCFI60:
 3283              		.cfi_def_cfa_offset 8
 3284              		.cfi_offset 7, -8
 3285              		.cfi_offset 14, -4
 3286 0002 82B0     		sub	sp, sp, #8
 3287              	.LCFI61:
 3288              		.cfi_def_cfa_offset 16
 3289 0004 00AF     		add	r7, sp, #0
 3290              	.LCFI62:
 3291              		.cfi_def_cfa_register 7
 3292 0006 7860     		str	r0, [r7, #4]
 3293 0008 3960     		str	r1, [r7]
1073:..\..\..\..\..\simplelink\source/socket.c ****    fdset->fd_array[0] |=  (1<< (fd & BSD_SOCKET_ID_MASK));
 3294              		.loc 1 1073 0
 3295 000a 3B68     		ldr	r3, [r7]
 3296 000c 1A68     		ldr	r2, [r3]
 3297 000e 7968     		ldr	r1, [r7, #4]
 3298 0010 0F23     		mov	r3, #15
 3299 0012 0B40     		and	r3, r1
 3300 0014 0121     		mov	r1, #1
 3301 0016 081C     		mov	r0, r1
 3302 0018 9840     		lsl	r0, r0, r3
 3303 001a 031C     		mov	r3, r0
 3304 001c 1A43     		orr	r2, r3
 3305 001e 3B68     		ldr	r3, [r7]
 3306 0020 1A60     		str	r2, [r3]
1074:..\..\..\..\..\simplelink\source/socket.c **** }
 3307              		.loc 1 1074 0
 3308 0022 BD46     		mov	sp, r7
 3309 0024 02B0     		add	sp, sp, #8
 3310              		@ sp needed for prologue
 3311 0026 80BD     		pop	{r7, pc}
 3312              		.cfi_endproc
 3313              	.LFE20:
ARM GAS  C:\Users\X0217454\AppData\Local\Temp\cc5FLHAl.s 			page 78


 3314              		.size	SL_FD_SET, .-SL_FD_SET
 3315              		.section	.text.SL_FD_CLR,"ax",%progbits
 3316              		.align	2
 3317              		.global	SL_FD_CLR
 3318              		.code	16
 3319              		.thumb_func
 3320              		.type	SL_FD_CLR, %function
 3321              	SL_FD_CLR:
 3322              	.LFB21:
1075:..\..\..\..\..\simplelink\source/socket.c **** /*******************************************************************************/
1076:..\..\..\..\..\simplelink\source/socket.c **** /*  SL_FD_CLR */
1077:..\..\..\..\..\simplelink\source/socket.c **** /*******************************************************************************/
1078:..\..\..\..\..\simplelink\source/socket.c **** void SL_FD_CLR(int fd, SlFdSet_t *fdset)
1079:..\..\..\..\..\simplelink\source/socket.c **** {
 3323              		.loc 1 1079 0
 3324              		.cfi_startproc
 3325 0000 80B5     		push	{r7, lr}
 3326              	.LCFI63:
 3327              		.cfi_def_cfa_offset 8
 3328              		.cfi_offset 7, -8
 3329              		.cfi_offset 14, -4
 3330 0002 82B0     		sub	sp, sp, #8
 3331              	.LCFI64:
 3332              		.cfi_def_cfa_offset 16
 3333 0004 00AF     		add	r7, sp, #0
 3334              	.LCFI65:
 3335              		.cfi_def_cfa_register 7
 3336 0006 7860     		str	r0, [r7, #4]
 3337 0008 3960     		str	r1, [r7]
1080:..\..\..\..\..\simplelink\source/socket.c ****   fdset->fd_array[0] &=  ~(1<< (fd & BSD_SOCKET_ID_MASK));
 3338              		.loc 1 1080 0
 3339 000a 3B68     		ldr	r3, [r7]
 3340 000c 1B68     		ldr	r3, [r3]
 3341 000e 7968     		ldr	r1, [r7, #4]
 3342 0010 0F22     		mov	r2, #15
 3343 0012 0A40     		and	r2, r1
 3344 0014 0121     		mov	r1, #1
 3345 0016 081C     		mov	r0, r1
 3346 0018 9040     		lsl	r0, r0, r2
 3347 001a 021C     		mov	r2, r0
 3348 001c D243     		mvn	r2, r2
 3349 001e 1A40     		and	r2, r3
 3350 0020 3B68     		ldr	r3, [r7]
 3351 0022 1A60     		str	r2, [r3]
1081:..\..\..\..\..\simplelink\source/socket.c **** }
 3352              		.loc 1 1081 0
 3353 0024 BD46     		mov	sp, r7
 3354 0026 02B0     		add	sp, sp, #8
 3355              		@ sp needed for prologue
 3356 0028 80BD     		pop	{r7, pc}
 3357              		.cfi_endproc
 3358              	.LFE21:
 3359              		.size	SL_FD_CLR, .-SL_FD_CLR
 3360 002a C046     		.section	.text.SL_FD_ISSET,"ax",%progbits
 3361              		.align	2
 3362              		.global	SL_FD_ISSET
 3363              		.code	16
ARM GAS  C:\Users\X0217454\AppData\Local\Temp\cc5FLHAl.s 			page 79


 3364              		.thumb_func
 3365              		.type	SL_FD_ISSET, %function
 3366              	SL_FD_ISSET:
 3367              	.LFB22:
1082:..\..\..\..\..\simplelink\source/socket.c **** /*******************************************************************************/
1083:..\..\..\..\..\simplelink\source/socket.c **** /*  SL_FD_ISSET */
1084:..\..\..\..\..\simplelink\source/socket.c **** /*******************************************************************************/
1085:..\..\..\..\..\simplelink\source/socket.c **** int  SL_FD_ISSET(int fd, SlFdSet_t *fdset)
1086:..\..\..\..\..\simplelink\source/socket.c **** {
 3368              		.loc 1 1086 0
 3369              		.cfi_startproc
 3370 0000 80B5     		push	{r7, lr}
 3371              	.LCFI66:
 3372              		.cfi_def_cfa_offset 8
 3373              		.cfi_offset 7, -8
 3374              		.cfi_offset 14, -4
 3375 0002 82B0     		sub	sp, sp, #8
 3376              	.LCFI67:
 3377              		.cfi_def_cfa_offset 16
 3378 0004 00AF     		add	r7, sp, #0
 3379              	.LCFI68:
 3380              		.cfi_def_cfa_register 7
 3381 0006 7860     		str	r0, [r7, #4]
 3382 0008 3960     		str	r1, [r7]
1087:..\..\..\..\..\simplelink\source/socket.c ****   if( fdset->fd_array[0] & (1<< (fd & BSD_SOCKET_ID_MASK)) )
 3383              		.loc 1 1087 0
 3384 000a 3B68     		ldr	r3, [r7]
 3385 000c 1B68     		ldr	r3, [r3]
 3386 000e 7968     		ldr	r1, [r7, #4]
 3387 0010 0F22     		mov	r2, #15
 3388 0012 0A40     		and	r2, r1
 3389 0014 0121     		mov	r1, #1
 3390 0016 081C     		mov	r0, r1
 3391 0018 9040     		lsl	r0, r0, r2
 3392 001a 021C     		mov	r2, r0
 3393 001c 1340     		and	r3, r2
 3394 001e 01D0     		beq	.L227
1088:..\..\..\..\..\simplelink\source/socket.c ****   {
1089:..\..\..\..\..\simplelink\source/socket.c ****     return 1;
 3395              		.loc 1 1089 0
 3396 0020 0123     		mov	r3, #1
 3397 0022 00E0     		b	.L228
 3398              	.L227:
1090:..\..\..\..\..\simplelink\source/socket.c ****   }
1091:..\..\..\..\..\simplelink\source/socket.c ****   return 0;
 3399              		.loc 1 1091 0
 3400 0024 0023     		mov	r3, #0
 3401              	.L228:
1092:..\..\..\..\..\simplelink\source/socket.c **** }
 3402              		.loc 1 1092 0
 3403 0026 181C     		mov	r0, r3
 3404 0028 BD46     		mov	sp, r7
 3405 002a 02B0     		add	sp, sp, #8
 3406              		@ sp needed for prologue
 3407 002c 80BD     		pop	{r7, pc}
 3408              		.cfi_endproc
 3409              	.LFE22:
ARM GAS  C:\Users\X0217454\AppData\Local\Temp\cc5FLHAl.s 			page 80


 3410              		.size	SL_FD_ISSET, .-SL_FD_ISSET
 3411 002e C046     		.section	.text.SL_FD_ZERO,"ax",%progbits
 3412              		.align	2
 3413              		.global	SL_FD_ZERO
 3414              		.code	16
 3415              		.thumb_func
 3416              		.type	SL_FD_ZERO, %function
 3417              	SL_FD_ZERO:
 3418              	.LFB23:
1093:..\..\..\..\..\simplelink\source/socket.c **** /*******************************************************************************/
1094:..\..\..\..\..\simplelink\source/socket.c **** /*  SL_FD_ZERO */
1095:..\..\..\..\..\simplelink\source/socket.c **** /*******************************************************************************/  
1096:..\..\..\..\..\simplelink\source/socket.c **** void SL_FD_ZERO(SlFdSet_t *fdset)
1097:..\..\..\..\..\simplelink\source/socket.c **** {
 3419              		.loc 1 1097 0
 3420              		.cfi_startproc
 3421 0000 80B5     		push	{r7, lr}
 3422              	.LCFI69:
 3423              		.cfi_def_cfa_offset 8
 3424              		.cfi_offset 7, -8
 3425              		.cfi_offset 14, -4
 3426 0002 82B0     		sub	sp, sp, #8
 3427              	.LCFI70:
 3428              		.cfi_def_cfa_offset 16
 3429 0004 00AF     		add	r7, sp, #0
 3430              	.LCFI71:
 3431              		.cfi_def_cfa_register 7
 3432 0006 7860     		str	r0, [r7, #4]
1098:..\..\..\..\..\simplelink\source/socket.c ****   fdset->fd_array[0] = 0;
 3433              		.loc 1 1098 0
 3434 0008 7B68     		ldr	r3, [r7, #4]
 3435 000a 0022     		mov	r2, #0
 3436 000c 1A60     		str	r2, [r3]
1099:..\..\..\..\..\simplelink\source/socket.c **** }
 3437              		.loc 1 1099 0
 3438 000e BD46     		mov	sp, r7
 3439 0010 02B0     		add	sp, sp, #8
 3440              		@ sp needed for prologue
 3441 0012 80BD     		pop	{r7, pc}
 3442              		.cfi_endproc
 3443              	.LFE23:
 3444              		.size	SL_FD_ZERO, .-SL_FD_ZERO
 3445              		.section	.text._sl_HandleAsync_Select,"ax",%progbits
 3446              		.align	2
 3447              		.global	_sl_HandleAsync_Select
 3448              		.code	16
 3449              		.thumb_func
 3450              		.type	_sl_HandleAsync_Select, %function
 3451              	_sl_HandleAsync_Select:
 3452              	.LFB24:
1100:..\..\..\..\..\simplelink\source/socket.c **** 
1101:..\..\..\..\..\simplelink\source/socket.c **** #endif
1102:..\..\..\..\..\simplelink\source/socket.c **** 
1103:..\..\..\..\..\simplelink\source/socket.c **** /*******************************************************************************/
1104:..\..\..\..\..\simplelink\source/socket.c **** /*   _sl_HandleAsync_Select */
1105:..\..\..\..\..\simplelink\source/socket.c **** /*******************************************************************************/
1106:..\..\..\..\..\simplelink\source/socket.c **** void _sl_HandleAsync_Select(void *pVoidBuf)
ARM GAS  C:\Users\X0217454\AppData\Local\Temp\cc5FLHAl.s 			page 81


1107:..\..\..\..\..\simplelink\source/socket.c **** {
 3453              		.loc 1 1107 0
 3454              		.cfi_startproc
 3455 0000 80B5     		push	{r7, lr}
 3456              	.LCFI72:
 3457              		.cfi_def_cfa_offset 8
 3458              		.cfi_offset 7, -8
 3459              		.cfi_offset 14, -4
 3460 0002 86B0     		sub	sp, sp, #24
 3461              	.LCFI73:
 3462              		.cfi_def_cfa_offset 32
 3463 0004 00AF     		add	r7, sp, #0
 3464              	.LCFI74:
 3465              		.cfi_def_cfa_register 7
 3466 0006 7860     		str	r0, [r7, #4]
1108:..\..\..\..\..\simplelink\source/socket.c ****     _SelectAsyncResponse_t     *pMsgArgs   = (_SelectAsyncResponse_t *)_SL_RESP_ARGS_START(pVoidBuf
 3467              		.loc 1 1108 0
 3468 0008 7B68     		ldr	r3, [r7, #4]
 3469 000a 0833     		add	r3, r3, #8
 3470 000c 7B61     		str	r3, [r7, #20]
 3471              	.LBB26:
1109:..\..\..\..\..\simplelink\source/socket.c **** 
1110:..\..\..\..\..\simplelink\source/socket.c ****     OSI_RET_OK_CHECK(sl_LockObjLock(&g_pCB->ProtectionLockObj, SL_OS_WAIT_FOREVER));
 3472              		.loc 1 1110 0
 3473 000e 254B     		ldr	r3, .L239
 3474 0010 1B68     		ldr	r3, [r3]
 3475 0012 9033     		add	r3, r3, #144
 3476 0014 181C     		mov	r0, r3
 3477 0016 3321     		mov	r1, #51
 3478 0018 4422     		mov	r2, #68
 3479 001a FF23     		mov	r3, #255
 3480 001c FFF7FEFF 		bl	_SlNonOsSemGet
 3481 0020 031C     		mov	r3, r0
 3482 0022 3B61     		str	r3, [r7, #16]
 3483 0024 3B69     		ldr	r3, [r7, #16]
 3484 0026 002B     		cmp	r3, #0
 3485 0028 00D0     		beq	.L231
 3486              	.L232:
 3487              		.loc 1 1110 0 is_stmt 0 discriminator 1
 3488 002a FEE7     		b	.L232
 3489              	.L231:
 3490              	.LBE26:
1111:..\..\..\..\..\simplelink\source/socket.c **** 
1112:..\..\..\..\..\simplelink\source/socket.c ****     VERIFY_SOCKET_CB(NULL != g_pCB->ObjPool[g_pCB->FunctionParams.AsyncExt.ActionIndex].pRespArgs);
1113:..\..\..\..\..\simplelink\source/socket.c **** 
1114:..\..\..\..\..\simplelink\source/socket.c ****     memcpy(g_pCB->ObjPool[g_pCB->FunctionParams.AsyncExt.ActionIndex].pRespArgs, pMsgArgs, sizeof(_
 3491              		.loc 1 1114 0 is_stmt 1
 3492 002c 1D4B     		ldr	r3, .L239
 3493 002e 1968     		ldr	r1, [r3]
 3494 0030 1C4B     		ldr	r3, .L239
 3495 0032 1A68     		ldr	r2, [r3]
 3496 0034 AC23     		mov	r3, #172
 3497 0036 D35C     		ldrb	r3, [r2, r3]
 3498 0038 1A1C     		mov	r2, r3
 3499 003a 131C     		mov	r3, r2
 3500 003c 5B00     		lsl	r3, r3, #1
 3501 003e 9B18     		add	r3, r3, r2
ARM GAS  C:\Users\X0217454\AppData\Local\Temp\cc5FLHAl.s 			page 82


 3502 0040 9B00     		lsl	r3, r3, #2
 3503 0042 CB18     		add	r3, r1, r3
 3504 0044 1433     		add	r3, r3, #20
 3505 0046 1A68     		ldr	r2, [r3]
 3506 0048 7B69     		ldr	r3, [r7, #20]
 3507 004a 101C     		mov	r0, r2
 3508 004c 191C     		mov	r1, r3
 3509 004e 0822     		mov	r2, #8
 3510 0050 FFF7FEFF 		bl	memcpy
 3511              	.LBB27:
1115:..\..\..\..\..\simplelink\source/socket.c ****     OSI_RET_OK_CHECK(sl_SyncObjSignal(&g_pCB->ObjPool[g_pCB->FunctionParams.AsyncExt.ActionIndex].S
 3512              		.loc 1 1115 0
 3513 0054 134B     		ldr	r3, .L239
 3514 0056 1968     		ldr	r1, [r3]
 3515 0058 124B     		ldr	r3, .L239
 3516 005a 1A68     		ldr	r2, [r3]
 3517 005c AC23     		mov	r3, #172
 3518 005e D35C     		ldrb	r3, [r2, r3]
 3519 0060 1A1C     		mov	r2, r3
 3520 0062 131C     		mov	r3, r2
 3521 0064 5B00     		lsl	r3, r3, #1
 3522 0066 9B18     		add	r3, r3, r2
 3523 0068 9B00     		lsl	r3, r3, #2
 3524 006a 1033     		add	r3, r3, #16
 3525 006c CB18     		add	r3, r1, r3
 3526 006e 181C     		mov	r0, r3
 3527 0070 2221     		mov	r1, #34
 3528 0072 FFF7FEFF 		bl	_SlNonOsSemSet
 3529 0076 031C     		mov	r3, r0
 3530 0078 FB60     		str	r3, [r7, #12]
 3531 007a FB68     		ldr	r3, [r7, #12]
 3532 007c 002B     		cmp	r3, #0
 3533 007e 00D0     		beq	.L233
 3534              	.L234:
 3535              		.loc 1 1115 0 is_stmt 0 discriminator 1
 3536 0080 FEE7     		b	.L234
 3537              	.L233:
 3538              	.LBE27:
 3539              	.LBB28:
1116:..\..\..\..\..\simplelink\source/socket.c **** 
1117:..\..\..\..\..\simplelink\source/socket.c ****     OSI_RET_OK_CHECK(sl_LockObjUnlock(&g_pCB->ProtectionLockObj));
 3540              		.loc 1 1117 0 is_stmt 1
 3541 0082 084B     		ldr	r3, .L239
 3542 0084 1B68     		ldr	r3, [r3]
 3543 0086 9033     		add	r3, r3, #144
 3544 0088 181C     		mov	r0, r3
 3545 008a 3321     		mov	r1, #51
 3546 008c FFF7FEFF 		bl	_SlNonOsSemSet
 3547 0090 031C     		mov	r3, r0
 3548 0092 BB60     		str	r3, [r7, #8]
 3549 0094 BB68     		ldr	r3, [r7, #8]
 3550 0096 002B     		cmp	r3, #0
 3551 0098 00D0     		beq	.L238
 3552              	.L236:
 3553              		.loc 1 1117 0 is_stmt 0 discriminator 1
 3554 009a FEE7     		b	.L236
 3555              	.L238:
ARM GAS  C:\Users\X0217454\AppData\Local\Temp\cc5FLHAl.s 			page 83


 3556              	.LBE28:
1118:..\..\..\..\..\simplelink\source/socket.c ****     return;
 3557              		.loc 1 1118 0 is_stmt 1
 3558 009c C046     		mov	r8, r8
 3559              	.L230:
1119:..\..\..\..\..\simplelink\source/socket.c **** }
 3560              		.loc 1 1119 0
 3561 009e BD46     		mov	sp, r7
 3562 00a0 06B0     		add	sp, sp, #24
 3563              		@ sp needed for prologue
 3564 00a2 80BD     		pop	{r7, pc}
 3565              	.L240:
 3566              		.align	2
 3567              	.L239:
 3568 00a4 00000000 		.word	g_pCB
 3569              		.cfi_endproc
 3570              	.LFE24:
 3571              		.size	_sl_HandleAsync_Select, .-_sl_HandleAsync_Select
 3572              		.text
 3573              	.Letext0:
 3574              		.file 2 "..\\..\\..\\..\\..\\simplelink\\source\\datatypes.h"
 3575              		.file 3 "..\\..\\..\\..\\..\\simplelink\\include/simplelink.h"
 3576              		.file 4 "..\\..\\..\\..\\..\\simplelink\\include/../source/nonos.h"
 3577              		.file 5 "..\\..\\..\\..\\..\\simplelink\\include/socket.h"
 3578              		.file 6 "..\\..\\..\\..\\..\\simplelink\\include/device.h"
 3579              		.file 7 "..\\..\\..\\..\\..\\simplelink\\source\\protocol.h"
 3580              		.file 8 "..\\..\\..\\..\\..\\simplelink\\source\\driver.h"
 3581              		.section	.debug_info,"",%progbits
 3582              	.Ldebug_info0:
 3583 0000 701D0000 		.4byte	0x1d70
 3584 0004 0200     		.2byte	0x2
 3585 0006 00000000 		.4byte	.Ldebug_abbrev0
 3586 000a 04       		.byte	0x4
 3587 000b 01       		.uleb128 0x1
 3588 000c 6C020000 		.4byte	.LASF255
 3589 0010 01       		.byte	0x1
 3590 0011 59070000 		.4byte	.LASF256
 3591 0015 E2050000 		.4byte	.LASF257
 3592 0019 00000000 		.4byte	.Ldebug_ranges0+0
 3593 001d 00000000 		.4byte	0
 3594 0021 00000000 		.4byte	0
 3595 0025 00000000 		.4byte	.Ldebug_line0
 3596 0029 02       		.uleb128 0x2
 3597 002a 01       		.byte	0x1
 3598 002b 06       		.byte	0x6
 3599 002c 04020000 		.4byte	.LASF0
 3600 0030 03       		.uleb128 0x3
 3601 0031 F70A0000 		.4byte	.LASF2
 3602 0035 02       		.byte	0x2
 3603 0036 45       		.byte	0x45
 3604 0037 3B000000 		.4byte	0x3b
 3605 003b 02       		.uleb128 0x2
 3606 003c 01       		.byte	0x1
 3607 003d 08       		.byte	0x8
 3608 003e 30020000 		.4byte	.LASF1
 3609 0042 03       		.uleb128 0x3
 3610 0043 2A020000 		.4byte	.LASF3
ARM GAS  C:\Users\X0217454\AppData\Local\Temp\cc5FLHAl.s 			page 84


 3611 0047 02       		.byte	0x2
 3612 0048 4A       		.byte	0x4a
 3613 0049 4D000000 		.4byte	0x4d
 3614 004d 02       		.uleb128 0x2
 3615 004e 02       		.byte	0x2
 3616 004f 05       		.byte	0x5
 3617 0050 710B0000 		.4byte	.LASF4
 3618 0054 03       		.uleb128 0x3
 3619 0055 DF040000 		.4byte	.LASF5
 3620 0059 02       		.byte	0x2
 3621 005a 4F       		.byte	0x4f
 3622 005b 5F000000 		.4byte	0x5f
 3623 005f 02       		.uleb128 0x2
 3624 0060 02       		.byte	0x2
 3625 0061 07       		.byte	0x7
 3626 0062 C40C0000 		.4byte	.LASF6
 3627 0066 02       		.uleb128 0x2
 3628 0067 04       		.byte	0x4
 3629 0068 05       		.byte	0x5
 3630 0069 9A010000 		.4byte	.LASF7
 3631 006d 03       		.uleb128 0x3
 3632 006e 71060000 		.4byte	.LASF8
 3633 0072 02       		.byte	0x2
 3634 0073 63       		.byte	0x63
 3635 0074 78000000 		.4byte	0x78
 3636 0078 02       		.uleb128 0x2
 3637 0079 04       		.byte	0x4
 3638 007a 07       		.byte	0x7
 3639 007b 7A050000 		.4byte	.LASF9
 3640 007f 02       		.uleb128 0x2
 3641 0080 08       		.byte	0x8
 3642 0081 07       		.byte	0x7
 3643 0082 A9090000 		.4byte	.LASF10
 3644 0086 04       		.uleb128 0x4
 3645 0087 494E5400 		.ascii	"INT\000"
 3646 008b 02       		.byte	0x2
 3647 008c 6D       		.byte	0x6d
 3648 008d 91000000 		.4byte	0x91
 3649 0091 05       		.uleb128 0x5
 3650 0092 04       		.byte	0x4
 3651 0093 05       		.byte	0x5
 3652 0094 696E7400 		.ascii	"int\000"
 3653 0098 02       		.uleb128 0x2
 3654 0099 01       		.byte	0x1
 3655 009a 08       		.byte	0x8
 3656 009b 43030000 		.4byte	.LASF11
 3657 009f 02       		.uleb128 0x2
 3658 00a0 04       		.byte	0x4
 3659 00a1 04       		.byte	0x4
 3660 00a2 A5070000 		.4byte	.LASF12
 3661 00a6 02       		.uleb128 0x2
 3662 00a7 08       		.byte	0x8
 3663 00a8 04       		.byte	0x4
 3664 00a9 47070000 		.4byte	.LASF13
 3665 00ad 03       		.uleb128 0x3
 3666 00ae 1E020000 		.4byte	.LASF14
 3667 00b2 02       		.byte	0x2
ARM GAS  C:\Users\X0217454\AppData\Local\Temp\cc5FLHAl.s 			page 85


 3668 00b3 73       		.byte	0x73
 3669 00b4 54000000 		.4byte	0x54
 3670 00b8 03       		.uleb128 0x3
 3671 00b9 D2040000 		.4byte	.LASF15
 3672 00bd 02       		.byte	0x2
 3673 00be 74       		.byte	0x74
 3674 00bf 30000000 		.4byte	0x30
 3675 00c3 03       		.uleb128 0x3
 3676 00c4 F90C0000 		.4byte	.LASF16
 3677 00c8 02       		.byte	0x2
 3678 00c9 76       		.byte	0x76
 3679 00ca 86000000 		.4byte	0x86
 3680 00ce 02       		.uleb128 0x2
 3681 00cf 04       		.byte	0x4
 3682 00d0 07       		.byte	0x7
 3683 00d1 F6070000 		.4byte	.LASF17
 3684 00d5 02       		.uleb128 0x2
 3685 00d6 08       		.byte	0x8
 3686 00d7 05       		.byte	0x5
 3687 00d8 0E070000 		.4byte	.LASF18
 3688 00dc 02       		.uleb128 0x2
 3689 00dd 04       		.byte	0x4
 3690 00de 07       		.byte	0x7
 3691 00df 2F000000 		.4byte	.LASF19
 3692 00e3 06       		.uleb128 0x6
 3693 00e4 04       		.byte	0x4
 3694 00e5 07       		.uleb128 0x7
 3695 00e6 04       		.byte	0x4
 3696 00e7 98000000 		.4byte	0x98
 3697 00eb 08       		.uleb128 0x8
 3698 00ec 98000000 		.4byte	0x98
 3699 00f0 FB000000 		.4byte	0xfb
 3700 00f4 09       		.uleb128 0x9
 3701 00f5 DC000000 		.4byte	0xdc
 3702 00f9 07       		.byte	0x7
 3703 00fa 00       		.byte	0
 3704 00fb 07       		.uleb128 0x7
 3705 00fc 04       		.byte	0x4
 3706 00fd 01010000 		.4byte	0x101
 3707 0101 0A       		.uleb128 0xa
 3708 0102 01       		.byte	0x1
 3709 0103 0D010000 		.4byte	0x10d
 3710 0107 0B       		.uleb128 0xb
 3711 0108 E3000000 		.4byte	0xe3
 3712 010c 00       		.byte	0
 3713 010d 0C       		.uleb128 0xc
 3714 010e 1A010000 		.4byte	.LASF20
 3715 0112 03       		.byte	0x3
 3716 0113 2001     		.2byte	0x120
 3717 0115 FB000000 		.4byte	0xfb
 3718 0119 03       		.uleb128 0x3
 3719 011a 8B0C0000 		.4byte	.LASF21
 3720 011e 04       		.byte	0x4
 3721 011f 50       		.byte	0x50
 3722 0120 3B000000 		.4byte	0x3b
 3723 0124 08       		.uleb128 0x8
 3724 0125 78000000 		.4byte	0x78
ARM GAS  C:\Users\X0217454\AppData\Local\Temp\cc5FLHAl.s 			page 86


 3725 0129 34010000 		.4byte	0x134
 3726 012d 09       		.uleb128 0x9
 3727 012e DC000000 		.4byte	0xdc
 3728 0132 03       		.byte	0x3
 3729 0133 00       		.byte	0
 3730 0134 0D       		.uleb128 0xd
 3731 0135 B6040000 		.4byte	.LASF22
 3732 0139 04       		.byte	0x4
 3733 013a 05       		.byte	0x5
 3734 013b 7301     		.2byte	0x173
 3735 013d 51010000 		.4byte	0x151
 3736 0141 0E       		.uleb128 0xe
 3737 0142 4E0C0000 		.4byte	.LASF26
 3738 0146 05       		.byte	0x5
 3739 0147 7601     		.2byte	0x176
 3740 0149 78000000 		.4byte	0x78
 3741 014d 02       		.byte	0x2
 3742 014e 23       		.byte	0x23
 3743 014f 00       		.uleb128 0
 3744 0150 00       		.byte	0
 3745 0151 0C       		.uleb128 0xc
 3746 0152 B6040000 		.4byte	.LASF22
 3747 0156 05       		.byte	0x5
 3748 0157 7E01     		.2byte	0x17e
 3749 0159 34010000 		.4byte	0x134
 3750 015d 0C       		.uleb128 0xc
 3751 015e FA060000 		.4byte	.LASF23
 3752 0162 05       		.byte	0x5
 3753 0163 C001     		.2byte	0x1c0
 3754 0165 78000000 		.4byte	0x78
 3755 0169 0C       		.uleb128 0xc
 3756 016a FF030000 		.4byte	.LASF24
 3757 016e 05       		.byte	0x5
 3758 016f C101     		.2byte	0x1c1
 3759 0171 78000000 		.4byte	0x78
 3760 0175 0D       		.uleb128 0xd
 3761 0176 D6050000 		.4byte	.LASF25
 3762 017a 08       		.byte	0x8
 3763 017b 05       		.byte	0x5
 3764 017c C301     		.2byte	0x1c3
 3765 017e A1010000 		.4byte	0x1a1
 3766 0182 0E       		.uleb128 0xe
 3767 0183 560D0000 		.4byte	.LASF27
 3768 0187 05       		.byte	0x5
 3769 0188 C501     		.2byte	0x1c5
 3770 018a 5D010000 		.4byte	0x15d
 3771 018e 02       		.byte	0x2
 3772 018f 23       		.byte	0x23
 3773 0190 00       		.uleb128 0
 3774 0191 0E       		.uleb128 0xe
 3775 0192 86040000 		.4byte	.LASF28
 3776 0196 05       		.byte	0x5
 3777 0197 C601     		.2byte	0x1c6
 3778 0199 69010000 		.4byte	0x169
 3779 019d 02       		.byte	0x2
 3780 019e 23       		.byte	0x23
 3781 019f 04       		.uleb128 0x4
ARM GAS  C:\Users\X0217454\AppData\Local\Temp\cc5FLHAl.s 			page 87


 3782 01a0 00       		.byte	0
 3783 01a1 0C       		.uleb128 0xc
 3784 01a2 ED0B0000 		.4byte	.LASF29
 3785 01a6 05       		.byte	0x5
 3786 01a7 C901     		.2byte	0x1c9
 3787 01a9 CE000000 		.4byte	0xce
 3788 01ad 0D       		.uleb128 0xd
 3789 01ae E00B0000 		.4byte	.LASF30
 3790 01b2 10       		.byte	0x10
 3791 01b3 05       		.byte	0x5
 3792 01b4 CC01     		.2byte	0x1cc
 3793 01b6 D9010000 		.4byte	0x1d9
 3794 01ba 0E       		.uleb128 0xe
 3795 01bb EC030000 		.4byte	.LASF31
 3796 01bf 05       		.byte	0x5
 3797 01c0 CE01     		.2byte	0x1ce
 3798 01c2 5F000000 		.4byte	0x5f
 3799 01c6 02       		.byte	0x2
 3800 01c7 23       		.byte	0x23
 3801 01c8 00       		.uleb128 0
 3802 01c9 0E       		.uleb128 0xe
 3803 01ca 340A0000 		.4byte	.LASF32
 3804 01ce 05       		.byte	0x5
 3805 01cf CF01     		.2byte	0x1cf
 3806 01d1 D9010000 		.4byte	0x1d9
 3807 01d5 02       		.byte	0x2
 3808 01d6 23       		.byte	0x23
 3809 01d7 02       		.uleb128 0x2
 3810 01d8 00       		.byte	0
 3811 01d9 08       		.uleb128 0x8
 3812 01da 3B000000 		.4byte	0x3b
 3813 01de E9010000 		.4byte	0x1e9
 3814 01e2 09       		.uleb128 0x9
 3815 01e3 DC000000 		.4byte	0xdc
 3816 01e7 0D       		.byte	0xd
 3817 01e8 00       		.byte	0
 3818 01e9 0C       		.uleb128 0xc
 3819 01ea E00B0000 		.4byte	.LASF30
 3820 01ee 05       		.byte	0x5
 3821 01ef D001     		.2byte	0x1d0
 3822 01f1 AD010000 		.4byte	0x1ad
 3823 01f5 0F       		.uleb128 0xf
 3824 01f6 10       		.byte	0x10
 3825 01f7 05       		.byte	0x5
 3826 01f8 D601     		.2byte	0x1d6
 3827 01fa 17020000 		.4byte	0x217
 3828 01fe 10       		.uleb128 0x10
 3829 01ff B0030000 		.4byte	.LASF33
 3830 0203 05       		.byte	0x5
 3831 0204 D801     		.2byte	0x1d8
 3832 0206 17020000 		.4byte	0x217
 3833 020a 10       		.uleb128 0x10
 3834 020b 0B0C0000 		.4byte	.LASF34
 3835 020f 05       		.byte	0x5
 3836 0210 D901     		.2byte	0x1d9
 3837 0212 24010000 		.4byte	0x124
 3838 0216 00       		.byte	0
ARM GAS  C:\Users\X0217454\AppData\Local\Temp\cc5FLHAl.s 			page 88


 3839 0217 08       		.uleb128 0x8
 3840 0218 3B000000 		.4byte	0x3b
 3841 021c 27020000 		.4byte	0x227
 3842 0220 09       		.uleb128 0x9
 3843 0221 DC000000 		.4byte	0xdc
 3844 0225 0F       		.byte	0xf
 3845 0226 00       		.byte	0
 3846 0227 0D       		.uleb128 0xd
 3847 0228 F4020000 		.4byte	.LASF35
 3848 022c 10       		.byte	0x10
 3849 022d 05       		.byte	0x5
 3850 022e D401     		.2byte	0x1d4
 3851 0230 44020000 		.4byte	0x244
 3852 0234 0E       		.uleb128 0xe
 3853 0235 E5030000 		.4byte	.LASF36
 3854 0239 05       		.byte	0x5
 3855 023a DA01     		.2byte	0x1da
 3856 023c F5010000 		.4byte	0x1f5
 3857 0240 02       		.byte	0x2
 3858 0241 23       		.byte	0x23
 3859 0242 00       		.uleb128 0
 3860 0243 00       		.byte	0
 3861 0244 0C       		.uleb128 0xc
 3862 0245 F4020000 		.4byte	.LASF35
 3863 0249 05       		.byte	0x5
 3864 024a DB01     		.2byte	0x1db
 3865 024c 27020000 		.4byte	0x227
 3866 0250 0D       		.uleb128 0xd
 3867 0251 EA080000 		.4byte	.LASF37
 3868 0255 1C       		.byte	0x1c
 3869 0256 05       		.byte	0x5
 3870 0257 DE01     		.2byte	0x1de
 3871 0259 A9020000 		.4byte	0x2a9
 3872 025d 0E       		.uleb128 0xe
 3873 025e 30090000 		.4byte	.LASF38
 3874 0262 05       		.byte	0x5
 3875 0263 E001     		.2byte	0x1e0
 3876 0265 5F000000 		.4byte	0x5f
 3877 0269 02       		.byte	0x2
 3878 026a 23       		.byte	0x23
 3879 026b 00       		.uleb128 0
 3880 026c 0E       		.uleb128 0xe
 3881 026d DB030000 		.4byte	.LASF39
 3882 0271 05       		.byte	0x5
 3883 0272 E101     		.2byte	0x1e1
 3884 0274 5F000000 		.4byte	0x5f
 3885 0278 02       		.byte	0x2
 3886 0279 23       		.byte	0x23
 3887 027a 02       		.uleb128 0x2
 3888 027b 0E       		.uleb128 0xe
 3889 027c 480D0000 		.4byte	.LASF40
 3890 0280 05       		.byte	0x5
 3891 0281 E201     		.2byte	0x1e2
 3892 0283 78000000 		.4byte	0x78
 3893 0287 02       		.byte	0x2
 3894 0288 23       		.byte	0x23
 3895 0289 04       		.uleb128 0x4
ARM GAS  C:\Users\X0217454\AppData\Local\Temp\cc5FLHAl.s 			page 89


 3896 028a 0E       		.uleb128 0xe
 3897 028b C2000000 		.4byte	.LASF41
 3898 028f 05       		.byte	0x5
 3899 0290 E301     		.2byte	0x1e3
 3900 0292 44020000 		.4byte	0x244
 3901 0296 02       		.byte	0x2
 3902 0297 23       		.byte	0x23
 3903 0298 08       		.uleb128 0x8
 3904 0299 0E       		.uleb128 0xe
 3905 029a D3020000 		.4byte	.LASF42
 3906 029e 05       		.byte	0x5
 3907 029f E401     		.2byte	0x1e4
 3908 02a1 78000000 		.4byte	0x78
 3909 02a5 02       		.byte	0x2
 3910 02a6 23       		.byte	0x23
 3911 02a7 18       		.uleb128 0x18
 3912 02a8 00       		.byte	0
 3913 02a9 0C       		.uleb128 0xc
 3914 02aa EA080000 		.4byte	.LASF37
 3915 02ae 05       		.byte	0x5
 3916 02af E501     		.2byte	0x1e5
 3917 02b1 50020000 		.4byte	0x250
 3918 02b5 0D       		.uleb128 0xd
 3919 02b6 48030000 		.4byte	.LASF43
 3920 02ba 10       		.byte	0x10
 3921 02bb 05       		.byte	0x5
 3922 02bc E901     		.2byte	0x1e9
 3923 02be FF020000 		.4byte	0x2ff
 3924 02c2 0E       		.uleb128 0xe
 3925 02c3 5A000000 		.4byte	.LASF44
 3926 02c7 05       		.byte	0x5
 3927 02c8 EB01     		.2byte	0x1eb
 3928 02ca 5F000000 		.4byte	0x5f
 3929 02ce 02       		.byte	0x2
 3930 02cf 23       		.byte	0x23
 3931 02d0 00       		.uleb128 0
 3932 02d1 0E       		.uleb128 0xe
 3933 02d2 3A030000 		.4byte	.LASF45
 3934 02d6 05       		.byte	0x5
 3935 02d7 EC01     		.2byte	0x1ec
 3936 02d9 5F000000 		.4byte	0x5f
 3937 02dd 02       		.byte	0x2
 3938 02de 23       		.byte	0x23
 3939 02df 02       		.uleb128 0x2
 3940 02e0 0E       		.uleb128 0xe
 3941 02e1 6D000000 		.4byte	.LASF46
 3942 02e5 05       		.byte	0x5
 3943 02e6 ED01     		.2byte	0x1ed
 3944 02e8 51010000 		.4byte	0x151
 3945 02ec 02       		.byte	0x2
 3946 02ed 23       		.byte	0x23
 3947 02ee 04       		.uleb128 0x4
 3948 02ef 0E       		.uleb128 0xe
 3949 02f0 F6030000 		.4byte	.LASF47
 3950 02f4 05       		.byte	0x5
 3951 02f5 EE01     		.2byte	0x1ee
 3952 02f7 EB000000 		.4byte	0xeb
ARM GAS  C:\Users\X0217454\AppData\Local\Temp\cc5FLHAl.s 			page 90


 3953 02fb 02       		.byte	0x2
 3954 02fc 23       		.byte	0x23
 3955 02fd 08       		.uleb128 0x8
 3956 02fe 00       		.byte	0
 3957 02ff 0C       		.uleb128 0xc
 3958 0300 48030000 		.4byte	.LASF43
 3959 0304 05       		.byte	0x5
 3960 0305 EF01     		.2byte	0x1ef
 3961 0307 B5020000 		.4byte	0x2b5
 3962 030b 0D       		.uleb128 0xd
 3963 030c 98000000 		.4byte	.LASF48
 3964 0310 04       		.byte	0x4
 3965 0311 05       		.byte	0x5
 3966 0312 2502     		.2byte	0x225
 3967 0314 28030000 		.4byte	0x328
 3968 0318 0E       		.uleb128 0xe
 3969 0319 48040000 		.4byte	.LASF49
 3970 031d 05       		.byte	0x5
 3971 031e 2702     		.2byte	0x227
 3972 0320 28030000 		.4byte	0x328
 3973 0324 02       		.byte	0x2
 3974 0325 23       		.byte	0x23
 3975 0326 00       		.uleb128 0
 3976 0327 00       		.byte	0
 3977 0328 08       		.uleb128 0x8
 3978 0329 78000000 		.4byte	0x78
 3979 032d 38030000 		.4byte	0x338
 3980 0331 09       		.uleb128 0x9
 3981 0332 DC000000 		.4byte	0xdc
 3982 0336 00       		.byte	0
 3983 0337 00       		.byte	0
 3984 0338 0C       		.uleb128 0xc
 3985 0339 98000000 		.4byte	.LASF48
 3986 033d 05       		.byte	0x5
 3987 033e 2802     		.2byte	0x228
 3988 0340 0B030000 		.4byte	0x30b
 3989 0344 03       		.uleb128 0x3
 3990 0345 360C0000 		.4byte	.LASF50
 3991 0349 06       		.byte	0x6
 3992 034a 2E       		.byte	0x2e
 3993 034b 4F030000 		.4byte	0x34f
 3994 034f 07       		.uleb128 0x7
 3995 0350 04       		.byte	0x4
 3996 0351 55030000 		.4byte	0x355
 3997 0355 0A       		.uleb128 0xa
 3998 0356 01       		.byte	0x1
 3999 0357 61030000 		.4byte	0x361
 4000 035b 0B       		.uleb128 0xb
 4001 035c 78000000 		.4byte	0x78
 4002 0360 00       		.byte	0
 4003 0361 11       		.uleb128 0x11
 4004 0362 04       		.byte	0x4
 4005 0363 07       		.byte	0x7
 4006 0364 4E       		.byte	0x4e
 4007 0365 86030000 		.4byte	0x386
 4008 0369 12       		.uleb128 0x12
 4009 036a E00A0000 		.4byte	.LASF51
ARM GAS  C:\Users\X0217454\AppData\Local\Temp\cc5FLHAl.s 			page 91


 4010 036e 07       		.byte	0x7
 4011 036f 50       		.byte	0x50
 4012 0370 54000000 		.4byte	0x54
 4013 0374 02       		.byte	0x2
 4014 0375 23       		.byte	0x23
 4015 0376 00       		.uleb128 0
 4016 0377 13       		.uleb128 0x13
 4017 0378 4C656E00 		.ascii	"Len\000"
 4018 037c 07       		.byte	0x7
 4019 037d 51       		.byte	0x51
 4020 037e 54000000 		.4byte	0x54
 4021 0382 02       		.byte	0x2
 4022 0383 23       		.byte	0x23
 4023 0384 02       		.uleb128 0x2
 4024 0385 00       		.byte	0
 4025 0386 03       		.uleb128 0x3
 4026 0387 E6040000 		.4byte	.LASF52
 4027 038b 07       		.byte	0x7
 4028 038c 52       		.byte	0x52
 4029 038d 61030000 		.4byte	0x361
 4030 0391 03       		.uleb128 0x3
 4031 0392 1C070000 		.4byte	.LASF53
 4032 0396 07       		.byte	0x7
 4033 0397 5D       		.byte	0x5d
 4034 0398 86030000 		.4byte	0x386
 4035 039c 11       		.uleb128 0x11
 4036 039d 08       		.byte	0x8
 4037 039e 07       		.byte	0x7
 4038 039f 5F       		.byte	0x5f
 4039 03a0 EB030000 		.4byte	0x3eb
 4040 03a4 12       		.uleb128 0x12
 4041 03a5 55080000 		.4byte	.LASF54
 4042 03a9 07       		.byte	0x7
 4043 03aa 61       		.byte	0x61
 4044 03ab 86030000 		.4byte	0x386
 4045 03af 02       		.byte	0x2
 4046 03b0 23       		.byte	0x23
 4047 03b1 00       		.uleb128 0
 4048 03b2 12       		.uleb128 0x12
 4049 03b3 F90B0000 		.4byte	.LASF55
 4050 03b7 07       		.byte	0x7
 4051 03b8 62       		.byte	0x62
 4052 03b9 30000000 		.4byte	0x30
 4053 03bd 02       		.byte	0x2
 4054 03be 23       		.byte	0x23
 4055 03bf 04       		.uleb128 0x4
 4056 03c0 12       		.uleb128 0x12
 4057 03c1 7B0B0000 		.4byte	.LASF56
 4058 03c5 07       		.byte	0x7
 4059 03c6 63       		.byte	0x63
 4060 03c7 30000000 		.4byte	0x30
 4061 03cb 02       		.byte	0x2
 4062 03cc 23       		.byte	0x23
 4063 03cd 05       		.uleb128 0x5
 4064 03ce 12       		.uleb128 0x12
 4065 03cf 5C020000 		.4byte	.LASF57
 4066 03d3 07       		.byte	0x7
ARM GAS  C:\Users\X0217454\AppData\Local\Temp\cc5FLHAl.s 			page 92


 4067 03d4 64       		.byte	0x64
 4068 03d5 30000000 		.4byte	0x30
 4069 03d9 02       		.byte	0x2
 4070 03da 23       		.byte	0x23
 4071 03db 06       		.uleb128 0x6
 4072 03dc 12       		.uleb128 0x12
 4073 03dd 1E080000 		.4byte	.LASF58
 4074 03e1 07       		.byte	0x7
 4075 03e2 65       		.byte	0x65
 4076 03e3 30000000 		.4byte	0x30
 4077 03e7 02       		.byte	0x2
 4078 03e8 23       		.byte	0x23
 4079 03e9 07       		.uleb128 0x7
 4080 03ea 00       		.byte	0
 4081 03eb 03       		.uleb128 0x3
 4082 03ec D70C0000 		.4byte	.LASF59
 4083 03f0 07       		.byte	0x7
 4084 03f1 66       		.byte	0x66
 4085 03f2 9C030000 		.4byte	0x39c
 4086 03f6 14       		.uleb128 0x14
 4087 03f7 04       		.byte	0x4
 4088 03f8 07       		.byte	0x7
 4089 03f9 7C01     		.2byte	0x17c
 4090 03fb 1E040000 		.4byte	0x41e
 4091 03ff 0E       		.uleb128 0xe
 4092 0400 9B050000 		.4byte	.LASF60
 4093 0404 07       		.byte	0x7
 4094 0405 7E01     		.2byte	0x17e
 4095 0407 42000000 		.4byte	0x42
 4096 040b 02       		.byte	0x2
 4097 040c 23       		.byte	0x23
 4098 040d 00       		.uleb128 0
 4099 040e 0E       		.uleb128 0xe
 4100 040f 460C0000 		.4byte	.LASF61
 4101 0413 07       		.byte	0x7
 4102 0414 7F01     		.2byte	0x17f
 4103 0416 54000000 		.4byte	0x54
 4104 041a 02       		.byte	0x2
 4105 041b 23       		.byte	0x23
 4106 041c 02       		.uleb128 0x2
 4107 041d 00       		.byte	0
 4108 041e 0C       		.uleb128 0xc
 4109 041f 63010000 		.4byte	.LASF62
 4110 0423 07       		.byte	0x7
 4111 0424 8101     		.2byte	0x181
 4112 0426 F6030000 		.4byte	0x3f6
 4113 042a 08       		.uleb128 0x8
 4114 042b 30000000 		.4byte	0x30
 4115 042f 3A040000 		.4byte	0x43a
 4116 0433 09       		.uleb128 0x9
 4117 0434 DC000000 		.4byte	0xdc
 4118 0438 05       		.byte	0x5
 4119 0439 00       		.byte	0
 4120 043a 14       		.uleb128 0x14
 4121 043b 04       		.byte	0x4
 4122 043c 07       		.byte	0x7
 4123 043d E502     		.2byte	0x2e5
ARM GAS  C:\Users\X0217454\AppData\Local\Temp\cc5FLHAl.s 			page 93


 4124 043f 80040000 		.4byte	0x480
 4125 0443 0E       		.uleb128 0xe
 4126 0444 BC020000 		.4byte	.LASF63
 4127 0448 07       		.byte	0x7
 4128 0449 E702     		.2byte	0x2e7
 4129 044b 30000000 		.4byte	0x30
 4130 044f 02       		.byte	0x2
 4131 0450 23       		.byte	0x23
 4132 0451 00       		.uleb128 0
 4133 0452 0E       		.uleb128 0xe
 4134 0453 75080000 		.4byte	.LASF64
 4135 0457 07       		.byte	0x7
 4136 0458 E802     		.2byte	0x2e8
 4137 045a 30000000 		.4byte	0x30
 4138 045e 02       		.byte	0x2
 4139 045f 23       		.byte	0x23
 4140 0460 01       		.uleb128 0x1
 4141 0461 0E       		.uleb128 0xe
 4142 0462 C60B0000 		.4byte	.LASF65
 4143 0466 07       		.byte	0x7
 4144 0467 E902     		.2byte	0x2e9
 4145 0469 30000000 		.4byte	0x30
 4146 046d 02       		.byte	0x2
 4147 046e 23       		.byte	0x23
 4148 046f 02       		.uleb128 0x2
 4149 0470 0E       		.uleb128 0xe
 4150 0471 28090000 		.4byte	.LASF66
 4151 0475 07       		.byte	0x7
 4152 0476 EA02     		.2byte	0x2ea
 4153 0478 30000000 		.4byte	0x30
 4154 047c 02       		.byte	0x2
 4155 047d 23       		.byte	0x23
 4156 047e 03       		.uleb128 0x3
 4157 047f 00       		.byte	0
 4158 0480 0C       		.uleb128 0xc
 4159 0481 C1040000 		.4byte	.LASF67
 4160 0485 07       		.byte	0x7
 4161 0486 EB02     		.2byte	0x2eb
 4162 0488 3A040000 		.4byte	0x43a
 4163 048c 14       		.uleb128 0x14
 4164 048d 04       		.byte	0x4
 4165 048e 07       		.byte	0x7
 4166 048f EE02     		.2byte	0x2ee
 4167 0491 C2040000 		.4byte	0x4c2
 4168 0495 0E       		.uleb128 0xe
 4169 0496 78060000 		.4byte	.LASF68
 4170 049a 07       		.byte	0x7
 4171 049b F002     		.2byte	0x2f0
 4172 049d 42000000 		.4byte	0x42
 4173 04a1 02       		.byte	0x2
 4174 04a2 23       		.byte	0x23
 4175 04a3 00       		.uleb128 0
 4176 04a4 15       		.uleb128 0x15
 4177 04a5 736400   		.ascii	"sd\000"
 4178 04a8 07       		.byte	0x7
 4179 04a9 F102     		.2byte	0x2f1
 4180 04ab 30000000 		.4byte	0x30
ARM GAS  C:\Users\X0217454\AppData\Local\Temp\cc5FLHAl.s 			page 94


 4181 04af 02       		.byte	0x2
 4182 04b0 23       		.byte	0x23
 4183 04b1 02       		.uleb128 0x2
 4184 04b2 0E       		.uleb128 0xe
 4185 04b3 460C0000 		.4byte	.LASF61
 4186 04b7 07       		.byte	0x7
 4187 04b8 F202     		.2byte	0x2f2
 4188 04ba 30000000 		.4byte	0x30
 4189 04be 02       		.byte	0x2
 4190 04bf 23       		.byte	0x23
 4191 04c0 03       		.uleb128 0x3
 4192 04c1 00       		.byte	0
 4193 04c2 0C       		.uleb128 0xc
 4194 04c3 86000000 		.4byte	.LASF69
 4195 04c7 07       		.byte	0x7
 4196 04c8 F302     		.2byte	0x2f3
 4197 04ca 8C040000 		.4byte	0x48c
 4198 04ce 14       		.uleb128 0x14
 4199 04cf 04       		.byte	0x4
 4200 04d0 07       		.byte	0x7
 4201 04d1 F502     		.2byte	0x2f5
 4202 04d3 13050000 		.4byte	0x513
 4203 04d7 15       		.uleb128 0x15
 4204 04d8 736400   		.ascii	"sd\000"
 4205 04db 07       		.byte	0x7
 4206 04dc F702     		.2byte	0x2f7
 4207 04de 30000000 		.4byte	0x30
 4208 04e2 02       		.byte	0x2
 4209 04e3 23       		.byte	0x23
 4210 04e4 00       		.uleb128 0
 4211 04e5 0E       		.uleb128 0xe
 4212 04e6 AA080000 		.4byte	.LASF70
 4213 04ea 07       		.byte	0x7
 4214 04eb F802     		.2byte	0x2f8
 4215 04ed 30000000 		.4byte	0x30
 4216 04f1 02       		.byte	0x2
 4217 04f2 23       		.byte	0x23
 4218 04f3 01       		.uleb128 0x1
 4219 04f4 0E       		.uleb128 0xe
 4220 04f5 D8080000 		.4byte	.LASF71
 4221 04f9 07       		.byte	0x7
 4222 04fa F902     		.2byte	0x2f9
 4223 04fc 30000000 		.4byte	0x30
 4224 0500 02       		.byte	0x2
 4225 0501 23       		.byte	0x23
 4226 0502 02       		.uleb128 0x2
 4227 0503 0E       		.uleb128 0xe
 4228 0504 E1080000 		.4byte	.LASF72
 4229 0508 07       		.byte	0x7
 4230 0509 FA02     		.2byte	0x2fa
 4231 050b 30000000 		.4byte	0x30
 4232 050f 02       		.byte	0x2
 4233 0510 23       		.byte	0x23
 4234 0511 03       		.uleb128 0x3
 4235 0512 00       		.byte	0
 4236 0513 0C       		.uleb128 0xc
 4237 0514 550C0000 		.4byte	.LASF73
ARM GAS  C:\Users\X0217454\AppData\Local\Temp\cc5FLHAl.s 			page 95


 4238 0518 07       		.byte	0x7
 4239 0519 FB02     		.2byte	0x2fb
 4240 051b CE040000 		.4byte	0x4ce
 4241 051f 14       		.uleb128 0x14
 4242 0520 0C       		.byte	0xc
 4243 0521 07       		.byte	0x7
 4244 0522 FE02     		.2byte	0x2fe
 4245 0524 82050000 		.4byte	0x582
 4246 0528 0E       		.uleb128 0xe
 4247 0529 78060000 		.4byte	.LASF68
 4248 052d 07       		.byte	0x7
 4249 052e 0003     		.2byte	0x300
 4250 0530 42000000 		.4byte	0x42
 4251 0534 02       		.byte	0x2
 4252 0535 23       		.byte	0x23
 4253 0536 00       		.uleb128 0
 4254 0537 15       		.uleb128 0x15
 4255 0538 736400   		.ascii	"sd\000"
 4256 053b 07       		.byte	0x7
 4257 053c 0103     		.2byte	0x301
 4258 053e 30000000 		.4byte	0x30
 4259 0542 02       		.byte	0x2
 4260 0543 23       		.byte	0x23
 4261 0544 02       		.uleb128 0x2
 4262 0545 0E       		.uleb128 0xe
 4263 0546 AA080000 		.4byte	.LASF70
 4264 054a 07       		.byte	0x7
 4265 054b 0203     		.2byte	0x302
 4266 054d 30000000 		.4byte	0x30
 4267 0551 02       		.byte	0x2
 4268 0552 23       		.byte	0x23
 4269 0553 03       		.uleb128 0x3
 4270 0554 0E       		.uleb128 0xe
 4271 0555 420B0000 		.4byte	.LASF74
 4272 0559 07       		.byte	0x7
 4273 055a 0303     		.2byte	0x303
 4274 055c 54000000 		.4byte	0x54
 4275 0560 02       		.byte	0x2
 4276 0561 23       		.byte	0x23
 4277 0562 04       		.uleb128 0x4
 4278 0563 0E       		.uleb128 0xe
 4279 0564 A70B0000 		.4byte	.LASF75
 4280 0568 07       		.byte	0x7
 4281 0569 0403     		.2byte	0x304
 4282 056b 54000000 		.4byte	0x54
 4283 056f 02       		.byte	0x2
 4284 0570 23       		.byte	0x23
 4285 0571 06       		.uleb128 0x6
 4286 0572 0E       		.uleb128 0xe
 4287 0573 B0050000 		.4byte	.LASF76
 4288 0577 07       		.byte	0x7
 4289 0578 0503     		.2byte	0x305
 4290 057a 6D000000 		.4byte	0x6d
 4291 057e 02       		.byte	0x2
 4292 057f 23       		.byte	0x23
 4293 0580 08       		.uleb128 0x8
 4294 0581 00       		.byte	0
ARM GAS  C:\Users\X0217454\AppData\Local\Temp\cc5FLHAl.s 			page 96


 4295 0582 0C       		.uleb128 0xc
 4296 0583 6D0A0000 		.4byte	.LASF77
 4297 0587 07       		.byte	0x7
 4298 0588 0603     		.2byte	0x306
 4299 058a 1F050000 		.4byte	0x51f
 4300 058e 14       		.uleb128 0x14
 4301 058f 0C       		.byte	0xc
 4302 0590 07       		.byte	0x7
 4303 0591 0803     		.2byte	0x308
 4304 0593 E2050000 		.4byte	0x5e2
 4305 0597 0E       		.uleb128 0xe
 4306 0598 78060000 		.4byte	.LASF68
 4307 059c 07       		.byte	0x7
 4308 059d 0A03     		.2byte	0x30a
 4309 059f 42000000 		.4byte	0x42
 4310 05a3 02       		.byte	0x2
 4311 05a4 23       		.byte	0x23
 4312 05a5 00       		.uleb128 0
 4313 05a6 15       		.uleb128 0x15
 4314 05a7 736400   		.ascii	"sd\000"
 4315 05aa 07       		.byte	0x7
 4316 05ab 0B03     		.2byte	0x30b
 4317 05ad 30000000 		.4byte	0x30
 4318 05b1 02       		.byte	0x2
 4319 05b2 23       		.byte	0x23
 4320 05b3 02       		.uleb128 0x2
 4321 05b4 0E       		.uleb128 0xe
 4322 05b5 AA080000 		.4byte	.LASF70
 4323 05b9 07       		.byte	0x7
 4324 05ba 0C03     		.2byte	0x30c
 4325 05bc 30000000 		.4byte	0x30
 4326 05c0 02       		.byte	0x2
 4327 05c1 23       		.byte	0x23
 4328 05c2 03       		.uleb128 0x3
 4329 05c3 0E       		.uleb128 0xe
 4330 05c4 420B0000 		.4byte	.LASF74
 4331 05c8 07       		.byte	0x7
 4332 05c9 0D03     		.2byte	0x30d
 4333 05cb 54000000 		.4byte	0x54
 4334 05cf 02       		.byte	0x2
 4335 05d0 23       		.byte	0x23
 4336 05d1 04       		.uleb128 0x4
 4337 05d2 0E       		.uleb128 0xe
 4338 05d3 B0050000 		.4byte	.LASF76
 4339 05d7 07       		.byte	0x7
 4340 05d8 0E03     		.2byte	0x30e
 4341 05da 2A040000 		.4byte	0x42a
 4342 05de 02       		.byte	0x2
 4343 05df 23       		.byte	0x23
 4344 05e0 06       		.uleb128 0x6
 4345 05e1 00       		.byte	0
 4346 05e2 0C       		.uleb128 0xc
 4347 05e3 C1070000 		.4byte	.LASF78
 4348 05e7 07       		.byte	0x7
 4349 05e8 0F03     		.2byte	0x30f
 4350 05ea 8E050000 		.4byte	0x58e
 4351 05ee 14       		.uleb128 0x14
ARM GAS  C:\Users\X0217454\AppData\Local\Temp\cc5FLHAl.s 			page 97


 4352 05ef 0C       		.byte	0xc
 4353 05f0 07       		.byte	0x7
 4354 05f1 1B03     		.2byte	0x31b
 4355 05f3 51060000 		.4byte	0x651
 4356 05f7 0E       		.uleb128 0xe
 4357 05f8 600A0000 		.4byte	.LASF79
 4358 05fc 07       		.byte	0x7
 4359 05fd 1D03     		.2byte	0x31d
 4360 05ff 42000000 		.4byte	0x42
 4361 0603 02       		.byte	0x2
 4362 0604 23       		.byte	0x23
 4363 0605 00       		.uleb128 0
 4364 0606 15       		.uleb128 0x15
 4365 0607 736400   		.ascii	"sd\000"
 4366 060a 07       		.byte	0x7
 4367 060b 1E03     		.2byte	0x31e
 4368 060d 30000000 		.4byte	0x30
 4369 0611 02       		.byte	0x2
 4370 0612 23       		.byte	0x23
 4371 0613 02       		.uleb128 0x2
 4372 0614 0E       		.uleb128 0xe
 4373 0615 F5010000 		.4byte	.LASF80
 4374 0619 07       		.byte	0x7
 4375 061a 1F03     		.2byte	0x31f
 4376 061c 30000000 		.4byte	0x30
 4377 0620 02       		.byte	0x2
 4378 0621 23       		.byte	0x23
 4379 0622 03       		.uleb128 0x3
 4380 0623 0E       		.uleb128 0xe
 4381 0624 420B0000 		.4byte	.LASF74
 4382 0628 07       		.byte	0x7
 4383 0629 2003     		.2byte	0x320
 4384 062b 54000000 		.4byte	0x54
 4385 062f 02       		.byte	0x2
 4386 0630 23       		.byte	0x23
 4387 0631 04       		.uleb128 0x4
 4388 0632 0E       		.uleb128 0xe
 4389 0633 A70B0000 		.4byte	.LASF75
 4390 0637 07       		.byte	0x7
 4391 0638 2103     		.2byte	0x321
 4392 063a 54000000 		.4byte	0x54
 4393 063e 02       		.byte	0x2
 4394 063f 23       		.byte	0x23
 4395 0640 06       		.uleb128 0x6
 4396 0641 0E       		.uleb128 0xe
 4397 0642 B0050000 		.4byte	.LASF76
 4398 0646 07       		.byte	0x7
 4399 0647 2203     		.2byte	0x322
 4400 0649 6D000000 		.4byte	0x6d
 4401 064d 02       		.byte	0x2
 4402 064e 23       		.byte	0x23
 4403 064f 08       		.uleb128 0x8
 4404 0650 00       		.byte	0
 4405 0651 0C       		.uleb128 0xc
 4406 0652 C0090000 		.4byte	.LASF81
 4407 0656 07       		.byte	0x7
 4408 0657 2303     		.2byte	0x323
ARM GAS  C:\Users\X0217454\AppData\Local\Temp\cc5FLHAl.s 			page 98


 4409 0659 EE050000 		.4byte	0x5ee
 4410 065d 14       		.uleb128 0x14
 4411 065e 0C       		.byte	0xc
 4412 065f 07       		.byte	0x7
 4413 0660 2503     		.2byte	0x325
 4414 0662 B1060000 		.4byte	0x6b1
 4415 0666 0E       		.uleb128 0xe
 4416 0667 600A0000 		.4byte	.LASF79
 4417 066b 07       		.byte	0x7
 4418 066c 2703     		.2byte	0x327
 4419 066e 42000000 		.4byte	0x42
 4420 0672 02       		.byte	0x2
 4421 0673 23       		.byte	0x23
 4422 0674 00       		.uleb128 0
 4423 0675 15       		.uleb128 0x15
 4424 0676 736400   		.ascii	"sd\000"
 4425 0679 07       		.byte	0x7
 4426 067a 2803     		.2byte	0x328
 4427 067c 30000000 		.4byte	0x30
 4428 0680 02       		.byte	0x2
 4429 0681 23       		.byte	0x23
 4430 0682 02       		.uleb128 0x2
 4431 0683 0E       		.uleb128 0xe
 4432 0684 F5010000 		.4byte	.LASF80
 4433 0688 07       		.byte	0x7
 4434 0689 2903     		.2byte	0x329
 4435 068b 30000000 		.4byte	0x30
 4436 068f 02       		.byte	0x2
 4437 0690 23       		.byte	0x23
 4438 0691 03       		.uleb128 0x3
 4439 0692 0E       		.uleb128 0xe
 4440 0693 420B0000 		.4byte	.LASF74
 4441 0697 07       		.byte	0x7
 4442 0698 2A03     		.2byte	0x32a
 4443 069a 54000000 		.4byte	0x54
 4444 069e 02       		.byte	0x2
 4445 069f 23       		.byte	0x23
 4446 06a0 04       		.uleb128 0x4
 4447 06a1 0E       		.uleb128 0xe
 4448 06a2 B0050000 		.4byte	.LASF76
 4449 06a6 07       		.byte	0x7
 4450 06a7 2B03     		.2byte	0x32b
 4451 06a9 2A040000 		.4byte	0x42a
 4452 06ad 02       		.byte	0x2
 4453 06ae 23       		.byte	0x23
 4454 06af 06       		.uleb128 0x6
 4455 06b0 00       		.byte	0
 4456 06b1 0C       		.uleb128 0xc
 4457 06b2 BC060000 		.4byte	.LASF82
 4458 06b6 07       		.byte	0x7
 4459 06b7 2C03     		.2byte	0x32c
 4460 06b9 5D060000 		.4byte	0x65d
 4461 06bd 0F       		.uleb128 0xf
 4462 06be 0C       		.byte	0xc
 4463 06bf 07       		.byte	0x7
 4464 06c0 3703     		.2byte	0x337
 4465 06c2 DF060000 		.4byte	0x6df
ARM GAS  C:\Users\X0217454\AppData\Local\Temp\cc5FLHAl.s 			page 99


 4466 06c6 10       		.uleb128 0x10
 4467 06c7 5B040000 		.4byte	.LASF83
 4468 06cb 07       		.byte	0x7
 4469 06cc 3803     		.2byte	0x338
 4470 06ce 51060000 		.4byte	0x651
 4471 06d2 10       		.uleb128 0x10
 4472 06d3 BD080000 		.4byte	.LASF84
 4473 06d7 07       		.byte	0x7
 4474 06d8 3903     		.2byte	0x339
 4475 06da B1060000 		.4byte	0x6b1
 4476 06de 00       		.byte	0
 4477 06df 0C       		.uleb128 0xc
 4478 06e0 2F050000 		.4byte	.LASF85
 4479 06e4 07       		.byte	0x7
 4480 06e5 3D03     		.2byte	0x33d
 4481 06e7 BD060000 		.4byte	0x6bd
 4482 06eb 0F       		.uleb128 0xf
 4483 06ec 0C       		.byte	0xc
 4484 06ed 07       		.byte	0x7
 4485 06ee 3F03     		.2byte	0x33f
 4486 06f0 0D070000 		.4byte	0x70d
 4487 06f4 10       		.uleb128 0x10
 4488 06f5 5B040000 		.4byte	.LASF83
 4489 06f9 07       		.byte	0x7
 4490 06fa 4003     		.2byte	0x340
 4491 06fc 82050000 		.4byte	0x582
 4492 0700 10       		.uleb128 0x10
 4493 0701 BD080000 		.4byte	.LASF84
 4494 0705 07       		.byte	0x7
 4495 0706 4103     		.2byte	0x341
 4496 0708 E2050000 		.4byte	0x5e2
 4497 070c 00       		.byte	0
 4498 070d 0C       		.uleb128 0xc
 4499 070e 8E060000 		.4byte	.LASF86
 4500 0712 07       		.byte	0x7
 4501 0713 4503     		.2byte	0x345
 4502 0715 EB060000 		.4byte	0x6eb
 4503 0719 14       		.uleb128 0x14
 4504 071a 04       		.byte	0x4
 4505 071b 07       		.byte	0x7
 4506 071c 4703     		.2byte	0x347
 4507 071e 5E070000 		.4byte	0x75e
 4508 0722 15       		.uleb128 0x15
 4509 0723 736400   		.ascii	"sd\000"
 4510 0726 07       		.byte	0x7
 4511 0727 4903     		.2byte	0x349
 4512 0729 30000000 		.4byte	0x30
 4513 072d 02       		.byte	0x2
 4514 072e 23       		.byte	0x23
 4515 072f 00       		.uleb128 0
 4516 0730 0E       		.uleb128 0xe
 4517 0731 ED010000 		.4byte	.LASF87
 4518 0735 07       		.byte	0x7
 4519 0736 4A03     		.2byte	0x34a
 4520 0738 30000000 		.4byte	0x30
 4521 073c 02       		.byte	0x2
 4522 073d 23       		.byte	0x23
ARM GAS  C:\Users\X0217454\AppData\Local\Temp\cc5FLHAl.s 			page 100


 4523 073e 01       		.uleb128 0x1
 4524 073f 0E       		.uleb128 0xe
 4525 0740 D8080000 		.4byte	.LASF71
 4526 0744 07       		.byte	0x7
 4527 0745 4B03     		.2byte	0x34b
 4528 0747 30000000 		.4byte	0x30
 4529 074b 02       		.byte	0x2
 4530 074c 23       		.byte	0x23
 4531 074d 02       		.uleb128 0x2
 4532 074e 0E       		.uleb128 0xe
 4533 074f E1080000 		.4byte	.LASF72
 4534 0753 07       		.byte	0x7
 4535 0754 4C03     		.2byte	0x34c
 4536 0756 30000000 		.4byte	0x30
 4537 075a 02       		.byte	0x2
 4538 075b 23       		.byte	0x23
 4539 075c 03       		.uleb128 0x3
 4540 075d 00       		.byte	0
 4541 075e 0C       		.uleb128 0xc
 4542 075f A2000000 		.4byte	.LASF88
 4543 0763 07       		.byte	0x7
 4544 0764 4D03     		.2byte	0x34d
 4545 0766 19070000 		.4byte	0x719
 4546 076a 14       		.uleb128 0x14
 4547 076b 04       		.byte	0x4
 4548 076c 07       		.byte	0x7
 4549 076d 4F03     		.2byte	0x34f
 4550 076f AF070000 		.4byte	0x7af
 4551 0773 15       		.uleb128 0x15
 4552 0774 736400   		.ascii	"sd\000"
 4553 0777 07       		.byte	0x7
 4554 0778 5103     		.2byte	0x351
 4555 077a 30000000 		.4byte	0x30
 4556 077e 02       		.byte	0x2
 4557 077f 23       		.byte	0x23
 4558 0780 00       		.uleb128 0
 4559 0781 0E       		.uleb128 0xe
 4560 0782 CF080000 		.4byte	.LASF89
 4561 0786 07       		.byte	0x7
 4562 0787 5203     		.2byte	0x352
 4563 0789 30000000 		.4byte	0x30
 4564 078d 02       		.byte	0x2
 4565 078e 23       		.byte	0x23
 4566 078f 01       		.uleb128 0x1
 4567 0790 0E       		.uleb128 0xe
 4568 0791 D8080000 		.4byte	.LASF71
 4569 0795 07       		.byte	0x7
 4570 0796 5303     		.2byte	0x353
 4571 0798 30000000 		.4byte	0x30
 4572 079c 02       		.byte	0x2
 4573 079d 23       		.byte	0x23
 4574 079e 02       		.uleb128 0x2
 4575 079f 0E       		.uleb128 0xe
 4576 07a0 E1080000 		.4byte	.LASF72
 4577 07a4 07       		.byte	0x7
 4578 07a5 5403     		.2byte	0x354
 4579 07a7 30000000 		.4byte	0x30
ARM GAS  C:\Users\X0217454\AppData\Local\Temp\cc5FLHAl.s 			page 101


 4580 07ab 02       		.byte	0x2
 4581 07ac 23       		.byte	0x23
 4582 07ad 03       		.uleb128 0x3
 4583 07ae 00       		.byte	0
 4584 07af 0C       		.uleb128 0xc
 4585 07b0 660C0000 		.4byte	.LASF90
 4586 07b4 07       		.byte	0x7
 4587 07b5 5503     		.2byte	0x355
 4588 07b7 6A070000 		.4byte	0x76a
 4589 07bb 14       		.uleb128 0x14
 4590 07bc 0C       		.byte	0xc
 4591 07bd 07       		.byte	0x7
 4592 07be 5803     		.2byte	0x358
 4593 07c0 3D080000 		.4byte	0x83d
 4594 07c4 0E       		.uleb128 0xe
 4595 07c5 83070000 		.4byte	.LASF91
 4596 07c9 07       		.byte	0x7
 4597 07ca 5A03     		.2byte	0x35a
 4598 07cc 30000000 		.4byte	0x30
 4599 07d0 02       		.byte	0x2
 4600 07d1 23       		.byte	0x23
 4601 07d2 00       		.uleb128 0
 4602 07d3 0E       		.uleb128 0xe
 4603 07d4 850B0000 		.4byte	.LASF92
 4604 07d8 07       		.byte	0x7
 4605 07d9 5B03     		.2byte	0x35b
 4606 07db 30000000 		.4byte	0x30
 4607 07df 02       		.byte	0x2
 4608 07e0 23       		.byte	0x23
 4609 07e1 01       		.uleb128 0x1
 4610 07e2 0E       		.uleb128 0xe
 4611 07e3 F0090000 		.4byte	.LASF93
 4612 07e7 07       		.byte	0x7
 4613 07e8 5C03     		.2byte	0x35c
 4614 07ea 30000000 		.4byte	0x30
 4615 07ee 02       		.byte	0x2
 4616 07ef 23       		.byte	0x23
 4617 07f0 02       		.uleb128 0x2
 4618 07f1 0E       		.uleb128 0xe
 4619 07f2 460C0000 		.4byte	.LASF61
 4620 07f6 07       		.byte	0x7
 4621 07f7 5D03     		.2byte	0x35d
 4622 07f9 30000000 		.4byte	0x30
 4623 07fd 02       		.byte	0x2
 4624 07fe 23       		.byte	0x23
 4625 07ff 03       		.uleb128 0x3
 4626 0800 0E       		.uleb128 0xe
 4627 0801 DD010000 		.4byte	.LASF94
 4628 0805 07       		.byte	0x7
 4629 0806 5E03     		.2byte	0x35e
 4630 0808 54000000 		.4byte	0x54
 4631 080c 02       		.byte	0x2
 4632 080d 23       		.byte	0x23
 4633 080e 04       		.uleb128 0x4
 4634 080f 0E       		.uleb128 0xe
 4635 0810 68090000 		.4byte	.LASF95
 4636 0814 07       		.byte	0x7
ARM GAS  C:\Users\X0217454\AppData\Local\Temp\cc5FLHAl.s 			page 102


 4637 0815 5F03     		.2byte	0x35f
 4638 0817 54000000 		.4byte	0x54
 4639 081b 02       		.byte	0x2
 4640 081c 23       		.byte	0x23
 4641 081d 06       		.uleb128 0x6
 4642 081e 0E       		.uleb128 0xe
 4643 081f 86040000 		.4byte	.LASF28
 4644 0823 07       		.byte	0x7
 4645 0824 6003     		.2byte	0x360
 4646 0826 54000000 		.4byte	0x54
 4647 082a 02       		.byte	0x2
 4648 082b 23       		.byte	0x23
 4649 082c 08       		.uleb128 0x8
 4650 082d 0E       		.uleb128 0xe
 4651 082e 560D0000 		.4byte	.LASF27
 4652 0832 07       		.byte	0x7
 4653 0833 6103     		.2byte	0x361
 4654 0835 54000000 		.4byte	0x54
 4655 0839 02       		.byte	0x2
 4656 083a 23       		.byte	0x23
 4657 083b 0A       		.uleb128 0xa
 4658 083c 00       		.byte	0
 4659 083d 0C       		.uleb128 0xc
 4660 083e 600B0000 		.4byte	.LASF96
 4661 0842 07       		.byte	0x7
 4662 0843 6203     		.2byte	0x362
 4663 0845 BB070000 		.4byte	0x7bb
 4664 0849 14       		.uleb128 0x14
 4665 084a 08       		.byte	0x8
 4666 084b 07       		.byte	0x7
 4667 084c 6503     		.2byte	0x365
 4668 084e 9E080000 		.4byte	0x89e
 4669 0852 0E       		.uleb128 0xe
 4670 0853 9B050000 		.4byte	.LASF60
 4671 0857 07       		.byte	0x7
 4672 0858 6703     		.2byte	0x367
 4673 085a 54000000 		.4byte	0x54
 4674 085e 02       		.byte	0x2
 4675 085f 23       		.byte	0x23
 4676 0860 00       		.uleb128 0
 4677 0861 0E       		.uleb128 0xe
 4678 0862 850B0000 		.4byte	.LASF92
 4679 0866 07       		.byte	0x7
 4680 0867 6803     		.2byte	0x368
 4681 0869 30000000 		.4byte	0x30
 4682 086d 02       		.byte	0x2
 4683 086e 23       		.byte	0x23
 4684 086f 02       		.uleb128 0x2
 4685 0870 0E       		.uleb128 0xe
 4686 0871 F0090000 		.4byte	.LASF93
 4687 0875 07       		.byte	0x7
 4688 0876 6903     		.2byte	0x369
 4689 0878 30000000 		.4byte	0x30
 4690 087c 02       		.byte	0x2
 4691 087d 23       		.byte	0x23
 4692 087e 03       		.uleb128 0x3
 4693 087f 0E       		.uleb128 0xe
ARM GAS  C:\Users\X0217454\AppData\Local\Temp\cc5FLHAl.s 			page 103


 4694 0880 DD010000 		.4byte	.LASF94
 4695 0884 07       		.byte	0x7
 4696 0885 6A03     		.2byte	0x36a
 4697 0887 54000000 		.4byte	0x54
 4698 088b 02       		.byte	0x2
 4699 088c 23       		.byte	0x23
 4700 088d 04       		.uleb128 0x4
 4701 088e 0E       		.uleb128 0xe
 4702 088f 68090000 		.4byte	.LASF95
 4703 0893 07       		.byte	0x7
 4704 0894 6B03     		.2byte	0x36b
 4705 0896 54000000 		.4byte	0x54
 4706 089a 02       		.byte	0x2
 4707 089b 23       		.byte	0x23
 4708 089c 06       		.uleb128 0x6
 4709 089d 00       		.byte	0
 4710 089e 0C       		.uleb128 0xc
 4711 089f D9090000 		.4byte	.LASF97
 4712 08a3 07       		.byte	0x7
 4713 08a4 6C03     		.2byte	0x36c
 4714 08a6 49080000 		.4byte	0x849
 4715 08aa 14       		.uleb128 0x14
 4716 08ab 04       		.byte	0x4
 4717 08ac 07       		.byte	0x7
 4718 08ad 6E03     		.2byte	0x36e
 4719 08af EF080000 		.4byte	0x8ef
 4720 08b3 15       		.uleb128 0x15
 4721 08b4 736400   		.ascii	"sd\000"
 4722 08b7 07       		.byte	0x7
 4723 08b8 7003     		.2byte	0x370
 4724 08ba 30000000 		.4byte	0x30
 4725 08be 02       		.byte	0x2
 4726 08bf 23       		.byte	0x23
 4727 08c0 00       		.uleb128 0
 4728 08c1 0E       		.uleb128 0xe
 4729 08c2 17000000 		.4byte	.LASF98
 4730 08c6 07       		.byte	0x7
 4731 08c7 7103     		.2byte	0x371
 4732 08c9 30000000 		.4byte	0x30
 4733 08cd 02       		.byte	0x2
 4734 08ce 23       		.byte	0x23
 4735 08cf 01       		.uleb128 0x1
 4736 08d0 0E       		.uleb128 0xe
 4737 08d1 4E070000 		.4byte	.LASF99
 4738 08d5 07       		.byte	0x7
 4739 08d6 7203     		.2byte	0x372
 4740 08d8 30000000 		.4byte	0x30
 4741 08dc 02       		.byte	0x2
 4742 08dd 23       		.byte	0x23
 4743 08de 02       		.uleb128 0x2
 4744 08df 0E       		.uleb128 0xe
 4745 08e0 3F010000 		.4byte	.LASF100
 4746 08e4 07       		.byte	0x7
 4747 08e5 7303     		.2byte	0x373
 4748 08e7 30000000 		.4byte	0x30
 4749 08eb 02       		.byte	0x2
 4750 08ec 23       		.byte	0x23
ARM GAS  C:\Users\X0217454\AppData\Local\Temp\cc5FLHAl.s 			page 104


 4751 08ed 03       		.uleb128 0x3
 4752 08ee 00       		.byte	0
 4753 08ef 0C       		.uleb128 0xc
 4754 08f0 760C0000 		.4byte	.LASF101
 4755 08f4 07       		.byte	0x7
 4756 08f5 7403     		.2byte	0x374
 4757 08f7 AA080000 		.4byte	0x8aa
 4758 08fb 14       		.uleb128 0x14
 4759 08fc 04       		.byte	0x4
 4760 08fd 07       		.byte	0x7
 4761 08fe 7603     		.2byte	0x376
 4762 0900 40090000 		.4byte	0x940
 4763 0904 15       		.uleb128 0x15
 4764 0905 736400   		.ascii	"sd\000"
 4765 0908 07       		.byte	0x7
 4766 0909 7803     		.2byte	0x378
 4767 090b 30000000 		.4byte	0x30
 4768 090f 02       		.byte	0x2
 4769 0910 23       		.byte	0x23
 4770 0911 00       		.uleb128 0
 4771 0912 0E       		.uleb128 0xe
 4772 0913 17000000 		.4byte	.LASF98
 4773 0917 07       		.byte	0x7
 4774 0918 7903     		.2byte	0x379
 4775 091a 30000000 		.4byte	0x30
 4776 091e 02       		.byte	0x2
 4777 091f 23       		.byte	0x23
 4778 0920 01       		.uleb128 0x1
 4779 0921 0E       		.uleb128 0xe
 4780 0922 4E070000 		.4byte	.LASF99
 4781 0926 07       		.byte	0x7
 4782 0927 7A03     		.2byte	0x37a
 4783 0929 30000000 		.4byte	0x30
 4784 092d 02       		.byte	0x2
 4785 092e 23       		.byte	0x23
 4786 092f 02       		.uleb128 0x2
 4787 0930 0E       		.uleb128 0xe
 4788 0931 3F010000 		.4byte	.LASF100
 4789 0935 07       		.byte	0x7
 4790 0936 7B03     		.2byte	0x37b
 4791 0938 30000000 		.4byte	0x30
 4792 093c 02       		.byte	0x2
 4793 093d 23       		.byte	0x23
 4794 093e 03       		.uleb128 0x3
 4795 093f 00       		.byte	0
 4796 0940 0C       		.uleb128 0xc
 4797 0941 CB0A0000 		.4byte	.LASF102
 4798 0945 07       		.byte	0x7
 4799 0946 7C03     		.2byte	0x37c
 4800 0948 FB080000 		.4byte	0x8fb
 4801 094c 14       		.uleb128 0x14
 4802 094d 04       		.byte	0x4
 4803 094e 07       		.byte	0x7
 4804 094f 7E03     		.2byte	0x37e
 4805 0951 82090000 		.4byte	0x982
 4806 0955 0E       		.uleb128 0xe
 4807 0956 9B050000 		.4byte	.LASF60
ARM GAS  C:\Users\X0217454\AppData\Local\Temp\cc5FLHAl.s 			page 105


 4808 095a 07       		.byte	0x7
 4809 095b 8003     		.2byte	0x380
 4810 095d 42000000 		.4byte	0x42
 4811 0961 02       		.byte	0x2
 4812 0962 23       		.byte	0x23
 4813 0963 00       		.uleb128 0
 4814 0964 15       		.uleb128 0x15
 4815 0965 736400   		.ascii	"sd\000"
 4816 0968 07       		.byte	0x7
 4817 0969 8103     		.2byte	0x381
 4818 096b 30000000 		.4byte	0x30
 4819 096f 02       		.byte	0x2
 4820 0970 23       		.byte	0x23
 4821 0971 02       		.uleb128 0x2
 4822 0972 0E       		.uleb128 0xe
 4823 0973 3F010000 		.4byte	.LASF100
 4824 0977 07       		.byte	0x7
 4825 0978 8203     		.2byte	0x382
 4826 097a 30000000 		.4byte	0x30
 4827 097e 02       		.byte	0x2
 4828 097f 23       		.byte	0x23
 4829 0980 03       		.uleb128 0x3
 4830 0981 00       		.byte	0
 4831 0982 0C       		.uleb128 0xc
 4832 0983 5F080000 		.4byte	.LASF103
 4833 0987 07       		.byte	0x7
 4834 0988 8303     		.2byte	0x383
 4835 098a 4C090000 		.4byte	0x94c
 4836 098e 14       		.uleb128 0x14
 4837 098f 04       		.byte	0x4
 4838 0990 07       		.byte	0x7
 4839 0991 8603     		.2byte	0x386
 4840 0993 C4090000 		.4byte	0x9c4
 4841 0997 0E       		.uleb128 0xe
 4842 0998 130C0000 		.4byte	.LASF104
 4843 099c 07       		.byte	0x7
 4844 099d 8803     		.2byte	0x388
 4845 099f 54000000 		.4byte	0x54
 4846 09a3 02       		.byte	0x2
 4847 09a4 23       		.byte	0x23
 4848 09a5 00       		.uleb128 0
 4849 09a6 15       		.uleb128 0x15
 4850 09a7 736400   		.ascii	"sd\000"
 4851 09aa 07       		.byte	0x7
 4852 09ab 8903     		.2byte	0x389
 4853 09ad 30000000 		.4byte	0x30
 4854 09b1 02       		.byte	0x2
 4855 09b2 23       		.byte	0x23
 4856 09b3 02       		.uleb128 0x2
 4857 09b4 0E       		.uleb128 0xe
 4858 09b5 F5010000 		.4byte	.LASF80
 4859 09b9 07       		.byte	0x7
 4860 09ba 8A03     		.2byte	0x38a
 4861 09bc 30000000 		.4byte	0x30
 4862 09c0 02       		.byte	0x2
 4863 09c1 23       		.byte	0x23
 4864 09c2 03       		.uleb128 0x3
ARM GAS  C:\Users\X0217454\AppData\Local\Temp\cc5FLHAl.s 			page 106


 4865 09c3 00       		.byte	0
 4866 09c4 0C       		.uleb128 0xc
 4867 09c5 AC010000 		.4byte	.LASF105
 4868 09c9 07       		.byte	0x7
 4869 09ca 8B03     		.2byte	0x38b
 4870 09cc 8E090000 		.4byte	0x98e
 4871 09d0 11       		.uleb128 0x11
 4872 09d1 04       		.byte	0x4
 4873 09d2 08       		.byte	0x8
 4874 09d3 28       		.byte	0x28
 4875 09d4 030A0000 		.4byte	0xa03
 4876 09d8 12       		.uleb128 0x12
 4877 09d9 E00A0000 		.4byte	.LASF51
 4878 09dd 08       		.byte	0x8
 4879 09de 2A       		.byte	0x2a
 4880 09df AD000000 		.4byte	0xad
 4881 09e3 02       		.byte	0x2
 4882 09e4 23       		.byte	0x23
 4883 09e5 00       		.uleb128 0
 4884 09e6 12       		.uleb128 0x12
 4885 09e7 52020000 		.4byte	.LASF106
 4886 09eb 08       		.byte	0x8
 4887 09ec 2B       		.byte	0x2b
 4888 09ed B8000000 		.4byte	0xb8
 4889 09f1 02       		.byte	0x2
 4890 09f2 23       		.byte	0x23
 4891 09f3 02       		.uleb128 0x2
 4892 09f4 12       		.uleb128 0x12
 4893 09f5 1B0B0000 		.4byte	.LASF107
 4894 09f9 08       		.byte	0x8
 4895 09fa 2C       		.byte	0x2c
 4896 09fb B8000000 		.4byte	0xb8
 4897 09ff 02       		.byte	0x2
 4898 0a00 23       		.byte	0x23
 4899 0a01 03       		.uleb128 0x3
 4900 0a02 00       		.byte	0
 4901 0a03 03       		.uleb128 0x3
 4902 0a04 9C090000 		.4byte	.LASF108
 4903 0a08 08       		.byte	0x8
 4904 0a09 2D       		.byte	0x2d
 4905 0a0a D0090000 		.4byte	0x9d0
 4906 0a0e 11       		.uleb128 0x11
 4907 0a0f 10       		.byte	0x10
 4908 0a10 08       		.byte	0x8
 4909 0a11 2F       		.byte	0x2f
 4910 0a12 5D0A0000 		.4byte	0xa5d
 4911 0a16 12       		.uleb128 0x12
 4912 0a17 FA080000 		.4byte	.LASF109
 4913 0a1b 08       		.byte	0x8
 4914 0a1c 31       		.byte	0x31
 4915 0a1d 54000000 		.4byte	0x54
 4916 0a21 02       		.byte	0x2
 4917 0a22 23       		.byte	0x23
 4918 0a23 00       		.uleb128 0
 4919 0a24 12       		.uleb128 0x12
 4920 0a25 0D010000 		.4byte	.LASF110
 4921 0a29 08       		.byte	0x8
ARM GAS  C:\Users\X0217454\AppData\Local\Temp\cc5FLHAl.s 			page 107


 4922 0a2a 32       		.byte	0x32
 4923 0a2b 54000000 		.4byte	0x54
 4924 0a2f 02       		.byte	0x2
 4925 0a30 23       		.byte	0x23
 4926 0a31 02       		.uleb128 0x2
 4927 0a32 12       		.uleb128 0x12
 4928 0a33 B80A0000 		.4byte	.LASF111
 4929 0a37 08       		.byte	0x8
 4930 0a38 33       		.byte	0x33
 4931 0a39 54000000 		.4byte	0x54
 4932 0a3d 02       		.byte	0x2
 4933 0a3e 23       		.byte	0x23
 4934 0a3f 04       		.uleb128 0x4
 4935 0a40 12       		.uleb128 0x12
 4936 0a41 E70A0000 		.4byte	.LASF112
 4937 0a45 08       		.byte	0x8
 4938 0a46 34       		.byte	0x34
 4939 0a47 5D0A0000 		.4byte	0xa5d
 4940 0a4b 02       		.byte	0x2
 4941 0a4c 23       		.byte	0x23
 4942 0a4d 08       		.uleb128 0x8
 4943 0a4e 12       		.uleb128 0x12
 4944 0a4f D0030000 		.4byte	.LASF113
 4945 0a53 08       		.byte	0x8
 4946 0a54 35       		.byte	0x35
 4947 0a55 5D0A0000 		.4byte	0xa5d
 4948 0a59 02       		.byte	0x2
 4949 0a5a 23       		.byte	0x23
 4950 0a5b 0C       		.uleb128 0xc
 4951 0a5c 00       		.byte	0
 4952 0a5d 07       		.uleb128 0x7
 4953 0a5e 04       		.byte	0x4
 4954 0a5f 30000000 		.4byte	0x30
 4955 0a63 03       		.uleb128 0x3
 4956 0a64 F9040000 		.4byte	.LASF114
 4957 0a68 08       		.byte	0x8
 4958 0a69 36       		.byte	0x36
 4959 0a6a 0E0A0000 		.4byte	0xa0e
 4960 0a6e 16       		.uleb128 0x16
 4961 0a6f 00010000 		.4byte	.LASF115
 4962 0a73 0C       		.byte	0xc
 4963 0a74 08       		.byte	0x8
 4964 0a75 40       		.byte	0x40
 4965 0a76 C10A0000 		.4byte	0xac1
 4966 0a7a 12       		.uleb128 0x12
 4967 0a7b A4060000 		.4byte	.LASF116
 4968 0a7f 08       		.byte	0x8
 4969 0a80 42       		.byte	0x42
 4970 0a81 19010000 		.4byte	0x119
 4971 0a85 02       		.byte	0x2
 4972 0a86 23       		.byte	0x23
 4973 0a87 00       		.uleb128 0
 4974 0a88 12       		.uleb128 0x12
 4975 0a89 C9010000 		.4byte	.LASF117
 4976 0a8d 08       		.byte	0x8
 4977 0a8e 43       		.byte	0x43
 4978 0a8f 5D0A0000 		.4byte	0xa5d
ARM GAS  C:\Users\X0217454\AppData\Local\Temp\cc5FLHAl.s 			page 108


 4979 0a93 02       		.byte	0x2
 4980 0a94 23       		.byte	0x23
 4981 0a95 04       		.uleb128 0x4
 4982 0a96 12       		.uleb128 0x12
 4983 0a97 210D0000 		.4byte	.LASF118
 4984 0a9b 08       		.byte	0x8
 4985 0a9c 44       		.byte	0x44
 4986 0a9d 30000000 		.4byte	0x30
 4987 0aa1 02       		.byte	0x2
 4988 0aa2 23       		.byte	0x23
 4989 0aa3 08       		.uleb128 0x8
 4990 0aa4 12       		.uleb128 0x12
 4991 0aa5 B3000000 		.4byte	.LASF119
 4992 0aa9 08       		.byte	0x8
 4993 0aaa 45       		.byte	0x45
 4994 0aab 30000000 		.4byte	0x30
 4995 0aaf 02       		.byte	0x2
 4996 0ab0 23       		.byte	0x23
 4997 0ab1 09       		.uleb128 0x9
 4998 0ab2 12       		.uleb128 0x12
 4999 0ab3 BF010000 		.4byte	.LASF120
 5000 0ab7 08       		.byte	0x8
 5001 0ab8 46       		.byte	0x46
 5002 0ab9 30000000 		.4byte	0x30
 5003 0abd 02       		.byte	0x2
 5004 0abe 23       		.byte	0x23
 5005 0abf 0A       		.uleb128 0xa
 5006 0ac0 00       		.byte	0
 5007 0ac1 03       		.uleb128 0x3
 5008 0ac2 00010000 		.4byte	.LASF115
 5009 0ac6 08       		.byte	0x8
 5010 0ac7 48       		.byte	0x48
 5011 0ac8 6E0A0000 		.4byte	0xa6e
 5012 0acc 17       		.uleb128 0x17
 5013 0acd 01       		.byte	0x1
 5014 0ace 08       		.byte	0x8
 5015 0acf 4C       		.byte	0x4c
 5016 0ad0 3B0B0000 		.4byte	0xb3b
 5017 0ad4 18       		.uleb128 0x18
 5018 0ad5 68030000 		.4byte	.LASF121
 5019 0ad9 00       		.sleb128 0
 5020 0ada 18       		.uleb128 0x18
 5021 0adb 71030000 		.4byte	.LASF122
 5022 0adf 01       		.sleb128 1
 5023 0ae0 18       		.uleb128 0x18
 5024 0ae1 7A030000 		.4byte	.LASF123
 5025 0ae5 02       		.sleb128 2
 5026 0ae6 18       		.uleb128 0x18
 5027 0ae7 83030000 		.4byte	.LASF124
 5028 0aeb 03       		.sleb128 3
 5029 0aec 18       		.uleb128 0x18
 5030 0aed 8C030000 		.4byte	.LASF125
 5031 0af1 04       		.sleb128 4
 5032 0af2 18       		.uleb128 0x18
 5033 0af3 95030000 		.4byte	.LASF126
 5034 0af7 05       		.sleb128 5
 5035 0af8 18       		.uleb128 0x18
ARM GAS  C:\Users\X0217454\AppData\Local\Temp\cc5FLHAl.s 			page 109


 5036 0af9 9E030000 		.4byte	.LASF127
 5037 0afd 06       		.sleb128 6
 5038 0afe 18       		.uleb128 0x18
 5039 0aff A7030000 		.4byte	.LASF128
 5040 0b03 07       		.sleb128 7
 5041 0b04 18       		.uleb128 0x18
 5042 0b05 9C0C0000 		.4byte	.LASF129
 5043 0b09 08       		.sleb128 8
 5044 0b0a 18       		.uleb128 0x18
 5045 0b0b 110B0000 		.4byte	.LASF130
 5046 0b0f 08       		.sleb128 8
 5047 0b10 18       		.uleb128 0x18
 5048 0b11 86090000 		.4byte	.LASF131
 5049 0b15 09       		.sleb128 9
 5050 0b16 18       		.uleb128 0x18
 5051 0b17 970B0000 		.4byte	.LASF132
 5052 0b1b 0A       		.sleb128 10
 5053 0b1c 18       		.uleb128 0x18
 5054 0b1d CF0B0000 		.4byte	.LASF133
 5055 0b21 0B       		.sleb128 11
 5056 0b22 18       		.uleb128 0x18
 5057 0b23 18040000 		.4byte	.LASF134
 5058 0b27 0C       		.sleb128 12
 5059 0b28 18       		.uleb128 0x18
 5060 0b29 37010000 		.4byte	.LASF135
 5061 0b2d 0D       		.sleb128 13
 5062 0b2e 18       		.uleb128 0x18
 5063 0b2f 250B0000 		.4byte	.LASF136
 5064 0b33 0E       		.sleb128 14
 5065 0b34 18       		.uleb128 0x18
 5066 0b35 250A0000 		.4byte	.LASF137
 5067 0b39 0F       		.sleb128 15
 5068 0b3a 00       		.byte	0
 5069 0b3b 11       		.uleb128 0x11
 5070 0b3c 03       		.byte	0x3
 5071 0b3d 08       		.byte	0x8
 5072 0b3e 69       		.byte	0x69
 5073 0b3f 6E0B0000 		.4byte	0xb6e
 5074 0b43 12       		.uleb128 0x12
 5075 0b44 F90B0000 		.4byte	.LASF55
 5076 0b48 08       		.byte	0x8
 5077 0b49 6B       		.byte	0x6b
 5078 0b4a 30000000 		.4byte	0x30
 5079 0b4e 02       		.byte	0x2
 5080 0b4f 23       		.byte	0x23
 5081 0b50 00       		.uleb128 0
 5082 0b51 12       		.uleb128 0x12
 5083 0b52 070B0000 		.4byte	.LASF138
 5084 0b56 08       		.byte	0x8
 5085 0b57 6C       		.byte	0x6c
 5086 0b58 19010000 		.4byte	0x119
 5087 0b5c 02       		.byte	0x2
 5088 0b5d 23       		.byte	0x23
 5089 0b5e 01       		.uleb128 0x1
 5090 0b5f 12       		.uleb128 0x12
 5091 0b60 BC0B0000 		.4byte	.LASF139
 5092 0b64 08       		.byte	0x8
ARM GAS  C:\Users\X0217454\AppData\Local\Temp\cc5FLHAl.s 			page 110


 5093 0b65 6D       		.byte	0x6d
 5094 0b66 19010000 		.4byte	0x119
 5095 0b6a 02       		.byte	0x2
 5096 0b6b 23       		.byte	0x23
 5097 0b6c 02       		.uleb128 0x2
 5098 0b6d 00       		.byte	0
 5099 0b6e 03       		.uleb128 0x3
 5100 0b6f 76000000 		.4byte	.LASF140
 5101 0b73 08       		.byte	0x8
 5102 0b74 6E       		.byte	0x6e
 5103 0b75 3B0B0000 		.4byte	0xb3b
 5104 0b79 17       		.uleb128 0x17
 5105 0b7a 01       		.byte	0x1
 5106 0b7b 08       		.byte	0x8
 5107 0b7c 71       		.byte	0x71
 5108 0b7d 9A0B0000 		.4byte	0xb9a
 5109 0b81 18       		.uleb128 0x18
 5110 0b82 3C0A0000 		.4byte	.LASF141
 5111 0b86 00       		.sleb128 0
 5112 0b87 18       		.uleb128 0x18
 5113 0b88 8C050000 		.4byte	.LASF142
 5114 0b8c 01       		.sleb128 1
 5115 0b8d 18       		.uleb128 0x18
 5116 0b8e E2060000 		.4byte	.LASF143
 5117 0b92 02       		.sleb128 2
 5118 0b93 18       		.uleb128 0x18
 5119 0b94 03080000 		.4byte	.LASF144
 5120 0b98 03       		.sleb128 3
 5121 0b99 00       		.byte	0
 5122 0b9a 03       		.uleb128 0x3
 5123 0b9b 110D0000 		.4byte	.LASF145
 5124 0b9f 08       		.byte	0x8
 5125 0ba0 76       		.byte	0x76
 5126 0ba1 790B0000 		.4byte	0xb79
 5127 0ba5 11       		.uleb128 0x11
 5128 0ba6 10       		.byte	0x10
 5129 0ba7 08       		.byte	0x8
 5130 0ba8 78       		.byte	0x78
 5131 0ba9 E60B0000 		.4byte	0xbe6
 5132 0bad 12       		.uleb128 0x12
 5133 0bae 38000000 		.4byte	.LASF146
 5134 0bb2 08       		.byte	0x8
 5135 0bb3 7A       		.byte	0x7a
 5136 0bb4 5D0A0000 		.4byte	0xa5d
 5137 0bb8 02       		.byte	0x2
 5138 0bb9 23       		.byte	0x23
 5139 0bba 00       		.uleb128 0
 5140 0bbb 12       		.uleb128 0x12
 5141 0bbc B1080000 		.4byte	.LASF147
 5142 0bc0 08       		.byte	0x8
 5143 0bc1 7B       		.byte	0x7b
 5144 0bc2 30000000 		.4byte	0x30
 5145 0bc6 02       		.byte	0x2
 5146 0bc7 23       		.byte	0x23
 5147 0bc8 04       		.uleb128 0x4
 5148 0bc9 12       		.uleb128 0x12
 5149 0bca C3020000 		.4byte	.LASF148
ARM GAS  C:\Users\X0217454\AppData\Local\Temp\cc5FLHAl.s 			page 111


 5150 0bce 08       		.byte	0x8
 5151 0bcf 7C       		.byte	0x7c
 5152 0bd0 0D010000 		.4byte	0x10d
 5153 0bd4 02       		.byte	0x2
 5154 0bd5 23       		.byte	0x23
 5155 0bd6 08       		.uleb128 0x8
 5156 0bd7 12       		.uleb128 0x12
 5157 0bd8 00000000 		.4byte	.LASF149
 5158 0bdc 08       		.byte	0x8
 5159 0bdd 7D       		.byte	0x7d
 5160 0bde 9A0B0000 		.4byte	0xb9a
 5161 0be2 02       		.byte	0x2
 5162 0be3 23       		.byte	0x23
 5163 0be4 0C       		.uleb128 0xc
 5164 0be5 00       		.byte	0
 5165 0be6 03       		.uleb128 0x3
 5166 0be7 03070000 		.4byte	.LASF150
 5167 0beb 08       		.byte	0x8
 5168 0bec 7E       		.byte	0x7e
 5169 0bed A50B0000 		.4byte	0xba5
 5170 0bf1 03       		.uleb128 0x3
 5171 0bf2 DA060000 		.4byte	.LASF151
 5172 0bf6 08       		.byte	0x8
 5173 0bf7 80       		.byte	0x80
 5174 0bf8 30000000 		.4byte	0x30
 5175 0bfc 11       		.uleb128 0x11
 5176 0bfd 1C       		.byte	0x1c
 5177 0bfe 08       		.byte	0x8
 5178 0bff 82       		.byte	0x82
 5179 0c00 3D0C0000 		.4byte	0xc3d
 5180 0c04 12       		.uleb128 0x12
 5181 0c05 53050000 		.4byte	.LASF152
 5182 0c09 08       		.byte	0x8
 5183 0c0a 84       		.byte	0x84
 5184 0c0b 3D0C0000 		.4byte	0xc3d
 5185 0c0f 02       		.byte	0x2
 5186 0c10 23       		.byte	0x23
 5187 0c11 00       		.uleb128 0
 5188 0c12 12       		.uleb128 0x12
 5189 0c13 10020000 		.4byte	.LASF153
 5190 0c17 08       		.byte	0x8
 5191 0c18 85       		.byte	0x85
 5192 0c19 5D0A0000 		.4byte	0xa5d
 5193 0c1d 02       		.byte	0x2
 5194 0c1e 23       		.byte	0x23
 5195 0c1f 04       		.uleb128 0x4
 5196 0c20 12       		.uleb128 0x12
 5197 0c21 E5010000 		.4byte	.LASF154
 5198 0c25 08       		.byte	0x8
 5199 0c26 86       		.byte	0x86
 5200 0c27 430C0000 		.4byte	0xc43
 5201 0c2b 02       		.byte	0x2
 5202 0c2c 23       		.byte	0x23
 5203 0c2d 08       		.uleb128 0x8
 5204 0c2e 12       		.uleb128 0x12
 5205 0c2f 080D0000 		.4byte	.LASF155
 5206 0c33 08       		.byte	0x8
ARM GAS  C:\Users\X0217454\AppData\Local\Temp\cc5FLHAl.s 			page 112


 5207 0c34 87       		.byte	0x87
 5208 0c35 E60B0000 		.4byte	0xbe6
 5209 0c39 02       		.byte	0x2
 5210 0c3a 23       		.byte	0x23
 5211 0c3b 0C       		.uleb128 0xc
 5212 0c3c 00       		.byte	0
 5213 0c3d 07       		.uleb128 0x7
 5214 0c3e 04       		.byte	0x4
 5215 0c3f 030A0000 		.4byte	0xa03
 5216 0c43 07       		.uleb128 0x7
 5217 0c44 04       		.byte	0x4
 5218 0c45 630A0000 		.4byte	0xa63
 5219 0c49 03       		.uleb128 0x3
 5220 0c4a 340D0000 		.4byte	.LASF156
 5221 0c4e 08       		.byte	0x8
 5222 0c4f 88       		.byte	0x88
 5223 0c50 FC0B0000 		.4byte	0xbfc
 5224 0c54 11       		.uleb128 0x11
 5225 0c55 B8       		.byte	0xb8
 5226 0c56 08       		.byte	0x8
 5227 0c57 8B       		.byte	0x8b
 5228 0c58 830D0000 		.4byte	0xd83
 5229 0c5c 13       		.uleb128 0x13
 5230 0c5d 464400   		.ascii	"FD\000"
 5231 0c60 08       		.byte	0x8
 5232 0c61 8D       		.byte	0x8d
 5233 0c62 91000000 		.4byte	0x91
 5234 0c66 02       		.byte	0x2
 5235 0c67 23       		.byte	0x23
 5236 0c68 00       		.uleb128 0
 5237 0c69 12       		.uleb128 0x12
 5238 0c6a 4C0A0000 		.4byte	.LASF157
 5239 0c6e 08       		.byte	0x8
 5240 0c6f 8E       		.byte	0x8e
 5241 0c70 19010000 		.4byte	0x119
 5242 0c74 02       		.byte	0x2
 5243 0c75 23       		.byte	0x23
 5244 0c76 04       		.uleb128 0x4
 5245 0c77 12       		.uleb128 0x12
 5246 0c78 42080000 		.4byte	.LASF158
 5247 0c7c 08       		.byte	0x8
 5248 0c7d 8F       		.byte	0x8f
 5249 0c7e 91030000 		.4byte	0x391
 5250 0c82 02       		.byte	0x2
 5251 0c83 23       		.byte	0x23
 5252 0c84 06       		.uleb128 0x6
 5253 0c85 12       		.uleb128 0x12
 5254 0c86 2F070000 		.4byte	.LASF159
 5255 0c8a 08       		.byte	0x8
 5256 0c8b 90       		.byte	0x90
 5257 0c8c 44030000 		.4byte	0x344
 5258 0c90 02       		.byte	0x2
 5259 0c91 23       		.byte	0x23
 5260 0c92 0C       		.uleb128 0xc
 5261 0c93 12       		.uleb128 0x12
 5262 0c94 11090000 		.4byte	.LASF160
 5263 0c98 08       		.byte	0x8
ARM GAS  C:\Users\X0217454\AppData\Local\Temp\cc5FLHAl.s 			page 113


 5264 0c99 92       		.byte	0x92
 5265 0c9a 830D0000 		.4byte	0xd83
 5266 0c9e 02       		.byte	0x2
 5267 0c9f 23       		.byte	0x23
 5268 0ca0 10       		.uleb128 0x10
 5269 0ca1 12       		.uleb128 0x12
 5270 0ca2 0B000000 		.4byte	.LASF161
 5271 0ca6 08       		.byte	0x8
 5272 0ca7 93       		.byte	0x93
 5273 0ca8 30000000 		.4byte	0x30
 5274 0cac 03       		.byte	0x3
 5275 0cad 23       		.byte	0x23
 5276 0cae 8801     		.uleb128 0x88
 5277 0cb0 12       		.uleb128 0x12
 5278 0cb1 050A0000 		.4byte	.LASF162
 5279 0cb5 08       		.byte	0x8
 5280 0cb6 94       		.byte	0x94
 5281 0cb7 30000000 		.4byte	0x30
 5282 0cbb 03       		.byte	0x3
 5283 0cbc 23       		.byte	0x23
 5284 0cbd 8901     		.uleb128 0x89
 5285 0cbf 12       		.uleb128 0x12
 5286 0cc0 47090000 		.4byte	.LASF163
 5287 0cc4 08       		.byte	0x8
 5288 0cc5 95       		.byte	0x95
 5289 0cc6 30000000 		.4byte	0x30
 5290 0cca 03       		.byte	0x3
 5291 0ccb 23       		.byte	0x23
 5292 0ccc 8A01     		.uleb128 0x8a
 5293 0cce 12       		.uleb128 0x12
 5294 0ccf B00C0000 		.4byte	.LASF164
 5295 0cd3 08       		.byte	0x8
 5296 0cd4 96       		.byte	0x96
 5297 0cd5 6D000000 		.4byte	0x6d
 5298 0cd9 03       		.byte	0x3
 5299 0cda 23       		.byte	0x23
 5300 0cdb 8C01     		.uleb128 0x8c
 5301 0cdd 12       		.uleb128 0x12
 5302 0cde 08030000 		.4byte	.LASF165
 5303 0ce2 08       		.byte	0x8
 5304 0ce3 97       		.byte	0x97
 5305 0ce4 19010000 		.4byte	0x119
 5306 0ce8 03       		.byte	0x3
 5307 0ce9 23       		.byte	0x23
 5308 0cea 9001     		.uleb128 0x90
 5309 0cec 12       		.uleb128 0x12
 5310 0ced 13080000 		.4byte	.LASF166
 5311 0cf1 08       		.byte	0x8
 5312 0cf2 99       		.byte	0x99
 5313 0cf3 19010000 		.4byte	0x119
 5314 0cf7 03       		.byte	0x3
 5315 0cf8 23       		.byte	0x23
 5316 0cf9 9101     		.uleb128 0x91
 5317 0cfb 12       		.uleb128 0x12
 5318 0cfc AC060000 		.4byte	.LASF167
 5319 0d00 08       		.byte	0x8
 5320 0d01 9A       		.byte	0x9a
ARM GAS  C:\Users\X0217454\AppData\Local\Temp\cc5FLHAl.s 			page 114


 5321 0d02 30000000 		.4byte	0x30
 5322 0d06 03       		.byte	0x3
 5323 0d07 23       		.byte	0x23
 5324 0d08 9201     		.uleb128 0x92
 5325 0d0a 12       		.uleb128 0x12
 5326 0d0b 3C090000 		.4byte	.LASF168
 5327 0d0f 08       		.byte	0x8
 5328 0d10 9C       		.byte	0x9c
 5329 0d11 6E0B0000 		.4byte	0xb6e
 5330 0d15 03       		.byte	0x3
 5331 0d16 23       		.byte	0x23
 5332 0d17 9301     		.uleb128 0x93
 5333 0d19 12       		.uleb128 0x12
 5334 0d1a A3010000 		.4byte	.LASF169
 5335 0d1e 08       		.byte	0x8
 5336 0d1f 9E       		.byte	0x9e
 5337 0d20 30000000 		.4byte	0x30
 5338 0d24 03       		.byte	0x3
 5339 0d25 23       		.byte	0x23
 5340 0d26 9601     		.uleb128 0x96
 5341 0d28 12       		.uleb128 0x12
 5342 0d29 2E010000 		.4byte	.LASF170
 5343 0d2d 08       		.byte	0x8
 5344 0d2e 9F       		.byte	0x9f
 5345 0d2f 30000000 		.4byte	0x30
 5346 0d33 03       		.byte	0x3
 5347 0d34 23       		.byte	0x23
 5348 0d35 9701     		.uleb128 0x97
 5349 0d37 12       		.uleb128 0x12
 5350 0d38 D3010000 		.4byte	.LASF171
 5351 0d3c 08       		.byte	0x8
 5352 0d3d A0       		.byte	0xa0
 5353 0d3e 30000000 		.4byte	0x30
 5354 0d42 03       		.byte	0x3
 5355 0d43 23       		.byte	0x23
 5356 0d44 9801     		.uleb128 0x98
 5357 0d46 12       		.uleb128 0x12
 5358 0d47 1E080000 		.4byte	.LASF58
 5359 0d4b 08       		.byte	0x8
 5360 0d4c A1       		.byte	0xa1
 5361 0d4d 30000000 		.4byte	0x30
 5362 0d51 03       		.byte	0x3
 5363 0d52 23       		.byte	0x23
 5364 0d53 9901     		.uleb128 0x99
 5365 0d55 12       		.uleb128 0x12
 5366 0d56 5C020000 		.4byte	.LASF57
 5367 0d5a 08       		.byte	0x8
 5368 0d5b A2       		.byte	0xa2
 5369 0d5c 30000000 		.4byte	0x30
 5370 0d60 03       		.byte	0x3
 5371 0d61 23       		.byte	0x23
 5372 0d62 9A01     		.uleb128 0x9a
 5373 0d64 12       		.uleb128 0x12
 5374 0d65 23030000 		.4byte	.LASF172
 5375 0d69 08       		.byte	0x8
 5376 0d6a A3       		.byte	0xa3
 5377 0d6b 30000000 		.4byte	0x30
ARM GAS  C:\Users\X0217454\AppData\Local\Temp\cc5FLHAl.s 			page 115


 5378 0d6f 03       		.byte	0x3
 5379 0d70 23       		.byte	0x23
 5380 0d71 9B01     		.uleb128 0x9b
 5381 0d73 12       		.uleb128 0x12
 5382 0d74 C7050000 		.4byte	.LASF173
 5383 0d78 08       		.byte	0x8
 5384 0d79 A5       		.byte	0xa5
 5385 0d7a 490C0000 		.4byte	0xc49
 5386 0d7e 03       		.byte	0x3
 5387 0d7f 23       		.byte	0x23
 5388 0d80 9C01     		.uleb128 0x9c
 5389 0d82 00       		.byte	0
 5390 0d83 08       		.uleb128 0x8
 5391 0d84 C10A0000 		.4byte	0xac1
 5392 0d88 930D0000 		.4byte	0xd93
 5393 0d8c 09       		.uleb128 0x9
 5394 0d8d DC000000 		.4byte	0xdc
 5395 0d91 09       		.byte	0x9
 5396 0d92 00       		.byte	0
 5397 0d93 03       		.uleb128 0x3
 5398 0d94 8C0A0000 		.4byte	.LASF174
 5399 0d98 08       		.byte	0x8
 5400 0d99 A7       		.byte	0xa7
 5401 0d9a 540C0000 		.4byte	0xc54
 5402 0d9e 19       		.uleb128 0x19
 5403 0d9f 04       		.byte	0x4
 5404 0da0 01       		.byte	0x1
 5405 0da1 AF       		.byte	0xaf
 5406 0da2 C80D0000 		.4byte	0xdc8
 5407 0da6 1A       		.uleb128 0x1a
 5408 0da7 5A0A0000 		.4byte	.LASF175
 5409 0dab 01       		.byte	0x1
 5410 0dac B1       		.byte	0xb1
 5411 0dad 6D000000 		.4byte	0x6d
 5412 0db1 1B       		.uleb128 0x1b
 5413 0db2 436D6400 		.ascii	"Cmd\000"
 5414 0db6 01       		.byte	0x1
 5415 0db7 B2       		.byte	0xb2
 5416 0db8 80040000 		.4byte	0x480
 5417 0dbc 1B       		.uleb128 0x1b
 5418 0dbd 52737000 		.ascii	"Rsp\000"
 5419 0dc1 01       		.byte	0x1
 5420 0dc2 B3       		.byte	0xb3
 5421 0dc3 C2040000 		.4byte	0x4c2
 5422 0dc7 00       		.byte	0
 5423 0dc8 03       		.uleb128 0x3
 5424 0dc9 55090000 		.4byte	.LASF176
 5425 0dcd 01       		.byte	0x1
 5426 0dce B4       		.byte	0xb4
 5427 0dcf 9E0D0000 		.4byte	0xd9e
 5428 0dd3 19       		.uleb128 0x19
 5429 0dd4 04       		.byte	0x4
 5430 0dd5 01       		.byte	0x1
 5431 0dd6 D6       		.byte	0xd6
 5432 0dd7 F20D0000 		.4byte	0xdf2
 5433 0ddb 1B       		.uleb128 0x1b
 5434 0ddc 436D6400 		.ascii	"Cmd\000"
ARM GAS  C:\Users\X0217454\AppData\Local\Temp\cc5FLHAl.s 			page 116


 5435 0de0 01       		.byte	0x1
 5436 0de1 D8       		.byte	0xd8
 5437 0de2 AF070000 		.4byte	0x7af
 5438 0de6 1B       		.uleb128 0x1b
 5439 0de7 52737000 		.ascii	"Rsp\000"
 5440 0deb 01       		.byte	0x1
 5441 0dec D9       		.byte	0xd9
 5442 0ded C2040000 		.4byte	0x4c2
 5443 0df1 00       		.byte	0
 5444 0df2 03       		.uleb128 0x3
 5445 0df3 1D000000 		.4byte	.LASF177
 5446 0df7 01       		.byte	0x1
 5447 0df8 DA       		.byte	0xda
 5448 0df9 D30D0000 		.4byte	0xdd3
 5449 0dfd 19       		.uleb128 0x19
 5450 0dfe 0C       		.byte	0xc
 5451 0dff 01       		.byte	0x1
 5452 0e00 F3       		.byte	0xf3
 5453 0e01 1C0E0000 		.4byte	0xe1c
 5454 0e05 1B       		.uleb128 0x1b
 5455 0e06 436D6400 		.ascii	"Cmd\000"
 5456 0e0a 01       		.byte	0x1
 5457 0e0b F5       		.byte	0xf5
 5458 0e0c DF060000 		.4byte	0x6df
 5459 0e10 1B       		.uleb128 0x1b
 5460 0e11 52737000 		.ascii	"Rsp\000"
 5461 0e15 01       		.byte	0x1
 5462 0e16 F6       		.byte	0xf6
 5463 0e17 C2040000 		.4byte	0x4c2
 5464 0e1b 00       		.byte	0
 5465 0e1c 03       		.uleb128 0x3
 5466 0e1d E5070000 		.4byte	.LASF178
 5467 0e21 01       		.byte	0x1
 5468 0e22 F7       		.byte	0xf7
 5469 0e23 FD0D0000 		.4byte	0xdfd
 5470 0e27 0F       		.uleb128 0xf
 5471 0e28 0C       		.byte	0xc
 5472 0e29 01       		.byte	0x1
 5473 0e2a 2201     		.2byte	0x122
 5474 0e2c 3D0E0000 		.4byte	0xe3d
 5475 0e30 1C       		.uleb128 0x1c
 5476 0e31 436D6400 		.ascii	"Cmd\000"
 5477 0e35 01       		.byte	0x1
 5478 0e36 2401     		.2byte	0x124
 5479 0e38 DF060000 		.4byte	0x6df
 5480 0e3c 00       		.byte	0
 5481 0e3d 0C       		.uleb128 0xc
 5482 0e3e 19090000 		.4byte	.LASF179
 5483 0e42 01       		.byte	0x1
 5484 0e43 2601     		.2byte	0x126
 5485 0e45 270E0000 		.4byte	0xe27
 5486 0e49 0F       		.uleb128 0xf
 5487 0e4a 0C       		.byte	0xc
 5488 0e4b 01       		.byte	0x1
 5489 0e4c 6F01     		.2byte	0x16f
 5490 0e4e 6B0E0000 		.4byte	0xe6b
 5491 0e52 1C       		.uleb128 0x1c
ARM GAS  C:\Users\X0217454\AppData\Local\Temp\cc5FLHAl.s 			page 117


 5492 0e53 436D6400 		.ascii	"Cmd\000"
 5493 0e57 01       		.byte	0x1
 5494 0e58 7101     		.2byte	0x171
 5495 0e5a C4090000 		.4byte	0x9c4
 5496 0e5e 1C       		.uleb128 0x1c
 5497 0e5f 52737000 		.ascii	"Rsp\000"
 5498 0e63 01       		.byte	0x1
 5499 0e64 7201     		.2byte	0x172
 5500 0e66 0D070000 		.4byte	0x70d
 5501 0e6a 00       		.byte	0
 5502 0e6b 0C       		.uleb128 0xc
 5503 0e6c 5C050000 		.4byte	.LASF180
 5504 0e70 01       		.byte	0x1
 5505 0e71 7301     		.2byte	0x173
 5506 0e73 490E0000 		.4byte	0xe49
 5507 0e77 0F       		.uleb128 0xf
 5508 0e78 0C       		.byte	0xc
 5509 0e79 01       		.byte	0x1
 5510 0e7a CC01     		.2byte	0x1cc
 5511 0e7c 990E0000 		.4byte	0xe99
 5512 0e80 1C       		.uleb128 0x1c
 5513 0e81 436D6400 		.ascii	"Cmd\000"
 5514 0e85 01       		.byte	0x1
 5515 0e86 CE01     		.2byte	0x1ce
 5516 0e88 DF060000 		.4byte	0x6df
 5517 0e8c 1C       		.uleb128 0x1c
 5518 0e8d 52737000 		.ascii	"Rsp\000"
 5519 0e91 01       		.byte	0x1
 5520 0e92 CF01     		.2byte	0x1cf
 5521 0e94 C2040000 		.4byte	0x4c2
 5522 0e98 00       		.byte	0
 5523 0e99 0C       		.uleb128 0xc
 5524 0e9a 3E020000 		.4byte	.LASF181
 5525 0e9e 01       		.byte	0x1
 5526 0e9f D001     		.2byte	0x1d0
 5527 0ea1 770E0000 		.4byte	0xe77
 5528 0ea5 0F       		.uleb128 0xf
 5529 0ea6 04       		.byte	0x4
 5530 0ea7 01       		.byte	0x1
 5531 0ea8 2E02     		.2byte	0x22e
 5532 0eaa BB0E0000 		.4byte	0xebb
 5533 0eae 1C       		.uleb128 0x1c
 5534 0eaf 436D6400 		.ascii	"Cmd\000"
 5535 0eb3 01       		.byte	0x1
 5536 0eb4 3002     		.2byte	0x230
 5537 0eb6 C4090000 		.4byte	0x9c4
 5538 0eba 00       		.byte	0
 5539 0ebb 0C       		.uleb128 0xc
 5540 0ebc 6D050000 		.4byte	.LASF182
 5541 0ec0 01       		.byte	0x1
 5542 0ec1 3202     		.2byte	0x232
 5543 0ec3 A50E0000 		.4byte	0xea5
 5544 0ec7 0F       		.uleb128 0xf
 5545 0ec8 04       		.byte	0x4
 5546 0ec9 01       		.byte	0x1
 5547 0eca 7602     		.2byte	0x276
 5548 0ecc E90E0000 		.4byte	0xee9
ARM GAS  C:\Users\X0217454\AppData\Local\Temp\cc5FLHAl.s 			page 118


 5549 0ed0 1C       		.uleb128 0x1c
 5550 0ed1 436D6400 		.ascii	"Cmd\000"
 5551 0ed5 01       		.byte	0x1
 5552 0ed6 7802     		.2byte	0x278
 5553 0ed8 5E070000 		.4byte	0x75e
 5554 0edc 1C       		.uleb128 0x1c
 5555 0edd 52737000 		.ascii	"Rsp\000"
 5556 0ee1 01       		.byte	0x1
 5557 0ee2 7902     		.2byte	0x279
 5558 0ee4 1E040000 		.4byte	0x41e
 5559 0ee8 00       		.byte	0
 5560 0ee9 0C       		.uleb128 0xc
 5561 0eea 2C040000 		.4byte	.LASF183
 5562 0eee 01       		.byte	0x1
 5563 0eef 7A02     		.2byte	0x27a
 5564 0ef1 C70E0000 		.4byte	0xec7
 5565 0ef5 0F       		.uleb128 0xf
 5566 0ef6 04       		.byte	0x4
 5567 0ef7 01       		.byte	0x1
 5568 0ef8 9402     		.2byte	0x294
 5569 0efa 170F0000 		.4byte	0xf17
 5570 0efe 1C       		.uleb128 0x1c
 5571 0eff 436D6400 		.ascii	"Cmd\000"
 5572 0f03 01       		.byte	0x1
 5573 0f04 9602     		.2byte	0x296
 5574 0f06 13050000 		.4byte	0x513
 5575 0f0a 1C       		.uleb128 0x1c
 5576 0f0b 52737000 		.ascii	"Rsp\000"
 5577 0f0f 01       		.byte	0x1
 5578 0f10 9702     		.2byte	0x297
 5579 0f12 C2040000 		.4byte	0x4c2
 5580 0f16 00       		.byte	0
 5581 0f17 0C       		.uleb128 0xc
 5582 0f18 BD030000 		.4byte	.LASF184
 5583 0f1c 01       		.byte	0x1
 5584 0f1d 9802     		.2byte	0x298
 5585 0f1f F50E0000 		.4byte	0xef5
 5586 0f23 0F       		.uleb128 0xf
 5587 0f24 04       		.byte	0x4
 5588 0f25 01       		.byte	0x1
 5589 0f26 3F03     		.2byte	0x33f
 5590 0f28 450F0000 		.4byte	0xf45
 5591 0f2c 1C       		.uleb128 0x1c
 5592 0f2d 436D6400 		.ascii	"Cmd\000"
 5593 0f31 01       		.byte	0x1
 5594 0f32 4103     		.2byte	0x341
 5595 0f34 C4090000 		.4byte	0x9c4
 5596 0f38 1C       		.uleb128 0x1c
 5597 0f39 52737000 		.ascii	"Rsp\000"
 5598 0f3d 01       		.byte	0x1
 5599 0f3e 4203     		.2byte	0x342
 5600 0f40 C2040000 		.4byte	0x4c2
 5601 0f44 00       		.byte	0
 5602 0f45 0C       		.uleb128 0xc
 5603 0f46 3B040000 		.4byte	.LASF185
 5604 0f4a 01       		.byte	0x1
 5605 0f4b 4303     		.2byte	0x343
ARM GAS  C:\Users\X0217454\AppData\Local\Temp\cc5FLHAl.s 			page 119


 5606 0f4d 230F0000 		.4byte	0xf23
 5607 0f51 0F       		.uleb128 0xf
 5608 0f52 04       		.byte	0x4
 5609 0f53 01       		.byte	0x1
 5610 0f54 6F03     		.2byte	0x36f
 5611 0f56 730F0000 		.4byte	0xf73
 5612 0f5a 1C       		.uleb128 0x1c
 5613 0f5b 436D6400 		.ascii	"Cmd\000"
 5614 0f5f 01       		.byte	0x1
 5615 0f60 7103     		.2byte	0x371
 5616 0f62 EF080000 		.4byte	0x8ef
 5617 0f66 1C       		.uleb128 0x1c
 5618 0f67 52737000 		.ascii	"Rsp\000"
 5619 0f6b 01       		.byte	0x1
 5620 0f6c 7203     		.2byte	0x372
 5621 0f6e C2040000 		.4byte	0x4c2
 5622 0f72 00       		.byte	0
 5623 0f73 0C       		.uleb128 0xc
 5624 0f74 E1020000 		.4byte	.LASF186
 5625 0f78 01       		.byte	0x1
 5626 0f79 7303     		.2byte	0x373
 5627 0f7b 510F0000 		.4byte	0xf51
 5628 0f7f 0F       		.uleb128 0xf
 5629 0f80 04       		.byte	0x4
 5630 0f81 01       		.byte	0x1
 5631 0f82 9503     		.2byte	0x395
 5632 0f84 A10F0000 		.4byte	0xfa1
 5633 0f88 1C       		.uleb128 0x1c
 5634 0f89 436D6400 		.ascii	"Cmd\000"
 5635 0f8d 01       		.byte	0x1
 5636 0f8e 9703     		.2byte	0x397
 5637 0f90 40090000 		.4byte	0x940
 5638 0f94 1C       		.uleb128 0x1c
 5639 0f95 52737000 		.ascii	"Rsp\000"
 5640 0f99 01       		.byte	0x1
 5641 0f9a 9803     		.2byte	0x398
 5642 0f9c 82090000 		.4byte	0x982
 5643 0fa0 00       		.byte	0
 5644 0fa1 0C       		.uleb128 0xc
 5645 0fa2 6A040000 		.4byte	.LASF187
 5646 0fa6 01       		.byte	0x1
 5647 0fa7 9903     		.2byte	0x399
 5648 0fa9 7F0F0000 		.4byte	0xf7f
 5649 0fad 0F       		.uleb128 0xf
 5650 0fae 0C       		.byte	0xc
 5651 0faf 01       		.byte	0x1
 5652 0fb0 C903     		.2byte	0x3c9
 5653 0fb2 CF0F0000 		.4byte	0xfcf
 5654 0fb6 1C       		.uleb128 0x1c
 5655 0fb7 436D6400 		.ascii	"Cmd\000"
 5656 0fbb 01       		.byte	0x1
 5657 0fbc CB03     		.2byte	0x3cb
 5658 0fbe 3D080000 		.4byte	0x83d
 5659 0fc2 1C       		.uleb128 0x1c
 5660 0fc3 52737000 		.ascii	"Rsp\000"
 5661 0fc7 01       		.byte	0x1
 5662 0fc8 CC03     		.2byte	0x3cc
ARM GAS  C:\Users\X0217454\AppData\Local\Temp\cc5FLHAl.s 			page 120


 5663 0fca 1E040000 		.4byte	0x41e
 5664 0fce 00       		.byte	0
 5665 0fcf 0C       		.uleb128 0xc
 5666 0fd0 05050000 		.4byte	.LASF188
 5667 0fd4 01       		.byte	0x1
 5668 0fd5 CD03     		.2byte	0x3cd
 5669 0fd7 AD0F0000 		.4byte	0xfad
 5670 0fdb 1D       		.uleb128 0x1d
 5671 0fdc 01       		.byte	0x1
 5672 0fdd 82080000 		.4byte	.LASF193
 5673 0fe1 01       		.byte	0x1
 5674 0fe2 3E       		.byte	0x3e
 5675 0fe3 01       		.byte	0x1
 5676 0fe4 00000000 		.4byte	.LFB0
 5677 0fe8 52000000 		.4byte	.LFE0
 5678 0fec 00000000 		.4byte	.LLST0
 5679 0ff0 01       		.byte	0x1
 5680 0ff1 20100000 		.4byte	0x1020
 5681 0ff5 1E       		.uleb128 0x1e
 5682 0ff6 BC070000 		.4byte	.LASF189
 5683 0ffa 01       		.byte	0x1
 5684 0ffb 3E       		.byte	0x3e
 5685 0ffc 20100000 		.4byte	0x1020
 5686 1000 02       		.byte	0x2
 5687 1001 91       		.byte	0x91
 5688 1002 74       		.sleb128 -12
 5689 1003 1E       		.uleb128 0x1e
 5690 1004 AE040000 		.4byte	.LASF190
 5691 1008 01       		.byte	0x1
 5692 1009 3E       		.byte	0x3e
 5693 100a 91000000 		.4byte	0x91
 5694 100e 02       		.byte	0x2
 5695 100f 91       		.byte	0x91
 5696 1010 70       		.sleb128 -16
 5697 1011 1E       		.uleb128 0x1e
 5698 1012 F20A0000 		.4byte	.LASF191
 5699 1016 01       		.byte	0x1
 5700 1017 3E       		.byte	0x3e
 5701 1018 2B100000 		.4byte	0x102b
 5702 101c 02       		.byte	0x2
 5703 101d 91       		.byte	0x91
 5704 101e 6C       		.sleb128 -20
 5705 101f 00       		.byte	0
 5706 1020 07       		.uleb128 0x7
 5707 1021 04       		.byte	0x4
 5708 1022 26100000 		.4byte	0x1026
 5709 1026 1F       		.uleb128 0x1f
 5710 1027 E9010000 		.4byte	0x1e9
 5711 102b 07       		.uleb128 0x7
 5712 102c 04       		.byte	0x4
 5713 102d DF060000 		.4byte	0x6df
 5714 1031 20       		.uleb128 0x20
 5715 1032 01       		.byte	0x1
 5716 1033 DB000000 		.4byte	.LASF196
 5717 1037 01       		.byte	0x1
 5718 1038 5A       		.byte	0x5a
 5719 1039 01       		.byte	0x1
ARM GAS  C:\Users\X0217454\AppData\Local\Temp\cc5FLHAl.s 			page 121


 5720 103a CE000000 		.4byte	0xce
 5721 103e 00000000 		.4byte	.LFB1
 5722 1042 C4000000 		.4byte	.LFE1
 5723 1046 38000000 		.4byte	.LLST1
 5724 104a 01       		.byte	0x1
 5725 104b 79100000 		.4byte	0x1079
 5726 104f 21       		.uleb128 0x21
 5727 1050 736400   		.ascii	"sd\000"
 5728 1053 01       		.byte	0x1
 5729 1054 5A       		.byte	0x5a
 5730 1055 79100000 		.4byte	0x1079
 5731 1059 02       		.byte	0x2
 5732 105a 91       		.byte	0x91
 5733 105b 6F       		.sleb128 -17
 5734 105c 1E       		.uleb128 0x1e
 5735 105d FE090000 		.4byte	.LASF192
 5736 1061 01       		.byte	0x1
 5737 1062 5A       		.byte	0x5a
 5738 1063 7E100000 		.4byte	0x107e
 5739 1067 02       		.byte	0x2
 5740 1068 91       		.byte	0x91
 5741 1069 68       		.sleb128 -24
 5742 106a 22       		.uleb128 0x22
 5743 106b 25050000 		.4byte	.LASF198
 5744 106f 01       		.byte	0x1
 5745 1070 5C       		.byte	0x5c
 5746 1071 CE000000 		.4byte	0xce
 5747 1075 02       		.byte	0x2
 5748 1076 91       		.byte	0x91
 5749 1077 74       		.sleb128 -12
 5750 1078 00       		.byte	0
 5751 1079 1F       		.uleb128 0x1f
 5752 107a F10B0000 		.4byte	0xbf1
 5753 107e 1F       		.uleb128 0x1f
 5754 107f CE000000 		.4byte	0xce
 5755 1083 1D       		.uleb128 0x1d
 5756 1084 01       		.byte	0x1
 5757 1085 14050000 		.4byte	.LASF194
 5758 1089 01       		.byte	0x1
 5759 108a 92       		.byte	0x92
 5760 108b 01       		.byte	0x1
 5761 108c 00000000 		.4byte	.LFB2
 5762 1090 64000000 		.4byte	.LFE2
 5763 1094 70000000 		.4byte	.LLST2
 5764 1098 01       		.byte	0x1
 5765 1099 C8100000 		.4byte	0x10c8
 5766 109d 1E       		.uleb128 0x1e
 5767 109e 690D0000 		.4byte	.LASF195
 5768 10a2 01       		.byte	0x1
 5769 10a3 92       		.byte	0x92
 5770 10a4 C8100000 		.4byte	0x10c8
 5771 10a8 02       		.byte	0x2
 5772 10a9 91       		.byte	0x91
 5773 10aa 74       		.sleb128 -12
 5774 10ab 1E       		.uleb128 0x1e
 5775 10ac BC070000 		.4byte	.LASF189
 5776 10b0 01       		.byte	0x1
ARM GAS  C:\Users\X0217454\AppData\Local\Temp\cc5FLHAl.s 			page 122


 5777 10b1 92       		.byte	0x92
 5778 10b2 CE100000 		.4byte	0x10ce
 5779 10b6 02       		.byte	0x2
 5780 10b7 91       		.byte	0x91
 5781 10b8 70       		.sleb128 -16
 5782 10b9 1E       		.uleb128 0x1e
 5783 10ba AE040000 		.4byte	.LASF190
 5784 10be 01       		.byte	0x1
 5785 10bf 92       		.byte	0x92
 5786 10c0 D4100000 		.4byte	0x10d4
 5787 10c4 02       		.byte	0x2
 5788 10c5 91       		.byte	0x91
 5789 10c6 6C       		.sleb128 -20
 5790 10c7 00       		.byte	0
 5791 10c8 07       		.uleb128 0x7
 5792 10c9 04       		.byte	0x4
 5793 10ca 0D070000 		.4byte	0x70d
 5794 10ce 07       		.uleb128 0x7
 5795 10cf 04       		.byte	0x4
 5796 10d0 E9010000 		.4byte	0x1e9
 5797 10d4 07       		.uleb128 0x7
 5798 10d5 04       		.byte	0x4
 5799 10d6 A1010000 		.4byte	0x1a1
 5800 10da 23       		.uleb128 0x23
 5801 10db 01       		.byte	0x1
 5802 10dc 07090000 		.4byte	.LASF197
 5803 10e0 01       		.byte	0x1
 5804 10e1 BE       		.byte	0xbe
 5805 10e2 01       		.byte	0x1
 5806 10e3 91000000 		.4byte	0x91
 5807 10e7 00000000 		.4byte	.LFB3
 5808 10eb 70000000 		.4byte	.LFE3
 5809 10ef A8000000 		.4byte	.LLST3
 5810 10f3 01       		.byte	0x1
 5811 10f4 49110000 		.4byte	0x1149
 5812 10f8 1E       		.uleb128 0x1e
 5813 10f9 BC020000 		.4byte	.LASF63
 5814 10fd 01       		.byte	0x1
 5815 10fe BE       		.byte	0xbe
 5816 10ff 91000000 		.4byte	0x91
 5817 1103 02       		.byte	0x2
 5818 1104 91       		.byte	0x91
 5819 1105 6C       		.sleb128 -20
 5820 1106 1E       		.uleb128 0x1e
 5821 1107 75080000 		.4byte	.LASF64
 5822 110b 01       		.byte	0x1
 5823 110c BE       		.byte	0xbe
 5824 110d 91000000 		.4byte	0x91
 5825 1111 02       		.byte	0x2
 5826 1112 91       		.byte	0x91
 5827 1113 68       		.sleb128 -24
 5828 1114 1E       		.uleb128 0x1e
 5829 1115 C60B0000 		.4byte	.LASF65
 5830 1119 01       		.byte	0x1
 5831 111a BE       		.byte	0xbe
 5832 111b 91000000 		.4byte	0x91
 5833 111f 02       		.byte	0x2
ARM GAS  C:\Users\X0217454\AppData\Local\Temp\cc5FLHAl.s 			page 123


 5834 1120 91       		.byte	0x91
 5835 1121 64       		.sleb128 -28
 5836 1122 24       		.uleb128 0x24
 5837 1123 4D736700 		.ascii	"Msg\000"
 5838 1127 01       		.byte	0x1
 5839 1128 C0       		.byte	0xc0
 5840 1129 C80D0000 		.4byte	0xdc8
 5841 112d 02       		.byte	0x2
 5842 112e 91       		.byte	0x91
 5843 112f 70       		.sleb128 -16
 5844 1130 25       		.uleb128 0x25
 5845 1131 2A000000 		.4byte	.LBB2
 5846 1135 46000000 		.4byte	.LBE2
 5847 1139 22       		.uleb128 0x22
 5848 113a 030C0000 		.4byte	.LASF199
 5849 113e 01       		.byte	0x1
 5850 113f C6       		.byte	0xc6
 5851 1140 C3000000 		.4byte	0xc3
 5852 1144 02       		.byte	0x2
 5853 1145 91       		.byte	0x91
 5854 1146 74       		.sleb128 -12
 5855 1147 00       		.byte	0
 5856 1148 00       		.byte	0
 5857 1149 23       		.uleb128 0x23
 5858 114a 01       		.byte	0x1
 5859 114b 1A030000 		.4byte	.LASF200
 5860 114f 01       		.byte	0x1
 5861 1150 E4       		.byte	0xe4
 5862 1151 01       		.byte	0x1
 5863 1152 91000000 		.4byte	0x91
 5864 1156 00000000 		.4byte	.LFB4
 5865 115a 44000000 		.4byte	.LFE4
 5866 115e E0000000 		.4byte	.LLST4
 5867 1162 01       		.byte	0x1
 5868 1163 9B110000 		.4byte	0x119b
 5869 1167 21       		.uleb128 0x21
 5870 1168 736400   		.ascii	"sd\000"
 5871 116b 01       		.byte	0x1
 5872 116c E4       		.byte	0xe4
 5873 116d 91000000 		.4byte	0x91
 5874 1171 02       		.byte	0x2
 5875 1172 91       		.byte	0x91
 5876 1173 6C       		.sleb128 -20
 5877 1174 24       		.uleb128 0x24
 5878 1175 4D736700 		.ascii	"Msg\000"
 5879 1179 01       		.byte	0x1
 5880 117a E6       		.byte	0xe6
 5881 117b F20D0000 		.4byte	0xdf2
 5882 117f 02       		.byte	0x2
 5883 1180 91       		.byte	0x91
 5884 1181 70       		.sleb128 -16
 5885 1182 25       		.uleb128 0x25
 5886 1183 12000000 		.4byte	.LBB3
 5887 1187 2E000000 		.4byte	.LBE3
 5888 118b 22       		.uleb128 0x22
 5889 118c 030C0000 		.4byte	.LASF199
 5890 1190 01       		.byte	0x1
ARM GAS  C:\Users\X0217454\AppData\Local\Temp\cc5FLHAl.s 			page 124


 5891 1191 EA       		.byte	0xea
 5892 1192 C3000000 		.4byte	0xc3
 5893 1196 02       		.byte	0x2
 5894 1197 91       		.byte	0x91
 5895 1198 74       		.sleb128 -12
 5896 1199 00       		.byte	0
 5897 119a 00       		.byte	0
 5898 119b 23       		.uleb128 0x23
 5899 119c 01       		.byte	0x1
 5900 119d 140A0000 		.4byte	.LASF201
 5901 11a1 01       		.byte	0x1
 5902 11a2 FA       		.byte	0xfa
 5903 11a3 01       		.byte	0x1
 5904 11a4 91000000 		.4byte	0x91
 5905 11a8 00000000 		.4byte	.LFB5
 5906 11ac B8000000 		.4byte	.LFE5
 5907 11b0 18010000 		.4byte	.LLST5
 5908 11b4 01       		.byte	0x1
 5909 11b5 18120000 		.4byte	0x1218
 5910 11b9 21       		.uleb128 0x21
 5911 11ba 736400   		.ascii	"sd\000"
 5912 11bd 01       		.byte	0x1
 5913 11be FA       		.byte	0xfa
 5914 11bf 91000000 		.4byte	0x91
 5915 11c3 02       		.byte	0x2
 5916 11c4 91       		.byte	0x91
 5917 11c5 5C       		.sleb128 -36
 5918 11c6 1E       		.uleb128 0x1e
 5919 11c7 BC070000 		.4byte	.LASF189
 5920 11cb 01       		.byte	0x1
 5921 11cc FA       		.byte	0xfa
 5922 11cd 20100000 		.4byte	0x1020
 5923 11d1 02       		.byte	0x2
 5924 11d2 91       		.byte	0x91
 5925 11d3 58       		.sleb128 -40
 5926 11d4 1E       		.uleb128 0x1e
 5927 11d5 AE040000 		.4byte	.LASF190
 5928 11d9 01       		.byte	0x1
 5929 11da FA       		.byte	0xfa
 5930 11db 91000000 		.4byte	0x91
 5931 11df 02       		.byte	0x2
 5932 11e0 91       		.byte	0x91
 5933 11e1 54       		.sleb128 -44
 5934 11e2 24       		.uleb128 0x24
 5935 11e3 4D736700 		.ascii	"Msg\000"
 5936 11e7 01       		.byte	0x1
 5937 11e8 FC       		.byte	0xfc
 5938 11e9 1C0E0000 		.4byte	0xe1c
 5939 11ed 02       		.byte	0x2
 5940 11ee 91       		.byte	0x91
 5941 11ef 68       		.sleb128 -24
 5942 11f0 22       		.uleb128 0x22
 5943 11f1 65000000 		.4byte	.LASF202
 5944 11f5 01       		.byte	0x1
 5945 11f6 FD       		.byte	0xfd
 5946 11f7 030A0000 		.4byte	0xa03
 5947 11fb 02       		.byte	0x2
ARM GAS  C:\Users\X0217454\AppData\Local\Temp\cc5FLHAl.s 			page 125


 5948 11fc 91       		.byte	0x91
 5949 11fd 64       		.sleb128 -28
 5950 11fe 25       		.uleb128 0x25
 5951 11ff 80000000 		.4byte	.LBB4
 5952 1203 9E000000 		.4byte	.LBE4
 5953 1207 26       		.uleb128 0x26
 5954 1208 030C0000 		.4byte	.LASF199
 5955 120c 01       		.byte	0x1
 5956 120d 1901     		.2byte	0x119
 5957 120f C3000000 		.4byte	0xc3
 5958 1213 02       		.byte	0x2
 5959 1214 91       		.byte	0x91
 5960 1215 74       		.sleb128 -12
 5961 1216 00       		.byte	0
 5962 1217 00       		.byte	0
 5963 1218 27       		.uleb128 0x27
 5964 1219 01       		.byte	0x1
 5965 121a FD0A0000 		.4byte	.LASF203
 5966 121e 01       		.byte	0x1
 5967 121f 2901     		.2byte	0x129
 5968 1221 01       		.byte	0x1
 5969 1222 91000000 		.4byte	0x91
 5970 1226 00000000 		.4byte	.LFB6
 5971 122a 88010000 		.4byte	.LFE6
 5972 122e 50010000 		.4byte	.LLST6
 5973 1232 01       		.byte	0x1
 5974 1233 DB120000 		.4byte	0x12db
 5975 1237 28       		.uleb128 0x28
 5976 1238 736400   		.ascii	"sd\000"
 5977 123b 01       		.byte	0x1
 5978 123c 2901     		.2byte	0x129
 5979 123e 91000000 		.4byte	0x91
 5980 1242 02       		.byte	0x2
 5981 1243 91       		.byte	0x91
 5982 1244 4C       		.sleb128 -52
 5983 1245 29       		.uleb128 0x29
 5984 1246 920B0000 		.4byte	.LASF204
 5985 124a 01       		.byte	0x1
 5986 124b 2901     		.2byte	0x129
 5987 124d DB120000 		.4byte	0x12db
 5988 1251 02       		.byte	0x2
 5989 1252 91       		.byte	0x91
 5990 1253 48       		.sleb128 -56
 5991 1254 28       		.uleb128 0x28
 5992 1255 4C656E00 		.ascii	"Len\000"
 5993 1259 01       		.byte	0x1
 5994 125a 2901     		.2byte	0x129
 5995 125c 91000000 		.4byte	0x91
 5996 1260 02       		.byte	0x2
 5997 1261 91       		.byte	0x91
 5998 1262 44       		.sleb128 -60
 5999 1263 29       		.uleb128 0x29
 6000 1264 B7030000 		.4byte	.LASF205
 6001 1268 01       		.byte	0x1
 6002 1269 2901     		.2byte	0x129
 6003 126b 91000000 		.4byte	0x91
 6004 126f 02       		.byte	0x2
ARM GAS  C:\Users\X0217454\AppData\Local\Temp\cc5FLHAl.s 			page 126


 6005 1270 91       		.byte	0x91
 6006 1271 40       		.sleb128 -64
 6007 1272 28       		.uleb128 0x28
 6008 1273 746F00   		.ascii	"to\000"
 6009 1276 01       		.byte	0x1
 6010 1277 2901     		.2byte	0x129
 6011 1279 20100000 		.4byte	0x1020
 6012 127d 02       		.byte	0x2
 6013 127e 91       		.byte	0x91
 6014 127f 00       		.sleb128 0
 6015 1280 29       		.uleb128 0x29
 6016 1281 5D010000 		.4byte	.LASF206
 6017 1285 01       		.byte	0x1
 6018 1286 2901     		.2byte	0x129
 6019 1288 A1010000 		.4byte	0x1a1
 6020 128c 02       		.byte	0x2
 6021 128d 91       		.byte	0x91
 6022 128e 04       		.sleb128 4
 6023 128f 2A       		.uleb128 0x2a
 6024 1290 4D736700 		.ascii	"Msg\000"
 6025 1294 01       		.byte	0x1
 6026 1295 2B01     		.2byte	0x12b
 6027 1297 3D0E0000 		.4byte	0xe3d
 6028 129b 02       		.byte	0x2
 6029 129c 91       		.byte	0x91
 6030 129d 64       		.sleb128 -28
 6031 129e 26       		.uleb128 0x26
 6032 129f 65000000 		.4byte	.LASF202
 6033 12a3 01       		.byte	0x1
 6034 12a4 2C01     		.2byte	0x12c
 6035 12a6 030A0000 		.4byte	0xa03
 6036 12aa 02       		.byte	0x2
 6037 12ab 91       		.byte	0x91
 6038 12ac 60       		.sleb128 -32
 6039 12ad 26       		.uleb128 0x26
 6040 12ae B5020000 		.4byte	.LASF207
 6041 12b2 01       		.byte	0x1
 6042 12b3 2D01     		.2byte	0x12d
 6043 12b5 630A0000 		.4byte	0xa63
 6044 12b9 02       		.byte	0x2
 6045 12ba 91       		.byte	0x91
 6046 12bb 50       		.sleb128 -48
 6047 12bc 26       		.uleb128 0x26
 6048 12bd 1C0A0000 		.4byte	.LASF208
 6049 12c1 01       		.byte	0x1
 6050 12c2 2E01     		.2byte	0x12e
 6051 12c4 54000000 		.4byte	0x54
 6052 12c8 02       		.byte	0x2
 6053 12c9 91       		.byte	0x91
 6054 12ca 76       		.sleb128 -10
 6055 12cb 26       		.uleb128 0x26
 6056 12cc F9000000 		.4byte	.LASF209
 6057 12d0 01       		.byte	0x1
 6058 12d1 2F01     		.2byte	0x12f
 6059 12d3 91000000 		.4byte	0x91
 6060 12d7 02       		.byte	0x2
 6061 12d8 91       		.byte	0x91
ARM GAS  C:\Users\X0217454\AppData\Local\Temp\cc5FLHAl.s 			page 127


 6062 12d9 70       		.sleb128 -16
 6063 12da 00       		.byte	0
 6064 12db 07       		.uleb128 0x7
 6065 12dc 04       		.byte	0x4
 6066 12dd E1120000 		.4byte	0x12e1
 6067 12e1 2B       		.uleb128 0x2b
 6068 12e2 27       		.uleb128 0x27
 6069 12e3 01       		.byte	0x1
 6070 12e4 5D0D0000 		.4byte	.LASF210
 6071 12e8 01       		.byte	0x1
 6072 12e9 7D01     		.2byte	0x17d
 6073 12eb 01       		.byte	0x1
 6074 12ec 91000000 		.4byte	0x91
 6075 12f0 00000000 		.4byte	.LFB7
 6076 12f4 54010000 		.4byte	.LFE7
 6077 12f8 8A010000 		.4byte	.LLST7
 6078 12fc 01       		.byte	0x1
 6079 12fd 88130000 		.4byte	0x1388
 6080 1301 28       		.uleb128 0x28
 6081 1302 736400   		.ascii	"sd\000"
 6082 1305 01       		.byte	0x1
 6083 1306 7D01     		.2byte	0x17d
 6084 1308 91000000 		.4byte	0x91
 6085 130c 02       		.byte	0x2
 6086 130d 91       		.byte	0x91
 6087 130e 54       		.sleb128 -44
 6088 130f 28       		.uleb128 0x28
 6089 1310 62756600 		.ascii	"buf\000"
 6090 1314 01       		.byte	0x1
 6091 1315 7D01     		.2byte	0x17d
 6092 1317 E3000000 		.4byte	0xe3
 6093 131b 02       		.byte	0x2
 6094 131c 91       		.byte	0x91
 6095 131d 50       		.sleb128 -48
 6096 131e 28       		.uleb128 0x28
 6097 131f 4C656E00 		.ascii	"Len\000"
 6098 1323 01       		.byte	0x1
 6099 1324 7D01     		.2byte	0x17d
 6100 1326 91000000 		.4byte	0x91
 6101 132a 02       		.byte	0x2
 6102 132b 91       		.byte	0x91
 6103 132c 4C       		.sleb128 -52
 6104 132d 29       		.uleb128 0x29
 6105 132e B7030000 		.4byte	.LASF205
 6106 1332 01       		.byte	0x1
 6107 1333 7D01     		.2byte	0x17d
 6108 1335 91000000 		.4byte	0x91
 6109 1339 02       		.byte	0x2
 6110 133a 91       		.byte	0x91
 6111 133b 48       		.sleb128 -56
 6112 133c 29       		.uleb128 0x29
 6113 133d D6000000 		.4byte	.LASF211
 6114 1341 01       		.byte	0x1
 6115 1342 7D01     		.2byte	0x17d
 6116 1344 CE100000 		.4byte	0x10ce
 6117 1348 02       		.byte	0x2
 6118 1349 91       		.byte	0x91
ARM GAS  C:\Users\X0217454\AppData\Local\Temp\cc5FLHAl.s 			page 128


 6119 134a 00       		.sleb128 0
 6120 134b 29       		.uleb128 0x29
 6121 134c 580B0000 		.4byte	.LASF212
 6122 1350 01       		.byte	0x1
 6123 1351 7D01     		.2byte	0x17d
 6124 1353 D4100000 		.4byte	0x10d4
 6125 1357 02       		.byte	0x2
 6126 1358 91       		.byte	0x91
 6127 1359 04       		.sleb128 4
 6128 135a 2A       		.uleb128 0x2a
 6129 135b 4D736700 		.ascii	"Msg\000"
 6130 135f 01       		.byte	0x1
 6131 1360 7F01     		.2byte	0x17f
 6132 1362 6B0E0000 		.4byte	0xe6b
 6133 1366 02       		.byte	0x2
 6134 1367 91       		.byte	0x91
 6135 1368 68       		.sleb128 -24
 6136 1369 26       		.uleb128 0x26
 6137 136a B5020000 		.4byte	.LASF207
 6138 136e 01       		.byte	0x1
 6139 136f 8001     		.2byte	0x180
 6140 1371 630A0000 		.4byte	0xa63
 6141 1375 02       		.byte	0x2
 6142 1376 91       		.byte	0x91
 6143 1377 58       		.sleb128 -40
 6144 1378 26       		.uleb128 0x26
 6145 1379 F9000000 		.4byte	.LASF209
 6146 137d 01       		.byte	0x1
 6147 137e 8101     		.2byte	0x181
 6148 1380 91000000 		.4byte	0x91
 6149 1384 02       		.byte	0x2
 6150 1385 91       		.byte	0x91
 6151 1386 74       		.sleb128 -12
 6152 1387 00       		.byte	0
 6153 1388 27       		.uleb128 0x27
 6154 1389 01       		.byte	0x1
 6155 138a 91090000 		.4byte	.LASF213
 6156 138e 01       		.byte	0x1
 6157 138f D301     		.2byte	0x1d3
 6158 1391 01       		.byte	0x1
 6159 1392 91000000 		.4byte	0x91
 6160 1396 00000000 		.4byte	.LFB8
 6161 139a B0010000 		.4byte	.LFE8
 6162 139e C2010000 		.4byte	.LLST8
 6163 13a2 01       		.byte	0x1
 6164 13a3 90140000 		.4byte	0x1490
 6165 13a7 28       		.uleb128 0x28
 6166 13a8 736400   		.ascii	"sd\000"
 6167 13ab 01       		.byte	0x1
 6168 13ac D301     		.2byte	0x1d3
 6169 13ae 91000000 		.4byte	0x91
 6170 13b2 02       		.byte	0x2
 6171 13b3 91       		.byte	0x91
 6172 13b4 44       		.sleb128 -60
 6173 13b5 29       		.uleb128 0x29
 6174 13b6 BC070000 		.4byte	.LASF189
 6175 13ba 01       		.byte	0x1
ARM GAS  C:\Users\X0217454\AppData\Local\Temp\cc5FLHAl.s 			page 129


 6176 13bb D301     		.2byte	0x1d3
 6177 13bd 20100000 		.4byte	0x1020
 6178 13c1 02       		.byte	0x2
 6179 13c2 91       		.byte	0x91
 6180 13c3 40       		.sleb128 -64
 6181 13c4 29       		.uleb128 0x29
 6182 13c5 AE040000 		.4byte	.LASF190
 6183 13c9 01       		.byte	0x1
 6184 13ca D301     		.2byte	0x1d3
 6185 13cc 91000000 		.4byte	0x91
 6186 13d0 03       		.byte	0x3
 6187 13d1 91       		.byte	0x91
 6188 13d2 BC7F     		.sleb128 -68
 6189 13d4 2A       		.uleb128 0x2a
 6190 13d5 4D736700 		.ascii	"Msg\000"
 6191 13d9 01       		.byte	0x1
 6192 13da D501     		.2byte	0x1d5
 6193 13dc 990E0000 		.4byte	0xe99
 6194 13e0 02       		.byte	0x2
 6195 13e1 91       		.byte	0x91
 6196 13e2 54       		.sleb128 -44
 6197 13e3 26       		.uleb128 0x26
 6198 13e4 F9000000 		.4byte	.LASF209
 6199 13e8 01       		.byte	0x1
 6200 13e9 D601     		.2byte	0x1d6
 6201 13eb C3000000 		.4byte	0xc3
 6202 13ef 02       		.byte	0x2
 6203 13f0 91       		.byte	0x91
 6204 13f1 74       		.sleb128 -12
 6205 13f2 26       		.uleb128 0x26
 6206 13f3 65000000 		.4byte	.LASF202
 6207 13f7 01       		.byte	0x1
 6208 13f8 D701     		.2byte	0x1d7
 6209 13fa 030A0000 		.4byte	0xa03
 6210 13fe 02       		.byte	0x2
 6211 13ff 91       		.byte	0x91
 6212 1400 50       		.sleb128 -48
 6213 1401 26       		.uleb128 0x26
 6214 1402 4A050000 		.4byte	.LASF214
 6215 1406 01       		.byte	0x1
 6216 1407 D801     		.2byte	0x1d8
 6217 1409 C2040000 		.4byte	0x4c2
 6218 140d 02       		.byte	0x2
 6219 140e 91       		.byte	0x91
 6220 140f 4C       		.sleb128 -52
 6221 1410 26       		.uleb128 0x26
 6222 1411 92010000 		.4byte	.LASF215
 6223 1415 01       		.byte	0x1
 6224 1416 D901     		.2byte	0x1d9
 6225 1418 30000000 		.4byte	0x30
 6226 141c 02       		.byte	0x2
 6227 141d 91       		.byte	0x91
 6228 141e 73       		.sleb128 -13
 6229 141f 2C       		.uleb128 0x2c
 6230 1420 B0000000 		.4byte	.LBB5
 6231 1424 CE000000 		.4byte	.LBE5
 6232 1428 3C140000 		.4byte	0x143c
ARM GAS  C:\Users\X0217454\AppData\Local\Temp\cc5FLHAl.s 			page 130


 6233 142c 26       		.uleb128 0x26
 6234 142d 030C0000 		.4byte	.LASF199
 6235 1431 01       		.byte	0x1
 6236 1432 FD01     		.2byte	0x1fd
 6237 1434 C3000000 		.4byte	0xc3
 6238 1438 02       		.byte	0x2
 6239 1439 91       		.byte	0x91
 6240 143a 6C       		.sleb128 -20
 6241 143b 00       		.byte	0
 6242 143c 2C       		.uleb128 0x2c
 6243 143d EA000000 		.4byte	.LBB6
 6244 1441 04010000 		.4byte	.LBE6
 6245 1445 59140000 		.4byte	0x1459
 6246 1449 26       		.uleb128 0x26
 6247 144a 030C0000 		.4byte	.LASF199
 6248 144e 01       		.byte	0x1
 6249 144f 0102     		.2byte	0x201
 6250 1451 C3000000 		.4byte	0xc3
 6251 1455 02       		.byte	0x2
 6252 1456 91       		.byte	0x91
 6253 1457 68       		.sleb128 -24
 6254 1458 00       		.byte	0
 6255 1459 2C       		.uleb128 0x2c
 6256 145a 04010000 		.4byte	.LBB7
 6257 145e 22010000 		.4byte	.LBE7
 6258 1462 76140000 		.4byte	0x1476
 6259 1466 26       		.uleb128 0x26
 6260 1467 030C0000 		.4byte	.LASF199
 6261 146b 01       		.byte	0x1
 6262 146c 0402     		.2byte	0x204
 6263 146e C3000000 		.4byte	0xc3
 6264 1472 02       		.byte	0x2
 6265 1473 91       		.byte	0x91
 6266 1474 64       		.sleb128 -28
 6267 1475 00       		.byte	0
 6268 1476 25       		.uleb128 0x25
 6269 1477 42010000 		.4byte	.LBB8
 6270 147b 70010000 		.4byte	.LBE8
 6271 147f 26       		.uleb128 0x26
 6272 1480 030C0000 		.4byte	.LASF199
 6273 1484 01       		.byte	0x1
 6274 1485 0C02     		.2byte	0x20c
 6275 1487 C3000000 		.4byte	0xc3
 6276 148b 02       		.byte	0x2
 6277 148c 91       		.byte	0x91
 6278 148d 60       		.sleb128 -32
 6279 148e 00       		.byte	0
 6280 148f 00       		.byte	0
 6281 1490 2D       		.uleb128 0x2d
 6282 1491 01       		.byte	0x1
 6283 1492 42000000 		.4byte	.LASF216
 6284 1496 01       		.byte	0x1
 6285 1497 1A02     		.2byte	0x21a
 6286 1499 01       		.byte	0x1
 6287 149a 00000000 		.4byte	.LFB9
 6288 149e D4000000 		.4byte	.LFE9
 6289 14a2 FC010000 		.4byte	.LLST9
ARM GAS  C:\Users\X0217454\AppData\Local\Temp\cc5FLHAl.s 			page 131


 6290 14a6 01       		.byte	0x1
 6291 14a7 1D150000 		.4byte	0x151d
 6292 14ab 29       		.uleb128 0x29
 6293 14ac 89010000 		.4byte	.LASF217
 6294 14b0 01       		.byte	0x1
 6295 14b1 1A02     		.2byte	0x21a
 6296 14b3 E3000000 		.4byte	0xe3
 6297 14b7 02       		.byte	0x2
 6298 14b8 91       		.byte	0x91
 6299 14b9 64       		.sleb128 -28
 6300 14ba 26       		.uleb128 0x26
 6301 14bb 71090000 		.4byte	.LASF218
 6302 14bf 01       		.byte	0x1
 6303 14c0 1C02     		.2byte	0x21c
 6304 14c2 1D150000 		.4byte	0x151d
 6305 14c6 02       		.byte	0x2
 6306 14c7 91       		.byte	0x91
 6307 14c8 74       		.sleb128 -12
 6308 14c9 2C       		.uleb128 0x2c
 6309 14ca 0E000000 		.4byte	.LBB9
 6310 14ce 2C000000 		.4byte	.LBE9
 6311 14d2 E6140000 		.4byte	0x14e6
 6312 14d6 26       		.uleb128 0x26
 6313 14d7 030C0000 		.4byte	.LASF199
 6314 14db 01       		.byte	0x1
 6315 14dc 1E02     		.2byte	0x21e
 6316 14de C3000000 		.4byte	0xc3
 6317 14e2 02       		.byte	0x2
 6318 14e3 91       		.byte	0x91
 6319 14e4 70       		.sleb128 -16
 6320 14e5 00       		.byte	0
 6321 14e6 2C       		.uleb128 0x2c
 6322 14e7 80000000 		.4byte	.LBB10
 6323 14eb AE000000 		.4byte	.LBE10
 6324 14ef 03150000 		.4byte	0x1503
 6325 14f3 26       		.uleb128 0x26
 6326 14f4 030C0000 		.4byte	.LASF199
 6327 14f8 01       		.byte	0x1
 6328 14f9 2602     		.2byte	0x226
 6329 14fb C3000000 		.4byte	0xc3
 6330 14ff 02       		.byte	0x2
 6331 1500 91       		.byte	0x91
 6332 1501 6C       		.sleb128 -20
 6333 1502 00       		.byte	0
 6334 1503 25       		.uleb128 0x25
 6335 1504 AE000000 		.4byte	.LBB11
 6336 1508 C8000000 		.4byte	.LBE11
 6337 150c 26       		.uleb128 0x26
 6338 150d 030C0000 		.4byte	.LASF199
 6339 1511 01       		.byte	0x1
 6340 1512 2702     		.2byte	0x227
 6341 1514 C3000000 		.4byte	0xc3
 6342 1518 02       		.byte	0x2
 6343 1519 91       		.byte	0x91
 6344 151a 68       		.sleb128 -24
 6345 151b 00       		.byte	0
 6346 151c 00       		.byte	0
ARM GAS  C:\Users\X0217454\AppData\Local\Temp\cc5FLHAl.s 			page 132


 6347 151d 07       		.uleb128 0x7
 6348 151e 04       		.byte	0x4
 6349 151f C2040000 		.4byte	0x4c2
 6350 1523 27       		.uleb128 0x27
 6351 1524 01       		.byte	0x1
 6352 1525 F2060000 		.4byte	.LASF219
 6353 1529 01       		.byte	0x1
 6354 152a 3C02     		.2byte	0x23c
 6355 152c 01       		.byte	0x1
 6356 152d 91000000 		.4byte	0x91
 6357 1531 00000000 		.4byte	.LFB10
 6358 1535 68010000 		.4byte	.LFE10
 6359 1539 34020000 		.4byte	.LLST10
 6360 153d 01       		.byte	0x1
 6361 153e D8150000 		.4byte	0x15d8
 6362 1542 28       		.uleb128 0x28
 6363 1543 736400   		.ascii	"sd\000"
 6364 1546 01       		.byte	0x1
 6365 1547 3C02     		.2byte	0x23c
 6366 1549 91000000 		.4byte	0x91
 6367 154d 02       		.byte	0x2
 6368 154e 91       		.byte	0x91
 6369 154f 54       		.sleb128 -44
 6370 1550 29       		.uleb128 0x29
 6371 1551 920B0000 		.4byte	.LASF204
 6372 1555 01       		.byte	0x1
 6373 1556 3C02     		.2byte	0x23c
 6374 1558 DB120000 		.4byte	0x12db
 6375 155c 02       		.byte	0x2
 6376 155d 91       		.byte	0x91
 6377 155e 50       		.sleb128 -48
 6378 155f 28       		.uleb128 0x28
 6379 1560 4C656E00 		.ascii	"Len\000"
 6380 1564 01       		.byte	0x1
 6381 1565 3C02     		.2byte	0x23c
 6382 1567 91000000 		.4byte	0x91
 6383 156b 02       		.byte	0x2
 6384 156c 91       		.byte	0x91
 6385 156d 4C       		.sleb128 -52
 6386 156e 29       		.uleb128 0x29
 6387 156f B7030000 		.4byte	.LASF205
 6388 1573 01       		.byte	0x1
 6389 1574 3C02     		.2byte	0x23c
 6390 1576 91000000 		.4byte	0x91
 6391 157a 02       		.byte	0x2
 6392 157b 91       		.byte	0x91
 6393 157c 48       		.sleb128 -56
 6394 157d 2A       		.uleb128 0x2a
 6395 157e 4D736700 		.ascii	"Msg\000"
 6396 1582 01       		.byte	0x1
 6397 1583 3E02     		.2byte	0x23e
 6398 1585 BB0E0000 		.4byte	0xebb
 6399 1589 02       		.byte	0x2
 6400 158a 91       		.byte	0x91
 6401 158b 6C       		.sleb128 -20
 6402 158c 26       		.uleb128 0x26
 6403 158d B5020000 		.4byte	.LASF207
ARM GAS  C:\Users\X0217454\AppData\Local\Temp\cc5FLHAl.s 			page 133


 6404 1591 01       		.byte	0x1
 6405 1592 3F02     		.2byte	0x23f
 6406 1594 630A0000 		.4byte	0xa63
 6407 1598 02       		.byte	0x2
 6408 1599 91       		.byte	0x91
 6409 159a 5C       		.sleb128 -36
 6410 159b 26       		.uleb128 0x26
 6411 159c 1C0A0000 		.4byte	.LASF208
 6412 15a0 01       		.byte	0x1
 6413 15a1 4002     		.2byte	0x240
 6414 15a3 54000000 		.4byte	0x54
 6415 15a7 02       		.byte	0x2
 6416 15a8 91       		.byte	0x91
 6417 15a9 76       		.sleb128 -10
 6418 15aa 26       		.uleb128 0x26
 6419 15ab F9000000 		.4byte	.LASF209
 6420 15af 01       		.byte	0x1
 6421 15b0 4102     		.2byte	0x241
 6422 15b2 91000000 		.4byte	0x91
 6423 15b6 02       		.byte	0x2
 6424 15b7 91       		.byte	0x91
 6425 15b8 70       		.sleb128 -16
 6426 15b9 26       		.uleb128 0x26
 6427 15ba 7A080000 		.4byte	.LASF220
 6428 15be 01       		.byte	0x1
 6429 15bf 4202     		.2byte	0x242
 6430 15c1 6D000000 		.4byte	0x6d
 6431 15c5 02       		.byte	0x2
 6432 15c6 91       		.byte	0x91
 6433 15c7 58       		.sleb128 -40
 6434 15c8 26       		.uleb128 0x26
 6435 15c9 93080000 		.4byte	.LASF221
 6436 15cd 01       		.byte	0x1
 6437 15ce 4302     		.2byte	0x243
 6438 15d0 3B000000 		.4byte	0x3b
 6439 15d4 02       		.byte	0x2
 6440 15d5 91       		.byte	0x91
 6441 15d6 75       		.sleb128 -11
 6442 15d7 00       		.byte	0
 6443 15d8 27       		.uleb128 0x27
 6444 15d9 01       		.byte	0x1
 6445 15da 3D070000 		.4byte	.LASF222
 6446 15de 01       		.byte	0x1
 6447 15df 8402     		.2byte	0x284
 6448 15e1 01       		.byte	0x1
 6449 15e2 91000000 		.4byte	0x91
 6450 15e6 00000000 		.4byte	.LFB11
 6451 15ea 50000000 		.4byte	.LFE11
 6452 15ee 6C020000 		.4byte	.LLST11
 6453 15f2 01       		.byte	0x1
 6454 15f3 3D160000 		.4byte	0x163d
 6455 15f7 28       		.uleb128 0x28
 6456 15f8 736400   		.ascii	"sd\000"
 6457 15fb 01       		.byte	0x1
 6458 15fc 8402     		.2byte	0x284
 6459 15fe 91000000 		.4byte	0x91
 6460 1602 02       		.byte	0x2
ARM GAS  C:\Users\X0217454\AppData\Local\Temp\cc5FLHAl.s 			page 134


 6461 1603 91       		.byte	0x91
 6462 1604 6C       		.sleb128 -20
 6463 1605 29       		.uleb128 0x29
 6464 1606 ED010000 		.4byte	.LASF87
 6465 160a 01       		.byte	0x1
 6466 160b 8402     		.2byte	0x284
 6467 160d 91000000 		.4byte	0x91
 6468 1611 02       		.byte	0x2
 6469 1612 91       		.byte	0x91
 6470 1613 68       		.sleb128 -24
 6471 1614 2A       		.uleb128 0x2a
 6472 1615 4D736700 		.ascii	"Msg\000"
 6473 1619 01       		.byte	0x1
 6474 161a 8602     		.2byte	0x286
 6475 161c E90E0000 		.4byte	0xee9
 6476 1620 02       		.byte	0x2
 6477 1621 91       		.byte	0x91
 6478 1622 70       		.sleb128 -16
 6479 1623 25       		.uleb128 0x25
 6480 1624 1E000000 		.4byte	.LBB12
 6481 1628 3A000000 		.4byte	.LBE12
 6482 162c 26       		.uleb128 0x26
 6483 162d 030C0000 		.4byte	.LASF199
 6484 1631 01       		.byte	0x1
 6485 1632 8B02     		.2byte	0x28b
 6486 1634 C3000000 		.4byte	0xc3
 6487 1638 02       		.byte	0x2
 6488 1639 91       		.byte	0x91
 6489 163a 74       		.sleb128 -12
 6490 163b 00       		.byte	0
 6491 163c 00       		.byte	0
 6492 163d 27       		.uleb128 0x27
 6493 163e 01       		.byte	0x1
 6494 163f 2A0D0000 		.4byte	.LASF223
 6495 1643 01       		.byte	0x1
 6496 1644 A202     		.2byte	0x2a2
 6497 1646 01       		.byte	0x1
 6498 1647 91000000 		.4byte	0x91
 6499 164b 00000000 		.4byte	.LFB12
 6500 164f D8010000 		.4byte	.LFE12
 6501 1653 A4020000 		.4byte	.LLST12
 6502 1657 01       		.byte	0x1
 6503 1658 35170000 		.4byte	0x1735
 6504 165c 28       		.uleb128 0x28
 6505 165d 736400   		.ascii	"sd\000"
 6506 1660 01       		.byte	0x1
 6507 1661 A202     		.2byte	0x2a2
 6508 1663 91000000 		.4byte	0x91
 6509 1667 02       		.byte	0x2
 6510 1668 91       		.byte	0x91
 6511 1669 4C       		.sleb128 -52
 6512 166a 29       		.uleb128 0x29
 6513 166b BC070000 		.4byte	.LASF189
 6514 166f 01       		.byte	0x1
 6515 1670 A202     		.2byte	0x2a2
 6516 1672 CE100000 		.4byte	0x10ce
 6517 1676 02       		.byte	0x2
ARM GAS  C:\Users\X0217454\AppData\Local\Temp\cc5FLHAl.s 			page 135


 6518 1677 91       		.byte	0x91
 6519 1678 48       		.sleb128 -56
 6520 1679 29       		.uleb128 0x29
 6521 167a AE040000 		.4byte	.LASF190
 6522 167e 01       		.byte	0x1
 6523 167f A202     		.2byte	0x2a2
 6524 1681 D4100000 		.4byte	0x10d4
 6525 1685 02       		.byte	0x2
 6526 1686 91       		.byte	0x91
 6527 1687 44       		.sleb128 -60
 6528 1688 2A       		.uleb128 0x2a
 6529 1689 4D736700 		.ascii	"Msg\000"
 6530 168d 01       		.byte	0x1
 6531 168e A402     		.2byte	0x2a4
 6532 1690 170F0000 		.4byte	0xf17
 6533 1694 02       		.byte	0x2
 6534 1695 91       		.byte	0x91
 6535 1696 5C       		.sleb128 -36
 6536 1697 26       		.uleb128 0x26
 6537 1698 F9000000 		.4byte	.LASF209
 6538 169c 01       		.byte	0x1
 6539 169d A502     		.2byte	0x2a5
 6540 169f C3000000 		.4byte	0xc3
 6541 16a3 02       		.byte	0x2
 6542 16a4 91       		.byte	0x91
 6543 16a5 74       		.sleb128 -12
 6544 16a6 26       		.uleb128 0x26
 6545 16a7 4A050000 		.4byte	.LASF214
 6546 16ab 01       		.byte	0x1
 6547 16ac A602     		.2byte	0x2a6
 6548 16ae 0D070000 		.4byte	0x70d
 6549 16b2 02       		.byte	0x2
 6550 16b3 91       		.byte	0x91
 6551 16b4 50       		.sleb128 -48
 6552 16b5 26       		.uleb128 0x26
 6553 16b6 92010000 		.4byte	.LASF215
 6554 16ba 01       		.byte	0x1
 6555 16bb A802     		.2byte	0x2a8
 6556 16bd 30000000 		.4byte	0x30
 6557 16c1 02       		.byte	0x2
 6558 16c2 91       		.byte	0x91
 6559 16c3 73       		.sleb128 -13
 6560 16c4 2C       		.uleb128 0x2c
 6561 16c5 5A000000 		.4byte	.LBB13
 6562 16c9 78000000 		.4byte	.LBE13
 6563 16cd E1160000 		.4byte	0x16e1
 6564 16d1 26       		.uleb128 0x26
 6565 16d2 030C0000 		.4byte	.LASF199
 6566 16d6 01       		.byte	0x1
 6567 16d7 B602     		.2byte	0x2b6
 6568 16d9 C3000000 		.4byte	0xc3
 6569 16dd 02       		.byte	0x2
 6570 16de 91       		.byte	0x91
 6571 16df 6C       		.sleb128 -20
 6572 16e0 00       		.byte	0
 6573 16e1 2C       		.uleb128 0x2c
 6574 16e2 94000000 		.4byte	.LBB14
ARM GAS  C:\Users\X0217454\AppData\Local\Temp\cc5FLHAl.s 			page 136


 6575 16e6 AE000000 		.4byte	.LBE14
 6576 16ea FE160000 		.4byte	0x16fe
 6577 16ee 26       		.uleb128 0x26
 6578 16ef 030C0000 		.4byte	.LASF199
 6579 16f3 01       		.byte	0x1
 6580 16f4 BA02     		.2byte	0x2ba
 6581 16f6 C3000000 		.4byte	0xc3
 6582 16fa 02       		.byte	0x2
 6583 16fb 91       		.byte	0x91
 6584 16fc 68       		.sleb128 -24
 6585 16fd 00       		.byte	0
 6586 16fe 2C       		.uleb128 0x2c
 6587 16ff AE000000 		.4byte	.LBB15
 6588 1703 CA000000 		.4byte	.LBE15
 6589 1707 1B170000 		.4byte	0x171b
 6590 170b 26       		.uleb128 0x26
 6591 170c 030C0000 		.4byte	.LASF199
 6592 1710 01       		.byte	0x1
 6593 1711 BC02     		.2byte	0x2bc
 6594 1713 C3000000 		.4byte	0xc3
 6595 1717 02       		.byte	0x2
 6596 1718 91       		.byte	0x91
 6597 1719 64       		.sleb128 -28
 6598 171a 00       		.byte	0
 6599 171b 25       		.uleb128 0x25
 6600 171c EA000000 		.4byte	.LBB16
 6601 1720 18010000 		.4byte	.LBE16
 6602 1724 26       		.uleb128 0x26
 6603 1725 030C0000 		.4byte	.LASF199
 6604 1729 01       		.byte	0x1
 6605 172a C402     		.2byte	0x2c4
 6606 172c C3000000 		.4byte	0xc3
 6607 1730 02       		.byte	0x2
 6608 1731 91       		.byte	0x91
 6609 1732 60       		.sleb128 -32
 6610 1733 00       		.byte	0
 6611 1734 00       		.byte	0
 6612 1735 2E       		.uleb128 0x2e
 6613 1736 01       		.byte	0x1
 6614 1737 7D040000 		.4byte	.LASF224
 6615 173b 01       		.byte	0x1
 6616 173c 0403     		.2byte	0x304
 6617 173e 01       		.byte	0x1
 6618 173f 78000000 		.4byte	0x78
 6619 1743 00000000 		.4byte	.LFB13
 6620 1747 4E000000 		.4byte	.LFE13
 6621 174b DE020000 		.4byte	.LLST13
 6622 174f 01       		.byte	0x1
 6623 1750 7E170000 		.4byte	0x177e
 6624 1754 28       		.uleb128 0x28
 6625 1755 76616C00 		.ascii	"val\000"
 6626 1759 01       		.byte	0x1
 6627 175a 0403     		.2byte	0x304
 6628 175c 78000000 		.4byte	0x78
 6629 1760 02       		.byte	0x2
 6630 1761 91       		.byte	0x91
 6631 1762 6C       		.sleb128 -20
ARM GAS  C:\Users\X0217454\AppData\Local\Temp\cc5FLHAl.s 			page 137


 6632 1763 2A       		.uleb128 0x2a
 6633 1764 6900     		.ascii	"i\000"
 6634 1766 01       		.byte	0x1
 6635 1767 0603     		.2byte	0x306
 6636 1769 78000000 		.4byte	0x78
 6637 176d 02       		.byte	0x2
 6638 176e 91       		.byte	0x91
 6639 176f 70       		.sleb128 -16
 6640 1770 2A       		.uleb128 0x2a
 6641 1771 7000     		.ascii	"p\000"
 6642 1773 01       		.byte	0x1
 6643 1774 0703     		.2byte	0x307
 6644 1776 E5000000 		.4byte	0xe5
 6645 177a 02       		.byte	0x2
 6646 177b 91       		.byte	0x91
 6647 177c 74       		.sleb128 -12
 6648 177d 00       		.byte	0
 6649 177e 2E       		.uleb128 0x2e
 6650 177f 01       		.byte	0x1
 6651 1780 8E040000 		.4byte	.LASF225
 6652 1784 01       		.byte	0x1
 6653 1785 1903     		.2byte	0x319
 6654 1787 01       		.byte	0x1
 6655 1788 5F000000 		.4byte	0x5f
 6656 178c 00000000 		.4byte	.LFB14
 6657 1790 4A000000 		.4byte	.LFE14
 6658 1794 16030000 		.4byte	.LLST14
 6659 1798 01       		.byte	0x1
 6660 1799 C7170000 		.4byte	0x17c7
 6661 179d 28       		.uleb128 0x28
 6662 179e 76616C00 		.ascii	"val\000"
 6663 17a2 01       		.byte	0x1
 6664 17a3 1903     		.2byte	0x319
 6665 17a5 5F000000 		.4byte	0x5f
 6666 17a9 02       		.byte	0x2
 6667 17aa 91       		.byte	0x91
 6668 17ab 6E       		.sleb128 -18
 6669 17ac 2A       		.uleb128 0x2a
 6670 17ad 6900     		.ascii	"i\000"
 6671 17af 01       		.byte	0x1
 6672 17b0 1B03     		.2byte	0x31b
 6673 17b2 4D000000 		.4byte	0x4d
 6674 17b6 02       		.byte	0x2
 6675 17b7 91       		.byte	0x91
 6676 17b8 72       		.sleb128 -14
 6677 17b9 2A       		.uleb128 0x2a
 6678 17ba 7000     		.ascii	"p\000"
 6679 17bc 01       		.byte	0x1
 6680 17bd 1C03     		.2byte	0x31c
 6681 17bf E5000000 		.4byte	0xe5
 6682 17c3 02       		.byte	0x2
 6683 17c4 91       		.byte	0x91
 6684 17c5 74       		.sleb128 -12
 6685 17c6 00       		.byte	0
 6686 17c7 2D       		.uleb128 0x2d
 6687 17c8 01       		.byte	0x1
 6688 17c9 97040000 		.4byte	.LASF226
ARM GAS  C:\Users\X0217454\AppData\Local\Temp\cc5FLHAl.s 			page 138


 6689 17cd 01       		.byte	0x1
 6690 17ce 2C03     		.2byte	0x32c
 6691 17d0 01       		.byte	0x1
 6692 17d1 00000000 		.4byte	.LFB15
 6693 17d5 B8000000 		.4byte	.LFE15
 6694 17d9 4E030000 		.4byte	.LLST15
 6695 17dd 01       		.byte	0x1
 6696 17de 54180000 		.4byte	0x1854
 6697 17e2 29       		.uleb128 0x29
 6698 17e3 89010000 		.4byte	.LASF217
 6699 17e7 01       		.byte	0x1
 6700 17e8 2C03     		.2byte	0x32c
 6701 17ea E3000000 		.4byte	0xe3
 6702 17ee 02       		.byte	0x2
 6703 17ef 91       		.byte	0x91
 6704 17f0 64       		.sleb128 -28
 6705 17f1 26       		.uleb128 0x26
 6706 17f2 71090000 		.4byte	.LASF218
 6707 17f6 01       		.byte	0x1
 6708 17f7 2E03     		.2byte	0x32e
 6709 17f9 C8100000 		.4byte	0x10c8
 6710 17fd 02       		.byte	0x2
 6711 17fe 91       		.byte	0x91
 6712 17ff 74       		.sleb128 -12
 6713 1800 2C       		.uleb128 0x2c
 6714 1801 0E000000 		.4byte	.LBB17
 6715 1805 2C000000 		.4byte	.LBE17
 6716 1809 1D180000 		.4byte	0x181d
 6717 180d 26       		.uleb128 0x26
 6718 180e 030C0000 		.4byte	.LASF199
 6719 1812 01       		.byte	0x1
 6720 1813 3003     		.2byte	0x330
 6721 1815 C3000000 		.4byte	0xc3
 6722 1819 02       		.byte	0x2
 6723 181a 91       		.byte	0x91
 6724 181b 70       		.sleb128 -16
 6725 181c 00       		.byte	0
 6726 181d 2C       		.uleb128 0x2c
 6727 181e 64000000 		.4byte	.LBB18
 6728 1822 92000000 		.4byte	.LBE18
 6729 1826 3A180000 		.4byte	0x183a
 6730 182a 26       		.uleb128 0x26
 6731 182b 030C0000 		.4byte	.LASF199
 6732 182f 01       		.byte	0x1
 6733 1830 3603     		.2byte	0x336
 6734 1832 C3000000 		.4byte	0xc3
 6735 1836 02       		.byte	0x2
 6736 1837 91       		.byte	0x91
 6737 1838 6C       		.sleb128 -20
 6738 1839 00       		.byte	0
 6739 183a 25       		.uleb128 0x25
 6740 183b 92000000 		.4byte	.LBB19
 6741 183f AC000000 		.4byte	.LBE19
 6742 1843 26       		.uleb128 0x26
 6743 1844 030C0000 		.4byte	.LASF199
 6744 1848 01       		.byte	0x1
 6745 1849 3803     		.2byte	0x338
ARM GAS  C:\Users\X0217454\AppData\Local\Temp\cc5FLHAl.s 			page 139


 6746 184b C3000000 		.4byte	0xc3
 6747 184f 02       		.byte	0x2
 6748 1850 91       		.byte	0x91
 6749 1851 68       		.sleb128 -24
 6750 1852 00       		.byte	0
 6751 1853 00       		.byte	0
 6752 1854 27       		.uleb128 0x27
 6753 1855 01       		.byte	0x1
 6754 1856 C7080000 		.4byte	.LASF227
 6755 185a 01       		.byte	0x1
 6756 185b 4D03     		.2byte	0x34d
 6757 185d 01       		.byte	0x1
 6758 185e 91000000 		.4byte	0x91
 6759 1862 00000000 		.4byte	.LFB16
 6760 1866 94000000 		.4byte	.LFE16
 6761 186a 86030000 		.4byte	.LLST16
 6762 186e 01       		.byte	0x1
 6763 186f DC180000 		.4byte	0x18dc
 6764 1873 28       		.uleb128 0x28
 6765 1874 736400   		.ascii	"sd\000"
 6766 1877 01       		.byte	0x1
 6767 1878 4D03     		.2byte	0x34d
 6768 187a 91000000 		.4byte	0x91
 6769 187e 02       		.byte	0x2
 6770 187f 91       		.byte	0x91
 6771 1880 5C       		.sleb128 -36
 6772 1881 29       		.uleb128 0x29
 6773 1882 920B0000 		.4byte	.LASF204
 6774 1886 01       		.byte	0x1
 6775 1887 4D03     		.2byte	0x34d
 6776 1889 E3000000 		.4byte	0xe3
 6777 188d 02       		.byte	0x2
 6778 188e 91       		.byte	0x91
 6779 188f 58       		.sleb128 -40
 6780 1890 28       		.uleb128 0x28
 6781 1891 4C656E00 		.ascii	"Len\000"
 6782 1895 01       		.byte	0x1
 6783 1896 4D03     		.2byte	0x34d
 6784 1898 91000000 		.4byte	0x91
 6785 189c 02       		.byte	0x2
 6786 189d 91       		.byte	0x91
 6787 189e 54       		.sleb128 -44
 6788 189f 29       		.uleb128 0x29
 6789 18a0 B7030000 		.4byte	.LASF205
 6790 18a4 01       		.byte	0x1
 6791 18a5 4D03     		.2byte	0x34d
 6792 18a7 91000000 		.4byte	0x91
 6793 18ab 02       		.byte	0x2
 6794 18ac 91       		.byte	0x91
 6795 18ad 50       		.sleb128 -48
 6796 18ae 2A       		.uleb128 0x2a
 6797 18af 4D736700 		.ascii	"Msg\000"
 6798 18b3 01       		.byte	0x1
 6799 18b4 4F03     		.2byte	0x34f
 6800 18b6 450F0000 		.4byte	0xf45
 6801 18ba 02       		.byte	0x2
 6802 18bb 91       		.byte	0x91
ARM GAS  C:\Users\X0217454\AppData\Local\Temp\cc5FLHAl.s 			page 140


 6803 18bc 70       		.sleb128 -16
 6804 18bd 26       		.uleb128 0x26
 6805 18be B5020000 		.4byte	.LASF207
 6806 18c2 01       		.byte	0x1
 6807 18c3 5003     		.2byte	0x350
 6808 18c5 630A0000 		.4byte	0xa63
 6809 18c9 02       		.byte	0x2
 6810 18ca 91       		.byte	0x91
 6811 18cb 60       		.sleb128 -32
 6812 18cc 26       		.uleb128 0x26
 6813 18cd 9B050000 		.4byte	.LASF60
 6814 18d1 01       		.byte	0x1
 6815 18d2 5103     		.2byte	0x351
 6816 18d4 C3000000 		.4byte	0xc3
 6817 18d8 02       		.byte	0x2
 6818 18d9 91       		.byte	0x91
 6819 18da 74       		.sleb128 -12
 6820 18db 00       		.byte	0
 6821 18dc 27       		.uleb128 0x27
 6822 18dd 01       		.byte	0x1
 6823 18de EB0C0000 		.4byte	.LASF228
 6824 18e2 01       		.byte	0x1
 6825 18e3 7D03     		.2byte	0x37d
 6826 18e5 01       		.byte	0x1
 6827 18e6 91000000 		.4byte	0x91
 6828 18ea 00000000 		.4byte	.LFB17
 6829 18ee 8C000000 		.4byte	.LFE17
 6830 18f2 BE030000 		.4byte	.LLST17
 6831 18f6 01       		.byte	0x1
 6832 18f7 7D190000 		.4byte	0x197d
 6833 18fb 28       		.uleb128 0x28
 6834 18fc 736400   		.ascii	"sd\000"
 6835 18ff 01       		.byte	0x1
 6836 1900 7D03     		.2byte	0x37d
 6837 1902 91000000 		.4byte	0x91
 6838 1906 02       		.byte	0x2
 6839 1907 91       		.byte	0x91
 6840 1908 5C       		.sleb128 -36
 6841 1909 29       		.uleb128 0x29
 6842 190a 17000000 		.4byte	.LASF98
 6843 190e 01       		.byte	0x1
 6844 190f 7D03     		.2byte	0x37d
 6845 1911 91000000 		.4byte	0x91
 6846 1915 02       		.byte	0x2
 6847 1916 91       		.byte	0x91
 6848 1917 58       		.sleb128 -40
 6849 1918 29       		.uleb128 0x29
 6850 1919 A2080000 		.4byte	.LASF229
 6851 191d 01       		.byte	0x1
 6852 191e 7D03     		.2byte	0x37d
 6853 1920 91000000 		.4byte	0x91
 6854 1924 02       		.byte	0x2
 6855 1925 91       		.byte	0x91
 6856 1926 54       		.sleb128 -44
 6857 1927 29       		.uleb128 0x29
 6858 1928 B50B0000 		.4byte	.LASF230
 6859 192c 01       		.byte	0x1
ARM GAS  C:\Users\X0217454\AppData\Local\Temp\cc5FLHAl.s 			page 141


 6860 192d 7D03     		.2byte	0x37d
 6861 192f DB120000 		.4byte	0x12db
 6862 1933 02       		.byte	0x2
 6863 1934 91       		.byte	0x91
 6864 1935 50       		.sleb128 -48
 6865 1936 29       		.uleb128 0x29
 6866 1937 2D0A0000 		.4byte	.LASF231
 6867 193b 01       		.byte	0x1
 6868 193c 7D03     		.2byte	0x37d
 6869 193e A1010000 		.4byte	0x1a1
 6870 1942 02       		.byte	0x2
 6871 1943 91       		.byte	0x91
 6872 1944 00       		.sleb128 0
 6873 1945 2A       		.uleb128 0x2a
 6874 1946 4D736700 		.ascii	"Msg\000"
 6875 194a 01       		.byte	0x1
 6876 194b 7F03     		.2byte	0x37f
 6877 194d 730F0000 		.4byte	0xf73
 6878 1951 02       		.byte	0x2
 6879 1952 91       		.byte	0x91
 6880 1953 70       		.sleb128 -16
 6881 1954 26       		.uleb128 0x26
 6882 1955 B5020000 		.4byte	.LASF207
 6883 1959 01       		.byte	0x1
 6884 195a 8003     		.2byte	0x380
 6885 195c 630A0000 		.4byte	0xa63
 6886 1960 02       		.byte	0x2
 6887 1961 91       		.byte	0x91
 6888 1962 60       		.sleb128 -32
 6889 1963 25       		.uleb128 0x25
 6890 1964 58000000 		.4byte	.LBB20
 6891 1968 78000000 		.4byte	.LBE20
 6892 196c 26       		.uleb128 0x26
 6893 196d 030C0000 		.4byte	.LASF199
 6894 1971 01       		.byte	0x1
 6895 1972 8C03     		.2byte	0x38c
 6896 1974 C3000000 		.4byte	0xc3
 6897 1978 02       		.byte	0x2
 6898 1979 91       		.byte	0x91
 6899 197a 74       		.sleb128 -12
 6900 197b 00       		.byte	0
 6901 197c 00       		.byte	0
 6902 197d 27       		.uleb128 0x27
 6903 197e 01       		.byte	0x1
 6904 197f A2050000 		.4byte	.LASF232
 6905 1983 01       		.byte	0x1
 6906 1984 A303     		.2byte	0x3a3
 6907 1986 01       		.byte	0x1
 6908 1987 91000000 		.4byte	0x91
 6909 198b 00000000 		.4byte	.LFB18
 6910 198f DC000000 		.4byte	.LFE18
 6911 1993 F6030000 		.4byte	.LLST18
 6912 1997 01       		.byte	0x1
 6913 1998 1E1A0000 		.4byte	0x1a1e
 6914 199c 28       		.uleb128 0x28
 6915 199d 736400   		.ascii	"sd\000"
 6916 19a0 01       		.byte	0x1
ARM GAS  C:\Users\X0217454\AppData\Local\Temp\cc5FLHAl.s 			page 142


 6917 19a1 A303     		.2byte	0x3a3
 6918 19a3 91000000 		.4byte	0x91
 6919 19a7 02       		.byte	0x2
 6920 19a8 91       		.byte	0x91
 6921 19a9 5C       		.sleb128 -36
 6922 19aa 29       		.uleb128 0x29
 6923 19ab 17000000 		.4byte	.LASF98
 6924 19af 01       		.byte	0x1
 6925 19b0 A303     		.2byte	0x3a3
 6926 19b2 91000000 		.4byte	0x91
 6927 19b6 02       		.byte	0x2
 6928 19b7 91       		.byte	0x91
 6929 19b8 58       		.sleb128 -40
 6930 19b9 29       		.uleb128 0x29
 6931 19ba A2080000 		.4byte	.LASF229
 6932 19be 01       		.byte	0x1
 6933 19bf A303     		.2byte	0x3a3
 6934 19c1 91000000 		.4byte	0x91
 6935 19c5 02       		.byte	0x2
 6936 19c6 91       		.byte	0x91
 6937 19c7 54       		.sleb128 -44
 6938 19c8 29       		.uleb128 0x29
 6939 19c9 B50B0000 		.4byte	.LASF230
 6940 19cd 01       		.byte	0x1
 6941 19ce A303     		.2byte	0x3a3
 6942 19d0 E3000000 		.4byte	0xe3
 6943 19d4 02       		.byte	0x2
 6944 19d5 91       		.byte	0x91
 6945 19d6 50       		.sleb128 -48
 6946 19d7 29       		.uleb128 0x29
 6947 19d8 2D0A0000 		.4byte	.LASF231
 6948 19dc 01       		.byte	0x1
 6949 19dd A303     		.2byte	0x3a3
 6950 19df D4100000 		.4byte	0x10d4
 6951 19e3 02       		.byte	0x2
 6952 19e4 91       		.byte	0x91
 6953 19e5 00       		.sleb128 0
 6954 19e6 2A       		.uleb128 0x2a
 6955 19e7 4D736700 		.ascii	"Msg\000"
 6956 19eb 01       		.byte	0x1
 6957 19ec A503     		.2byte	0x3a5
 6958 19ee A10F0000 		.4byte	0xfa1
 6959 19f2 02       		.byte	0x2
 6960 19f3 91       		.byte	0x91
 6961 19f4 70       		.sleb128 -16
 6962 19f5 26       		.uleb128 0x26
 6963 19f6 B5020000 		.4byte	.LASF207
 6964 19fa 01       		.byte	0x1
 6965 19fb A603     		.2byte	0x3a6
 6966 19fd 630A0000 		.4byte	0xa63
 6967 1a01 02       		.byte	0x2
 6968 1a02 91       		.byte	0x91
 6969 1a03 60       		.sleb128 -32
 6970 1a04 25       		.uleb128 0x25
 6971 1a05 70000000 		.4byte	.LBB21
 6972 1a09 90000000 		.4byte	.LBE21
 6973 1a0d 26       		.uleb128 0x26
ARM GAS  C:\Users\X0217454\AppData\Local\Temp\cc5FLHAl.s 			page 143


 6974 1a0e 030C0000 		.4byte	.LASF199
 6975 1a12 01       		.byte	0x1
 6976 1a13 B703     		.2byte	0x3b7
 6977 1a15 C3000000 		.4byte	0xc3
 6978 1a19 02       		.byte	0x2
 6979 1a1a 91       		.byte	0x91
 6980 1a1b 74       		.sleb128 -12
 6981 1a1c 00       		.byte	0
 6982 1a1d 00       		.byte	0
 6983 1a1e 27       		.uleb128 0x27
 6984 1a1f 01       		.byte	0x1
 6985 1a20 84060000 		.4byte	.LASF233
 6986 1a24 01       		.byte	0x1
 6987 1a25 D703     		.2byte	0x3d7
 6988 1a27 01       		.byte	0x1
 6989 1a28 91000000 		.4byte	0x91
 6990 1a2c 00000000 		.4byte	.LFB19
 6991 1a30 00020000 		.4byte	.LFE19
 6992 1a34 2E040000 		.4byte	.LLST19
 6993 1a38 01       		.byte	0x1
 6994 1a39 261B0000 		.4byte	0x1b26
 6995 1a3d 29       		.uleb128 0x29
 6996 1a3e 83070000 		.4byte	.LASF91
 6997 1a42 01       		.byte	0x1
 6998 1a43 D703     		.2byte	0x3d7
 6999 1a45 91000000 		.4byte	0x91
 7000 1a49 02       		.byte	0x2
 7001 1a4a 91       		.byte	0x91
 7002 1a4b 4C       		.sleb128 -52
 7003 1a4c 29       		.uleb128 0x29
 7004 1a4d 00030000 		.4byte	.LASF234
 7005 1a51 01       		.byte	0x1
 7006 1a52 D703     		.2byte	0x3d7
 7007 1a54 261B0000 		.4byte	0x1b26
 7008 1a58 02       		.byte	0x2
 7009 1a59 91       		.byte	0x91
 7010 1a5a 48       		.sleb128 -56
 7011 1a5b 29       		.uleb128 0x29
 7012 1a5c 9A0A0000 		.4byte	.LASF235
 7013 1a60 01       		.byte	0x1
 7014 1a61 D703     		.2byte	0x3d7
 7015 1a63 261B0000 		.4byte	0x1b26
 7016 1a67 02       		.byte	0x2
 7017 1a68 91       		.byte	0x91
 7018 1a69 44       		.sleb128 -60
 7019 1a6a 29       		.uleb128 0x29
 7020 1a6b CC000000 		.4byte	.LASF236
 7021 1a6f 01       		.byte	0x1
 7022 1a70 D703     		.2byte	0x3d7
 7023 1a72 261B0000 		.4byte	0x1b26
 7024 1a76 02       		.byte	0x2
 7025 1a77 91       		.byte	0x91
 7026 1a78 40       		.sleb128 -64
 7027 1a79 29       		.uleb128 0x29
 7028 1a7a 9D070000 		.4byte	.LASF237
 7029 1a7e 01       		.byte	0x1
 7030 1a7f D703     		.2byte	0x3d7
ARM GAS  C:\Users\X0217454\AppData\Local\Temp\cc5FLHAl.s 			page 144


 7031 1a81 2C1B0000 		.4byte	0x1b2c
 7032 1a85 02       		.byte	0x2
 7033 1a86 91       		.byte	0x91
 7034 1a87 00       		.sleb128 0
 7035 1a88 2A       		.uleb128 0x2a
 7036 1a89 4D736700 		.ascii	"Msg\000"
 7037 1a8d 01       		.byte	0x1
 7038 1a8e D903     		.2byte	0x3d9
 7039 1a90 CF0F0000 		.4byte	0xfcf
 7040 1a94 02       		.byte	0x2
 7041 1a95 91       		.byte	0x91
 7042 1a96 58       		.sleb128 -40
 7043 1a97 26       		.uleb128 0x26
 7044 1a98 4A050000 		.4byte	.LASF214
 7045 1a9c 01       		.byte	0x1
 7046 1a9d DA03     		.2byte	0x3da
 7047 1a9f 9E080000 		.4byte	0x89e
 7048 1aa3 02       		.byte	0x2
 7049 1aa4 91       		.byte	0x91
 7050 1aa5 50       		.sleb128 -48
 7051 1aa6 26       		.uleb128 0x26
 7052 1aa7 92010000 		.4byte	.LASF215
 7053 1aab 01       		.byte	0x1
 7054 1aac DB03     		.2byte	0x3db
 7055 1aae 30000000 		.4byte	0x30
 7056 1ab2 02       		.byte	0x2
 7057 1ab3 91       		.byte	0x91
 7058 1ab4 77       		.sleb128 -9
 7059 1ab5 2C       		.uleb128 0x2c
 7060 1ab6 EC000000 		.4byte	.LBB22
 7061 1aba 0A010000 		.4byte	.LBE22
 7062 1abe D21A0000 		.4byte	0x1ad2
 7063 1ac2 26       		.uleb128 0x26
 7064 1ac3 030C0000 		.4byte	.LASF199
 7065 1ac7 01       		.byte	0x1
 7066 1ac8 0D04     		.2byte	0x40d
 7067 1aca C3000000 		.4byte	0xc3
 7068 1ace 02       		.byte	0x2
 7069 1acf 91       		.byte	0x91
 7070 1ad0 70       		.sleb128 -16
 7071 1ad1 00       		.byte	0
 7072 1ad2 2C       		.uleb128 0x2c
 7073 1ad3 26010000 		.4byte	.LBB23
 7074 1ad7 40010000 		.4byte	.LBE23
 7075 1adb EF1A0000 		.4byte	0x1aef
 7076 1adf 26       		.uleb128 0x26
 7077 1ae0 030C0000 		.4byte	.LASF199
 7078 1ae4 01       		.byte	0x1
 7079 1ae5 1104     		.2byte	0x411
 7080 1ae7 C3000000 		.4byte	0xc3
 7081 1aeb 02       		.byte	0x2
 7082 1aec 91       		.byte	0x91
 7083 1aed 6C       		.sleb128 -20
 7084 1aee 00       		.byte	0
 7085 1aef 2C       		.uleb128 0x2c
 7086 1af0 40010000 		.4byte	.LBB24
 7087 1af4 5C010000 		.4byte	.LBE24
ARM GAS  C:\Users\X0217454\AppData\Local\Temp\cc5FLHAl.s 			page 145


 7088 1af8 0C1B0000 		.4byte	0x1b0c
 7089 1afc 26       		.uleb128 0x26
 7090 1afd 030C0000 		.4byte	.LASF199
 7091 1b01 01       		.byte	0x1
 7092 1b02 1304     		.2byte	0x413
 7093 1b04 C3000000 		.4byte	0xc3
 7094 1b08 02       		.byte	0x2
 7095 1b09 91       		.byte	0x91
 7096 1b0a 68       		.sleb128 -24
 7097 1b0b 00       		.byte	0
 7098 1b0c 25       		.uleb128 0x25
 7099 1b0d 66010000 		.4byte	.LBB25
 7100 1b11 94010000 		.4byte	.LBE25
 7101 1b15 26       		.uleb128 0x26
 7102 1b16 030C0000 		.4byte	.LASF199
 7103 1b1a 01       		.byte	0x1
 7104 1b1b 1704     		.2byte	0x417
 7105 1b1d C3000000 		.4byte	0xc3
 7106 1b21 02       		.byte	0x2
 7107 1b22 91       		.byte	0x91
 7108 1b23 64       		.sleb128 -28
 7109 1b24 00       		.byte	0
 7110 1b25 00       		.byte	0
 7111 1b26 07       		.uleb128 0x7
 7112 1b27 04       		.byte	0x4
 7113 1b28 38030000 		.4byte	0x338
 7114 1b2c 07       		.uleb128 0x7
 7115 1b2d 04       		.byte	0x4
 7116 1b2e 75010000 		.4byte	0x175
 7117 1b32 2F       		.uleb128 0x2f
 7118 1b33 01       		.byte	0x1
 7119 1b34 51040000 		.4byte	.LASF238
 7120 1b38 01       		.byte	0x1
 7121 1b39 2F04     		.2byte	0x42f
 7122 1b3b 01       		.byte	0x1
 7123 1b3c 00000000 		.4byte	.LFB20
 7124 1b40 28000000 		.4byte	.LFE20
 7125 1b44 68040000 		.4byte	.LLST20
 7126 1b48 01       		.byte	0x1
 7127 1b49 6B1B0000 		.4byte	0x1b6b
 7128 1b4d 28       		.uleb128 0x28
 7129 1b4e 666400   		.ascii	"fd\000"
 7130 1b51 01       		.byte	0x1
 7131 1b52 2F04     		.2byte	0x42f
 7132 1b54 91000000 		.4byte	0x91
 7133 1b58 02       		.byte	0x2
 7134 1b59 91       		.byte	0x91
 7135 1b5a 74       		.sleb128 -12
 7136 1b5b 29       		.uleb128 0x29
 7137 1b5c A10B0000 		.4byte	.LASF239
 7138 1b60 01       		.byte	0x1
 7139 1b61 2F04     		.2byte	0x42f
 7140 1b63 261B0000 		.4byte	0x1b26
 7141 1b67 02       		.byte	0x2
 7142 1b68 91       		.byte	0x91
 7143 1b69 70       		.sleb128 -16
 7144 1b6a 00       		.byte	0
ARM GAS  C:\Users\X0217454\AppData\Local\Temp\cc5FLHAl.s 			page 146


 7145 1b6b 2F       		.uleb128 0x2f
 7146 1b6c 01       		.byte	0x1
 7147 1b6d 60040000 		.4byte	.LASF240
 7148 1b71 01       		.byte	0x1
 7149 1b72 3604     		.2byte	0x436
 7150 1b74 01       		.byte	0x1
 7151 1b75 00000000 		.4byte	.LFB21
 7152 1b79 2A000000 		.4byte	.LFE21
 7153 1b7d A0040000 		.4byte	.LLST21
 7154 1b81 01       		.byte	0x1
 7155 1b82 A41B0000 		.4byte	0x1ba4
 7156 1b86 28       		.uleb128 0x28
 7157 1b87 666400   		.ascii	"fd\000"
 7158 1b8a 01       		.byte	0x1
 7159 1b8b 3604     		.2byte	0x436
 7160 1b8d 91000000 		.4byte	0x91
 7161 1b91 02       		.byte	0x2
 7162 1b92 91       		.byte	0x91
 7163 1b93 74       		.sleb128 -12
 7164 1b94 29       		.uleb128 0x29
 7165 1b95 A10B0000 		.4byte	.LASF239
 7166 1b99 01       		.byte	0x1
 7167 1b9a 3604     		.2byte	0x436
 7168 1b9c 261B0000 		.4byte	0x1b26
 7169 1ba0 02       		.byte	0x2
 7170 1ba1 91       		.byte	0x91
 7171 1ba2 70       		.sleb128 -16
 7172 1ba3 00       		.byte	0
 7173 1ba4 2E       		.uleb128 0x2e
 7174 1ba5 01       		.byte	0x1
 7175 1ba6 7A090000 		.4byte	.LASF241
 7176 1baa 01       		.byte	0x1
 7177 1bab 3D04     		.2byte	0x43d
 7178 1bad 01       		.byte	0x1
 7179 1bae 91000000 		.4byte	0x91
 7180 1bb2 00000000 		.4byte	.LFB22
 7181 1bb6 2E000000 		.4byte	.LFE22
 7182 1bba D8040000 		.4byte	.LLST22
 7183 1bbe 01       		.byte	0x1
 7184 1bbf E11B0000 		.4byte	0x1be1
 7185 1bc3 28       		.uleb128 0x28
 7186 1bc4 666400   		.ascii	"fd\000"
 7187 1bc7 01       		.byte	0x1
 7188 1bc8 3D04     		.2byte	0x43d
 7189 1bca 91000000 		.4byte	0x91
 7190 1bce 02       		.byte	0x2
 7191 1bcf 91       		.byte	0x91
 7192 1bd0 74       		.sleb128 -12
 7193 1bd1 29       		.uleb128 0x29
 7194 1bd2 A10B0000 		.4byte	.LASF239
 7195 1bd6 01       		.byte	0x1
 7196 1bd7 3D04     		.2byte	0x43d
 7197 1bd9 261B0000 		.4byte	0x1b26
 7198 1bdd 02       		.byte	0x2
 7199 1bde 91       		.byte	0x91
 7200 1bdf 70       		.sleb128 -16
 7201 1be0 00       		.byte	0
ARM GAS  C:\Users\X0217454\AppData\Local\Temp\cc5FLHAl.s 			page 147


 7202 1be1 2F       		.uleb128 0x2f
 7203 1be2 01       		.byte	0x1
 7204 1be3 0D040000 		.4byte	.LASF242
 7205 1be7 01       		.byte	0x1
 7206 1be8 4804     		.2byte	0x448
 7207 1bea 01       		.byte	0x1
 7208 1beb 00000000 		.4byte	.LFB23
 7209 1bef 14000000 		.4byte	.LFE23
 7210 1bf3 10050000 		.4byte	.LLST23
 7211 1bf7 01       		.byte	0x1
 7212 1bf8 0C1C0000 		.4byte	0x1c0c
 7213 1bfc 29       		.uleb128 0x29
 7214 1bfd A10B0000 		.4byte	.LASF239
 7215 1c01 01       		.byte	0x1
 7216 1c02 4804     		.2byte	0x448
 7217 1c04 261B0000 		.4byte	0x1b26
 7218 1c08 02       		.byte	0x2
 7219 1c09 91       		.byte	0x91
 7220 1c0a 74       		.sleb128 -12
 7221 1c0b 00       		.byte	0
 7222 1c0c 2D       		.uleb128 0x2d
 7223 1c0d 01       		.byte	0x1
 7224 1c0e 1F0C0000 		.4byte	.LASF243
 7225 1c12 01       		.byte	0x1
 7226 1c13 5204     		.2byte	0x452
 7227 1c15 01       		.byte	0x1
 7228 1c16 00000000 		.4byte	.LFB24
 7229 1c1a A8000000 		.4byte	.LFE24
 7230 1c1e 48050000 		.4byte	.LLST24
 7231 1c22 01       		.byte	0x1
 7232 1c23 991C0000 		.4byte	0x1c99
 7233 1c27 29       		.uleb128 0x29
 7234 1c28 89010000 		.4byte	.LASF217
 7235 1c2c 01       		.byte	0x1
 7236 1c2d 5204     		.2byte	0x452
 7237 1c2f E3000000 		.4byte	0xe3
 7238 1c33 02       		.byte	0x2
 7239 1c34 91       		.byte	0x91
 7240 1c35 64       		.sleb128 -28
 7241 1c36 26       		.uleb128 0x26
 7242 1c37 71090000 		.4byte	.LASF218
 7243 1c3b 01       		.byte	0x1
 7244 1c3c 5404     		.2byte	0x454
 7245 1c3e 991C0000 		.4byte	0x1c99
 7246 1c42 02       		.byte	0x2
 7247 1c43 91       		.byte	0x91
 7248 1c44 74       		.sleb128 -12
 7249 1c45 2C       		.uleb128 0x2c
 7250 1c46 0E000000 		.4byte	.LBB26
 7251 1c4a 2C000000 		.4byte	.LBE26
 7252 1c4e 621C0000 		.4byte	0x1c62
 7253 1c52 26       		.uleb128 0x26
 7254 1c53 030C0000 		.4byte	.LASF199
 7255 1c57 01       		.byte	0x1
 7256 1c58 5604     		.2byte	0x456
 7257 1c5a C3000000 		.4byte	0xc3
 7258 1c5e 02       		.byte	0x2
ARM GAS  C:\Users\X0217454\AppData\Local\Temp\cc5FLHAl.s 			page 148


 7259 1c5f 91       		.byte	0x91
 7260 1c60 70       		.sleb128 -16
 7261 1c61 00       		.byte	0
 7262 1c62 2C       		.uleb128 0x2c
 7263 1c63 54000000 		.4byte	.LBB27
 7264 1c67 82000000 		.4byte	.LBE27
 7265 1c6b 7F1C0000 		.4byte	0x1c7f
 7266 1c6f 26       		.uleb128 0x26
 7267 1c70 030C0000 		.4byte	.LASF199
 7268 1c74 01       		.byte	0x1
 7269 1c75 5B04     		.2byte	0x45b
 7270 1c77 C3000000 		.4byte	0xc3
 7271 1c7b 02       		.byte	0x2
 7272 1c7c 91       		.byte	0x91
 7273 1c7d 6C       		.sleb128 -20
 7274 1c7e 00       		.byte	0
 7275 1c7f 25       		.uleb128 0x25
 7276 1c80 82000000 		.4byte	.LBB28
 7277 1c84 9C000000 		.4byte	.LBE28
 7278 1c88 26       		.uleb128 0x26
 7279 1c89 030C0000 		.4byte	.LASF199
 7280 1c8d 01       		.byte	0x1
 7281 1c8e 5D04     		.2byte	0x45d
 7282 1c90 C3000000 		.4byte	0xc3
 7283 1c94 02       		.byte	0x2
 7284 1c95 91       		.byte	0x91
 7285 1c96 68       		.sleb128 -24
 7286 1c97 00       		.byte	0
 7287 1c98 00       		.byte	0
 7288 1c99 07       		.uleb128 0x7
 7289 1c9a 04       		.byte	0x4
 7290 1c9b 9E080000 		.4byte	0x89e
 7291 1c9f 30       		.uleb128 0x30
 7292 1ca0 44050000 		.4byte	.LASF244
 7293 1ca4 08       		.byte	0x8
 7294 1ca5 A9       		.byte	0xa9
 7295 1ca6 AC1C0000 		.4byte	0x1cac
 7296 1caa 01       		.byte	0x1
 7297 1cab 01       		.byte	0x1
 7298 1cac 07       		.uleb128 0x7
 7299 1cad 04       		.byte	0x4
 7300 1cae 930D0000 		.4byte	0xd93
 7301 1cb2 31       		.uleb128 0x31
 7302 1cb3 74010000 		.4byte	.LASF245
 7303 1cb7 01       		.byte	0x1
 7304 1cb8 B6       		.byte	0xb6
 7305 1cb9 C41C0000 		.4byte	0x1cc4
 7306 1cbd 01       		.byte	0x1
 7307 1cbe 05       		.byte	0x5
 7308 1cbf 03       		.byte	0x3
 7309 1cc0 00000000 		.4byte	_SlSockSocketCmdCtrl
 7310 1cc4 1F       		.uleb128 0x1f
 7311 1cc5 030A0000 		.4byte	0xa03
 7312 1cc9 31       		.uleb128 0x31
 7313 1cca 49010000 		.4byte	.LASF246
 7314 1cce 01       		.byte	0x1
 7315 1ccf DC       		.byte	0xdc
ARM GAS  C:\Users\X0217454\AppData\Local\Temp\cc5FLHAl.s 			page 149


 7316 1cd0 C41C0000 		.4byte	0x1cc4
 7317 1cd4 01       		.byte	0x1
 7318 1cd5 05       		.byte	0x5
 7319 1cd6 03       		.byte	0x3
 7320 1cd7 00000000 		.4byte	_SlSockCloseCmdCtrl
 7321 1cdb 32       		.uleb128 0x32
 7322 1cdc 30080000 		.4byte	.LASF247
 7323 1ce0 01       		.byte	0x1
 7324 1ce1 7501     		.2byte	0x175
 7325 1ce3 C41C0000 		.4byte	0x1cc4
 7326 1ce7 01       		.byte	0x1
 7327 1ce8 05       		.byte	0x5
 7328 1ce9 03       		.byte	0x3
 7329 1cea 00000000 		.4byte	_SlRecvfomCmdCtrl
 7330 1cee 32       		.uleb128 0x32
 7331 1cef B8050000 		.4byte	.LASF248
 7332 1cf3 01       		.byte	0x1
 7333 1cf4 3402     		.2byte	0x234
 7334 1cf6 C41C0000 		.4byte	0x1cc4
 7335 1cfa 01       		.byte	0x1
 7336 1cfb 05       		.byte	0x5
 7337 1cfc 03       		.byte	0x3
 7338 1cfd 00000000 		.4byte	_SlSendCmdCtrl
 7339 1d01 32       		.uleb128 0x32
 7340 1d02 470B0000 		.4byte	.LASF249
 7341 1d06 01       		.byte	0x1
 7342 1d07 7C02     		.2byte	0x27c
 7343 1d09 C41C0000 		.4byte	0x1cc4
 7344 1d0d 01       		.byte	0x1
 7345 1d0e 05       		.byte	0x5
 7346 1d0f 03       		.byte	0x3
 7347 1d10 00000000 		.4byte	_SlListenCmdCtrl
 7348 1d14 32       		.uleb128 0x32
 7349 1d15 57030000 		.4byte	.LASF250
 7350 1d19 01       		.byte	0x1
 7351 1d1a 9A02     		.2byte	0x29a
 7352 1d1c C41C0000 		.4byte	0x1cc4
 7353 1d20 01       		.byte	0x1
 7354 1d21 05       		.byte	0x5
 7355 1d22 03       		.byte	0x3
 7356 1d23 00000000 		.4byte	_SlAcceptCmdCtrl
 7357 1d27 32       		.uleb128 0x32
 7358 1d28 330B0000 		.4byte	.LASF251
 7359 1d2c 01       		.byte	0x1
 7360 1d2d 4503     		.2byte	0x345
 7361 1d2f C41C0000 		.4byte	0x1cc4
 7362 1d33 01       		.byte	0x1
 7363 1d34 05       		.byte	0x5
 7364 1d35 03       		.byte	0x3
 7365 1d36 00000000 		.4byte	_SlRecvCmdCtrl
 7366 1d3a 32       		.uleb128 0x32
 7367 1d3b 88070000 		.4byte	.LASF252
 7368 1d3f 01       		.byte	0x1
 7369 1d40 7503     		.2byte	0x375
 7370 1d42 C41C0000 		.4byte	0x1cc4
 7371 1d46 01       		.byte	0x1
 7372 1d47 05       		.byte	0x5
ARM GAS  C:\Users\X0217454\AppData\Local\Temp\cc5FLHAl.s 			page 150


 7373 1d48 03       		.byte	0x3
 7374 1d49 00000000 		.4byte	_SlSetSockOptCmdCtrl
 7375 1d4d 32       		.uleb128 0x32
 7376 1d4e A30A0000 		.4byte	.LASF253
 7377 1d52 01       		.byte	0x1
 7378 1d53 9B03     		.2byte	0x39b
 7379 1d55 C41C0000 		.4byte	0x1cc4
 7380 1d59 01       		.byte	0x1
 7381 1d5a 05       		.byte	0x5
 7382 1d5b 03       		.byte	0x3
 7383 1d5c 00000000 		.4byte	_SlGetSockOptCmdCtrl
 7384 1d60 32       		.uleb128 0x32
 7385 1d61 AB070000 		.4byte	.LASF254
 7386 1d65 01       		.byte	0x1
 7387 1d66 CF03     		.2byte	0x3cf
 7388 1d68 C41C0000 		.4byte	0x1cc4
 7389 1d6c 01       		.byte	0x1
 7390 1d6d 05       		.byte	0x5
 7391 1d6e 03       		.byte	0x3
 7392 1d6f 00000000 		.4byte	_SlSelectCmdCtrl
 7393 1d73 00       		.byte	0
 7394              		.section	.debug_abbrev,"",%progbits
 7395              	.Ldebug_abbrev0:
 7396 0000 01       		.uleb128 0x1
 7397 0001 11       		.uleb128 0x11
 7398 0002 01       		.byte	0x1
 7399 0003 25       		.uleb128 0x25
 7400 0004 0E       		.uleb128 0xe
 7401 0005 13       		.uleb128 0x13
 7402 0006 0B       		.uleb128 0xb
 7403 0007 03       		.uleb128 0x3
 7404 0008 0E       		.uleb128 0xe
 7405 0009 1B       		.uleb128 0x1b
 7406 000a 0E       		.uleb128 0xe
 7407 000b 55       		.uleb128 0x55
 7408 000c 06       		.uleb128 0x6
 7409 000d 11       		.uleb128 0x11
 7410 000e 01       		.uleb128 0x1
 7411 000f 52       		.uleb128 0x52
 7412 0010 01       		.uleb128 0x1
 7413 0011 10       		.uleb128 0x10
 7414 0012 06       		.uleb128 0x6
 7415 0013 00       		.byte	0
 7416 0014 00       		.byte	0
 7417 0015 02       		.uleb128 0x2
 7418 0016 24       		.uleb128 0x24
 7419 0017 00       		.byte	0
 7420 0018 0B       		.uleb128 0xb
 7421 0019 0B       		.uleb128 0xb
 7422 001a 3E       		.uleb128 0x3e
 7423 001b 0B       		.uleb128 0xb
 7424 001c 03       		.uleb128 0x3
 7425 001d 0E       		.uleb128 0xe
 7426 001e 00       		.byte	0
 7427 001f 00       		.byte	0
 7428 0020 03       		.uleb128 0x3
 7429 0021 16       		.uleb128 0x16
ARM GAS  C:\Users\X0217454\AppData\Local\Temp\cc5FLHAl.s 			page 151


 7430 0022 00       		.byte	0
 7431 0023 03       		.uleb128 0x3
 7432 0024 0E       		.uleb128 0xe
 7433 0025 3A       		.uleb128 0x3a
 7434 0026 0B       		.uleb128 0xb
 7435 0027 3B       		.uleb128 0x3b
 7436 0028 0B       		.uleb128 0xb
 7437 0029 49       		.uleb128 0x49
 7438 002a 13       		.uleb128 0x13
 7439 002b 00       		.byte	0
 7440 002c 00       		.byte	0
 7441 002d 04       		.uleb128 0x4
 7442 002e 16       		.uleb128 0x16
 7443 002f 00       		.byte	0
 7444 0030 03       		.uleb128 0x3
 7445 0031 08       		.uleb128 0x8
 7446 0032 3A       		.uleb128 0x3a
 7447 0033 0B       		.uleb128 0xb
 7448 0034 3B       		.uleb128 0x3b
 7449 0035 0B       		.uleb128 0xb
 7450 0036 49       		.uleb128 0x49
 7451 0037 13       		.uleb128 0x13
 7452 0038 00       		.byte	0
 7453 0039 00       		.byte	0
 7454 003a 05       		.uleb128 0x5
 7455 003b 24       		.uleb128 0x24
 7456 003c 00       		.byte	0
 7457 003d 0B       		.uleb128 0xb
 7458 003e 0B       		.uleb128 0xb
 7459 003f 3E       		.uleb128 0x3e
 7460 0040 0B       		.uleb128 0xb
 7461 0041 03       		.uleb128 0x3
 7462 0042 08       		.uleb128 0x8
 7463 0043 00       		.byte	0
 7464 0044 00       		.byte	0
 7465 0045 06       		.uleb128 0x6
 7466 0046 0F       		.uleb128 0xf
 7467 0047 00       		.byte	0
 7468 0048 0B       		.uleb128 0xb
 7469 0049 0B       		.uleb128 0xb
 7470 004a 00       		.byte	0
 7471 004b 00       		.byte	0
 7472 004c 07       		.uleb128 0x7
 7473 004d 0F       		.uleb128 0xf
 7474 004e 00       		.byte	0
 7475 004f 0B       		.uleb128 0xb
 7476 0050 0B       		.uleb128 0xb
 7477 0051 49       		.uleb128 0x49
 7478 0052 13       		.uleb128 0x13
 7479 0053 00       		.byte	0
 7480 0054 00       		.byte	0
 7481 0055 08       		.uleb128 0x8
 7482 0056 01       		.uleb128 0x1
 7483 0057 01       		.byte	0x1
 7484 0058 49       		.uleb128 0x49
 7485 0059 13       		.uleb128 0x13
 7486 005a 01       		.uleb128 0x1
ARM GAS  C:\Users\X0217454\AppData\Local\Temp\cc5FLHAl.s 			page 152


 7487 005b 13       		.uleb128 0x13
 7488 005c 00       		.byte	0
 7489 005d 00       		.byte	0
 7490 005e 09       		.uleb128 0x9
 7491 005f 21       		.uleb128 0x21
 7492 0060 00       		.byte	0
 7493 0061 49       		.uleb128 0x49
 7494 0062 13       		.uleb128 0x13
 7495 0063 2F       		.uleb128 0x2f
 7496 0064 0B       		.uleb128 0xb
 7497 0065 00       		.byte	0
 7498 0066 00       		.byte	0
 7499 0067 0A       		.uleb128 0xa
 7500 0068 15       		.uleb128 0x15
 7501 0069 01       		.byte	0x1
 7502 006a 27       		.uleb128 0x27
 7503 006b 0C       		.uleb128 0xc
 7504 006c 01       		.uleb128 0x1
 7505 006d 13       		.uleb128 0x13
 7506 006e 00       		.byte	0
 7507 006f 00       		.byte	0
 7508 0070 0B       		.uleb128 0xb
 7509 0071 05       		.uleb128 0x5
 7510 0072 00       		.byte	0
 7511 0073 49       		.uleb128 0x49
 7512 0074 13       		.uleb128 0x13
 7513 0075 00       		.byte	0
 7514 0076 00       		.byte	0
 7515 0077 0C       		.uleb128 0xc
 7516 0078 16       		.uleb128 0x16
 7517 0079 00       		.byte	0
 7518 007a 03       		.uleb128 0x3
 7519 007b 0E       		.uleb128 0xe
 7520 007c 3A       		.uleb128 0x3a
 7521 007d 0B       		.uleb128 0xb
 7522 007e 3B       		.uleb128 0x3b
 7523 007f 05       		.uleb128 0x5
 7524 0080 49       		.uleb128 0x49
 7525 0081 13       		.uleb128 0x13
 7526 0082 00       		.byte	0
 7527 0083 00       		.byte	0
 7528 0084 0D       		.uleb128 0xd
 7529 0085 13       		.uleb128 0x13
 7530 0086 01       		.byte	0x1
 7531 0087 03       		.uleb128 0x3
 7532 0088 0E       		.uleb128 0xe
 7533 0089 0B       		.uleb128 0xb
 7534 008a 0B       		.uleb128 0xb
 7535 008b 3A       		.uleb128 0x3a
 7536 008c 0B       		.uleb128 0xb
 7537 008d 3B       		.uleb128 0x3b
 7538 008e 05       		.uleb128 0x5
 7539 008f 01       		.uleb128 0x1
 7540 0090 13       		.uleb128 0x13
 7541 0091 00       		.byte	0
 7542 0092 00       		.byte	0
 7543 0093 0E       		.uleb128 0xe
ARM GAS  C:\Users\X0217454\AppData\Local\Temp\cc5FLHAl.s 			page 153


 7544 0094 0D       		.uleb128 0xd
 7545 0095 00       		.byte	0
 7546 0096 03       		.uleb128 0x3
 7547 0097 0E       		.uleb128 0xe
 7548 0098 3A       		.uleb128 0x3a
 7549 0099 0B       		.uleb128 0xb
 7550 009a 3B       		.uleb128 0x3b
 7551 009b 05       		.uleb128 0x5
 7552 009c 49       		.uleb128 0x49
 7553 009d 13       		.uleb128 0x13
 7554 009e 38       		.uleb128 0x38
 7555 009f 0A       		.uleb128 0xa
 7556 00a0 00       		.byte	0
 7557 00a1 00       		.byte	0
 7558 00a2 0F       		.uleb128 0xf
 7559 00a3 17       		.uleb128 0x17
 7560 00a4 01       		.byte	0x1
 7561 00a5 0B       		.uleb128 0xb
 7562 00a6 0B       		.uleb128 0xb
 7563 00a7 3A       		.uleb128 0x3a
 7564 00a8 0B       		.uleb128 0xb
 7565 00a9 3B       		.uleb128 0x3b
 7566 00aa 05       		.uleb128 0x5
 7567 00ab 01       		.uleb128 0x1
 7568 00ac 13       		.uleb128 0x13
 7569 00ad 00       		.byte	0
 7570 00ae 00       		.byte	0
 7571 00af 10       		.uleb128 0x10
 7572 00b0 0D       		.uleb128 0xd
 7573 00b1 00       		.byte	0
 7574 00b2 03       		.uleb128 0x3
 7575 00b3 0E       		.uleb128 0xe
 7576 00b4 3A       		.uleb128 0x3a
 7577 00b5 0B       		.uleb128 0xb
 7578 00b6 3B       		.uleb128 0x3b
 7579 00b7 05       		.uleb128 0x5
 7580 00b8 49       		.uleb128 0x49
 7581 00b9 13       		.uleb128 0x13
 7582 00ba 00       		.byte	0
 7583 00bb 00       		.byte	0
 7584 00bc 11       		.uleb128 0x11
 7585 00bd 13       		.uleb128 0x13
 7586 00be 01       		.byte	0x1
 7587 00bf 0B       		.uleb128 0xb
 7588 00c0 0B       		.uleb128 0xb
 7589 00c1 3A       		.uleb128 0x3a
 7590 00c2 0B       		.uleb128 0xb
 7591 00c3 3B       		.uleb128 0x3b
 7592 00c4 0B       		.uleb128 0xb
 7593 00c5 01       		.uleb128 0x1
 7594 00c6 13       		.uleb128 0x13
 7595 00c7 00       		.byte	0
 7596 00c8 00       		.byte	0
 7597 00c9 12       		.uleb128 0x12
 7598 00ca 0D       		.uleb128 0xd
 7599 00cb 00       		.byte	0
 7600 00cc 03       		.uleb128 0x3
ARM GAS  C:\Users\X0217454\AppData\Local\Temp\cc5FLHAl.s 			page 154


 7601 00cd 0E       		.uleb128 0xe
 7602 00ce 3A       		.uleb128 0x3a
 7603 00cf 0B       		.uleb128 0xb
 7604 00d0 3B       		.uleb128 0x3b
 7605 00d1 0B       		.uleb128 0xb
 7606 00d2 49       		.uleb128 0x49
 7607 00d3 13       		.uleb128 0x13
 7608 00d4 38       		.uleb128 0x38
 7609 00d5 0A       		.uleb128 0xa
 7610 00d6 00       		.byte	0
 7611 00d7 00       		.byte	0
 7612 00d8 13       		.uleb128 0x13
 7613 00d9 0D       		.uleb128 0xd
 7614 00da 00       		.byte	0
 7615 00db 03       		.uleb128 0x3
 7616 00dc 08       		.uleb128 0x8
 7617 00dd 3A       		.uleb128 0x3a
 7618 00de 0B       		.uleb128 0xb
 7619 00df 3B       		.uleb128 0x3b
 7620 00e0 0B       		.uleb128 0xb
 7621 00e1 49       		.uleb128 0x49
 7622 00e2 13       		.uleb128 0x13
 7623 00e3 38       		.uleb128 0x38
 7624 00e4 0A       		.uleb128 0xa
 7625 00e5 00       		.byte	0
 7626 00e6 00       		.byte	0
 7627 00e7 14       		.uleb128 0x14
 7628 00e8 13       		.uleb128 0x13
 7629 00e9 01       		.byte	0x1
 7630 00ea 0B       		.uleb128 0xb
 7631 00eb 0B       		.uleb128 0xb
 7632 00ec 3A       		.uleb128 0x3a
 7633 00ed 0B       		.uleb128 0xb
 7634 00ee 3B       		.uleb128 0x3b
 7635 00ef 05       		.uleb128 0x5
 7636 00f0 01       		.uleb128 0x1
 7637 00f1 13       		.uleb128 0x13
 7638 00f2 00       		.byte	0
 7639 00f3 00       		.byte	0
 7640 00f4 15       		.uleb128 0x15
 7641 00f5 0D       		.uleb128 0xd
 7642 00f6 00       		.byte	0
 7643 00f7 03       		.uleb128 0x3
 7644 00f8 08       		.uleb128 0x8
 7645 00f9 3A       		.uleb128 0x3a
 7646 00fa 0B       		.uleb128 0xb
 7647 00fb 3B       		.uleb128 0x3b
 7648 00fc 05       		.uleb128 0x5
 7649 00fd 49       		.uleb128 0x49
 7650 00fe 13       		.uleb128 0x13
 7651 00ff 38       		.uleb128 0x38
 7652 0100 0A       		.uleb128 0xa
 7653 0101 00       		.byte	0
 7654 0102 00       		.byte	0
 7655 0103 16       		.uleb128 0x16
 7656 0104 13       		.uleb128 0x13
 7657 0105 01       		.byte	0x1
ARM GAS  C:\Users\X0217454\AppData\Local\Temp\cc5FLHAl.s 			page 155


 7658 0106 03       		.uleb128 0x3
 7659 0107 0E       		.uleb128 0xe
 7660 0108 0B       		.uleb128 0xb
 7661 0109 0B       		.uleb128 0xb
 7662 010a 3A       		.uleb128 0x3a
 7663 010b 0B       		.uleb128 0xb
 7664 010c 3B       		.uleb128 0x3b
 7665 010d 0B       		.uleb128 0xb
 7666 010e 01       		.uleb128 0x1
 7667 010f 13       		.uleb128 0x13
 7668 0110 00       		.byte	0
 7669 0111 00       		.byte	0
 7670 0112 17       		.uleb128 0x17
 7671 0113 04       		.uleb128 0x4
 7672 0114 01       		.byte	0x1
 7673 0115 0B       		.uleb128 0xb
 7674 0116 0B       		.uleb128 0xb
 7675 0117 3A       		.uleb128 0x3a
 7676 0118 0B       		.uleb128 0xb
 7677 0119 3B       		.uleb128 0x3b
 7678 011a 0B       		.uleb128 0xb
 7679 011b 01       		.uleb128 0x1
 7680 011c 13       		.uleb128 0x13
 7681 011d 00       		.byte	0
 7682 011e 00       		.byte	0
 7683 011f 18       		.uleb128 0x18
 7684 0120 28       		.uleb128 0x28
 7685 0121 00       		.byte	0
 7686 0122 03       		.uleb128 0x3
 7687 0123 0E       		.uleb128 0xe
 7688 0124 1C       		.uleb128 0x1c
 7689 0125 0D       		.uleb128 0xd
 7690 0126 00       		.byte	0
 7691 0127 00       		.byte	0
 7692 0128 19       		.uleb128 0x19
 7693 0129 17       		.uleb128 0x17
 7694 012a 01       		.byte	0x1
 7695 012b 0B       		.uleb128 0xb
 7696 012c 0B       		.uleb128 0xb
 7697 012d 3A       		.uleb128 0x3a
 7698 012e 0B       		.uleb128 0xb
 7699 012f 3B       		.uleb128 0x3b
 7700 0130 0B       		.uleb128 0xb
 7701 0131 01       		.uleb128 0x1
 7702 0132 13       		.uleb128 0x13
 7703 0133 00       		.byte	0
 7704 0134 00       		.byte	0
 7705 0135 1A       		.uleb128 0x1a
 7706 0136 0D       		.uleb128 0xd
 7707 0137 00       		.byte	0
 7708 0138 03       		.uleb128 0x3
 7709 0139 0E       		.uleb128 0xe
 7710 013a 3A       		.uleb128 0x3a
 7711 013b 0B       		.uleb128 0xb
 7712 013c 3B       		.uleb128 0x3b
 7713 013d 0B       		.uleb128 0xb
 7714 013e 49       		.uleb128 0x49
ARM GAS  C:\Users\X0217454\AppData\Local\Temp\cc5FLHAl.s 			page 156


 7715 013f 13       		.uleb128 0x13
 7716 0140 00       		.byte	0
 7717 0141 00       		.byte	0
 7718 0142 1B       		.uleb128 0x1b
 7719 0143 0D       		.uleb128 0xd
 7720 0144 00       		.byte	0
 7721 0145 03       		.uleb128 0x3
 7722 0146 08       		.uleb128 0x8
 7723 0147 3A       		.uleb128 0x3a
 7724 0148 0B       		.uleb128 0xb
 7725 0149 3B       		.uleb128 0x3b
 7726 014a 0B       		.uleb128 0xb
 7727 014b 49       		.uleb128 0x49
 7728 014c 13       		.uleb128 0x13
 7729 014d 00       		.byte	0
 7730 014e 00       		.byte	0
 7731 014f 1C       		.uleb128 0x1c
 7732 0150 0D       		.uleb128 0xd
 7733 0151 00       		.byte	0
 7734 0152 03       		.uleb128 0x3
 7735 0153 08       		.uleb128 0x8
 7736 0154 3A       		.uleb128 0x3a
 7737 0155 0B       		.uleb128 0xb
 7738 0156 3B       		.uleb128 0x3b
 7739 0157 05       		.uleb128 0x5
 7740 0158 49       		.uleb128 0x49
 7741 0159 13       		.uleb128 0x13
 7742 015a 00       		.byte	0
 7743 015b 00       		.byte	0
 7744 015c 1D       		.uleb128 0x1d
 7745 015d 2E       		.uleb128 0x2e
 7746 015e 01       		.byte	0x1
 7747 015f 3F       		.uleb128 0x3f
 7748 0160 0C       		.uleb128 0xc
 7749 0161 03       		.uleb128 0x3
 7750 0162 0E       		.uleb128 0xe
 7751 0163 3A       		.uleb128 0x3a
 7752 0164 0B       		.uleb128 0xb
 7753 0165 3B       		.uleb128 0x3b
 7754 0166 0B       		.uleb128 0xb
 7755 0167 27       		.uleb128 0x27
 7756 0168 0C       		.uleb128 0xc
 7757 0169 11       		.uleb128 0x11
 7758 016a 01       		.uleb128 0x1
 7759 016b 12       		.uleb128 0x12
 7760 016c 01       		.uleb128 0x1
 7761 016d 40       		.uleb128 0x40
 7762 016e 06       		.uleb128 0x6
 7763 016f 9642     		.uleb128 0x2116
 7764 0171 0C       		.uleb128 0xc
 7765 0172 01       		.uleb128 0x1
 7766 0173 13       		.uleb128 0x13
 7767 0174 00       		.byte	0
 7768 0175 00       		.byte	0
 7769 0176 1E       		.uleb128 0x1e
 7770 0177 05       		.uleb128 0x5
 7771 0178 00       		.byte	0
ARM GAS  C:\Users\X0217454\AppData\Local\Temp\cc5FLHAl.s 			page 157


 7772 0179 03       		.uleb128 0x3
 7773 017a 0E       		.uleb128 0xe
 7774 017b 3A       		.uleb128 0x3a
 7775 017c 0B       		.uleb128 0xb
 7776 017d 3B       		.uleb128 0x3b
 7777 017e 0B       		.uleb128 0xb
 7778 017f 49       		.uleb128 0x49
 7779 0180 13       		.uleb128 0x13
 7780 0181 02       		.uleb128 0x2
 7781 0182 0A       		.uleb128 0xa
 7782 0183 00       		.byte	0
 7783 0184 00       		.byte	0
 7784 0185 1F       		.uleb128 0x1f
 7785 0186 26       		.uleb128 0x26
 7786 0187 00       		.byte	0
 7787 0188 49       		.uleb128 0x49
 7788 0189 13       		.uleb128 0x13
 7789 018a 00       		.byte	0
 7790 018b 00       		.byte	0
 7791 018c 20       		.uleb128 0x20
 7792 018d 2E       		.uleb128 0x2e
 7793 018e 01       		.byte	0x1
 7794 018f 3F       		.uleb128 0x3f
 7795 0190 0C       		.uleb128 0xc
 7796 0191 03       		.uleb128 0x3
 7797 0192 0E       		.uleb128 0xe
 7798 0193 3A       		.uleb128 0x3a
 7799 0194 0B       		.uleb128 0xb
 7800 0195 3B       		.uleb128 0x3b
 7801 0196 0B       		.uleb128 0xb
 7802 0197 27       		.uleb128 0x27
 7803 0198 0C       		.uleb128 0xc
 7804 0199 49       		.uleb128 0x49
 7805 019a 13       		.uleb128 0x13
 7806 019b 11       		.uleb128 0x11
 7807 019c 01       		.uleb128 0x1
 7808 019d 12       		.uleb128 0x12
 7809 019e 01       		.uleb128 0x1
 7810 019f 40       		.uleb128 0x40
 7811 01a0 06       		.uleb128 0x6
 7812 01a1 9742     		.uleb128 0x2117
 7813 01a3 0C       		.uleb128 0xc
 7814 01a4 01       		.uleb128 0x1
 7815 01a5 13       		.uleb128 0x13
 7816 01a6 00       		.byte	0
 7817 01a7 00       		.byte	0
 7818 01a8 21       		.uleb128 0x21
 7819 01a9 05       		.uleb128 0x5
 7820 01aa 00       		.byte	0
 7821 01ab 03       		.uleb128 0x3
 7822 01ac 08       		.uleb128 0x8
 7823 01ad 3A       		.uleb128 0x3a
 7824 01ae 0B       		.uleb128 0xb
 7825 01af 3B       		.uleb128 0x3b
 7826 01b0 0B       		.uleb128 0xb
 7827 01b1 49       		.uleb128 0x49
 7828 01b2 13       		.uleb128 0x13
ARM GAS  C:\Users\X0217454\AppData\Local\Temp\cc5FLHAl.s 			page 158


 7829 01b3 02       		.uleb128 0x2
 7830 01b4 0A       		.uleb128 0xa
 7831 01b5 00       		.byte	0
 7832 01b6 00       		.byte	0
 7833 01b7 22       		.uleb128 0x22
 7834 01b8 34       		.uleb128 0x34
 7835 01b9 00       		.byte	0
 7836 01ba 03       		.uleb128 0x3
 7837 01bb 0E       		.uleb128 0xe
 7838 01bc 3A       		.uleb128 0x3a
 7839 01bd 0B       		.uleb128 0xb
 7840 01be 3B       		.uleb128 0x3b
 7841 01bf 0B       		.uleb128 0xb
 7842 01c0 49       		.uleb128 0x49
 7843 01c1 13       		.uleb128 0x13
 7844 01c2 02       		.uleb128 0x2
 7845 01c3 0A       		.uleb128 0xa
 7846 01c4 00       		.byte	0
 7847 01c5 00       		.byte	0
 7848 01c6 23       		.uleb128 0x23
 7849 01c7 2E       		.uleb128 0x2e
 7850 01c8 01       		.byte	0x1
 7851 01c9 3F       		.uleb128 0x3f
 7852 01ca 0C       		.uleb128 0xc
 7853 01cb 03       		.uleb128 0x3
 7854 01cc 0E       		.uleb128 0xe
 7855 01cd 3A       		.uleb128 0x3a
 7856 01ce 0B       		.uleb128 0xb
 7857 01cf 3B       		.uleb128 0x3b
 7858 01d0 0B       		.uleb128 0xb
 7859 01d1 27       		.uleb128 0x27
 7860 01d2 0C       		.uleb128 0xc
 7861 01d3 49       		.uleb128 0x49
 7862 01d4 13       		.uleb128 0x13
 7863 01d5 11       		.uleb128 0x11
 7864 01d6 01       		.uleb128 0x1
 7865 01d7 12       		.uleb128 0x12
 7866 01d8 01       		.uleb128 0x1
 7867 01d9 40       		.uleb128 0x40
 7868 01da 06       		.uleb128 0x6
 7869 01db 9642     		.uleb128 0x2116
 7870 01dd 0C       		.uleb128 0xc
 7871 01de 01       		.uleb128 0x1
 7872 01df 13       		.uleb128 0x13
 7873 01e0 00       		.byte	0
 7874 01e1 00       		.byte	0
 7875 01e2 24       		.uleb128 0x24
 7876 01e3 34       		.uleb128 0x34
 7877 01e4 00       		.byte	0
 7878 01e5 03       		.uleb128 0x3
 7879 01e6 08       		.uleb128 0x8
 7880 01e7 3A       		.uleb128 0x3a
 7881 01e8 0B       		.uleb128 0xb
 7882 01e9 3B       		.uleb128 0x3b
 7883 01ea 0B       		.uleb128 0xb
 7884 01eb 49       		.uleb128 0x49
 7885 01ec 13       		.uleb128 0x13
ARM GAS  C:\Users\X0217454\AppData\Local\Temp\cc5FLHAl.s 			page 159


 7886 01ed 02       		.uleb128 0x2
 7887 01ee 0A       		.uleb128 0xa
 7888 01ef 00       		.byte	0
 7889 01f0 00       		.byte	0
 7890 01f1 25       		.uleb128 0x25
 7891 01f2 0B       		.uleb128 0xb
 7892 01f3 01       		.byte	0x1
 7893 01f4 11       		.uleb128 0x11
 7894 01f5 01       		.uleb128 0x1
 7895 01f6 12       		.uleb128 0x12
 7896 01f7 01       		.uleb128 0x1
 7897 01f8 00       		.byte	0
 7898 01f9 00       		.byte	0
 7899 01fa 26       		.uleb128 0x26
 7900 01fb 34       		.uleb128 0x34
 7901 01fc 00       		.byte	0
 7902 01fd 03       		.uleb128 0x3
 7903 01fe 0E       		.uleb128 0xe
 7904 01ff 3A       		.uleb128 0x3a
 7905 0200 0B       		.uleb128 0xb
 7906 0201 3B       		.uleb128 0x3b
 7907 0202 05       		.uleb128 0x5
 7908 0203 49       		.uleb128 0x49
 7909 0204 13       		.uleb128 0x13
 7910 0205 02       		.uleb128 0x2
 7911 0206 0A       		.uleb128 0xa
 7912 0207 00       		.byte	0
 7913 0208 00       		.byte	0
 7914 0209 27       		.uleb128 0x27
 7915 020a 2E       		.uleb128 0x2e
 7916 020b 01       		.byte	0x1
 7917 020c 3F       		.uleb128 0x3f
 7918 020d 0C       		.uleb128 0xc
 7919 020e 03       		.uleb128 0x3
 7920 020f 0E       		.uleb128 0xe
 7921 0210 3A       		.uleb128 0x3a
 7922 0211 0B       		.uleb128 0xb
 7923 0212 3B       		.uleb128 0x3b
 7924 0213 05       		.uleb128 0x5
 7925 0214 27       		.uleb128 0x27
 7926 0215 0C       		.uleb128 0xc
 7927 0216 49       		.uleb128 0x49
 7928 0217 13       		.uleb128 0x13
 7929 0218 11       		.uleb128 0x11
 7930 0219 01       		.uleb128 0x1
 7931 021a 12       		.uleb128 0x12
 7932 021b 01       		.uleb128 0x1
 7933 021c 40       		.uleb128 0x40
 7934 021d 06       		.uleb128 0x6
 7935 021e 9642     		.uleb128 0x2116
 7936 0220 0C       		.uleb128 0xc
 7937 0221 01       		.uleb128 0x1
 7938 0222 13       		.uleb128 0x13
 7939 0223 00       		.byte	0
 7940 0224 00       		.byte	0
 7941 0225 28       		.uleb128 0x28
 7942 0226 05       		.uleb128 0x5
ARM GAS  C:\Users\X0217454\AppData\Local\Temp\cc5FLHAl.s 			page 160


 7943 0227 00       		.byte	0
 7944 0228 03       		.uleb128 0x3
 7945 0229 08       		.uleb128 0x8
 7946 022a 3A       		.uleb128 0x3a
 7947 022b 0B       		.uleb128 0xb
 7948 022c 3B       		.uleb128 0x3b
 7949 022d 05       		.uleb128 0x5
 7950 022e 49       		.uleb128 0x49
 7951 022f 13       		.uleb128 0x13
 7952 0230 02       		.uleb128 0x2
 7953 0231 0A       		.uleb128 0xa
 7954 0232 00       		.byte	0
 7955 0233 00       		.byte	0
 7956 0234 29       		.uleb128 0x29
 7957 0235 05       		.uleb128 0x5
 7958 0236 00       		.byte	0
 7959 0237 03       		.uleb128 0x3
 7960 0238 0E       		.uleb128 0xe
 7961 0239 3A       		.uleb128 0x3a
 7962 023a 0B       		.uleb128 0xb
 7963 023b 3B       		.uleb128 0x3b
 7964 023c 05       		.uleb128 0x5
 7965 023d 49       		.uleb128 0x49
 7966 023e 13       		.uleb128 0x13
 7967 023f 02       		.uleb128 0x2
 7968 0240 0A       		.uleb128 0xa
 7969 0241 00       		.byte	0
 7970 0242 00       		.byte	0
 7971 0243 2A       		.uleb128 0x2a
 7972 0244 34       		.uleb128 0x34
 7973 0245 00       		.byte	0
 7974 0246 03       		.uleb128 0x3
 7975 0247 08       		.uleb128 0x8
 7976 0248 3A       		.uleb128 0x3a
 7977 0249 0B       		.uleb128 0xb
 7978 024a 3B       		.uleb128 0x3b
 7979 024b 05       		.uleb128 0x5
 7980 024c 49       		.uleb128 0x49
 7981 024d 13       		.uleb128 0x13
 7982 024e 02       		.uleb128 0x2
 7983 024f 0A       		.uleb128 0xa
 7984 0250 00       		.byte	0
 7985 0251 00       		.byte	0
 7986 0252 2B       		.uleb128 0x2b
 7987 0253 26       		.uleb128 0x26
 7988 0254 00       		.byte	0
 7989 0255 00       		.byte	0
 7990 0256 00       		.byte	0
 7991 0257 2C       		.uleb128 0x2c
 7992 0258 0B       		.uleb128 0xb
 7993 0259 01       		.byte	0x1
 7994 025a 11       		.uleb128 0x11
 7995 025b 01       		.uleb128 0x1
 7996 025c 12       		.uleb128 0x12
 7997 025d 01       		.uleb128 0x1
 7998 025e 01       		.uleb128 0x1
 7999 025f 13       		.uleb128 0x13
ARM GAS  C:\Users\X0217454\AppData\Local\Temp\cc5FLHAl.s 			page 161


 8000 0260 00       		.byte	0
 8001 0261 00       		.byte	0
 8002 0262 2D       		.uleb128 0x2d
 8003 0263 2E       		.uleb128 0x2e
 8004 0264 01       		.byte	0x1
 8005 0265 3F       		.uleb128 0x3f
 8006 0266 0C       		.uleb128 0xc
 8007 0267 03       		.uleb128 0x3
 8008 0268 0E       		.uleb128 0xe
 8009 0269 3A       		.uleb128 0x3a
 8010 026a 0B       		.uleb128 0xb
 8011 026b 3B       		.uleb128 0x3b
 8012 026c 05       		.uleb128 0x5
 8013 026d 27       		.uleb128 0x27
 8014 026e 0C       		.uleb128 0xc
 8015 026f 11       		.uleb128 0x11
 8016 0270 01       		.uleb128 0x1
 8017 0271 12       		.uleb128 0x12
 8018 0272 01       		.uleb128 0x1
 8019 0273 40       		.uleb128 0x40
 8020 0274 06       		.uleb128 0x6
 8021 0275 9642     		.uleb128 0x2116
 8022 0277 0C       		.uleb128 0xc
 8023 0278 01       		.uleb128 0x1
 8024 0279 13       		.uleb128 0x13
 8025 027a 00       		.byte	0
 8026 027b 00       		.byte	0
 8027 027c 2E       		.uleb128 0x2e
 8028 027d 2E       		.uleb128 0x2e
 8029 027e 01       		.byte	0x1
 8030 027f 3F       		.uleb128 0x3f
 8031 0280 0C       		.uleb128 0xc
 8032 0281 03       		.uleb128 0x3
 8033 0282 0E       		.uleb128 0xe
 8034 0283 3A       		.uleb128 0x3a
 8035 0284 0B       		.uleb128 0xb
 8036 0285 3B       		.uleb128 0x3b
 8037 0286 05       		.uleb128 0x5
 8038 0287 27       		.uleb128 0x27
 8039 0288 0C       		.uleb128 0xc
 8040 0289 49       		.uleb128 0x49
 8041 028a 13       		.uleb128 0x13
 8042 028b 11       		.uleb128 0x11
 8043 028c 01       		.uleb128 0x1
 8044 028d 12       		.uleb128 0x12
 8045 028e 01       		.uleb128 0x1
 8046 028f 40       		.uleb128 0x40
 8047 0290 06       		.uleb128 0x6
 8048 0291 9742     		.uleb128 0x2117
 8049 0293 0C       		.uleb128 0xc
 8050 0294 01       		.uleb128 0x1
 8051 0295 13       		.uleb128 0x13
 8052 0296 00       		.byte	0
 8053 0297 00       		.byte	0
 8054 0298 2F       		.uleb128 0x2f
 8055 0299 2E       		.uleb128 0x2e
 8056 029a 01       		.byte	0x1
ARM GAS  C:\Users\X0217454\AppData\Local\Temp\cc5FLHAl.s 			page 162


 8057 029b 3F       		.uleb128 0x3f
 8058 029c 0C       		.uleb128 0xc
 8059 029d 03       		.uleb128 0x3
 8060 029e 0E       		.uleb128 0xe
 8061 029f 3A       		.uleb128 0x3a
 8062 02a0 0B       		.uleb128 0xb
 8063 02a1 3B       		.uleb128 0x3b
 8064 02a2 05       		.uleb128 0x5
 8065 02a3 27       		.uleb128 0x27
 8066 02a4 0C       		.uleb128 0xc
 8067 02a5 11       		.uleb128 0x11
 8068 02a6 01       		.uleb128 0x1
 8069 02a7 12       		.uleb128 0x12
 8070 02a8 01       		.uleb128 0x1
 8071 02a9 40       		.uleb128 0x40
 8072 02aa 06       		.uleb128 0x6
 8073 02ab 9742     		.uleb128 0x2117
 8074 02ad 0C       		.uleb128 0xc
 8075 02ae 01       		.uleb128 0x1
 8076 02af 13       		.uleb128 0x13
 8077 02b0 00       		.byte	0
 8078 02b1 00       		.byte	0
 8079 02b2 30       		.uleb128 0x30
 8080 02b3 34       		.uleb128 0x34
 8081 02b4 00       		.byte	0
 8082 02b5 03       		.uleb128 0x3
 8083 02b6 0E       		.uleb128 0xe
 8084 02b7 3A       		.uleb128 0x3a
 8085 02b8 0B       		.uleb128 0xb
 8086 02b9 3B       		.uleb128 0x3b
 8087 02ba 0B       		.uleb128 0xb
 8088 02bb 49       		.uleb128 0x49
 8089 02bc 13       		.uleb128 0x13
 8090 02bd 3F       		.uleb128 0x3f
 8091 02be 0C       		.uleb128 0xc
 8092 02bf 3C       		.uleb128 0x3c
 8093 02c0 0C       		.uleb128 0xc
 8094 02c1 00       		.byte	0
 8095 02c2 00       		.byte	0
 8096 02c3 31       		.uleb128 0x31
 8097 02c4 34       		.uleb128 0x34
 8098 02c5 00       		.byte	0
 8099 02c6 03       		.uleb128 0x3
 8100 02c7 0E       		.uleb128 0xe
 8101 02c8 3A       		.uleb128 0x3a
 8102 02c9 0B       		.uleb128 0xb
 8103 02ca 3B       		.uleb128 0x3b
 8104 02cb 0B       		.uleb128 0xb
 8105 02cc 49       		.uleb128 0x49
 8106 02cd 13       		.uleb128 0x13
 8107 02ce 3F       		.uleb128 0x3f
 8108 02cf 0C       		.uleb128 0xc
 8109 02d0 02       		.uleb128 0x2
 8110 02d1 0A       		.uleb128 0xa
 8111 02d2 00       		.byte	0
 8112 02d3 00       		.byte	0
 8113 02d4 32       		.uleb128 0x32
ARM GAS  C:\Users\X0217454\AppData\Local\Temp\cc5FLHAl.s 			page 163


 8114 02d5 34       		.uleb128 0x34
 8115 02d6 00       		.byte	0
 8116 02d7 03       		.uleb128 0x3
 8117 02d8 0E       		.uleb128 0xe
 8118 02d9 3A       		.uleb128 0x3a
 8119 02da 0B       		.uleb128 0xb
 8120 02db 3B       		.uleb128 0x3b
 8121 02dc 05       		.uleb128 0x5
 8122 02dd 49       		.uleb128 0x49
 8123 02de 13       		.uleb128 0x13
 8124 02df 3F       		.uleb128 0x3f
 8125 02e0 0C       		.uleb128 0xc
 8126 02e1 02       		.uleb128 0x2
 8127 02e2 0A       		.uleb128 0xa
 8128 02e3 00       		.byte	0
 8129 02e4 00       		.byte	0
 8130 02e5 00       		.byte	0
 8131              		.section	.debug_loc,"",%progbits
 8132              	.Ldebug_loc0:
 8133              	.LLST0:
 8134 0000 00000000 		.4byte	.LFB0
 8135 0004 02000000 		.4byte	.LCFI0
 8136 0008 0200     		.2byte	0x2
 8137 000a 7D       		.byte	0x7d
 8138 000b 00       		.sleb128 0
 8139 000c 02000000 		.4byte	.LCFI0
 8140 0010 04000000 		.4byte	.LCFI1
 8141 0014 0200     		.2byte	0x2
 8142 0016 7D       		.byte	0x7d
 8143 0017 08       		.sleb128 8
 8144 0018 04000000 		.4byte	.LCFI1
 8145 001c 06000000 		.4byte	.LCFI2
 8146 0020 0200     		.2byte	0x2
 8147 0022 7D       		.byte	0x7d
 8148 0023 18       		.sleb128 24
 8149 0024 06000000 		.4byte	.LCFI2
 8150 0028 52000000 		.4byte	.LFE0
 8151 002c 0200     		.2byte	0x2
 8152 002e 77       		.byte	0x77
 8153 002f 18       		.sleb128 24
 8154 0030 00000000 		.4byte	0
 8155 0034 00000000 		.4byte	0
 8156              	.LLST1:
 8157 0038 00000000 		.4byte	.LFB1
 8158 003c 02000000 		.4byte	.LCFI3
 8159 0040 0200     		.2byte	0x2
 8160 0042 7D       		.byte	0x7d
 8161 0043 00       		.sleb128 0
 8162 0044 02000000 		.4byte	.LCFI3
 8163 0048 04000000 		.4byte	.LCFI4
 8164 004c 0200     		.2byte	0x2
 8165 004e 7D       		.byte	0x7d
 8166 004f 08       		.sleb128 8
 8167 0050 04000000 		.4byte	.LCFI4
 8168 0054 06000000 		.4byte	.LCFI5
 8169 0058 0200     		.2byte	0x2
 8170 005a 7D       		.byte	0x7d
ARM GAS  C:\Users\X0217454\AppData\Local\Temp\cc5FLHAl.s 			page 164


 8171 005b 18       		.sleb128 24
 8172 005c 06000000 		.4byte	.LCFI5
 8173 0060 C4000000 		.4byte	.LFE1
 8174 0064 0200     		.2byte	0x2
 8175 0066 77       		.byte	0x77
 8176 0067 18       		.sleb128 24
 8177 0068 00000000 		.4byte	0
 8178 006c 00000000 		.4byte	0
 8179              	.LLST2:
 8180 0070 00000000 		.4byte	.LFB2
 8181 0074 02000000 		.4byte	.LCFI6
 8182 0078 0200     		.2byte	0x2
 8183 007a 7D       		.byte	0x7d
 8184 007b 00       		.sleb128 0
 8185 007c 02000000 		.4byte	.LCFI6
 8186 0080 04000000 		.4byte	.LCFI7
 8187 0084 0200     		.2byte	0x2
 8188 0086 7D       		.byte	0x7d
 8189 0087 08       		.sleb128 8
 8190 0088 04000000 		.4byte	.LCFI7
 8191 008c 06000000 		.4byte	.LCFI8
 8192 0090 0200     		.2byte	0x2
 8193 0092 7D       		.byte	0x7d
 8194 0093 18       		.sleb128 24
 8195 0094 06000000 		.4byte	.LCFI8
 8196 0098 64000000 		.4byte	.LFE2
 8197 009c 0200     		.2byte	0x2
 8198 009e 77       		.byte	0x77
 8199 009f 18       		.sleb128 24
 8200 00a0 00000000 		.4byte	0
 8201 00a4 00000000 		.4byte	0
 8202              	.LLST3:
 8203 00a8 00000000 		.4byte	.LFB3
 8204 00ac 02000000 		.4byte	.LCFI9
 8205 00b0 0200     		.2byte	0x2
 8206 00b2 7D       		.byte	0x7d
 8207 00b3 00       		.sleb128 0
 8208 00b4 02000000 		.4byte	.LCFI9
 8209 00b8 04000000 		.4byte	.LCFI10
 8210 00bc 0200     		.2byte	0x2
 8211 00be 7D       		.byte	0x7d
 8212 00bf 08       		.sleb128 8
 8213 00c0 04000000 		.4byte	.LCFI10
 8214 00c4 06000000 		.4byte	.LCFI11
 8215 00c8 0200     		.2byte	0x2
 8216 00ca 7D       		.byte	0x7d
 8217 00cb 20       		.sleb128 32
 8218 00cc 06000000 		.4byte	.LCFI11
 8219 00d0 70000000 		.4byte	.LFE3
 8220 00d4 0200     		.2byte	0x2
 8221 00d6 77       		.byte	0x77
 8222 00d7 20       		.sleb128 32
 8223 00d8 00000000 		.4byte	0
 8224 00dc 00000000 		.4byte	0
 8225              	.LLST4:
 8226 00e0 00000000 		.4byte	.LFB4
 8227 00e4 02000000 		.4byte	.LCFI12
ARM GAS  C:\Users\X0217454\AppData\Local\Temp\cc5FLHAl.s 			page 165


 8228 00e8 0200     		.2byte	0x2
 8229 00ea 7D       		.byte	0x7d
 8230 00eb 00       		.sleb128 0
 8231 00ec 02000000 		.4byte	.LCFI12
 8232 00f0 04000000 		.4byte	.LCFI13
 8233 00f4 0200     		.2byte	0x2
 8234 00f6 7D       		.byte	0x7d
 8235 00f7 08       		.sleb128 8
 8236 00f8 04000000 		.4byte	.LCFI13
 8237 00fc 06000000 		.4byte	.LCFI14
 8238 0100 0200     		.2byte	0x2
 8239 0102 7D       		.byte	0x7d
 8240 0103 18       		.sleb128 24
 8241 0104 06000000 		.4byte	.LCFI14
 8242 0108 44000000 		.4byte	.LFE4
 8243 010c 0200     		.2byte	0x2
 8244 010e 77       		.byte	0x77
 8245 010f 18       		.sleb128 24
 8246 0110 00000000 		.4byte	0
 8247 0114 00000000 		.4byte	0
 8248              	.LLST5:
 8249 0118 00000000 		.4byte	.LFB5
 8250 011c 02000000 		.4byte	.LCFI15
 8251 0120 0200     		.2byte	0x2
 8252 0122 7D       		.byte	0x7d
 8253 0123 00       		.sleb128 0
 8254 0124 02000000 		.4byte	.LCFI15
 8255 0128 04000000 		.4byte	.LCFI16
 8256 012c 0200     		.2byte	0x2
 8257 012e 7D       		.byte	0x7d
 8258 012f 08       		.sleb128 8
 8259 0130 04000000 		.4byte	.LCFI16
 8260 0134 06000000 		.4byte	.LCFI17
 8261 0138 0200     		.2byte	0x2
 8262 013a 7D       		.byte	0x7d
 8263 013b 30       		.sleb128 48
 8264 013c 06000000 		.4byte	.LCFI17
 8265 0140 B8000000 		.4byte	.LFE5
 8266 0144 0200     		.2byte	0x2
 8267 0146 77       		.byte	0x77
 8268 0147 30       		.sleb128 48
 8269 0148 00000000 		.4byte	0
 8270 014c 00000000 		.4byte	0
 8271              	.LLST6:
 8272 0150 00000000 		.4byte	.LFB6
 8273 0154 02000000 		.4byte	.LCFI18
 8274 0158 0200     		.2byte	0x2
 8275 015a 7D       		.byte	0x7d
 8276 015b 00       		.sleb128 0
 8277 015c 02000000 		.4byte	.LCFI18
 8278 0160 04000000 		.4byte	.LCFI19
 8279 0164 0200     		.2byte	0x2
 8280 0166 7D       		.byte	0x7d
 8281 0167 08       		.sleb128 8
 8282 0168 04000000 		.4byte	.LCFI19
 8283 016c 06000000 		.4byte	.LCFI20
 8284 0170 0300     		.2byte	0x3
ARM GAS  C:\Users\X0217454\AppData\Local\Temp\cc5FLHAl.s 			page 166


 8285 0172 7D       		.byte	0x7d
 8286 0173 C000     		.sleb128 64
 8287 0175 06000000 		.4byte	.LCFI20
 8288 0179 88010000 		.4byte	.LFE6
 8289 017d 0300     		.2byte	0x3
 8290 017f 77       		.byte	0x77
 8291 0180 C000     		.sleb128 64
 8292 0182 00000000 		.4byte	0
 8293 0186 00000000 		.4byte	0
 8294              	.LLST7:
 8295 018a 00000000 		.4byte	.LFB7
 8296 018e 02000000 		.4byte	.LCFI21
 8297 0192 0200     		.2byte	0x2
 8298 0194 7D       		.byte	0x7d
 8299 0195 00       		.sleb128 0
 8300 0196 02000000 		.4byte	.LCFI21
 8301 019a 04000000 		.4byte	.LCFI22
 8302 019e 0200     		.2byte	0x2
 8303 01a0 7D       		.byte	0x7d
 8304 01a1 08       		.sleb128 8
 8305 01a2 04000000 		.4byte	.LCFI22
 8306 01a6 06000000 		.4byte	.LCFI23
 8307 01aa 0200     		.2byte	0x2
 8308 01ac 7D       		.byte	0x7d
 8309 01ad 38       		.sleb128 56
 8310 01ae 06000000 		.4byte	.LCFI23
 8311 01b2 54010000 		.4byte	.LFE7
 8312 01b6 0200     		.2byte	0x2
 8313 01b8 77       		.byte	0x77
 8314 01b9 38       		.sleb128 56
 8315 01ba 00000000 		.4byte	0
 8316 01be 00000000 		.4byte	0
 8317              	.LLST8:
 8318 01c2 00000000 		.4byte	.LFB8
 8319 01c6 02000000 		.4byte	.LCFI24
 8320 01ca 0200     		.2byte	0x2
 8321 01cc 7D       		.byte	0x7d
 8322 01cd 00       		.sleb128 0
 8323 01ce 02000000 		.4byte	.LCFI24
 8324 01d2 04000000 		.4byte	.LCFI25
 8325 01d6 0200     		.2byte	0x2
 8326 01d8 7D       		.byte	0x7d
 8327 01d9 08       		.sleb128 8
 8328 01da 04000000 		.4byte	.LCFI25
 8329 01de 06000000 		.4byte	.LCFI26
 8330 01e2 0300     		.2byte	0x3
 8331 01e4 7D       		.byte	0x7d
 8332 01e5 C800     		.sleb128 72
 8333 01e7 06000000 		.4byte	.LCFI26
 8334 01eb B0010000 		.4byte	.LFE8
 8335 01ef 0300     		.2byte	0x3
 8336 01f1 77       		.byte	0x77
 8337 01f2 C800     		.sleb128 72
 8338 01f4 00000000 		.4byte	0
 8339 01f8 00000000 		.4byte	0
 8340              	.LLST9:
 8341 01fc 00000000 		.4byte	.LFB9
ARM GAS  C:\Users\X0217454\AppData\Local\Temp\cc5FLHAl.s 			page 167


 8342 0200 02000000 		.4byte	.LCFI27
 8343 0204 0200     		.2byte	0x2
 8344 0206 7D       		.byte	0x7d
 8345 0207 00       		.sleb128 0
 8346 0208 02000000 		.4byte	.LCFI27
 8347 020c 04000000 		.4byte	.LCFI28
 8348 0210 0200     		.2byte	0x2
 8349 0212 7D       		.byte	0x7d
 8350 0213 08       		.sleb128 8
 8351 0214 04000000 		.4byte	.LCFI28
 8352 0218 06000000 		.4byte	.LCFI29
 8353 021c 0200     		.2byte	0x2
 8354 021e 7D       		.byte	0x7d
 8355 021f 20       		.sleb128 32
 8356 0220 06000000 		.4byte	.LCFI29
 8357 0224 D4000000 		.4byte	.LFE9
 8358 0228 0200     		.2byte	0x2
 8359 022a 77       		.byte	0x77
 8360 022b 20       		.sleb128 32
 8361 022c 00000000 		.4byte	0
 8362 0230 00000000 		.4byte	0
 8363              	.LLST10:
 8364 0234 00000000 		.4byte	.LFB10
 8365 0238 02000000 		.4byte	.LCFI30
 8366 023c 0200     		.2byte	0x2
 8367 023e 7D       		.byte	0x7d
 8368 023f 00       		.sleb128 0
 8369 0240 02000000 		.4byte	.LCFI30
 8370 0244 04000000 		.4byte	.LCFI31
 8371 0248 0200     		.2byte	0x2
 8372 024a 7D       		.byte	0x7d
 8373 024b 08       		.sleb128 8
 8374 024c 04000000 		.4byte	.LCFI31
 8375 0250 06000000 		.4byte	.LCFI32
 8376 0254 0200     		.2byte	0x2
 8377 0256 7D       		.byte	0x7d
 8378 0257 38       		.sleb128 56
 8379 0258 06000000 		.4byte	.LCFI32
 8380 025c 68010000 		.4byte	.LFE10
 8381 0260 0200     		.2byte	0x2
 8382 0262 77       		.byte	0x77
 8383 0263 38       		.sleb128 56
 8384 0264 00000000 		.4byte	0
 8385 0268 00000000 		.4byte	0
 8386              	.LLST11:
 8387 026c 00000000 		.4byte	.LFB11
 8388 0270 02000000 		.4byte	.LCFI33
 8389 0274 0200     		.2byte	0x2
 8390 0276 7D       		.byte	0x7d
 8391 0277 00       		.sleb128 0
 8392 0278 02000000 		.4byte	.LCFI33
 8393 027c 04000000 		.4byte	.LCFI34
 8394 0280 0200     		.2byte	0x2
 8395 0282 7D       		.byte	0x7d
 8396 0283 08       		.sleb128 8
 8397 0284 04000000 		.4byte	.LCFI34
 8398 0288 06000000 		.4byte	.LCFI35
ARM GAS  C:\Users\X0217454\AppData\Local\Temp\cc5FLHAl.s 			page 168


 8399 028c 0200     		.2byte	0x2
 8400 028e 7D       		.byte	0x7d
 8401 028f 18       		.sleb128 24
 8402 0290 06000000 		.4byte	.LCFI35
 8403 0294 50000000 		.4byte	.LFE11
 8404 0298 0200     		.2byte	0x2
 8405 029a 77       		.byte	0x77
 8406 029b 18       		.sleb128 24
 8407 029c 00000000 		.4byte	0
 8408 02a0 00000000 		.4byte	0
 8409              	.LLST12:
 8410 02a4 00000000 		.4byte	.LFB12
 8411 02a8 02000000 		.4byte	.LCFI36
 8412 02ac 0200     		.2byte	0x2
 8413 02ae 7D       		.byte	0x7d
 8414 02af 00       		.sleb128 0
 8415 02b0 02000000 		.4byte	.LCFI36
 8416 02b4 04000000 		.4byte	.LCFI37
 8417 02b8 0200     		.2byte	0x2
 8418 02ba 7D       		.byte	0x7d
 8419 02bb 08       		.sleb128 8
 8420 02bc 04000000 		.4byte	.LCFI37
 8421 02c0 06000000 		.4byte	.LCFI38
 8422 02c4 0300     		.2byte	0x3
 8423 02c6 7D       		.byte	0x7d
 8424 02c7 C000     		.sleb128 64
 8425 02c9 06000000 		.4byte	.LCFI38
 8426 02cd D8010000 		.4byte	.LFE12
 8427 02d1 0300     		.2byte	0x3
 8428 02d3 77       		.byte	0x77
 8429 02d4 C000     		.sleb128 64
 8430 02d6 00000000 		.4byte	0
 8431 02da 00000000 		.4byte	0
 8432              	.LLST13:
 8433 02de 00000000 		.4byte	.LFB13
 8434 02e2 02000000 		.4byte	.LCFI39
 8435 02e6 0200     		.2byte	0x2
 8436 02e8 7D       		.byte	0x7d
 8437 02e9 00       		.sleb128 0
 8438 02ea 02000000 		.4byte	.LCFI39
 8439 02ee 04000000 		.4byte	.LCFI40
 8440 02f2 0200     		.2byte	0x2
 8441 02f4 7D       		.byte	0x7d
 8442 02f5 08       		.sleb128 8
 8443 02f6 04000000 		.4byte	.LCFI40
 8444 02fa 06000000 		.4byte	.LCFI41
 8445 02fe 0200     		.2byte	0x2
 8446 0300 7D       		.byte	0x7d
 8447 0301 18       		.sleb128 24
 8448 0302 06000000 		.4byte	.LCFI41
 8449 0306 4E000000 		.4byte	.LFE13
 8450 030a 0200     		.2byte	0x2
 8451 030c 77       		.byte	0x77
 8452 030d 18       		.sleb128 24
 8453 030e 00000000 		.4byte	0
 8454 0312 00000000 		.4byte	0
 8455              	.LLST14:
ARM GAS  C:\Users\X0217454\AppData\Local\Temp\cc5FLHAl.s 			page 169


 8456 0316 00000000 		.4byte	.LFB14
 8457 031a 02000000 		.4byte	.LCFI42
 8458 031e 0200     		.2byte	0x2
 8459 0320 7D       		.byte	0x7d
 8460 0321 00       		.sleb128 0
 8461 0322 02000000 		.4byte	.LCFI42
 8462 0326 04000000 		.4byte	.LCFI43
 8463 032a 0200     		.2byte	0x2
 8464 032c 7D       		.byte	0x7d
 8465 032d 08       		.sleb128 8
 8466 032e 04000000 		.4byte	.LCFI43
 8467 0332 06000000 		.4byte	.LCFI44
 8468 0336 0200     		.2byte	0x2
 8469 0338 7D       		.byte	0x7d
 8470 0339 18       		.sleb128 24
 8471 033a 06000000 		.4byte	.LCFI44
 8472 033e 4A000000 		.4byte	.LFE14
 8473 0342 0200     		.2byte	0x2
 8474 0344 77       		.byte	0x77
 8475 0345 18       		.sleb128 24
 8476 0346 00000000 		.4byte	0
 8477 034a 00000000 		.4byte	0
 8478              	.LLST15:
 8479 034e 00000000 		.4byte	.LFB15
 8480 0352 02000000 		.4byte	.LCFI45
 8481 0356 0200     		.2byte	0x2
 8482 0358 7D       		.byte	0x7d
 8483 0359 00       		.sleb128 0
 8484 035a 02000000 		.4byte	.LCFI45
 8485 035e 04000000 		.4byte	.LCFI46
 8486 0362 0200     		.2byte	0x2
 8487 0364 7D       		.byte	0x7d
 8488 0365 08       		.sleb128 8
 8489 0366 04000000 		.4byte	.LCFI46
 8490 036a 06000000 		.4byte	.LCFI47
 8491 036e 0200     		.2byte	0x2
 8492 0370 7D       		.byte	0x7d
 8493 0371 20       		.sleb128 32
 8494 0372 06000000 		.4byte	.LCFI47
 8495 0376 B8000000 		.4byte	.LFE15
 8496 037a 0200     		.2byte	0x2
 8497 037c 77       		.byte	0x77
 8498 037d 20       		.sleb128 32
 8499 037e 00000000 		.4byte	0
 8500 0382 00000000 		.4byte	0
 8501              	.LLST16:
 8502 0386 00000000 		.4byte	.LFB16
 8503 038a 02000000 		.4byte	.LCFI48
 8504 038e 0200     		.2byte	0x2
 8505 0390 7D       		.byte	0x7d
 8506 0391 00       		.sleb128 0
 8507 0392 02000000 		.4byte	.LCFI48
 8508 0396 04000000 		.4byte	.LCFI49
 8509 039a 0200     		.2byte	0x2
 8510 039c 7D       		.byte	0x7d
 8511 039d 08       		.sleb128 8
 8512 039e 04000000 		.4byte	.LCFI49
ARM GAS  C:\Users\X0217454\AppData\Local\Temp\cc5FLHAl.s 			page 170


 8513 03a2 06000000 		.4byte	.LCFI50
 8514 03a6 0200     		.2byte	0x2
 8515 03a8 7D       		.byte	0x7d
 8516 03a9 30       		.sleb128 48
 8517 03aa 06000000 		.4byte	.LCFI50
 8518 03ae 94000000 		.4byte	.LFE16
 8519 03b2 0200     		.2byte	0x2
 8520 03b4 77       		.byte	0x77
 8521 03b5 30       		.sleb128 48
 8522 03b6 00000000 		.4byte	0
 8523 03ba 00000000 		.4byte	0
 8524              	.LLST17:
 8525 03be 00000000 		.4byte	.LFB17
 8526 03c2 02000000 		.4byte	.LCFI51
 8527 03c6 0200     		.2byte	0x2
 8528 03c8 7D       		.byte	0x7d
 8529 03c9 00       		.sleb128 0
 8530 03ca 02000000 		.4byte	.LCFI51
 8531 03ce 04000000 		.4byte	.LCFI52
 8532 03d2 0200     		.2byte	0x2
 8533 03d4 7D       		.byte	0x7d
 8534 03d5 08       		.sleb128 8
 8535 03d6 04000000 		.4byte	.LCFI52
 8536 03da 06000000 		.4byte	.LCFI53
 8537 03de 0200     		.2byte	0x2
 8538 03e0 7D       		.byte	0x7d
 8539 03e1 30       		.sleb128 48
 8540 03e2 06000000 		.4byte	.LCFI53
 8541 03e6 8C000000 		.4byte	.LFE17
 8542 03ea 0200     		.2byte	0x2
 8543 03ec 77       		.byte	0x77
 8544 03ed 30       		.sleb128 48
 8545 03ee 00000000 		.4byte	0
 8546 03f2 00000000 		.4byte	0
 8547              	.LLST18:
 8548 03f6 00000000 		.4byte	.LFB18
 8549 03fa 02000000 		.4byte	.LCFI54
 8550 03fe 0200     		.2byte	0x2
 8551 0400 7D       		.byte	0x7d
 8552 0401 00       		.sleb128 0
 8553 0402 02000000 		.4byte	.LCFI54
 8554 0406 04000000 		.4byte	.LCFI55
 8555 040a 0200     		.2byte	0x2
 8556 040c 7D       		.byte	0x7d
 8557 040d 08       		.sleb128 8
 8558 040e 04000000 		.4byte	.LCFI55
 8559 0412 06000000 		.4byte	.LCFI56
 8560 0416 0200     		.2byte	0x2
 8561 0418 7D       		.byte	0x7d
 8562 0419 30       		.sleb128 48
 8563 041a 06000000 		.4byte	.LCFI56
 8564 041e DC000000 		.4byte	.LFE18
 8565 0422 0200     		.2byte	0x2
 8566 0424 77       		.byte	0x77
 8567 0425 30       		.sleb128 48
 8568 0426 00000000 		.4byte	0
 8569 042a 00000000 		.4byte	0
ARM GAS  C:\Users\X0217454\AppData\Local\Temp\cc5FLHAl.s 			page 171


 8570              	.LLST19:
 8571 042e 00000000 		.4byte	.LFB19
 8572 0432 02000000 		.4byte	.LCFI57
 8573 0436 0200     		.2byte	0x2
 8574 0438 7D       		.byte	0x7d
 8575 0439 00       		.sleb128 0
 8576 043a 02000000 		.4byte	.LCFI57
 8577 043e 04000000 		.4byte	.LCFI58
 8578 0442 0200     		.2byte	0x2
 8579 0444 7D       		.byte	0x7d
 8580 0445 08       		.sleb128 8
 8581 0446 04000000 		.4byte	.LCFI58
 8582 044a 06000000 		.4byte	.LCFI59
 8583 044e 0300     		.2byte	0x3
 8584 0450 7D       		.byte	0x7d
 8585 0451 C000     		.sleb128 64
 8586 0453 06000000 		.4byte	.LCFI59
 8587 0457 00020000 		.4byte	.LFE19
 8588 045b 0300     		.2byte	0x3
 8589 045d 77       		.byte	0x77
 8590 045e C000     		.sleb128 64
 8591 0460 00000000 		.4byte	0
 8592 0464 00000000 		.4byte	0
 8593              	.LLST20:
 8594 0468 00000000 		.4byte	.LFB20
 8595 046c 02000000 		.4byte	.LCFI60
 8596 0470 0200     		.2byte	0x2
 8597 0472 7D       		.byte	0x7d
 8598 0473 00       		.sleb128 0
 8599 0474 02000000 		.4byte	.LCFI60
 8600 0478 04000000 		.4byte	.LCFI61
 8601 047c 0200     		.2byte	0x2
 8602 047e 7D       		.byte	0x7d
 8603 047f 08       		.sleb128 8
 8604 0480 04000000 		.4byte	.LCFI61
 8605 0484 06000000 		.4byte	.LCFI62
 8606 0488 0200     		.2byte	0x2
 8607 048a 7D       		.byte	0x7d
 8608 048b 10       		.sleb128 16
 8609 048c 06000000 		.4byte	.LCFI62
 8610 0490 28000000 		.4byte	.LFE20
 8611 0494 0200     		.2byte	0x2
 8612 0496 77       		.byte	0x77
 8613 0497 10       		.sleb128 16
 8614 0498 00000000 		.4byte	0
 8615 049c 00000000 		.4byte	0
 8616              	.LLST21:
 8617 04a0 00000000 		.4byte	.LFB21
 8618 04a4 02000000 		.4byte	.LCFI63
 8619 04a8 0200     		.2byte	0x2
 8620 04aa 7D       		.byte	0x7d
 8621 04ab 00       		.sleb128 0
 8622 04ac 02000000 		.4byte	.LCFI63
 8623 04b0 04000000 		.4byte	.LCFI64
 8624 04b4 0200     		.2byte	0x2
 8625 04b6 7D       		.byte	0x7d
 8626 04b7 08       		.sleb128 8
ARM GAS  C:\Users\X0217454\AppData\Local\Temp\cc5FLHAl.s 			page 172


 8627 04b8 04000000 		.4byte	.LCFI64
 8628 04bc 06000000 		.4byte	.LCFI65
 8629 04c0 0200     		.2byte	0x2
 8630 04c2 7D       		.byte	0x7d
 8631 04c3 10       		.sleb128 16
 8632 04c4 06000000 		.4byte	.LCFI65
 8633 04c8 2A000000 		.4byte	.LFE21
 8634 04cc 0200     		.2byte	0x2
 8635 04ce 77       		.byte	0x77
 8636 04cf 10       		.sleb128 16
 8637 04d0 00000000 		.4byte	0
 8638 04d4 00000000 		.4byte	0
 8639              	.LLST22:
 8640 04d8 00000000 		.4byte	.LFB22
 8641 04dc 02000000 		.4byte	.LCFI66
 8642 04e0 0200     		.2byte	0x2
 8643 04e2 7D       		.byte	0x7d
 8644 04e3 00       		.sleb128 0
 8645 04e4 02000000 		.4byte	.LCFI66
 8646 04e8 04000000 		.4byte	.LCFI67
 8647 04ec 0200     		.2byte	0x2
 8648 04ee 7D       		.byte	0x7d
 8649 04ef 08       		.sleb128 8
 8650 04f0 04000000 		.4byte	.LCFI67
 8651 04f4 06000000 		.4byte	.LCFI68
 8652 04f8 0200     		.2byte	0x2
 8653 04fa 7D       		.byte	0x7d
 8654 04fb 10       		.sleb128 16
 8655 04fc 06000000 		.4byte	.LCFI68
 8656 0500 2E000000 		.4byte	.LFE22
 8657 0504 0200     		.2byte	0x2
 8658 0506 77       		.byte	0x77
 8659 0507 10       		.sleb128 16
 8660 0508 00000000 		.4byte	0
 8661 050c 00000000 		.4byte	0
 8662              	.LLST23:
 8663 0510 00000000 		.4byte	.LFB23
 8664 0514 02000000 		.4byte	.LCFI69
 8665 0518 0200     		.2byte	0x2
 8666 051a 7D       		.byte	0x7d
 8667 051b 00       		.sleb128 0
 8668 051c 02000000 		.4byte	.LCFI69
 8669 0520 04000000 		.4byte	.LCFI70
 8670 0524 0200     		.2byte	0x2
 8671 0526 7D       		.byte	0x7d
 8672 0527 08       		.sleb128 8
 8673 0528 04000000 		.4byte	.LCFI70
 8674 052c 06000000 		.4byte	.LCFI71
 8675 0530 0200     		.2byte	0x2
 8676 0532 7D       		.byte	0x7d
 8677 0533 10       		.sleb128 16
 8678 0534 06000000 		.4byte	.LCFI71
 8679 0538 14000000 		.4byte	.LFE23
 8680 053c 0200     		.2byte	0x2
 8681 053e 77       		.byte	0x77
 8682 053f 10       		.sleb128 16
 8683 0540 00000000 		.4byte	0
ARM GAS  C:\Users\X0217454\AppData\Local\Temp\cc5FLHAl.s 			page 173


 8684 0544 00000000 		.4byte	0
 8685              	.LLST24:
 8686 0548 00000000 		.4byte	.LFB24
 8687 054c 02000000 		.4byte	.LCFI72
 8688 0550 0200     		.2byte	0x2
 8689 0552 7D       		.byte	0x7d
 8690 0553 00       		.sleb128 0
 8691 0554 02000000 		.4byte	.LCFI72
 8692 0558 04000000 		.4byte	.LCFI73
 8693 055c 0200     		.2byte	0x2
 8694 055e 7D       		.byte	0x7d
 8695 055f 08       		.sleb128 8
 8696 0560 04000000 		.4byte	.LCFI73
 8697 0564 06000000 		.4byte	.LCFI74
 8698 0568 0200     		.2byte	0x2
 8699 056a 7D       		.byte	0x7d
 8700 056b 20       		.sleb128 32
 8701 056c 06000000 		.4byte	.LCFI74
 8702 0570 A8000000 		.4byte	.LFE24
 8703 0574 0200     		.2byte	0x2
 8704 0576 77       		.byte	0x77
 8705 0577 20       		.sleb128 32
 8706 0578 00000000 		.4byte	0
 8707 057c 00000000 		.4byte	0
 8708              		.section	.debug_aranges,"",%progbits
 8709 0000 DC000000 		.4byte	0xdc
 8710 0004 0200     		.2byte	0x2
 8711 0006 00000000 		.4byte	.Ldebug_info0
 8712 000a 04       		.byte	0x4
 8713 000b 00       		.byte	0
 8714 000c 0000     		.2byte	0
 8715 000e 0000     		.2byte	0
 8716 0010 00000000 		.4byte	.LFB0
 8717 0014 52000000 		.4byte	.LFE0-.LFB0
 8718 0018 00000000 		.4byte	.LFB1
 8719 001c C4000000 		.4byte	.LFE1-.LFB1
 8720 0020 00000000 		.4byte	.LFB2
 8721 0024 64000000 		.4byte	.LFE2-.LFB2
 8722 0028 00000000 		.4byte	.LFB3
 8723 002c 70000000 		.4byte	.LFE3-.LFB3
 8724 0030 00000000 		.4byte	.LFB4
 8725 0034 44000000 		.4byte	.LFE4-.LFB4
 8726 0038 00000000 		.4byte	.LFB5
 8727 003c B8000000 		.4byte	.LFE5-.LFB5
 8728 0040 00000000 		.4byte	.LFB6
 8729 0044 88010000 		.4byte	.LFE6-.LFB6
 8730 0048 00000000 		.4byte	.LFB7
 8731 004c 54010000 		.4byte	.LFE7-.LFB7
 8732 0050 00000000 		.4byte	.LFB8
 8733 0054 B0010000 		.4byte	.LFE8-.LFB8
 8734 0058 00000000 		.4byte	.LFB9
 8735 005c D4000000 		.4byte	.LFE9-.LFB9
 8736 0060 00000000 		.4byte	.LFB10
 8737 0064 68010000 		.4byte	.LFE10-.LFB10
 8738 0068 00000000 		.4byte	.LFB11
 8739 006c 50000000 		.4byte	.LFE11-.LFB11
 8740 0070 00000000 		.4byte	.LFB12
ARM GAS  C:\Users\X0217454\AppData\Local\Temp\cc5FLHAl.s 			page 174


 8741 0074 D8010000 		.4byte	.LFE12-.LFB12
 8742 0078 00000000 		.4byte	.LFB13
 8743 007c 4E000000 		.4byte	.LFE13-.LFB13
 8744 0080 00000000 		.4byte	.LFB14
 8745 0084 4A000000 		.4byte	.LFE14-.LFB14
 8746 0088 00000000 		.4byte	.LFB15
 8747 008c B8000000 		.4byte	.LFE15-.LFB15
 8748 0090 00000000 		.4byte	.LFB16
 8749 0094 94000000 		.4byte	.LFE16-.LFB16
 8750 0098 00000000 		.4byte	.LFB17
 8751 009c 8C000000 		.4byte	.LFE17-.LFB17
 8752 00a0 00000000 		.4byte	.LFB18
 8753 00a4 DC000000 		.4byte	.LFE18-.LFB18
 8754 00a8 00000000 		.4byte	.LFB19
 8755 00ac 00020000 		.4byte	.LFE19-.LFB19
 8756 00b0 00000000 		.4byte	.LFB20
 8757 00b4 28000000 		.4byte	.LFE20-.LFB20
 8758 00b8 00000000 		.4byte	.LFB21
 8759 00bc 2A000000 		.4byte	.LFE21-.LFB21
 8760 00c0 00000000 		.4byte	.LFB22
 8761 00c4 2E000000 		.4byte	.LFE22-.LFB22
 8762 00c8 00000000 		.4byte	.LFB23
 8763 00cc 14000000 		.4byte	.LFE23-.LFB23
 8764 00d0 00000000 		.4byte	.LFB24
 8765 00d4 A8000000 		.4byte	.LFE24-.LFB24
 8766 00d8 00000000 		.4byte	0
 8767 00dc 00000000 		.4byte	0
 8768              		.section	.debug_ranges,"",%progbits
 8769              	.Ldebug_ranges0:
 8770 0000 00000000 		.4byte	.LFB0
 8771 0004 52000000 		.4byte	.LFE0
 8772 0008 00000000 		.4byte	.LFB1
 8773 000c C4000000 		.4byte	.LFE1
 8774 0010 00000000 		.4byte	.LFB2
 8775 0014 64000000 		.4byte	.LFE2
 8776 0018 00000000 		.4byte	.LFB3
 8777 001c 70000000 		.4byte	.LFE3
 8778 0020 00000000 		.4byte	.LFB4
 8779 0024 44000000 		.4byte	.LFE4
 8780 0028 00000000 		.4byte	.LFB5
 8781 002c B8000000 		.4byte	.LFE5
 8782 0030 00000000 		.4byte	.LFB6
 8783 0034 88010000 		.4byte	.LFE6
 8784 0038 00000000 		.4byte	.LFB7
 8785 003c 54010000 		.4byte	.LFE7
 8786 0040 00000000 		.4byte	.LFB8
 8787 0044 B0010000 		.4byte	.LFE8
 8788 0048 00000000 		.4byte	.LFB9
 8789 004c D4000000 		.4byte	.LFE9
 8790 0050 00000000 		.4byte	.LFB10
 8791 0054 68010000 		.4byte	.LFE10
 8792 0058 00000000 		.4byte	.LFB11
 8793 005c 50000000 		.4byte	.LFE11
 8794 0060 00000000 		.4byte	.LFB12
 8795 0064 D8010000 		.4byte	.LFE12
 8796 0068 00000000 		.4byte	.LFB13
 8797 006c 4E000000 		.4byte	.LFE13
ARM GAS  C:\Users\X0217454\AppData\Local\Temp\cc5FLHAl.s 			page 175


 8798 0070 00000000 		.4byte	.LFB14
 8799 0074 4A000000 		.4byte	.LFE14
 8800 0078 00000000 		.4byte	.LFB15
 8801 007c B8000000 		.4byte	.LFE15
 8802 0080 00000000 		.4byte	.LFB16
 8803 0084 94000000 		.4byte	.LFE16
 8804 0088 00000000 		.4byte	.LFB17
 8805 008c 8C000000 		.4byte	.LFE17
 8806 0090 00000000 		.4byte	.LFB18
 8807 0094 DC000000 		.4byte	.LFE18
 8808 0098 00000000 		.4byte	.LFB19
 8809 009c 00020000 		.4byte	.LFE19
 8810 00a0 00000000 		.4byte	.LFB20
 8811 00a4 28000000 		.4byte	.LFE20
 8812 00a8 00000000 		.4byte	.LFB21
 8813 00ac 2A000000 		.4byte	.LFE21
 8814 00b0 00000000 		.4byte	.LFB22
 8815 00b4 2E000000 		.4byte	.LFE22
 8816 00b8 00000000 		.4byte	.LFB23
 8817 00bc 14000000 		.4byte	.LFE23
 8818 00c0 00000000 		.4byte	.LFB24
 8819 00c4 A8000000 		.4byte	.LFE24
 8820 00c8 00000000 		.4byte	0
 8821 00cc 00000000 		.4byte	0
 8822              		.section	.debug_line,"",%progbits
 8823              	.Ldebug_line0:
 8824 0000 1A050000 		.section	.debug_str,"MS",%progbits,1
 8824      0200EA00 
 8824      00000201 
 8824      FB0E0D00 
 8824      01010101 
 8825              	.LASF149:
 8826 0000 52784D73 		.ascii	"RxMsgClass\000"
 8826      67436C61 
 8826      737300
 8827              	.LASF161:
 8828 000b 46726565 		.ascii	"FreePoolIdx\000"
 8828      506F6F6C 
 8828      49647800 
 8829              	.LASF98:
 8830 0017 6C657665 		.ascii	"level\000"
 8830      6C00
 8831              	.LASF177:
 8832 001d 5F536C53 		.ascii	"_SlSockCloseMsg_u\000"
 8832      6F636B43 
 8832      6C6F7365 
 8832      4D73675F 
 8832      7500
 8833              	.LASF19:
 8834 002f 73697A65 		.ascii	"sizetype\000"
 8834      74797065 
 8834      00
 8835              	.LASF146:
 8836 0038 70417379 		.ascii	"pAsyncBuf\000"
 8836      6E634275 
 8836      6600
 8837              	.LASF216:
ARM GAS  C:\Users\X0217454\AppData\Local\Temp\cc5FLHAl.s 			page 176


 8838 0042 5F736C5F 		.ascii	"_sl_HandleAsync_Connect\000"
 8838      48616E64 
 8838      6C654173 
 8838      796E635F 
 8838      436F6E6E 
 8839              	.LASF44:
 8840 005a 73696E5F 		.ascii	"sin_family\000"
 8840      66616D69 
 8840      6C7900
 8841              	.LASF202:
 8842 0065 436D6443 		.ascii	"CmdCtrl\000"
 8842      74726C00 
 8843              	.LASF46:
 8844 006d 73696E5F 		.ascii	"sin_addr\000"
 8844      61646472 
 8844      00
 8845              	.LASF140:
 8846 0076 5F536C46 		.ascii	"_SlFlowContCB_t\000"
 8846      6C6F7743 
 8846      6F6E7443 
 8846      425F7400 
 8847              	.LASF69:
 8848 0086 5F536F63 		.ascii	"_SocketResponse_t\000"
 8848      6B657452 
 8848      6573706F 
 8848      6E73655F 
 8848      7400
 8849              	.LASF48:
 8850 0098 536C4664 		.ascii	"SlFdSet_t\000"
 8850      5365745F 
 8850      7400
 8851              	.LASF88:
 8852 00a2 5F4C6973 		.ascii	"_ListenCommand_t\000"
 8852      74656E43 
 8852      6F6D6D61 
 8852      6E645F74 
 8852      00
 8853              	.LASF119:
 8854 00b3 41646469 		.ascii	"AdditionalData\000"
 8854      74696F6E 
 8854      616C4461 
 8854      746100
 8855              	.LASF41:
 8856 00c2 73696E36 		.ascii	"sin6_addr\000"
 8856      5F616464 
 8856      7200
 8857              	.LASF236:
 8858 00cc 65786365 		.ascii	"exceptsds\000"
 8858      70747364 
 8858      7300
 8859              	.LASF211:
 8860 00d6 66726F6D 		.ascii	"from\000"
 8860      00
 8861              	.LASF196:
 8862 00db 5F736C5F 		.ascii	"_sl_TruncatePayloadByProtocol\000"
 8862      5472756E 
 8862      63617465 
ARM GAS  C:\Users\X0217454\AppData\Local\Temp\cc5FLHAl.s 			page 177


 8862      5061796C 
 8862      6F616442 
 8863              	.LASF209:
 8864 00f9 52657456 		.ascii	"RetVal\000"
 8864      616C00
 8865              	.LASF115:
 8866 0100 5F536C50 		.ascii	"_SlPoolObj_t\000"
 8866      6F6F6C4F 
 8866      626A5F74 
 8866      00
 8867              	.LASF110:
 8868 010d 52785061 		.ascii	"RxPayloadLen\000"
 8868      796C6F61 
 8868      644C656E 
 8868      00
 8869              	.LASF20:
 8870 011a 5F536C53 		.ascii	"_SlSpawnEntryFunc_t\000"
 8870      7061776E 
 8870      456E7472 
 8870      7946756E 
 8870      635F7400 
 8871              	.LASF170:
 8872 012e 52784972 		.ascii	"RxIrqCnt\000"
 8872      71436E74 
 8872      00
 8873              	.LASF135:
 8874 0137 50494E47 		.ascii	"PING_ID\000"
 8874      5F494400 
 8875              	.LASF100:
 8876 013f 6F707469 		.ascii	"optionLen\000"
 8876      6F6E4C65 
 8876      6E00
 8877              	.LASF246:
 8878 0149 5F536C53 		.ascii	"_SlSockCloseCmdCtrl\000"
 8878      6F636B43 
 8878      6C6F7365 
 8878      436D6443 
 8878      74726C00 
 8879              	.LASF206:
 8880 015d 746F6C65 		.ascii	"tolen\000"
 8880      6E00
 8881              	.LASF62:
 8882 0163 5F426173 		.ascii	"_BasicResponse_t\000"
 8882      69635265 
 8882      73706F6E 
 8882      73655F74 
 8882      00
 8883              	.LASF245:
 8884 0174 5F536C53 		.ascii	"_SlSockSocketCmdCtrl\000"
 8884      6F636B53 
 8884      6F636B65 
 8884      74436D64 
 8884      4374726C 
 8885              	.LASF217:
 8886 0189 70566F69 		.ascii	"pVoidBuf\000"
 8886      64427566 
 8886      00
ARM GAS  C:\Users\X0217454\AppData\Local\Temp\cc5FLHAl.s 			page 178


 8887              	.LASF215:
 8888 0192 704F626A 		.ascii	"pObjIdx\000"
 8888      49647800 
 8889              	.LASF7:
 8890 019a 6C6F6E67 		.ascii	"long int\000"
 8890      20696E74 
 8890      00
 8891              	.LASF169:
 8892 01a3 54785365 		.ascii	"TxSeqNum\000"
 8892      714E756D 
 8892      00
 8893              	.LASF105:
 8894 01ac 5F73656E 		.ascii	"_sendRecvCommand_t\000"
 8894      64526563 
 8894      76436F6D 
 8894      6D616E64 
 8894      5F7400
 8895              	.LASF120:
 8896 01bf 4E657874 		.ascii	"NextIndex\000"
 8896      496E6465 
 8896      7800
 8897              	.LASF117:
 8898 01c9 70526573 		.ascii	"pRespArgs\000"
 8898      70417267 
 8898      7300
 8899              	.LASF171:
 8900 01d3 5278446F 		.ascii	"RxDoneCnt\000"
 8900      6E65436E 
 8900      7400
 8901              	.LASF94:
 8902 01dd 72656164 		.ascii	"readFds\000"
 8902      46647300 
 8903              	.LASF154:
 8904 01e5 70436D64 		.ascii	"pCmdExt\000"
 8904      45787400 
 8905              	.LASF87:
 8906 01ed 6261636B 		.ascii	"backlog\000"
 8906      6C6F6700 
 8907              	.LASF80:
 8908 01f5 46616D69 		.ascii	"FamilyAndFlags\000"
 8908      6C79416E 
 8908      64466C61 
 8908      677300
 8909              	.LASF0:
 8910 0204 7369676E 		.ascii	"signed char\000"
 8910      65642063 
 8910      68617200 
 8911              	.LASF153:
 8912 0210 70547852 		.ascii	"pTxRxDescBuff\000"
 8912      78446573 
 8912      63427566 
 8912      6600
 8913              	.LASF14:
 8914 021e 5F536C4F 		.ascii	"_SlOpcode_t\000"
 8914      70636F64 
 8914      655F7400 
 8915              	.LASF3:
ARM GAS  C:\Users\X0217454\AppData\Local\Temp\cc5FLHAl.s 			page 179


 8916 022a 494E5431 		.ascii	"INT16\000"
 8916      3600
 8917              	.LASF1:
 8918 0230 756E7369 		.ascii	"unsigned char\000"
 8918      676E6564 
 8918      20636861 
 8918      7200
 8919              	.LASF181:
 8920 023e 5F536C53 		.ascii	"_SlSockConnectMsg_u\000"
 8920      6F636B43 
 8920      6F6E6E65 
 8920      63744D73 
 8920      675F7500 
 8921              	.LASF106:
 8922 0252 54784465 		.ascii	"TxDescLen\000"
 8922      73634C65 
 8922      6E00
 8923              	.LASF57:
 8924 025c 536F636B 		.ascii	"SocketTXFailure\000"
 8924      65745458 
 8924      4661696C 
 8924      75726500 
 8925              	.LASF255:
 8926 026c 474E5520 		.ascii	"GNU C 4.7.3 20130312 (release) [ARM/embedded-4_7-br"
 8926      4320342E 
 8926      372E3320 
 8926      32303133 
 8926      30333132 
 8927 029f 616E6368 		.ascii	"anch revision 196615]\000"
 8927      20726576 
 8927      6973696F 
 8927      6E203139 
 8927      36363135 
 8928              	.LASF207:
 8929 02b5 436D6445 		.ascii	"CmdExt\000"
 8929      787400
 8930              	.LASF63:
 8931 02bc 446F6D61 		.ascii	"Domain\000"
 8931      696E00
 8932              	.LASF148:
 8933 02c3 4173796E 		.ascii	"AsyncEvtHandler\000"
 8933      63457674 
 8933      48616E64 
 8933      6C657200 
 8934              	.LASF42:
 8935 02d3 73696E36 		.ascii	"sin6_scope_id\000"
 8935      5F73636F 
 8935      70655F69 
 8935      6400
 8936              	.LASF186:
 8937 02e1 5F536C53 		.ascii	"_SlSetSockOptMsg_u\000"
 8937      6574536F 
 8937      636B4F70 
 8937      744D7367 
 8937      5F7500
 8938              	.LASF35:
 8939 02f4 536C496E 		.ascii	"SlIn6Addr_t\000"
ARM GAS  C:\Users\X0217454\AppData\Local\Temp\cc5FLHAl.s 			page 180


 8939      36416464 
 8939      725F7400 
 8940              	.LASF234:
 8941 0300 72656164 		.ascii	"readsds\000"
 8941      73647300 
 8942              	.LASF165:
 8943 0308 50726F74 		.ascii	"ProtectionLockObj\000"
 8943      65637469 
 8943      6F6E4C6F 
 8943      636B4F62 
 8943      6A00
 8944              	.LASF200:
 8945 031a 736C5F43 		.ascii	"sl_Close\000"
 8945      6C6F7365 
 8945      00
 8946              	.LASF172:
 8947 0323 52656C61 		.ascii	"RelayFlagsViaRxPayload\000"
 8947      79466C61 
 8947      67735669 
 8947      61527850 
 8947      61796C6F 
 8948              	.LASF45:
 8949 033a 73696E5F 		.ascii	"sin_port\000"
 8949      706F7274 
 8949      00
 8950              	.LASF11:
 8951 0343 63686172 		.ascii	"char\000"
 8951      00
 8952              	.LASF43:
 8953 0348 536C536F 		.ascii	"SlSockAddrIn_t\000"
 8953      636B4164 
 8953      6472496E 
 8953      5F7400
 8954              	.LASF250:
 8955 0357 5F536C41 		.ascii	"_SlAcceptCmdCtrl\000"
 8955      63636570 
 8955      74436D64 
 8955      4374726C 
 8955      00
 8956              	.LASF121:
 8957 0368 534F434B 		.ascii	"SOCKET_0\000"
 8957      45545F30 
 8957      00
 8958              	.LASF122:
 8959 0371 534F434B 		.ascii	"SOCKET_1\000"
 8959      45545F31 
 8959      00
 8960              	.LASF123:
 8961 037a 534F434B 		.ascii	"SOCKET_2\000"
 8961      45545F32 
 8961      00
 8962              	.LASF124:
 8963 0383 534F434B 		.ascii	"SOCKET_3\000"
 8963      45545F33 
 8963      00
 8964              	.LASF125:
 8965 038c 534F434B 		.ascii	"SOCKET_4\000"
ARM GAS  C:\Users\X0217454\AppData\Local\Temp\cc5FLHAl.s 			page 181


 8965      45545F34 
 8965      00
 8966              	.LASF126:
 8967 0395 534F434B 		.ascii	"SOCKET_5\000"
 8967      45545F35 
 8967      00
 8968              	.LASF127:
 8969 039e 534F434B 		.ascii	"SOCKET_6\000"
 8969      45545F36 
 8969      00
 8970              	.LASF128:
 8971 03a7 534F434B 		.ascii	"SOCKET_7\000"
 8971      45545F37 
 8971      00
 8972              	.LASF33:
 8973 03b0 5F53365F 		.ascii	"_S6_u8\000"
 8973      753800
 8974              	.LASF205:
 8975 03b7 666C6167 		.ascii	"flags\000"
 8975      7300
 8976              	.LASF184:
 8977 03bd 5F536C53 		.ascii	"_SlSockAcceptMsg_u\000"
 8977      6F636B41 
 8977      63636570 
 8977      744D7367 
 8977      5F7500
 8978              	.LASF113:
 8979 03d0 70527850 		.ascii	"pRxPayload\000"
 8979      61796C6F 
 8979      616400
 8980              	.LASF39:
 8981 03db 73696E36 		.ascii	"sin6_port\000"
 8981      5F706F72 
 8981      7400
 8982              	.LASF36:
 8983 03e5 5F53365F 		.ascii	"_S6_un\000"
 8983      756E00
 8984              	.LASF31:
 8985 03ec 73615F66 		.ascii	"sa_family\000"
 8985      616D696C 
 8985      7900
 8986              	.LASF47:
 8987 03f6 73696E5F 		.ascii	"sin_zero\000"
 8987      7A65726F 
 8987      00
 8988              	.LASF24:
 8989 03ff 536C5375 		.ascii	"SlSuseconds_t\000"
 8989      7365636F 
 8989      6E64735F 
 8989      7400
 8990              	.LASF242:
 8991 040d 534C5F46 		.ascii	"SL_FD_ZERO\000"
 8991      445F5A45 
 8991      524F00
 8992              	.LASF134:
 8993 0418 47455448 		.ascii	"GETHOSYBYSERVICE_ID\000"
 8993      4F535942 
ARM GAS  C:\Users\X0217454\AppData\Local\Temp\cc5FLHAl.s 			page 182


 8993      59534552 
 8993      56494345 
 8993      5F494400 
 8994              	.LASF183:
 8995 042c 5F536C4C 		.ascii	"_SlListenMsg_u\000"
 8995      69737465 
 8995      6E4D7367 
 8995      5F7500
 8996              	.LASF185:
 8997 043b 5F536C52 		.ascii	"_SlRecvMsg_u\000"
 8997      6563764D 
 8997      73675F75 
 8997      00
 8998              	.LASF49:
 8999 0448 66645F61 		.ascii	"fd_array\000"
 8999      72726179 
 8999      00
 9000              	.LASF238:
 9001 0451 534C5F46 		.ascii	"SL_FD_SET\000"
 9001      445F5345 
 9001      5400
 9002              	.LASF83:
 9003 045b 49705634 		.ascii	"IpV4\000"
 9003      00
 9004              	.LASF240:
 9005 0460 534C5F46 		.ascii	"SL_FD_CLR\000"
 9005      445F434C 
 9005      5200
 9006              	.LASF187:
 9007 046a 5F536C47 		.ascii	"_SlGetSockOptMsg_u\000"
 9007      6574536F 
 9007      636B4F70 
 9007      744D7367 
 9007      5F7500
 9008              	.LASF224:
 9009 047d 736C5F48 		.ascii	"sl_Htonl\000"
 9009      746F6E6C 
 9009      00
 9010              	.LASF28:
 9011 0486 74765F75 		.ascii	"tv_usec\000"
 9011      73656300 
 9012              	.LASF225:
 9013 048e 736C5F48 		.ascii	"sl_Htons\000"
 9013      746F6E73 
 9013      00
 9014              	.LASF226:
 9015 0497 5F736C5F 		.ascii	"_sl_HandleAsync_Accept\000"
 9015      48616E64 
 9015      6C654173 
 9015      796E635F 
 9015      41636365 
 9016              	.LASF190:
 9017 04ae 61646472 		.ascii	"addrlen\000"
 9017      6C656E00 
 9018              	.LASF22:
 9019 04b6 536C496E 		.ascii	"SlInAddr_t\000"
 9019      41646472 
ARM GAS  C:\Users\X0217454\AppData\Local\Temp\cc5FLHAl.s 			page 183


 9019      5F7400
 9020              	.LASF67:
 9021 04c1 5F536F63 		.ascii	"_SocketCommand_t\000"
 9021      6B657443 
 9021      6F6D6D61 
 9021      6E645F74 
 9021      00
 9022              	.LASF15:
 9023 04d2 5F536C41 		.ascii	"_SlArgSize_t\000"
 9023      72675369 
 9023      7A655F74 
 9023      00
 9024              	.LASF5:
 9025 04df 55494E54 		.ascii	"UINT16\000"
 9025      313600
 9026              	.LASF52:
 9027 04e6 5F536C47 		.ascii	"_SlGenericHeader_t\000"
 9027      656E6572 
 9027      69634865 
 9027      61646572 
 9027      5F7400
 9028              	.LASF114:
 9029 04f9 5F536C43 		.ascii	"_SlCmdExt_t\000"
 9029      6D644578 
 9029      745F7400 
 9030              	.LASF188:
 9031 0505 5F536C53 		.ascii	"_SlSelectMsg_u\000"
 9031      656C6563 
 9031      744D7367 
 9031      5F7500
 9032              	.LASF194:
 9033 0514 5F736C5F 		.ascii	"_sl_ParseAddress\000"
 9033      50617273 
 9033      65416464 
 9033      72657373 
 9033      00
 9034              	.LASF198:
 9035 0525 6D61784C 		.ascii	"maxLength\000"
 9035      656E6774 
 9035      6800
 9036              	.LASF85:
 9037 052f 5F536F63 		.ascii	"_SocketAddrCommand_u\000"
 9037      6B657441 
 9037      64647243 
 9037      6F6D6D61 
 9037      6E645F75 
 9038              	.LASF244:
 9039 0544 675F7043 		.ascii	"g_pCB\000"
 9039      4200
 9040              	.LASF214:
 9041 054a 4173796E 		.ascii	"AsyncRsp\000"
 9041      63527370 
 9041      00
 9042              	.LASF152:
 9043 0553 70436D64 		.ascii	"pCmdCtrl\000"
 9043      4374726C 
 9043      00
ARM GAS  C:\Users\X0217454\AppData\Local\Temp\cc5FLHAl.s 			page 184


 9044              	.LASF180:
 9045 055c 5F536C52 		.ascii	"_SlRecvfromMsg_u\000"
 9045      65637666 
 9045      726F6D4D 
 9045      73675F75 
 9045      00
 9046              	.LASF182:
 9047 056d 5F536C53 		.ascii	"_SlSendMsg_u\000"
 9047      656E644D 
 9047      73675F75 
 9047      00
 9048              	.LASF9:
 9049 057a 6C6F6E67 		.ascii	"long unsigned int\000"
 9049      20756E73 
 9049      69676E65 
 9049      6420696E 
 9049      7400
 9050              	.LASF142:
 9051 058c 434D445F 		.ascii	"CMD_RESP_CLASS\000"
 9051      52455350 
 9051      5F434C41 
 9051      535300
 9052              	.LASF60:
 9053 059b 73746174 		.ascii	"status\000"
 9053      757300
 9054              	.LASF232:
 9055 05a2 736C5F47 		.ascii	"sl_GetSockOpt\000"
 9055      6574536F 
 9055      636B4F70 
 9055      7400
 9056              	.LASF76:
 9057 05b0 61646472 		.ascii	"address\000"
 9057      65737300 
 9058              	.LASF248:
 9059 05b8 5F536C53 		.ascii	"_SlSendCmdCtrl\000"
 9059      656E6443 
 9059      6D644374 
 9059      726C00
 9060              	.LASF173:
 9061 05c7 46756E63 		.ascii	"FunctionParams\000"
 9061      74696F6E 
 9061      50617261 
 9061      6D7300
 9062              	.LASF25:
 9063 05d6 536C5469 		.ascii	"SlTimeval_t\000"
 9063      6D657661 
 9063      6C5F7400 
 9064              	.LASF257:
 9065 05e2 433A5C55 		.ascii	"C:\\Users\\X0217454\\Desktop\\CC31xx\\CC3100 - 0.5\\"
 9065      73657273 
 9065      5C583032 
 9065      31373435 
 9065      345C4465 
 9066 0610 43433331 		.ascii	"CC3100 SDK 0.5\\cc3100-sdk\\platform\\cypress_SDK.5"
 9066      30302053 
 9066      444B2030 
 9066      2E355C63 
ARM GAS  C:\Users\X0217454\AppData\Local\Temp\cc5FLHAl.s 			page 185


 9066      63333130 
 9067 0640 5C657861 		.ascii	"\\example\\wlan_station_spi\\wlan_station_spi.cydsn"
 9067      6D706C65 
 9067      5C776C61 
 9067      6E5F7374 
 9067      6174696F 
 9068 0670 00       		.ascii	"\000"
 9069              	.LASF8:
 9070 0671 55494E54 		.ascii	"UINT32\000"
 9070      333200
 9071              	.LASF68:
 9072 0678 73746174 		.ascii	"statusOrLen\000"
 9072      75734F72 
 9072      4C656E00 
 9073              	.LASF233:
 9074 0684 736C5F53 		.ascii	"sl_Select\000"
 9074      656C6563 
 9074      7400
 9075              	.LASF86:
 9076 068e 5F536F63 		.ascii	"_SocketAddrResponse_u\000"
 9076      6B657441 
 9076      64647252 
 9076      6573706F 
 9076      6E73655F 
 9077              	.LASF116:
 9078 06a4 53796E63 		.ascii	"SyncObj\000"
 9078      4F626A00 
 9079              	.LASF167:
 9080 06ac 4973436D 		.ascii	"IsCmdRespWaited\000"
 9080      64526573 
 9080      70576169 
 9080      74656400 
 9081              	.LASF82:
 9082 06bc 5F536F63 		.ascii	"_SocketAddrIPv6EUI48Command_t\000"
 9082      6B657441 
 9082      64647249 
 9082      50763645 
 9082      55493438 
 9083              	.LASF151:
 9084 06da 5F536C53 		.ascii	"_SlSd_t\000"
 9084      645F7400 
 9085              	.LASF143:
 9086 06e2 4153594E 		.ascii	"ASYNC_EVT_CLASS\000"
 9086      435F4556 
 9086      545F434C 
 9086      41535300 
 9087              	.LASF219:
 9088 06f2 736C5F53 		.ascii	"sl_Send\000"
 9088      656E6400 
 9089              	.LASF23:
 9090 06fa 536C5469 		.ascii	"SlTime_t\000"
 9090      6D655F74 
 9090      00
 9091              	.LASF150:
 9092 0703 4173796E 		.ascii	"AsyncExt_t\000"
 9092      63457874 
 9092      5F7400
ARM GAS  C:\Users\X0217454\AppData\Local\Temp\cc5FLHAl.s 			page 186


 9093              	.LASF18:
 9094 070e 6C6F6E67 		.ascii	"long long int\000"
 9094      206C6F6E 
 9094      6720696E 
 9094      7400
 9095              	.LASF53:
 9096 071c 5F536C43 		.ascii	"_SlCommandHeader_t\000"
 9096      6F6D6D61 
 9096      6E644865 
 9096      61646572 
 9096      5F7400
 9097              	.LASF159:
 9098 072f 70496E69 		.ascii	"pInitCallback\000"
 9098      7443616C 
 9098      6C626163 
 9098      6B00
 9099              	.LASF222:
 9100 073d 736C5F4C 		.ascii	"sl_Listen\000"
 9100      69737465 
 9100      6E00
 9101              	.LASF13:
 9102 0747 646F7562 		.ascii	"double\000"
 9102      6C6500
 9103              	.LASF99:
 9104 074e 6F707469 		.ascii	"optionName\000"
 9104      6F6E4E61 
 9104      6D6500
 9105              	.LASF256:
 9106 0759 2E2E5C2E 		.ascii	"..\\..\\..\\..\\..\\simplelink\\source\\socket.c\000"
 9106      2E5C2E2E 
 9106      5C2E2E5C 
 9106      2E2E5C73 
 9106      696D706C 
 9107              	.LASF91:
 9108 0783 6E666473 		.ascii	"nfds\000"
 9108      00
 9109              	.LASF252:
 9110 0788 5F536C53 		.ascii	"_SlSetSockOptCmdCtrl\000"
 9110      6574536F 
 9110      636B4F70 
 9110      74436D64 
 9110      4374726C 
 9111              	.LASF237:
 9112 079d 74696D65 		.ascii	"timeout\000"
 9112      6F757400 
 9113              	.LASF12:
 9114 07a5 666C6F61 		.ascii	"float\000"
 9114      7400
 9115              	.LASF254:
 9116 07ab 5F536C53 		.ascii	"_SlSelectCmdCtrl\000"
 9116      656C6563 
 9116      74436D64 
 9116      4374726C 
 9116      00
 9117              	.LASF189:
 9118 07bc 61646472 		.ascii	"addr\000"
 9118      00
ARM GAS  C:\Users\X0217454\AppData\Local\Temp\cc5FLHAl.s 			page 187


 9119              	.LASF78:
 9120 07c1 5F536F63 		.ascii	"_SocketAddrAsyncIPv6EUI48Response_t\000"
 9120      6B657441 
 9120      64647241 
 9120      73796E63 
 9120      49507636 
 9121              	.LASF178:
 9122 07e5 5F536C53 		.ascii	"_SlSockBindMsg_u\000"
 9122      6F636B42 
 9122      696E644D 
 9122      73675F75 
 9122      00
 9123              	.LASF17:
 9124 07f6 756E7369 		.ascii	"unsigned int\000"
 9124      676E6564 
 9124      20696E74 
 9124      00
 9125              	.LASF144:
 9126 0803 44554D4D 		.ascii	"DUMMY_MSG_CLASS\000"
 9126      595F4D53 
 9126      475F434C 
 9126      41535300 
 9127              	.LASF166:
 9128 0813 436D6453 		.ascii	"CmdSyncObj\000"
 9128      796E634F 
 9128      626A00
 9129              	.LASF58:
 9130 081e 536F636B 		.ascii	"SocketNonBlocking\000"
 9130      65744E6F 
 9130      6E426C6F 
 9130      636B696E 
 9130      6700
 9131              	.LASF247:
 9132 0830 5F536C52 		.ascii	"_SlRecvfomCmdCtrl\000"
 9132      65637666 
 9132      6F6D436D 
 9132      64437472 
 9132      6C00
 9133              	.LASF158:
 9134 0842 54656D70 		.ascii	"TempProtocolHeader\000"
 9134      50726F74 
 9134      6F636F6C 
 9134      48656164 
 9134      657200
 9135              	.LASF54:
 9136 0855 47656E48 		.ascii	"GenHeader\000"
 9136      65616465 
 9136      7200
 9137              	.LASF103:
 9138 085f 5F676574 		.ascii	"_getSockOptResponse_t\000"
 9138      536F636B 
 9138      4F707452 
 9138      6573706F 
 9138      6E73655F 
 9139              	.LASF64:
 9140 0875 54797065 		.ascii	"Type\000"
 9140      00
ARM GAS  C:\Users\X0217454\AppData\Local\Temp\cc5FLHAl.s 			page 188


 9141              	.LASF220:
 9142 087a 74656D70 		.ascii	"tempVal\000"
 9142      56616C00 
 9143              	.LASF193:
 9144 0882 5F736C5F 		.ascii	"_sl_BuildAddress\000"
 9144      4275696C 
 9144      64416464 
 9144      72657373 
 9144      00
 9145              	.LASF221:
 9146 0893 72756E53 		.ascii	"runSingleChunk\000"
 9146      696E676C 
 9146      65436875 
 9146      6E6B00
 9147              	.LASF229:
 9148 08a2 6F70746E 		.ascii	"optname\000"
 9148      616D6500 
 9149              	.LASF70:
 9150 08aa 66616D69 		.ascii	"family\000"
 9150      6C7900
 9151              	.LASF147:
 9152 08b1 41637469 		.ascii	"ActionIndex\000"
 9152      6F6E496E 
 9152      64657800 
 9153              	.LASF84:
 9154 08bd 49705636 		.ascii	"IpV6EUI48\000"
 9154      45554934 
 9154      3800
 9155              	.LASF227:
 9156 08c7 736C5F52 		.ascii	"sl_Recv\000"
 9156      65637600 
 9157              	.LASF89:
 9158 08cf 70616464 		.ascii	"padding0\000"
 9158      696E6730 
 9158      00
 9159              	.LASF71:
 9160 08d8 70616464 		.ascii	"padding1\000"
 9160      696E6731 
 9160      00
 9161              	.LASF72:
 9162 08e1 70616464 		.ascii	"padding2\000"
 9162      696E6732 
 9162      00
 9163              	.LASF37:
 9164 08ea 536C536F 		.ascii	"SlSockAddrIn6_t\000"
 9164      636B4164 
 9164      6472496E 
 9164      365F7400 
 9165              	.LASF109:
 9166 08fa 54785061 		.ascii	"TxPayloadLen\000"
 9166      796C6F61 
 9166      644C656E 
 9166      00
 9167              	.LASF197:
 9168 0907 736C5F53 		.ascii	"sl_Socket\000"
 9168      6F636B65 
 9168      7400
ARM GAS  C:\Users\X0217454\AppData\Local\Temp\cc5FLHAl.s 			page 189


 9169              	.LASF160:
 9170 0911 4F626A50 		.ascii	"ObjPool\000"
 9170      6F6F6C00 
 9171              	.LASF179:
 9172 0919 5F536C53 		.ascii	"_SlSendtoMsg_u\000"
 9172      656E6474 
 9172      6F4D7367 
 9172      5F7500
 9173              	.LASF66:
 9174 0928 50616464 		.ascii	"Padding\000"
 9174      696E6700 
 9175              	.LASF38:
 9176 0930 73696E36 		.ascii	"sin6_family\000"
 9176      5F66616D 
 9176      696C7900 
 9177              	.LASF168:
 9178 093c 466C6F77 		.ascii	"FlowContCB\000"
 9178      436F6E74 
 9178      434200
 9179              	.LASF163:
 9180 0947 41637469 		.ascii	"ActivePoolIdx\000"
 9180      7665506F 
 9180      6F6C4964 
 9180      7800
 9181              	.LASF176:
 9182 0955 5F536C53 		.ascii	"_SlSockSocketMsg_u\000"
 9182      6F636B53 
 9182      6F636B65 
 9182      744D7367 
 9182      5F7500
 9183              	.LASF95:
 9184 0968 77726974 		.ascii	"writeFds\000"
 9184      65466473 
 9184      00
 9185              	.LASF218:
 9186 0971 704D7367 		.ascii	"pMsgArgs\000"
 9186      41726773 
 9186      00
 9187              	.LASF241:
 9188 097a 534C5F46 		.ascii	"SL_FD_ISSET\000"
 9188      445F4953 
 9188      53455400 
 9189              	.LASF131:
 9190 0986 434F4E4E 		.ascii	"CONNECT_ID\000"
 9190      4543545F 
 9190      494400
 9191              	.LASF213:
 9192 0991 736C5F43 		.ascii	"sl_Connect\000"
 9192      6F6E6E65 
 9192      637400
 9193              	.LASF108:
 9194 099c 5F536C43 		.ascii	"_SlCmdCtrl_t\000"
 9194      6D644374 
 9194      726C5F74 
 9194      00
 9195              	.LASF10:
 9196 09a9 6C6F6E67 		.ascii	"long long unsigned int\000"
ARM GAS  C:\Users\X0217454\AppData\Local\Temp\cc5FLHAl.s 			page 190


 9196      206C6F6E 
 9196      6720756E 
 9196      7369676E 
 9196      65642069 
 9197              	.LASF81:
 9198 09c0 5F536F63 		.ascii	"_SocketAddrIPv4Command_t\000"
 9198      6B657441 
 9198      64647249 
 9198      50763443 
 9198      6F6D6D61 
 9199              	.LASF97:
 9200 09d9 5F53656C 		.ascii	"_SelectAsyncResponse_t\000"
 9200      65637441 
 9200      73796E63 
 9200      52657370 
 9200      6F6E7365 
 9201              	.LASF93:
 9202 09f0 77726974 		.ascii	"writeFdsCount\000"
 9202      65466473 
 9202      436F756E 
 9202      7400
 9203              	.LASF192:
 9204 09fe 6C656E67 		.ascii	"length\000"
 9204      746800
 9205              	.LASF162:
 9206 0a05 50656E64 		.ascii	"PendingPoolIdx\000"
 9206      696E6750 
 9206      6F6F6C49 
 9206      647800
 9207              	.LASF201:
 9208 0a14 736C5F42 		.ascii	"sl_Bind\000"
 9208      696E6400 
 9209              	.LASF208:
 9210 0a1c 4368756E 		.ascii	"ChunkLen\000"
 9210      6B4C656E 
 9210      00
 9211              	.LASF137:
 9212 0a25 52454356 		.ascii	"RECV_ID\000"
 9212      5F494400 
 9213              	.LASF231:
 9214 0a2d 6F70746C 		.ascii	"optlen\000"
 9214      656E00
 9215              	.LASF32:
 9216 0a34 73615F64 		.ascii	"sa_data\000"
 9216      61746100 
 9217              	.LASF141:
 9218 0a3c 52454356 		.ascii	"RECV_RESP_CLASS\000"
 9218      5F524553 
 9218      505F434C 
 9218      41535300 
 9219              	.LASF157:
 9220 0a4c 476C6F62 		.ascii	"GlobalLockObj\000"
 9220      616C4C6F 
 9220      636B4F62 
 9220      6A00
 9221              	.LASF175:
 9222 0a5a 44756D6D 		.ascii	"Dummy\000"
ARM GAS  C:\Users\X0217454\AppData\Local\Temp\cc5FLHAl.s 			page 191


 9222      7900
 9223              	.LASF79:
 9224 0a60 6C656E4F 		.ascii	"lenOrPadding\000"
 9224      72506164 
 9224      64696E67 
 9224      00
 9225              	.LASF77:
 9226 0a6d 5F536F63 		.ascii	"_SocketAddrAsyncIPv4Response_t\000"
 9226      6B657441 
 9226      64647241 
 9226      73796E63 
 9226      49507634 
 9227              	.LASF174:
 9228 0a8c 5F536C44 		.ascii	"_SlDriverCb_t\000"
 9228      72697665 
 9228      7243625F 
 9228      7400
 9229              	.LASF235:
 9230 0a9a 77726974 		.ascii	"writesds\000"
 9230      65736473 
 9230      00
 9231              	.LASF253:
 9232 0aa3 5F536C47 		.ascii	"_SlGetSockOptCmdCtrl\000"
 9232      6574536F 
 9232      636B4F70 
 9232      74436D64 
 9232      4374726C 
 9233              	.LASF111:
 9234 0ab8 41637475 		.ascii	"ActualRxPayloadLen\000"
 9234      616C5278 
 9234      5061796C 
 9234      6F61644C 
 9234      656E00
 9235              	.LASF102:
 9236 0acb 5F676574 		.ascii	"_getSockOptCommand_t\000"
 9236      536F636B 
 9236      4F707443 
 9236      6F6D6D61 
 9236      6E645F74 
 9237              	.LASF51:
 9238 0ae0 4F70636F 		.ascii	"Opcode\000"
 9238      646500
 9239              	.LASF112:
 9240 0ae7 70547850 		.ascii	"pTxPayload\000"
 9240      61796C6F 
 9240      616400
 9241              	.LASF191:
 9242 0af2 70436D64 		.ascii	"pCmd\000"
 9242      00
 9243              	.LASF2:
 9244 0af7 55494E54 		.ascii	"UINT8\000"
 9244      3800
 9245              	.LASF203:
 9246 0afd 736C5F53 		.ascii	"sl_SendTo\000"
 9246      656E6454 
 9246      6F00
 9247              	.LASF138:
ARM GAS  C:\Users\X0217454\AppData\Local\Temp\cc5FLHAl.s 			page 192


 9248 0b07 54784C6F 		.ascii	"TxLockObj\000"
 9248      636B4F62 
 9248      6A00
 9249              	.LASF130:
 9250 0b11 41434345 		.ascii	"ACCEPT_ID\000"
 9250      50545F49 
 9250      4400
 9251              	.LASF107:
 9252 0b1b 52784465 		.ascii	"RxDescLen\000"
 9252      73634C65 
 9252      6E00
 9253              	.LASF136:
 9254 0b25 53544152 		.ascii	"START_STOP_ID\000"
 9254      545F5354 
 9254      4F505F49 
 9254      4400
 9255              	.LASF251:
 9256 0b33 5F536C52 		.ascii	"_SlRecvCmdCtrl\000"
 9256      65637643 
 9256      6D644374 
 9256      726C00
 9257              	.LASF74:
 9258 0b42 706F7274 		.ascii	"port\000"
 9258      00
 9259              	.LASF249:
 9260 0b47 5F536C4C 		.ascii	"_SlListenCmdCtrl\000"
 9260      69737465 
 9260      6E436D64 
 9260      4374726C 
 9260      00
 9261              	.LASF212:
 9262 0b58 66726F6D 		.ascii	"fromlen\000"
 9262      6C656E00 
 9263              	.LASF96:
 9264 0b60 5F53656C 		.ascii	"_SelectCommand_t\000"
 9264      65637443 
 9264      6F6D6D61 
 9264      6E645F74 
 9264      00
 9265              	.LASF4:
 9266 0b71 73686F72 		.ascii	"short int\000"
 9266      7420696E 
 9266      7400
 9267              	.LASF56:
 9268 0b7b 44657653 		.ascii	"DevStatus\000"
 9268      74617475 
 9268      7300
 9269              	.LASF92:
 9270 0b85 72656164 		.ascii	"readFdsCount\000"
 9270      46647343 
 9270      6F756E74 
 9270      00
 9271              	.LASF204:
 9272 0b92 70427566 		.ascii	"pBuf\000"
 9272      00
 9273              	.LASF132:
 9274 0b97 53454C45 		.ascii	"SELECT_ID\000"
ARM GAS  C:\Users\X0217454\AppData\Local\Temp\cc5FLHAl.s 			page 193


 9274      43545F49 
 9274      4400
 9275              	.LASF239:
 9276 0ba1 66647365 		.ascii	"fdset\000"
 9276      7400
 9277              	.LASF75:
 9278 0ba7 70616464 		.ascii	"paddingOrAddr\000"
 9278      696E674F 
 9278      72416464 
 9278      7200
 9279              	.LASF230:
 9280 0bb5 6F707476 		.ascii	"optval\000"
 9280      616C00
 9281              	.LASF139:
 9282 0bbc 54785379 		.ascii	"TxSyncObj\000"
 9282      6E634F62 
 9282      6A00
 9283              	.LASF65:
 9284 0bc6 50726F74 		.ascii	"Protocol\000"
 9284      6F636F6C 
 9284      00
 9285              	.LASF133:
 9286 0bcf 47455448 		.ascii	"GETHOSYBYNAME_ID\000"
 9286      4F535942 
 9286      594E414D 
 9286      455F4944 
 9286      00
 9287              	.LASF30:
 9288 0be0 536C536F 		.ascii	"SlSockAddr_t\000"
 9288      636B4164 
 9288      64725F74 
 9288      00
 9289              	.LASF29:
 9290 0bed 536C536F 		.ascii	"SlSocklen_t\000"
 9290      636B6C65 
 9290      6E5F7400 
 9291              	.LASF55:
 9292 0bf9 5478506F 		.ascii	"TxPoolCnt\000"
 9292      6F6C436E 
 9292      7400
 9293              	.LASF199:
 9294 0c03 5F526574 		.ascii	"_RetVal\000"
 9294      56616C00 
 9295              	.LASF34:
 9296 0c0b 5F53365F 		.ascii	"_S6_u32\000"
 9296      75333200 
 9297              	.LASF104:
 9298 0c13 53746174 		.ascii	"StatusOrLen\000"
 9298      75734F72 
 9298      4C656E00 
 9299              	.LASF243:
 9300 0c1f 5F736C5F 		.ascii	"_sl_HandleAsync_Select\000"
 9300      48616E64 
 9300      6C654173 
 9300      796E635F 
 9300      53656C65 
 9301              	.LASF50:
ARM GAS  C:\Users\X0217454\AppData\Local\Temp\cc5FLHAl.s 			page 194


 9302 0c36 505F494E 		.ascii	"P_INIT_CALLBACK\000"
 9302      49545F43 
 9302      414C4C42 
 9302      41434B00 
 9303              	.LASF61:
 9304 0c46 70616464 		.ascii	"padding\000"
 9304      696E6700 
 9305              	.LASF26:
 9306 0c4e 735F6164 		.ascii	"s_addr\000"
 9306      647200
 9307              	.LASF73:
 9308 0c55 5F416363 		.ascii	"_AcceptCommand_t\000"
 9308      65707443 
 9308      6F6D6D61 
 9308      6E645F74 
 9308      00
 9309              	.LASF90:
 9310 0c66 5F436C6F 		.ascii	"_CloseCommand_t\000"
 9310      7365436F 
 9310      6D6D616E 
 9310      645F7400 
 9311              	.LASF101:
 9312 0c76 5F736574 		.ascii	"_setSockOptCommand_t\000"
 9312      536F636B 
 9312      4F707443 
 9312      6F6D6D61 
 9312      6E645F74 
 9313              	.LASF21:
 9314 0c8b 5F536C4E 		.ascii	"_SlNonOsSemObj_t\000"
 9314      6F6E4F73 
 9314      53656D4F 
 9314      626A5F74 
 9314      00
 9315              	.LASF129:
 9316 0c9c 4D41585F 		.ascii	"MAX_SOCKET_ENUM_IDX\000"
 9316      534F434B 
 9316      45545F45 
 9316      4E554D5F 
 9316      49445800 
 9317              	.LASF164:
 9318 0cb0 41637469 		.ascii	"ActiveActionsBitmap\000"
 9318      76654163 
 9318      74696F6E 
 9318      73426974 
 9318      6D617000 
 9319              	.LASF6:
 9320 0cc4 73686F72 		.ascii	"short unsigned int\000"
 9320      7420756E 
 9320      7369676E 
 9320      65642069 
 9320      6E7400
 9321              	.LASF59:
 9322 0cd7 5F536C52 		.ascii	"_SlResponseHeader_t\000"
 9322      6573706F 
 9322      6E736548 
 9322      65616465 
 9322      725F7400 
ARM GAS  C:\Users\X0217454\AppData\Local\Temp\cc5FLHAl.s 			page 195


 9323              	.LASF228:
 9324 0ceb 736C5F53 		.ascii	"sl_SetSockOpt\000"
 9324      6574536F 
 9324      636B4F70 
 9324      7400
 9325              	.LASF16:
 9326 0cf9 5F536C52 		.ascii	"_SlReturnVal_t\000"
 9326      65747572 
 9326      6E56616C 
 9326      5F7400
 9327              	.LASF155:
 9328 0d08 4173796E 		.ascii	"AsyncExt\000"
 9328      63457874 
 9328      00
 9329              	.LASF145:
 9330 0d11 5F536C52 		.ascii	"_SlRxMsgClass_e\000"
 9330      784D7367 
 9330      436C6173 
 9330      735F6500 
 9331              	.LASF118:
 9332 0d21 41637469 		.ascii	"ActionID\000"
 9332      6F6E4944 
 9332      00
 9333              	.LASF223:
 9334 0d2a 736C5F41 		.ascii	"sl_Accept\000"
 9334      63636570 
 9334      7400
 9335              	.LASF156:
 9336 0d34 5F536C46 		.ascii	"_SlFunctionParams_t\000"
 9336      756E6374 
 9336      696F6E50 
 9336      6172616D 
 9336      735F7400 
 9337              	.LASF40:
 9338 0d48 73696E36 		.ascii	"sin6_flowinfo\000"
 9338      5F666C6F 
 9338      77696E66 
 9338      6F00
 9339              	.LASF27:
 9340 0d56 74765F73 		.ascii	"tv_sec\000"
 9340      656300
 9341              	.LASF210:
 9342 0d5d 736C5F52 		.ascii	"sl_RecvFrom\000"
 9342      65637646 
 9342      726F6D00 
 9343              	.LASF195:
 9344 0d69 70527370 		.ascii	"pRsp\000"
 9344      00
 9345              		.ident	"GCC: (GNU Tools for ARM Embedded Processors) 4.7.3 20130312 (release) [ARM/embedded-4_7-br
