ARM GAS  C:\Users\X0217454\AppData\Local\Temp\cc8jVG5s.s 			page 1


   1              		.cpu cortex-m0
   2              		.fpu softvfp
   3              		.eabi_attribute 20, 1
   4              		.eabi_attribute 21, 1
   5              		.eabi_attribute 23, 3
   6              		.eabi_attribute 24, 1
   7              		.eabi_attribute 25, 1
   8              		.eabi_attribute 26, 1
   9              		.eabi_attribute 30, 6
  10              		.eabi_attribute 34, 0
  11              		.eabi_attribute 18, 4
  12              		.code	16
  13              		.file	"uart.c"
  14              		.text
  15              	.Ltext0:
  16              		.cfi_sections	.debug_frame
  17              		.section	.text.uart_Close,"ax",%progbits
  18              		.align	2
  19              		.global	uart_Close
  20              		.code	16
  21              		.thumb_func
  22              		.type	uart_Close, %function
  23              	uart_Close:
  24              	.LFB33:
  25              		.file 1 "..\\..\\..\\uart.c"
   1:..\..\../uart.c **** /*
   2:..\..\../uart.c ****  * uart.h - msp430f5529 launchpad uart interface implementation
   3:..\..\../uart.c ****  *
   4:..\..\../uart.c ****  * Copyright (C) 2014 Texas Instruments Incorporated - http://www.ti.com/ 
   5:..\..\../uart.c ****  * 
   6:..\..\../uart.c ****  * 
   7:..\..\../uart.c ****  *  Redistribution and use in source and binary forms, with or without 
   8:..\..\../uart.c ****  *  modification, are permitted provided that the following conditions 
   9:..\..\../uart.c ****  *  are met:
  10:..\..\../uart.c ****  *
  11:..\..\../uart.c ****  *    Redistributions of source code must retain the above copyright 
  12:..\..\../uart.c ****  *    notice, this list of conditions and the following disclaimer.
  13:..\..\../uart.c ****  *
  14:..\..\../uart.c ****  *    Redistributions in binary form must reproduce the above copyright
  15:..\..\../uart.c ****  *    notice, this list of conditions and the following disclaimer in the 
  16:..\..\../uart.c ****  *    documentation and/or other materials provided with the   
  17:..\..\../uart.c ****  *    distribution.
  18:..\..\../uart.c ****  *
  19:..\..\../uart.c ****  *    Neither the name of Texas Instruments Incorporated nor the names of
  20:..\..\../uart.c ****  *    its contributors may be used to endorse or promote products derived
  21:..\..\../uart.c ****  *    from this software without specific prior written permission.
  22:..\..\../uart.c ****  *
  23:..\..\../uart.c ****  *  THIS SOFTWARE IS PROVIDED BY THE COPYRIGHT HOLDERS AND CONTRIBUTORS 
  24:..\..\../uart.c ****  *  "AS IS" AND ANY EXPRESS OR IMPLIED WARRANTIES, INCLUDING, BUT NOT 
  25:..\..\../uart.c ****  *  LIMITED TO, THE IMPLIED WARRANTIES OF MERCHANTABILITY AND FITNESS FOR
  26:..\..\../uart.c ****  *  A PARTICULAR PURPOSE ARE DISCLAIMED. IN NO EVENT SHALL THE COPYRIGHT 
  27:..\..\../uart.c ****  *  OWNER OR CONTRIBUTORS BE LIABLE FOR ANY DIRECT, INDIRECT, INCIDENTAL, 
  28:..\..\../uart.c ****  *  SPECIAL, EXEMPLARY, OR CONSEQUENTIAL DAMAGES (INCLUDING, BUT NOT 
  29:..\..\../uart.c ****  *  LIMITED TO, PROCUREMENT OF SUBSTITUTE GOODS OR SERVICES; LOSS OF USE,
  30:..\..\../uart.c ****  *  DATA, OR PROFITS; OR BUSINESS INTERRUPTION) HOWEVER CAUSED AND ON ANY
  31:..\..\../uart.c ****  *  THEORY OF LIABILITY, WHETHER IN CONTRACT, STRICT LIABILITY, OR TORT 
  32:..\..\../uart.c ****  *  (INCLUDING NEGLIGENCE OR OTHERWISE) ARISING IN ANY WAY OUT OF THE USE 
ARM GAS  C:\Users\X0217454\AppData\Local\Temp\cc8jVG5s.s 			page 2


  33:..\..\../uart.c ****  *  OF THIS SOFTWARE, EVEN IF ADVISED OF THE POSSIBILITY OF SUCH DAMAGE.
  34:..\..\../uart.c ****  *
  35:..\..\../uart.c **** */
  36:..\..\../uart.c **** 
  37:..\..\../uart.c **** #ifdef SL_IF_TYPE_UART
  38:..\..\../uart.c ****   
  39:..\..\../uart.c **** #include "datatypes.h"
  40:..\..\../uart.c **** #include "simplelink.h"
  41:..\..\../uart.c **** #include "board.h"
  42:..\..\../uart.c **** #include "UARTM.h"
  43:..\..\../uart.c **** #include <project.h>
  44:..\..\../uart.c ****     
  45:..\..\../uart.c **** #if(UARTM_INTERNAL_CLOCK_USED)
  46:..\..\../uart.c ****     #include "UARTM_IntClock.h"
  47:..\..\../uart.c **** #endif /* End UARTM_INTERNAL_CLOCK_USED */
  48:..\..\../uart.c **** 
  49:..\..\../uart.c **** extern BOOLEAN IntIsMasked;
  50:..\..\../uart.c **** 
  51:..\..\../uart.c **** int uart_Close(Fd_t fd)
  52:..\..\../uart.c **** {
  26              		.loc 1 52 0
  27              		.cfi_startproc
  28 0000 80B5     		push	{r7, lr}
  29              	.LCFI0:
  30              		.cfi_def_cfa_offset 8
  31              		.cfi_offset 7, -8
  32              		.cfi_offset 14, -4
  33 0002 82B0     		sub	sp, sp, #8
  34              	.LCFI1:
  35              		.cfi_def_cfa_offset 16
  36 0004 00AF     		add	r7, sp, #0
  37              	.LCFI2:
  38              		.cfi_def_cfa_register 7
  39 0006 7860     		str	r0, [r7, #4]
  53:..\..\../uart.c ****     UARTM_Stop();
  40              		.loc 1 53 0
  41 0008 FFF7FEFF 		bl	UARTM_Stop
  54:..\..\../uart.c ****     
  55:..\..\../uart.c ****     /* Disable WLAN Interrupt ... */
  56:..\..\../uart.c ****     CC3100_InterruptDisable();
  42              		.loc 1 56 0
  43 000c FFF7FEFF 		bl	CC3100_InterruptDisable
  57:..\..\../uart.c **** 
  58:..\..\../uart.c ****     return 0;
  44              		.loc 1 58 0
  45 0010 0023     		mov	r3, #0
  59:..\..\../uart.c **** }
  46              		.loc 1 59 0
  47 0012 181C     		mov	r0, r3
  48 0014 BD46     		mov	sp, r7
  49 0016 02B0     		add	sp, sp, #8
  50              		@ sp needed for prologue
  51 0018 80BD     		pop	{r7, pc}
  52              		.cfi_endproc
  53              	.LFE33:
  54              		.size	uart_Close, .-uart_Close
  55 001a C046     		.section	.text.uart_Open,"ax",%progbits
ARM GAS  C:\Users\X0217454\AppData\Local\Temp\cc8jVG5s.s 			page 3


  56              		.align	2
  57              		.global	uart_Open
  58              		.code	16
  59              		.thumb_func
  60              		.type	uart_Open, %function
  61              	uart_Open:
  62              	.LFB34:
  60:..\..\../uart.c **** 
  61:..\..\../uart.c **** 
  62:..\..\../uart.c **** Fd_t uart_Open(char *ifName, unsigned long flags)
  63:..\..\../uart.c **** {
  63              		.loc 1 63 0
  64              		.cfi_startproc
  65 0000 80B5     		push	{r7, lr}
  66              	.LCFI3:
  67              		.cfi_def_cfa_offset 8
  68              		.cfi_offset 7, -8
  69              		.cfi_offset 14, -4
  70 0002 82B0     		sub	sp, sp, #8
  71              	.LCFI4:
  72              		.cfi_def_cfa_offset 16
  73 0004 00AF     		add	r7, sp, #0
  74              	.LCFI5:
  75              		.cfi_def_cfa_register 7
  76 0006 7860     		str	r0, [r7, #4]
  77 0008 3960     		str	r1, [r7]
  64:..\..\../uart.c ****     UARTM_Start();
  78              		.loc 1 64 0
  79 000a FFF7FEFF 		bl	UARTM_Start
  65:..\..\../uart.c ****     
  66:..\..\../uart.c ****     /* 1 ms delay */
  67:..\..\../uart.c ****     CyDelay(1u);
  80              		.loc 1 67 0
  81 000e 0120     		mov	r0, #1
  82 0010 FFF7FEFF 		bl	CyDelay
  68:..\..\../uart.c **** 
  69:..\..\../uart.c ****     /* Enable WLAN interrupt */
  70:..\..\../uart.c ****     CC3100_InterruptEnable();
  83              		.loc 1 70 0
  84 0014 FFF7FEFF 		bl	CC3100_InterruptEnable
  71:..\..\../uart.c ****     
  72:..\..\../uart.c ****     /* Clear Tx Rx Buffers */
  73:..\..\../uart.c ****     UARTM_ClearTxBuffer();
  85              		.loc 1 73 0
  86 0018 FFF7FEFF 		bl	UARTM_ClearTxBuffer
  74:..\..\../uart.c ****     UARTM_ClearRxBuffer();
  87              		.loc 1 74 0
  88 001c FFF7FEFF 		bl	UARTM_ClearRxBuffer
  75:..\..\../uart.c **** 
  76:..\..\../uart.c ****     return NONOS_RET_OK;
  89              		.loc 1 76 0
  90 0020 0023     		mov	r3, #0
  77:..\..\../uart.c **** }
  91              		.loc 1 77 0
  92 0022 181C     		mov	r0, r3
  93 0024 BD46     		mov	sp, r7
  94 0026 02B0     		add	sp, sp, #8
ARM GAS  C:\Users\X0217454\AppData\Local\Temp\cc8jVG5s.s 			page 4


  95              		@ sp needed for prologue
  96 0028 80BD     		pop	{r7, pc}
  97              		.cfi_endproc
  98              	.LFE34:
  99              		.size	uart_Open, .-uart_Open
 100 002a C046     		.section	.text.uart_Read,"ax",%progbits
 101              		.align	2
 102              		.global	uart_Read
 103              		.code	16
 104              		.thumb_func
 105              		.type	uart_Read, %function
 106              	uart_Read:
 107              	.LFB35:
  78:..\..\../uart.c **** 
  79:..\..\../uart.c **** int uart_Read(Fd_t fd, unsigned char *pBuff, int len)
  80:..\..\../uart.c **** {
 108              		.loc 1 80 0
 109              		.cfi_startproc
 110 0000 80B5     		push	{r7, lr}
 111              	.LCFI6:
 112              		.cfi_def_cfa_offset 8
 113              		.cfi_offset 7, -8
 114              		.cfi_offset 14, -4
 115 0002 86B0     		sub	sp, sp, #24
 116              	.LCFI7:
 117              		.cfi_def_cfa_offset 32
 118 0004 00AF     		add	r7, sp, #0
 119              	.LCFI8:
 120              		.cfi_def_cfa_register 7
 121 0006 F860     		str	r0, [r7, #12]
 122 0008 B960     		str	r1, [r7, #8]
 123 000a 7A60     		str	r2, [r7, #4]
  81:..\..\../uart.c ****     int i=0;
 124              		.loc 1 81 0
 125 000c 0023     		mov	r3, #0
 126 000e 7B61     		str	r3, [r7, #20]
  82:..\..\../uart.c ****     uint8 ch;
  83:..\..\../uart.c **** 
  84:..\..\../uart.c ****     /* Disable Rx Interrupt */
  85:..\..\../uart.c ****     Rx_ISR_Disable();
 127              		.loc 1 85 0
 128 0010 FFF7FEFF 		bl	Rx_ISR_Disable
  86:..\..\../uart.c ****     
  87:..\..\../uart.c ****     /* wait till all remaining bytes are received */
  88:..\..\../uart.c ****     for(i=0; i < len; i++ )
 129              		.loc 1 88 0
 130 0014 0023     		mov	r3, #0
 131 0016 7B61     		str	r3, [r7, #20]
 132 0018 16E0     		b	.L6
 133              	.L10:
  89:..\..\../uart.c ****     {
  90:..\..\../uart.c ****        while(UARTM_ReadRxStatus() == 0);
 134              		.loc 1 90 0
 135 001a C046     		mov	r8, r8
 136              	.L7:
 137              		.loc 1 90 0 is_stmt 0 discriminator 1
 138 001c FFF7FEFF 		bl	UARTM_ReadRxStatus
ARM GAS  C:\Users\X0217454\AppData\Local\Temp\cc8jVG5s.s 			page 5


 139 0020 031C     		mov	r3, r0
 140 0022 002B     		cmp	r3, #0
 141 0024 FAD0     		beq	.L7
  91:..\..\../uart.c ****     
  92:..\..\../uart.c ****        ch = UARTM_GetByte();
 142              		.loc 1 92 0 is_stmt 1
 143 0026 FFF7FEFF 		bl	UARTM_GetByte
 144 002a 031C     		mov	r3, r0
 145 002c 1A1C     		mov	r2, r3
 146 002e 3B1C     		mov	r3, r7
 147 0030 1333     		add	r3, r3, #19
 148 0032 1A70     		strb	r2, [r3]
  93:..\..\../uart.c ****        pBuff[i] = ch;
 149              		.loc 1 93 0
 150 0034 7B69     		ldr	r3, [r7, #20]
 151 0036 BA68     		ldr	r2, [r7, #8]
 152 0038 D318     		add	r3, r2, r3
 153 003a 3A1C     		mov	r2, r7
 154 003c 1332     		add	r2, r2, #19
 155 003e 1278     		ldrb	r2, [r2]
 156 0040 1A70     		strb	r2, [r3]
  88:..\..\../uart.c ****     for(i=0; i < len; i++ )
 157              		.loc 1 88 0
 158 0042 7B69     		ldr	r3, [r7, #20]
 159 0044 0133     		add	r3, r3, #1
 160 0046 7B61     		str	r3, [r7, #20]
 161              	.L6:
  88:..\..\../uart.c ****     for(i=0; i < len; i++ )
 162              		.loc 1 88 0 is_stmt 0 discriminator 1
 163 0048 7A69     		ldr	r2, [r7, #20]
 164 004a 7B68     		ldr	r3, [r7, #4]
 165 004c 9A42     		cmp	r2, r3
 166 004e E4DB     		blt	.L10
  94:..\..\../uart.c ****     }
  95:..\..\../uart.c ****     
  96:..\..\../uart.c ****     /* Enable Rx Interrupt */
  97:..\..\../uart.c ****     Rx_ISR_Enable();
 167              		.loc 1 97 0 is_stmt 1
 168 0050 FFF7FEFF 		bl	Rx_ISR_Enable
  98:..\..\../uart.c **** 
  99:..\..\../uart.c ****     return len;
 169              		.loc 1 99 0
 170 0054 7B68     		ldr	r3, [r7, #4]
 100:..\..\../uart.c **** }
 171              		.loc 1 100 0
 172 0056 181C     		mov	r0, r3
 173 0058 BD46     		mov	sp, r7
 174 005a 06B0     		add	sp, sp, #24
 175              		@ sp needed for prologue
 176 005c 80BD     		pop	{r7, pc}
 177              		.cfi_endproc
 178              	.LFE35:
 179              		.size	uart_Read, .-uart_Read
 180 005e C046     		.section	.text.uart_Write,"ax",%progbits
 181              		.align	2
 182              		.global	uart_Write
 183              		.code	16
ARM GAS  C:\Users\X0217454\AppData\Local\Temp\cc8jVG5s.s 			page 6


 184              		.thumb_func
 185              		.type	uart_Write, %function
 186              	uart_Write:
 187              	.LFB36:
 101:..\..\../uart.c **** 
 102:..\..\../uart.c **** 
 103:..\..\../uart.c **** int uart_Write(Fd_t fd, unsigned char *pBuff, int len)
 104:..\..\../uart.c **** {
 188              		.loc 1 104 0
 189              		.cfi_startproc
 190 0000 80B5     		push	{r7, lr}
 191              	.LCFI9:
 192              		.cfi_def_cfa_offset 8
 193              		.cfi_offset 7, -8
 194              		.cfi_offset 14, -4
 195 0002 86B0     		sub	sp, sp, #24
 196              	.LCFI10:
 197              		.cfi_def_cfa_offset 32
 198 0004 00AF     		add	r7, sp, #0
 199              	.LCFI11:
 200              		.cfi_def_cfa_register 7
 201 0006 F860     		str	r0, [r7, #12]
 202 0008 B960     		str	r1, [r7, #8]
 203 000a 7A60     		str	r2, [r7, #4]
 105:..\..\../uart.c ****     int len_to_return = len;
 204              		.loc 1 105 0
 205 000c 7B68     		ldr	r3, [r7, #4]
 206 000e 7B61     		str	r3, [r7, #20]
 106:..\..\../uart.c ****     CyDelay(10u);
 207              		.loc 1 106 0
 208 0010 0A20     		mov	r0, #10
 209 0012 FFF7FEFF 		bl	CyDelay
 107:..\..\../uart.c **** 
 108:..\..\../uart.c ****     while (len)
 210              		.loc 1 108 0
 211 0016 0AE0     		b	.L12
 212              	.L13:
 109:..\..\../uart.c ****     {
 110:..\..\../uart.c ****         UARTM_PutChar(*pBuff);
 213              		.loc 1 110 0
 214 0018 BB68     		ldr	r3, [r7, #8]
 215 001a 1B78     		ldrb	r3, [r3]
 216 001c 181C     		mov	r0, r3
 217 001e FFF7FEFF 		bl	UARTM_PutChar
 111:..\..\../uart.c ****         len--;
 218              		.loc 1 111 0
 219 0022 7B68     		ldr	r3, [r7, #4]
 220 0024 013B     		sub	r3, r3, #1
 221 0026 7B60     		str	r3, [r7, #4]
 112:..\..\../uart.c ****         pBuff++;
 222              		.loc 1 112 0
 223 0028 BB68     		ldr	r3, [r7, #8]
 224 002a 0133     		add	r3, r3, #1
 225 002c BB60     		str	r3, [r7, #8]
 226              	.L12:
 108:..\..\../uart.c ****     while (len)
 227              		.loc 1 108 0 discriminator 1
ARM GAS  C:\Users\X0217454\AppData\Local\Temp\cc8jVG5s.s 			page 7


 228 002e 7B68     		ldr	r3, [r7, #4]
 229 0030 002B     		cmp	r3, #0
 230 0032 F1D1     		bne	.L13
 113:..\..\../uart.c ****     }
 114:..\..\../uart.c ****     return len_to_return;
 231              		.loc 1 114 0
 232 0034 7B69     		ldr	r3, [r7, #20]
 115:..\..\../uart.c **** }
 233              		.loc 1 115 0
 234 0036 181C     		mov	r0, r3
 235 0038 BD46     		mov	sp, r7
 236 003a 06B0     		add	sp, sp, #24
 237              		@ sp needed for prologue
 238 003c 80BD     		pop	{r7, pc}
 239              		.cfi_endproc
 240              	.LFE36:
 241              		.size	uart_Write, .-uart_Write
 242 003e C046     		.text
 243              	.Letext0:
 244              		.file 2 "..\\..\\../uart.h"
 245              		.file 3 "./Generated_Source/PSoC4/cytypes.h"