ARM GAS  C:\Users\X0217454\AppData\Local\Temp\ccwJRGby.s 			page 1


   1              		.cpu cortex-m0
   2              		.fpu softvfp
   3              		.eabi_attribute 20, 1
   4              		.eabi_attribute 21, 1
   5              		.eabi_attribute 23, 3
   6              		.eabi_attribute 24, 1
   7              		.eabi_attribute 25, 1
   8              		.eabi_attribute 26, 1
   9              		.eabi_attribute 30, 6
  10              		.eabi_attribute 34, 0
  11              		.eabi_attribute 18, 4
  12              		.code	16
  13              		.file	"wlan.c"
  14              		.text
  15              	.Ltext0:
  16              		.cfi_sections	.debug_frame
  17              		.section	.text.sl_WlanConnect,"ax",%progbits
  18              		.align	2
  19              		.global	sl_WlanConnect
  20              		.code	16
  21              		.thumb_func
  22              		.type	sl_WlanConnect, %function
  23              	sl_WlanConnect:
  24              	.LFB0:
  25              		.file 1 "..\\..\\..\\..\\..\\simplelink\\source\\wlan.c"
   1:..\..\..\..\..\simplelink\source/wlan.c **** /*
   2:..\..\..\..\..\simplelink\source/wlan.c ****  * wlan.c - CC31xx/CC32xx Host Driver Implementation
   3:..\..\..\..\..\simplelink\source/wlan.c ****  *
   4:..\..\..\..\..\simplelink\source/wlan.c ****  * Copyright (C) 2014 Texas Instruments Incorporated - http://www.ti.com/ 
   5:..\..\..\..\..\simplelink\source/wlan.c ****  * 
   6:..\..\..\..\..\simplelink\source/wlan.c ****  * 
   7:..\..\..\..\..\simplelink\source/wlan.c ****  *  Redistribution and use in source and binary forms, with or without 
   8:..\..\..\..\..\simplelink\source/wlan.c ****  *  modification, are permitted provided that the following conditions 
   9:..\..\..\..\..\simplelink\source/wlan.c ****  *  are met:
  10:..\..\..\..\..\simplelink\source/wlan.c ****  *
  11:..\..\..\..\..\simplelink\source/wlan.c ****  *    Redistributions of source code must retain the above copyright 
  12:..\..\..\..\..\simplelink\source/wlan.c ****  *    notice, this list of conditions and the following disclaimer.
  13:..\..\..\..\..\simplelink\source/wlan.c ****  *
  14:..\..\..\..\..\simplelink\source/wlan.c ****  *    Redistributions in binary form must reproduce the above copyright
  15:..\..\..\..\..\simplelink\source/wlan.c ****  *    notice, this list of conditions and the following disclaimer in the 
  16:..\..\..\..\..\simplelink\source/wlan.c ****  *    documentation and/or other materials provided with the   
  17:..\..\..\..\..\simplelink\source/wlan.c ****  *    distribution.
  18:..\..\..\..\..\simplelink\source/wlan.c ****  *
  19:..\..\..\..\..\simplelink\source/wlan.c ****  *    Neither the name of Texas Instruments Incorporated nor the names of
  20:..\..\..\..\..\simplelink\source/wlan.c ****  *    its contributors may be used to endorse or promote products derived
  21:..\..\..\..\..\simplelink\source/wlan.c ****  *    from this software without specific prior written permission.
  22:..\..\..\..\..\simplelink\source/wlan.c ****  *
  23:..\..\..\..\..\simplelink\source/wlan.c ****  *  THIS SOFTWARE IS PROVIDED BY THE COPYRIGHT HOLDERS AND CONTRIBUTORS 
  24:..\..\..\..\..\simplelink\source/wlan.c ****  *  "AS IS" AND ANY EXPRESS OR IMPLIED WARRANTIES, INCLUDING, BUT NOT 
  25:..\..\..\..\..\simplelink\source/wlan.c ****  *  LIMITED TO, THE IMPLIED WARRANTIES OF MERCHANTABILITY AND FITNESS FOR
  26:..\..\..\..\..\simplelink\source/wlan.c ****  *  A PARTICULAR PURPOSE ARE DISCLAIMED. IN NO EVENT SHALL THE COPYRIGHT 
  27:..\..\..\..\..\simplelink\source/wlan.c ****  *  OWNER OR CONTRIBUTORS BE LIABLE FOR ANY DIRECT, INDIRECT, INCIDENTAL, 
  28:..\..\..\..\..\simplelink\source/wlan.c ****  *  SPECIAL, EXEMPLARY, OR CONSEQUENTIAL DAMAGES (INCLUDING, BUT NOT 
  29:..\..\..\..\..\simplelink\source/wlan.c ****  *  LIMITED TO, PROCUREMENT OF SUBSTITUTE GOODS OR SERVICES; LOSS OF USE,
  30:..\..\..\..\..\simplelink\source/wlan.c ****  *  DATA, OR PROFITS; OR BUSINESS INTERRUPTION) HOWEVER CAUSED AND ON ANY
  31:..\..\..\..\..\simplelink\source/wlan.c ****  *  THEORY OF LIABILITY, WHETHER IN CONTRACT, STRICT LIABILITY, OR TORT 
  32:..\..\..\..\..\simplelink\source/wlan.c ****  *  (INCLUDING NEGLIGENCE OR OTHERWISE) ARISING IN ANY WAY OUT OF THE USE 
ARM GAS  C:\Users\X0217454\AppData\Local\Temp\ccwJRGby.s 			page 2


  33:..\..\..\..\..\simplelink\source/wlan.c ****  *  OF THIS SOFTWARE, EVEN IF ADVISED OF THE POSSIBILITY OF SUCH DAMAGE.
  34:..\..\..\..\..\simplelink\source/wlan.c ****  *
  35:..\..\..\..\..\simplelink\source/wlan.c **** */
  36:..\..\..\..\..\simplelink\source/wlan.c **** 
  37:..\..\..\..\..\simplelink\source/wlan.c **** /*****************************************************************************
  38:..\..\..\..\..\simplelink\source/wlan.c **** 
  39:..\..\..\..\..\simplelink\source/wlan.c ****     API Prototypes
  40:..\..\..\..\..\simplelink\source/wlan.c **** 
  41:..\..\..\..\..\simplelink\source/wlan.c ****  *****************************************************************************/
  42:..\..\..\..\..\simplelink\source/wlan.c **** #include "datatypes.h"
  43:..\..\..\..\..\simplelink\source/wlan.c **** #include "simplelink.h"
  44:..\..\..\..\..\simplelink\source/wlan.c **** #include "protocol.h"
  45:..\..\..\..\..\simplelink\source/wlan.c **** #include "driver.h"
  46:..\..\..\..\..\simplelink\source/wlan.c **** 
  47:..\..\..\..\..\simplelink\source/wlan.c **** /*****************************************************************************
  48:..\..\..\..\..\simplelink\source/wlan.c **** 
  49:..\..\..\..\..\simplelink\source/wlan.c **** *****************************************************************************/
  50:..\..\..\..\..\simplelink\source/wlan.c **** 
  51:..\..\..\..\..\simplelink\source/wlan.c **** #define MAX_SSID_LEN        32
  52:..\..\..\..\..\simplelink\source/wlan.c **** #define MAX_KEY_LEN         63
  53:..\..\..\..\..\simplelink\source/wlan.c **** #define MAX_USER_LEN        32
  54:..\..\..\..\..\simplelink\source/wlan.c **** #define MAX_ANON_USER_LEN   32
  55:..\..\..\..\..\simplelink\source/wlan.c **** 
  56:..\..\..\..\..\simplelink\source/wlan.c **** #define MAX_SMART_CONFIG_KEY    16
  57:..\..\..\..\..\simplelink\source/wlan.c **** 
  58:..\..\..\..\..\simplelink\source/wlan.c **** typedef struct 
  59:..\..\..\..\..\simplelink\source/wlan.c **** {
  60:..\..\..\..\..\simplelink\source/wlan.c ****     _WlanConnectEapCommand_t    Args;
  61:..\..\..\..\..\simplelink\source/wlan.c ****     char                        Strings[MAX_SSID_LEN + MAX_KEY_LEN + MAX_USER_LEN + MAX_ANON_USER_L
  62:..\..\..\..\..\simplelink\source/wlan.c **** }_WlanConnectCmd_t;
  63:..\..\..\..\..\simplelink\source/wlan.c **** 
  64:..\..\..\..\..\simplelink\source/wlan.c **** typedef union
  65:..\..\..\..\..\simplelink\source/wlan.c **** {
  66:..\..\..\..\..\simplelink\source/wlan.c **** 	_WlanConnectCmd_t   Cmd;
  67:..\..\..\..\..\simplelink\source/wlan.c **** 	_BasicResponse_t	Rsp;
  68:..\..\..\..\..\simplelink\source/wlan.c **** }_SlWlanConnectMsg_u;
  69:..\..\..\..\..\simplelink\source/wlan.c **** 
  70:..\..\..\..\..\simplelink\source/wlan.c **** /*****************************************************************************
  71:..\..\..\..\..\simplelink\source/wlan.c ****   sl_WlanConnect
  72:..\..\..\..\..\simplelink\source/wlan.c **** *****************************************************************************/
  73:..\..\..\..\..\simplelink\source/wlan.c **** #if _SL_INCLUDE_FUNC(sl_WlanConnect)
  74:..\..\..\..\..\simplelink\source/wlan.c **** int sl_WlanConnect(char* pName, int NameLen, unsigned char *pMacAddr, SlSecParams_t* pSecParams , S
  75:..\..\..\..\..\simplelink\source/wlan.c **** {
  26              		.loc 1 75 0
  27              		.cfi_startproc
  28 0000 80B5     		push	{r7, lr}
  29              	.LCFI0:
  30              		.cfi_def_cfa_offset 8
  31              		.cfi_offset 7, -8
  32              		.cfi_offset 14, -4
  33 0002 B2B0     		sub	sp, sp, #200
  34              	.LCFI1:
  35              		.cfi_def_cfa_offset 208
  36 0004 00AF     		add	r7, sp, #0
  37              	.LCFI2:
  38              		.cfi_def_cfa_register 7
  39 0006 F860     		str	r0, [r7, #12]
ARM GAS  C:\Users\X0217454\AppData\Local\Temp\ccwJRGby.s 			page 3


  40 0008 B960     		str	r1, [r7, #8]
  41 000a 7A60     		str	r2, [r7, #4]
  42 000c 3B60     		str	r3, [r7]
  76:..\..\..\..\..\simplelink\source/wlan.c ****     _SlWlanConnectMsg_u    Msg = {0};
  43              		.loc 1 76 0
  44 000e 3B1C     		mov	r3, r7
  45 0010 1433     		add	r3, r3, #20
  46 0012 1A1C     		mov	r2, r3
  47 0014 B023     		mov	r3, #176
  48 0016 101C     		mov	r0, r2
  49 0018 0021     		mov	r1, #0
  50 001a 1A1C     		mov	r2, r3
  51 001c FFF7FEFF 		bl	memset
  77:..\..\..\..\..\simplelink\source/wlan.c ****     _SlCmdCtrl_t           CmdCtrl = {0};
  52              		.loc 1 77 0
  53 0020 3B1C     		mov	r3, r7
  54 0022 1033     		add	r3, r3, #16
  55 0024 0022     		mov	r2, #0
  56 0026 1A60     		str	r2, [r3]
  78:..\..\..\..\..\simplelink\source/wlan.c **** 
  79:..\..\..\..\..\simplelink\source/wlan.c ****     CmdCtrl.TxDescLen = 0;/* init */
  57              		.loc 1 79 0
  58 0028 3B1C     		mov	r3, r7
  59 002a 1033     		add	r3, r3, #16
  60 002c 0022     		mov	r2, #0
  61 002e 9A70     		strb	r2, [r3, #2]
  80:..\..\..\..\..\simplelink\source/wlan.c ****     CmdCtrl.RxDescLen = sizeof(_BasicResponse_t);
  62              		.loc 1 80 0
  63 0030 3B1C     		mov	r3, r7
  64 0032 1033     		add	r3, r3, #16
  65 0034 0422     		mov	r2, #4
  66 0036 DA70     		strb	r2, [r3, #3]
  81:..\..\..\..\..\simplelink\source/wlan.c **** 
  82:..\..\..\..\..\simplelink\source/wlan.c ****     /* verify SSID length */
  83:..\..\..\..\..\simplelink\source/wlan.c ****     VERIFY_PROTOCOL(NameLen <= MAX_SSID_LEN);
  67              		.loc 1 83 0
  68 0038 BB68     		ldr	r3, [r7, #8]
  69 003a 202B     		cmp	r3, #32
  70 003c 00DD     		ble	.L2
  71              	.L3:
  72              		.loc 1 83 0 is_stmt 0 discriminator 1
  73 003e FEE7     		b	.L3
  74              	.L2:
  84:..\..\..\..\..\simplelink\source/wlan.c ****     /* update SSID length */
  85:..\..\..\..\..\simplelink\source/wlan.c ****     Msg.Cmd.Args.Common.SsidLen = NameLen;
  75              		.loc 1 85 0 is_stmt 1
  76 0040 BB68     		ldr	r3, [r7, #8]
  77 0042 DAB2     		uxtb	r2, r3
  78 0044 3B1C     		mov	r3, r7
  79 0046 1433     		add	r3, r3, #20
  80 0048 5A70     		strb	r2, [r3, #1]
  86:..\..\..\..\..\simplelink\source/wlan.c **** 
  87:..\..\..\..\..\simplelink\source/wlan.c ****     /* Profile with no security */
  88:..\..\..\..\..\simplelink\source/wlan.c ****     /* Enterprise security profile */
  89:..\..\..\..\..\simplelink\source/wlan.c ****     if (NULL != pSecExtParams)
  81              		.loc 1 89 0
  82 004a D020     		mov	r0, #208
ARM GAS  C:\Users\X0217454\AppData\Local\Temp\ccwJRGby.s 			page 4


  83 004c C019     		add	r0, r0, r7
  84 004e 0368     		ldr	r3, [r0]
  85 0050 002B     		cmp	r3, #0
  86 0052 00D1     		bne	.LCB56
  87 0054 E9E0     		b	.L4	@long jump
  88              	.LCB56:
  90:..\..\..\..\..\simplelink\source/wlan.c ****     {
  91:..\..\..\..\..\simplelink\source/wlan.c ****         /* Update command opcode */
  92:..\..\..\..\..\simplelink\source/wlan.c ****         CmdCtrl.Opcode = SL_OPCODE_WLAN_WLANCONNECTEAPCOMMAND;
  89              		.loc 1 92 0
  90 0056 3B1C     		mov	r3, r7
  91 0058 1033     		add	r3, r3, #16
  92 005a BB4A     		ldr	r2, .L24
  93 005c 1A80     		strh	r2, [r3]
  93:..\..\..\..\..\simplelink\source/wlan.c ****         CmdCtrl.TxDescLen += sizeof(_WlanConnectEapCommand_t);
  94              		.loc 1 93 0
  95 005e 3B1C     		mov	r3, r7
  96 0060 1033     		add	r3, r3, #16
  97 0062 9B78     		ldrb	r3, [r3, #2]
  98 0064 1033     		add	r3, r3, #16
  99 0066 DAB2     		uxtb	r2, r3
 100 0068 3B1C     		mov	r3, r7
 101 006a 1033     		add	r3, r3, #16
 102 006c 9A70     		strb	r2, [r3, #2]
  94:..\..\..\..\..\simplelink\source/wlan.c ****         /* copy SSID */
  95:..\..\..\..\..\simplelink\source/wlan.c ****         sl_Memcpy(EAP_SSID_STRING(&Msg), pName, NameLen);
 103              		.loc 1 95 0
 104 006e BB68     		ldr	r3, [r7, #8]
 105 0070 3A1C     		mov	r2, r7
 106 0072 1432     		add	r2, r2, #20
 107 0074 111C     		mov	r1, r2
 108 0076 1031     		add	r1, r1, #16
 109 0078 FA68     		ldr	r2, [r7, #12]
 110 007a 081C     		mov	r0, r1
 111 007c 111C     		mov	r1, r2
 112 007e 1A1C     		mov	r2, r3
 113 0080 FFF7FEFF 		bl	memcpy
  96:..\..\..\..\..\simplelink\source/wlan.c ****         CmdCtrl.TxDescLen += NameLen;
 114              		.loc 1 96 0
 115 0084 3B1C     		mov	r3, r7
 116 0086 1033     		add	r3, r3, #16
 117 0088 9A78     		ldrb	r2, [r3, #2]
 118 008a BB68     		ldr	r3, [r7, #8]
 119 008c DBB2     		uxtb	r3, r3
 120 008e D318     		add	r3, r2, r3
 121 0090 DAB2     		uxtb	r2, r3
 122 0092 3B1C     		mov	r3, r7
 123 0094 1033     		add	r3, r3, #16
 124 0096 9A70     		strb	r2, [r3, #2]
  97:..\..\..\..\..\simplelink\source/wlan.c ****         /* Copy password if supplied */
  98:..\..\..\..\..\simplelink\source/wlan.c ****         if ((NULL != pSecParams) && (pSecParams->KeyLen > 0))
 125              		.loc 1 98 0
 126 0098 3B68     		ldr	r3, [r7]
 127 009a 002B     		cmp	r3, #0
 128 009c 33D0     		beq	.L5
 129              		.loc 1 98 0 is_stmt 0 discriminator 1
 130 009e 3B68     		ldr	r3, [r7]
ARM GAS  C:\Users\X0217454\AppData\Local\Temp\ccwJRGby.s 			page 5


 131 00a0 1B7A     		ldrb	r3, [r3, #8]
 132 00a2 002B     		cmp	r3, #0
 133 00a4 2FD0     		beq	.L5
  99:..\..\..\..\..\simplelink\source/wlan.c ****     {
 100:..\..\..\..\..\simplelink\source/wlan.c ****             /* update security type */
 101:..\..\..\..\..\simplelink\source/wlan.c **** 		Msg.Cmd.Args.Common.SecType = pSecParams->Type;
 134              		.loc 1 101 0 is_stmt 1
 135 00a6 3B68     		ldr	r3, [r7]
 136 00a8 1A78     		ldrb	r2, [r3]
 137 00aa 3B1C     		mov	r3, r7
 138 00ac 1433     		add	r3, r3, #20
 139 00ae 1A70     		strb	r2, [r3]
 102:..\..\..\..\..\simplelink\source/wlan.c ****             /* verify key length */
 103:..\..\..\..\..\simplelink\source/wlan.c **** 			if (pSecParams->KeyLen > MAX_KEY_LEN)
 140              		.loc 1 103 0
 141 00b0 3B68     		ldr	r3, [r7]
 142 00b2 1B7A     		ldrb	r3, [r3, #8]
 143 00b4 3F2B     		cmp	r3, #63
 144 00b6 01D9     		bls	.L6
 104:..\..\..\..\..\simplelink\source/wlan.c **** 			{
 105:..\..\..\..\..\simplelink\source/wlan.c **** 				return SL_INVALPARAM;
 145              		.loc 1 105 0
 146 00b8 A44B     		ldr	r3, .L24+4
 147 00ba 40E1     		b	.L23
 148              	.L6:
 106:..\..\..\..\..\simplelink\source/wlan.c **** 			}
 107:..\..\..\..\..\simplelink\source/wlan.c ****             /* update key length */
 108:..\..\..\..\..\simplelink\source/wlan.c **** 		Msg.Cmd.Args.Common.PasswordLen = pSecParams->KeyLen;
 149              		.loc 1 108 0
 150 00bc 3B68     		ldr	r3, [r7]
 151 00be 1A7A     		ldrb	r2, [r3, #8]
 152 00c0 3B1C     		mov	r3, r7
 153 00c2 1433     		add	r3, r3, #20
 154 00c4 1A72     		strb	r2, [r3, #8]
 109:..\..\..\..\..\simplelink\source/wlan.c **** 			ARG_CHECK_PTR(pSecParams->Key);
 155              		.loc 1 109 0
 156 00c6 3B68     		ldr	r3, [r7]
 157 00c8 5B68     		ldr	r3, [r3, #4]
 158 00ca 002B     		cmp	r3, #0
 159 00cc 00D1     		bne	.L8
 160              	.L9:
 161              		.loc 1 109 0 is_stmt 0 discriminator 1
 162 00ce FEE7     		b	.L9
 163              	.L8:
 110:..\..\..\..\..\simplelink\source/wlan.c ****             /* copy key		 */
 111:..\..\..\..\..\simplelink\source/wlan.c **** 			sl_Memcpy(EAP_PASSWORD_STRING(&Msg), pSecParams->Key, pSecParams->KeyLen);
 164              		.loc 1 111 0 is_stmt 1
 165 00d0 3B1C     		mov	r3, r7
 166 00d2 1433     		add	r3, r3, #20
 167 00d4 5B78     		ldrb	r3, [r3, #1]
 168 00d6 1033     		add	r3, r3, #16
 169 00d8 3A1C     		mov	r2, r7
 170 00da 1432     		add	r2, r2, #20
 171 00dc D118     		add	r1, r2, r3
 172 00de 3B68     		ldr	r3, [r7]
 173 00e0 5A68     		ldr	r2, [r3, #4]
 174 00e2 3B68     		ldr	r3, [r7]
ARM GAS  C:\Users\X0217454\AppData\Local\Temp\ccwJRGby.s 			page 6


 175 00e4 1B7A     		ldrb	r3, [r3, #8]
 176 00e6 081C     		mov	r0, r1
 177 00e8 111C     		mov	r1, r2
 178 00ea 1A1C     		mov	r2, r3
 179 00ec FFF7FEFF 		bl	memcpy
 112:..\..\..\..\..\simplelink\source/wlan.c **** 			CmdCtrl.TxDescLen += pSecParams->KeyLen;
 180              		.loc 1 112 0
 181 00f0 3B1C     		mov	r3, r7
 182 00f2 1033     		add	r3, r3, #16
 183 00f4 9A78     		ldrb	r2, [r3, #2]
 184 00f6 3B68     		ldr	r3, [r7]
 185 00f8 1B7A     		ldrb	r3, [r3, #8]
 186 00fa D318     		add	r3, r2, r3
 187 00fc DAB2     		uxtb	r2, r3
 188 00fe 3B1C     		mov	r3, r7
 189 0100 1033     		add	r3, r3, #16
 190 0102 9A70     		strb	r2, [r3, #2]
 191 0104 03E0     		b	.L10
 192              	.L5:
 113:..\..\..\..\..\simplelink\source/wlan.c **** 		}
 114:..\..\..\..\..\simplelink\source/wlan.c **** 		else
 115:..\..\..\..\..\simplelink\source/wlan.c **** 		{
 116:..\..\..\..\..\simplelink\source/wlan.c ****             Msg.Cmd.Args.Common.PasswordLen = 0;
 193              		.loc 1 116 0
 194 0106 3B1C     		mov	r3, r7
 195 0108 1433     		add	r3, r3, #20
 196 010a 0022     		mov	r2, #0
 197 010c 1A72     		strb	r2, [r3, #8]
 198              	.L10:
 117:..\..\..\..\..\simplelink\source/wlan.c ****     }
 118:..\..\..\..\..\simplelink\source/wlan.c **** 
 119:..\..\..\..\..\simplelink\source/wlan.c ****         ARG_CHECK_PTR(pSecExtParams);
 199              		.loc 1 119 0
 200 010e D021     		mov	r1, #208
 201 0110 C919     		add	r1, r1, r7
 202 0112 0B68     		ldr	r3, [r1]
 203 0114 002B     		cmp	r3, #0
 204 0116 00D1     		bne	.L11
 205              	.L12:
 206              		.loc 1 119 0 is_stmt 0 discriminator 1
 207 0118 FEE7     		b	.L12
 208              	.L11:
 120:..\..\..\..\..\simplelink\source/wlan.c ****         /* Update Eap bitmask */
 121:..\..\..\..\..\simplelink\source/wlan.c ****         Msg.Cmd.Args.EapBitmask = pSecExtParams->EapMethod;
 209              		.loc 1 121 0 is_stmt 1
 210 011a D022     		mov	r2, #208
 211 011c D219     		add	r2, r2, r7
 212 011e 1368     		ldr	r3, [r2]
 213 0120 1A69     		ldr	r2, [r3, #16]
 214 0122 3B1C     		mov	r3, r7
 215 0124 1433     		add	r3, r3, #20
 216 0126 DA60     		str	r2, [r3, #12]
 122:..\..\..\..\..\simplelink\source/wlan.c ****         /* Update Certificate file ID index - currently not supported */
 123:..\..\..\..\..\simplelink\source/wlan.c ****         Msg.Cmd.Args.CertIndex = pSecExtParams->CertIndex;
 217              		.loc 1 123 0
 218 0128 D020     		mov	r0, #208
 219 012a C019     		add	r0, r0, r7
ARM GAS  C:\Users\X0217454\AppData\Local\Temp\ccwJRGby.s 			page 7


 220 012c 0368     		ldr	r3, [r0]
 221 012e 5A7B     		ldrb	r2, [r3, #13]
 222 0130 3B1C     		mov	r3, r7
 223 0132 1433     		add	r3, r3, #20
 224 0134 DA72     		strb	r2, [r3, #11]
 124:..\..\..\..\..\simplelink\source/wlan.c ****         /* verify user length */
 125:..\..\..\..\..\simplelink\source/wlan.c **** 		if (pSecExtParams->UserLen > MAX_USER_LEN)
 225              		.loc 1 125 0
 226 0136 D021     		mov	r1, #208
 227 0138 C919     		add	r1, r1, r7
 228 013a 0B68     		ldr	r3, [r1]
 229 013c 1B79     		ldrb	r3, [r3, #4]
 230 013e 202B     		cmp	r3, #32
 231 0140 01D9     		bls	.L13
 126:..\..\..\..\..\simplelink\source/wlan.c **** 		{
 127:..\..\..\..\..\simplelink\source/wlan.c **** 			return SL_INVALPARAM;
 232              		.loc 1 127 0
 233 0142 824B     		ldr	r3, .L24+4
 234 0144 FBE0     		b	.L23
 235              	.L13:
 128:..\..\..\..\..\simplelink\source/wlan.c **** 		}
 129:..\..\..\..\..\simplelink\source/wlan.c ****         Msg.Cmd.Args.UserLen = pSecExtParams->UserLen;
 236              		.loc 1 129 0
 237 0146 D022     		mov	r2, #208
 238 0148 D219     		add	r2, r2, r7
 239 014a 1368     		ldr	r3, [r2]
 240 014c 1A79     		ldrb	r2, [r3, #4]
 241 014e 3B1C     		mov	r3, r7
 242 0150 1433     		add	r3, r3, #20
 243 0152 5A72     		strb	r2, [r3, #9]
 130:..\..\..\..\..\simplelink\source/wlan.c ****         /* copy user name (identity) */
 131:..\..\..\..\..\simplelink\source/wlan.c ****         if(pSecExtParams->UserLen > 0)
 244              		.loc 1 131 0
 245 0154 D020     		mov	r0, #208
 246 0156 C019     		add	r0, r0, r7
 247 0158 0368     		ldr	r3, [r0]
 248 015a 1B79     		ldrb	r3, [r3, #4]
 249 015c 002B     		cmp	r3, #0
 250 015e 24D0     		beq	.L14
 132:..\..\..\..\..\simplelink\source/wlan.c ****         {
 133:..\..\..\..\..\simplelink\source/wlan.c ****             sl_Memcpy(EAP_USER_STRING(&Msg), pSecExtParams->User, pSecExtParams->UserLen);
 251              		.loc 1 133 0
 252 0160 3B1C     		mov	r3, r7
 253 0162 1433     		add	r3, r3, #20
 254 0164 5B78     		ldrb	r3, [r3, #1]
 255 0166 1A1C     		mov	r2, r3
 256 0168 3B1C     		mov	r3, r7
 257 016a 1433     		add	r3, r3, #20
 258 016c 1B7A     		ldrb	r3, [r3, #8]
 259 016e D318     		add	r3, r2, r3
 260 0170 1033     		add	r3, r3, #16
 261 0172 3A1C     		mov	r2, r7
 262 0174 1432     		add	r2, r2, #20
 263 0176 D118     		add	r1, r2, r3
 264 0178 D022     		mov	r2, #208
 265 017a D219     		add	r2, r2, r7
 266 017c 1368     		ldr	r3, [r2]
ARM GAS  C:\Users\X0217454\AppData\Local\Temp\ccwJRGby.s 			page 8


 267 017e 1A68     		ldr	r2, [r3]
 268 0180 D020     		mov	r0, #208
 269 0182 C019     		add	r0, r0, r7
 270 0184 0368     		ldr	r3, [r0]
 271 0186 1B79     		ldrb	r3, [r3, #4]
 272 0188 081C     		mov	r0, r1
 273 018a 111C     		mov	r1, r2
 274 018c 1A1C     		mov	r2, r3
 275 018e FFF7FEFF 		bl	memcpy
 134:..\..\..\..\..\simplelink\source/wlan.c ****             CmdCtrl.TxDescLen += pSecExtParams->UserLen;
 276              		.loc 1 134 0
 277 0192 3B1C     		mov	r3, r7
 278 0194 1033     		add	r3, r3, #16
 279 0196 9A78     		ldrb	r2, [r3, #2]
 280 0198 D021     		mov	r1, #208
 281 019a C919     		add	r1, r1, r7
 282 019c 0B68     		ldr	r3, [r1]
 283 019e 1B79     		ldrb	r3, [r3, #4]
 284 01a0 D318     		add	r3, r2, r3
 285 01a2 DAB2     		uxtb	r2, r3
 286 01a4 3B1C     		mov	r3, r7
 287 01a6 1033     		add	r3, r3, #16
 288 01a8 9A70     		strb	r2, [r3, #2]
 289              	.L14:
 135:..\..\..\..\..\simplelink\source/wlan.c ****         }
 136:..\..\..\..\..\simplelink\source/wlan.c ****         /* verify Anonymous user length  */
 137:..\..\..\..\..\simplelink\source/wlan.c **** 		if (pSecExtParams->AnonUserLen > MAX_ANON_USER_LEN)
 290              		.loc 1 137 0
 291 01aa D022     		mov	r2, #208
 292 01ac D219     		add	r2, r2, r7
 293 01ae 1368     		ldr	r3, [r2]
 294 01b0 1B7B     		ldrb	r3, [r3, #12]
 295 01b2 202B     		cmp	r3, #32
 296 01b4 01D9     		bls	.L15
 138:..\..\..\..\..\simplelink\source/wlan.c **** 		{
 139:..\..\..\..\..\simplelink\source/wlan.c **** 			return SL_INVALPARAM;
 297              		.loc 1 139 0
 298 01b6 654B     		ldr	r3, .L24+4
 299 01b8 C1E0     		b	.L23
 300              	.L15:
 140:..\..\..\..\..\simplelink\source/wlan.c **** 		}
 141:..\..\..\..\..\simplelink\source/wlan.c ****         Msg.Cmd.Args.AnonUserLen = pSecExtParams->AnonUserLen;
 301              		.loc 1 141 0
 302 01ba D020     		mov	r0, #208
 303 01bc C019     		add	r0, r0, r7
 304 01be 0368     		ldr	r3, [r0]
 305 01c0 1A7B     		ldrb	r2, [r3, #12]
 306 01c2 3B1C     		mov	r3, r7
 307 01c4 1433     		add	r3, r3, #20
 308 01c6 9A72     		strb	r2, [r3, #10]
 142:..\..\..\..\..\simplelink\source/wlan.c ****         /* copy Anonymous user */
 143:..\..\..\..\..\simplelink\source/wlan.c ****         if(pSecExtParams->AnonUserLen > 0)
 309              		.loc 1 143 0
 310 01c8 D021     		mov	r1, #208
 311 01ca C919     		add	r1, r1, r7
 312 01cc 0B68     		ldr	r3, [r1]
 313 01ce 1B7B     		ldrb	r3, [r3, #12]
ARM GAS  C:\Users\X0217454\AppData\Local\Temp\ccwJRGby.s 			page 9


 314 01d0 002B     		cmp	r3, #0
 315 01d2 00D1     		bne	.LCB268
 316 01d4 84E0     		b	.L16	@long jump
 317              	.LCB268:
 144:..\..\..\..\..\simplelink\source/wlan.c ****         {
 145:..\..\..\..\..\simplelink\source/wlan.c ****             sl_Memcpy(EAP_ANON_USER_STRING(&Msg), pSecExtParams->AnonUser, pSecExtParams->AnonUserL
 318              		.loc 1 145 0
 319 01d6 3B1C     		mov	r3, r7
 320 01d8 1433     		add	r3, r3, #20
 321 01da 5B78     		ldrb	r3, [r3, #1]
 322 01dc 1A1C     		mov	r2, r3
 323 01de 3B1C     		mov	r3, r7
 324 01e0 1433     		add	r3, r3, #20
 325 01e2 1B7A     		ldrb	r3, [r3, #8]
 326 01e4 D218     		add	r2, r2, r3
 327 01e6 3B1C     		mov	r3, r7
 328 01e8 1433     		add	r3, r3, #20
 329 01ea 5B7A     		ldrb	r3, [r3, #9]
 330 01ec D318     		add	r3, r2, r3
 331 01ee 1033     		add	r3, r3, #16
 332 01f0 3A1C     		mov	r2, r7
 333 01f2 1432     		add	r2, r2, #20
 334 01f4 D118     		add	r1, r2, r3
 335 01f6 D022     		mov	r2, #208
 336 01f8 D219     		add	r2, r2, r7
 337 01fa 1368     		ldr	r3, [r2]
 338 01fc 9A68     		ldr	r2, [r3, #8]
 339 01fe D020     		mov	r0, #208
 340 0200 C019     		add	r0, r0, r7
 341 0202 0368     		ldr	r3, [r0]
 342 0204 1B7B     		ldrb	r3, [r3, #12]
 343 0206 081C     		mov	r0, r1
 344 0208 111C     		mov	r1, r2
 345 020a 1A1C     		mov	r2, r3
 346 020c FFF7FEFF 		bl	memcpy
 146:..\..\..\..\..\simplelink\source/wlan.c ****             CmdCtrl.TxDescLen += pSecExtParams->AnonUserLen;
 347              		.loc 1 146 0
 348 0210 3B1C     		mov	r3, r7
 349 0212 1033     		add	r3, r3, #16
 350 0214 9A78     		ldrb	r2, [r3, #2]
 351 0216 D021     		mov	r1, #208
 352 0218 C919     		add	r1, r1, r7
 353 021a 0B68     		ldr	r3, [r1]
 354 021c 1B7B     		ldrb	r3, [r3, #12]
 355 021e D318     		add	r3, r2, r3
 356 0220 DAB2     		uxtb	r2, r3
 357 0222 3B1C     		mov	r3, r7
 358 0224 1033     		add	r3, r3, #16
 359 0226 9A70     		strb	r2, [r3, #2]
 360 0228 5AE0     		b	.L16
 361              	.L4:
 147:..\..\..\..\..\simplelink\source/wlan.c ****         }
 148:..\..\..\..\..\simplelink\source/wlan.c ****         
 149:..\..\..\..\..\simplelink\source/wlan.c ****     }
 150:..\..\..\..\..\simplelink\source/wlan.c **** 
 151:..\..\..\..\..\simplelink\source/wlan.c **** 	/* Regular or open security profile */
 152:..\..\..\..\..\simplelink\source/wlan.c ****     else
ARM GAS  C:\Users\X0217454\AppData\Local\Temp\ccwJRGby.s 			page 10


 153:..\..\..\..\..\simplelink\source/wlan.c ****     {
 154:..\..\..\..\..\simplelink\source/wlan.c ****         /* Update command opcode */
 155:..\..\..\..\..\simplelink\source/wlan.c ****         CmdCtrl.Opcode = SL_OPCODE_WLAN_WLANCONNECTCOMMAND;
 362              		.loc 1 155 0
 363 022a 3B1C     		mov	r3, r7
 364 022c 1033     		add	r3, r3, #16
 365 022e 484A     		ldr	r2, .L24+8
 366 0230 1A80     		strh	r2, [r3]
 156:..\..\..\..\..\simplelink\source/wlan.c ****         CmdCtrl.TxDescLen += sizeof(_WlanConnectCommon_t);
 367              		.loc 1 156 0
 368 0232 3B1C     		mov	r3, r7
 369 0234 1033     		add	r3, r3, #16
 370 0236 9B78     		ldrb	r3, [r3, #2]
 371 0238 0933     		add	r3, r3, #9
 372 023a DAB2     		uxtb	r2, r3
 373 023c 3B1C     		mov	r3, r7
 374 023e 1033     		add	r3, r3, #16
 375 0240 9A70     		strb	r2, [r3, #2]
 157:..\..\..\..\..\simplelink\source/wlan.c ****         /* copy SSID */
 158:..\..\..\..\..\simplelink\source/wlan.c ****         memcpy(SSID_STRING(&Msg), pName, NameLen);	
 376              		.loc 1 158 0
 377 0242 BB68     		ldr	r3, [r7, #8]
 378 0244 3A1C     		mov	r2, r7
 379 0246 1432     		add	r2, r2, #20
 380 0248 111C     		mov	r1, r2
 381 024a 0931     		add	r1, r1, #9
 382 024c FA68     		ldr	r2, [r7, #12]
 383 024e 081C     		mov	r0, r1
 384 0250 111C     		mov	r1, r2
 385 0252 1A1C     		mov	r2, r3
 386 0254 FFF7FEFF 		bl	memcpy
 159:..\..\..\..\..\simplelink\source/wlan.c ****         CmdCtrl.TxDescLen += NameLen;
 387              		.loc 1 159 0
 388 0258 3B1C     		mov	r3, r7
 389 025a 1033     		add	r3, r3, #16
 390 025c 9A78     		ldrb	r2, [r3, #2]
 391 025e BB68     		ldr	r3, [r7, #8]
 392 0260 DBB2     		uxtb	r3, r3
 393 0262 D318     		add	r3, r2, r3
 394 0264 DAB2     		uxtb	r2, r3
 395 0266 3B1C     		mov	r3, r7
 396 0268 1033     		add	r3, r3, #16
 397 026a 9A70     		strb	r2, [r3, #2]
 160:..\..\..\..\..\simplelink\source/wlan.c ****         /* Copy password if supplied */
 161:..\..\..\..\..\simplelink\source/wlan.c ****         if( NULL != pSecParams )
 398              		.loc 1 161 0
 399 026c 3B68     		ldr	r3, [r7]
 400 026e 002B     		cmp	r3, #0
 401 0270 2ED0     		beq	.L17
 162:..\..\..\..\..\simplelink\source/wlan.c ****         {
 163:..\..\..\..\..\simplelink\source/wlan.c ****             /* update security type */
 164:..\..\..\..\..\simplelink\source/wlan.c ****             Msg.Cmd.Args.Common.SecType = pSecParams->Type;
 402              		.loc 1 164 0
 403 0272 3B68     		ldr	r3, [r7]
 404 0274 1A78     		ldrb	r2, [r3]
 405 0276 3B1C     		mov	r3, r7
 406 0278 1433     		add	r3, r3, #20
ARM GAS  C:\Users\X0217454\AppData\Local\Temp\ccwJRGby.s 			page 11


 407 027a 1A70     		strb	r2, [r3]
 165:..\..\..\..\..\simplelink\source/wlan.c ****             /* verify key length is valid */
 166:..\..\..\..\..\simplelink\source/wlan.c ****             if (pSecParams->KeyLen > MAX_KEY_LEN)
 408              		.loc 1 166 0
 409 027c 3B68     		ldr	r3, [r7]
 410 027e 1B7A     		ldrb	r3, [r3, #8]
 411 0280 3F2B     		cmp	r3, #63
 412 0282 01D9     		bls	.L18
 167:..\..\..\..\..\simplelink\source/wlan.c **** 			{
 168:..\..\..\..\..\simplelink\source/wlan.c **** 				return SL_INVALPARAM;
 413              		.loc 1 168 0
 414 0284 314B     		ldr	r3, .L24+4
 415 0286 5AE0     		b	.L23
 416              	.L18:
 169:..\..\..\..\..\simplelink\source/wlan.c **** 			}
 170:..\..\..\..\..\simplelink\source/wlan.c ****             /* update key length */
 171:..\..\..\..\..\simplelink\source/wlan.c ****             Msg.Cmd.Args.Common.PasswordLen = pSecParams->KeyLen;
 417              		.loc 1 171 0
 418 0288 3B68     		ldr	r3, [r7]
 419 028a 1A7A     		ldrb	r2, [r3, #8]
 420 028c 3B1C     		mov	r3, r7
 421 028e 1433     		add	r3, r3, #20
 422 0290 1A72     		strb	r2, [r3, #8]
 172:..\..\..\..\..\simplelink\source/wlan.c ****             CmdCtrl.TxDescLen += pSecParams->KeyLen;
 423              		.loc 1 172 0
 424 0292 3B1C     		mov	r3, r7
 425 0294 1033     		add	r3, r3, #16
 426 0296 9A78     		ldrb	r2, [r3, #2]
 427 0298 3B68     		ldr	r3, [r7]
 428 029a 1B7A     		ldrb	r3, [r3, #8]
 429 029c D318     		add	r3, r2, r3
 430 029e DAB2     		uxtb	r2, r3
 431 02a0 3B1C     		mov	r3, r7
 432 02a2 1033     		add	r3, r3, #16
 433 02a4 9A70     		strb	r2, [r3, #2]
 173:..\..\..\..\..\simplelink\source/wlan.c ****             /* copy key (could be no key in case of WPS pin) */
 174:..\..\..\..\..\simplelink\source/wlan.c ****             if( NULL != pSecParams->Key )
 434              		.loc 1 174 0
 435 02a6 3B68     		ldr	r3, [r7]
 436 02a8 5B68     		ldr	r3, [r3, #4]
 437 02aa 002B     		cmp	r3, #0
 438 02ac 18D0     		beq	.L16
 175:..\..\..\..\..\simplelink\source/wlan.c ****             {
 176:..\..\..\..\..\simplelink\source/wlan.c ****             sl_Memcpy(PASSWORD_STRING(&Msg), pSecParams->Key, pSecParams->KeyLen);
 439              		.loc 1 176 0
 440 02ae 3B1C     		mov	r3, r7
 441 02b0 1433     		add	r3, r3, #20
 442 02b2 5B78     		ldrb	r3, [r3, #1]
 443 02b4 0933     		add	r3, r3, #9
 444 02b6 3A1C     		mov	r2, r7
 445 02b8 1432     		add	r2, r2, #20
 446 02ba D118     		add	r1, r2, r3
 447 02bc 3B68     		ldr	r3, [r7]
 448 02be 5A68     		ldr	r2, [r3, #4]
 449 02c0 3B68     		ldr	r3, [r7]
 450 02c2 1B7A     		ldrb	r3, [r3, #8]
 451 02c4 081C     		mov	r0, r1
ARM GAS  C:\Users\X0217454\AppData\Local\Temp\ccwJRGby.s 			page 12


 452 02c6 111C     		mov	r1, r2
 453 02c8 1A1C     		mov	r2, r3
 454 02ca FFF7FEFF 		bl	memcpy
 455 02ce 07E0     		b	.L16
 456              	.L17:
 177:..\..\..\..\..\simplelink\source/wlan.c ****         }
 178:..\..\..\..\..\simplelink\source/wlan.c ****         }
 179:..\..\..\..\..\simplelink\source/wlan.c **** 		/* Profile with no security */
 180:..\..\..\..\..\simplelink\source/wlan.c ****         else
 181:..\..\..\..\..\simplelink\source/wlan.c ****         {
 182:..\..\..\..\..\simplelink\source/wlan.c ****             Msg.Cmd.Args.Common.PasswordLen = 0;
 457              		.loc 1 182 0
 458 02d0 3B1C     		mov	r3, r7
 459 02d2 1433     		add	r3, r3, #20
 460 02d4 0022     		mov	r2, #0
 461 02d6 1A72     		strb	r2, [r3, #8]
 183:..\..\..\..\..\simplelink\source/wlan.c **** 			Msg.Cmd.Args.Common.SecType = SL_SEC_TYPE_OPEN;
 462              		.loc 1 183 0
 463 02d8 3B1C     		mov	r3, r7
 464 02da 1433     		add	r3, r3, #20
 465 02dc 0022     		mov	r2, #0
 466 02de 1A70     		strb	r2, [r3]
 467              	.L16:
 184:..\..\..\..\..\simplelink\source/wlan.c ****         }	
 185:..\..\..\..\..\simplelink\source/wlan.c ****     }
 186:..\..\..\..\..\simplelink\source/wlan.c ****     /* If BSSID is not null, copy to buffer, otherwise set to 0 */
 187:..\..\..\..\..\simplelink\source/wlan.c ****     if(NULL != pMacAddr)
 468              		.loc 1 187 0
 469 02e0 7B68     		ldr	r3, [r7, #4]
 470 02e2 002B     		cmp	r3, #0
 471 02e4 0CD0     		beq	.L19
 188:..\..\..\..\..\simplelink\source/wlan.c ****     {
 189:..\..\..\..\..\simplelink\source/wlan.c ****         sl_Memcpy(Msg.Cmd.Args.Common.Bssid, pMacAddr, sizeof(Msg.Cmd.Args.Common.Bssid));
 472              		.loc 1 189 0
 473 02e6 391C     		mov	r1, r7
 474 02e8 1431     		add	r1, r1, #20
 475 02ea 0222     		mov	r2, #2
 476 02ec 7B68     		ldr	r3, [r7, #4]
 477 02ee 8918     		add	r1, r1, r2
 478 02f0 1A1C     		mov	r2, r3
 479 02f2 0623     		mov	r3, #6
 480 02f4 081C     		mov	r0, r1
 481 02f6 111C     		mov	r1, r2
 482 02f8 1A1C     		mov	r2, r3
 483 02fa FFF7FEFF 		bl	memcpy
 484 02fe 07E0     		b	.L20
 485              	.L19:
 190:..\..\..\..\..\simplelink\source/wlan.c ****     }
 191:..\..\..\..\..\simplelink\source/wlan.c ****     else
 192:..\..\..\..\..\simplelink\source/wlan.c ****     {
 193:..\..\..\..\..\simplelink\source/wlan.c ****         sl_Memset(Msg.Cmd.Args.Common.Bssid, 0, sizeof(Msg.Cmd.Args.Common.Bssid));
 486              		.loc 1 193 0
 487 0300 3B1C     		mov	r3, r7
 488 0302 1433     		add	r3, r3, #20
 489 0304 0233     		add	r3, r3, #2
 490 0306 181C     		mov	r0, r3
 491 0308 0021     		mov	r1, #0
ARM GAS  C:\Users\X0217454\AppData\Local\Temp\ccwJRGby.s 			page 13


 492 030a 0622     		mov	r2, #6
 493 030c FFF7FEFF 		bl	memset
 494              	.L20:
 495              	.LBB2:
 194:..\..\..\..\..\simplelink\source/wlan.c ****     }
 195:..\..\..\..\..\simplelink\source/wlan.c **** 
 196:..\..\..\..\..\simplelink\source/wlan.c **** 
 197:..\..\..\..\..\simplelink\source/wlan.c ****     VERIFY_RET_OK ( _SlDrvCmdOp(&CmdCtrl, &Msg, NULL));
 496              		.loc 1 197 0
 497 0310 3A1C     		mov	r2, r7
 498 0312 1032     		add	r2, r2, #16
 499 0314 3B1C     		mov	r3, r7
 500 0316 1433     		add	r3, r3, #20
 501 0318 101C     		mov	r0, r2
 502 031a 191C     		mov	r1, r3
 503 031c 0022     		mov	r2, #0
 504 031e FFF7FEFF 		bl	_SlDrvCmdOp
 505 0322 031C     		mov	r3, r0
 506 0324 C422     		mov	r2, #196
 507 0326 D219     		add	r2, r2, r7
 508 0328 1360     		str	r3, [r2]
 509 032a C420     		mov	r0, #196
 510 032c C019     		add	r0, r0, r7
 511 032e 0368     		ldr	r3, [r0]
 512 0330 002B     		cmp	r3, #0
 513 0332 00D0     		beq	.L21
 514              	.L22:
 515              		.loc 1 197 0 is_stmt 0 discriminator 1
 516 0334 FEE7     		b	.L22
 517              	.L21:
 518              	.LBE2:
 198:..\..\..\..\..\simplelink\source/wlan.c **** 
 199:..\..\..\..\..\simplelink\source/wlan.c ****     return (int)Msg.Rsp.status;
 519              		.loc 1 199 0 is_stmt 1
 520 0336 3B1C     		mov	r3, r7
 521 0338 1433     		add	r3, r3, #20
 522 033a 1B88     		ldrh	r3, [r3]
 523 033c 1BB2     		sxth	r3, r3
 524              	.L23:
 200:..\..\..\..\..\simplelink\source/wlan.c **** }
 525              		.loc 1 200 0
 526 033e 181C     		mov	r0, r3
 527 0340 BD46     		mov	sp, r7
 528 0342 32B0     		add	sp, sp, #200
 529              		@ sp needed for prologue
 530 0344 80BD     		pop	{r7, pc}
 531              	.L25:
 532 0346 C046     		.align	2
 533              	.L24:
 534 0348 828CFFFF 		.word	-29566
 535 034c 2DF8FFFF 		.word	-2003
 536 0350 808CFFFF 		.word	-29568
 537              		.cfi_endproc
 538              	.LFE0:
 539              		.size	sl_WlanConnect, .-sl_WlanConnect
 540              		.section	.text.sl_WlanDisconnect,"ax",%progbits
 541              		.align	2
ARM GAS  C:\Users\X0217454\AppData\Local\Temp\ccwJRGby.s 			page 14


 542              		.global	sl_WlanDisconnect
 543              		.code	16
 544              		.thumb_func
 545              		.type	sl_WlanDisconnect, %function
 546              	sl_WlanDisconnect:
 547              	.LFB1:
 201:..\..\..\..\..\simplelink\source/wlan.c **** #endif
 202:..\..\..\..\..\simplelink\source/wlan.c **** 
 203:..\..\..\..\..\simplelink\source/wlan.c **** /*******************************************************************************/
 204:..\..\..\..\..\simplelink\source/wlan.c **** /*   sl_Disconnect  */
 205:..\..\..\..\..\simplelink\source/wlan.c **** /* ******************************************************************************/
 206:..\..\..\..\..\simplelink\source/wlan.c **** #if _SL_INCLUDE_FUNC(sl_WlanDisconnect)
 207:..\..\..\..\..\simplelink\source/wlan.c **** int sl_WlanDisconnect(void)
 208:..\..\..\..\..\simplelink\source/wlan.c **** {
 548              		.loc 1 208 0
 549              		.cfi_startproc
 550 0000 80B5     		push	{r7, lr}
 551              	.LCFI3:
 552              		.cfi_def_cfa_offset 8
 553              		.cfi_offset 7, -8
 554              		.cfi_offset 14, -4
 555 0002 00AF     		add	r7, sp, #0
 556              	.LCFI4:
 557              		.cfi_def_cfa_register 7
 209:..\..\..\..\..\simplelink\source/wlan.c ****     return _SlDrvBasicCmd(SL_OPCODE_WLAN_WLANDISCONNECTCOMMAND);
 558              		.loc 1 209 0
 559 0004 034B     		ldr	r3, .L28
 560 0006 181C     		mov	r0, r3
 561 0008 FFF7FEFF 		bl	_SlDrvBasicCmd
 562 000c 031C     		mov	r3, r0
 210:..\..\..\..\..\simplelink\source/wlan.c **** }
 563              		.loc 1 210 0
 564 000e 181C     		mov	r0, r3
 565 0010 BD46     		mov	sp, r7
 566              		@ sp needed for prologue
 567 0012 80BD     		pop	{r7, pc}
 568              	.L29:
 569              		.align	2
 570              	.L28:
 571 0014 818C0000 		.word	35969
 572              		.cfi_endproc
 573              	.LFE1:
 574              		.size	sl_WlanDisconnect, .-sl_WlanDisconnect
 575              		.global	_SlPolicySetCmdCtrl
 576              		.section	.rodata
 577              		.align	2
 578              		.type	_SlPolicySetCmdCtrl, %object
 579              		.size	_SlPolicySetCmdCtrl, 4
 580              	_SlPolicySetCmdCtrl:
 581 0000 868C     		.short	-29562
 582 0002 04       		.byte	4
 583 0003 04       		.byte	4
 584              		.section	.text.sl_WlanPolicySet,"ax",%progbits
 585              		.align	2
 586              		.global	sl_WlanPolicySet
 587              		.code	16
 588              		.thumb_func
ARM GAS  C:\Users\X0217454\AppData\Local\Temp\ccwJRGby.s 			page 15


 589              		.type	sl_WlanPolicySet, %function
 590              	sl_WlanPolicySet:
 591              	.LFB2:
 211:..\..\..\..\..\simplelink\source/wlan.c **** #endif
 212:..\..\..\..\..\simplelink\source/wlan.c **** 
 213:..\..\..\..\..\simplelink\source/wlan.c **** /******************************************************************************/
 214:..\..\..\..\..\simplelink\source/wlan.c **** /*  sl_PolicySet  */
 215:..\..\..\..\..\simplelink\source/wlan.c **** /******************************************************************************/
 216:..\..\..\..\..\simplelink\source/wlan.c **** typedef union
 217:..\..\..\..\..\simplelink\source/wlan.c **** {
 218:..\..\..\..\..\simplelink\source/wlan.c ****     _WlanPoliciySetGet_t    Cmd;
 219:..\..\..\..\..\simplelink\source/wlan.c **** 	_BasicResponse_t	    Rsp;
 220:..\..\..\..\..\simplelink\source/wlan.c **** }_SlPolicyMsg_u;
 221:..\..\..\..\..\simplelink\source/wlan.c **** 
 222:..\..\..\..\..\simplelink\source/wlan.c **** const _SlCmdCtrl_t _SlPolicySetCmdCtrl =
 223:..\..\..\..\..\simplelink\source/wlan.c **** {
 224:..\..\..\..\..\simplelink\source/wlan.c ****     SL_OPCODE_WLAN_POLICYSETCOMMAND,
 225:..\..\..\..\..\simplelink\source/wlan.c ****     sizeof(_WlanPoliciySetGet_t),
 226:..\..\..\..\..\simplelink\source/wlan.c ****     sizeof(_BasicResponse_t)
 227:..\..\..\..\..\simplelink\source/wlan.c **** };
 228:..\..\..\..\..\simplelink\source/wlan.c **** 
 229:..\..\..\..\..\simplelink\source/wlan.c **** #if _SL_INCLUDE_FUNC(sl_WlanPolicySet)
 230:..\..\..\..\..\simplelink\source/wlan.c **** int sl_WlanPolicySet(unsigned char Type , const unsigned char Policy, unsigned char *pVal,unsigned 
 231:..\..\..\..\..\simplelink\source/wlan.c **** {
 592              		.loc 1 231 0
 593              		.cfi_startproc
 594 0000 80B5     		push	{r7, lr}
 595              	.LCFI5:
 596              		.cfi_def_cfa_offset 8
 597              		.cfi_offset 7, -8
 598              		.cfi_offset 14, -4
 599 0002 88B0     		sub	sp, sp, #32
 600              	.LCFI6:
 601              		.cfi_def_cfa_offset 40
 602 0004 00AF     		add	r7, sp, #0
 603              	.LCFI7:
 604              		.cfi_def_cfa_register 7
 605 0006 3A60     		str	r2, [r7]
 606 0008 1A1C     		mov	r2, r3
 607 000a FB1D     		add	r3, r7, #7
 608 000c 1870     		strb	r0, [r3]
 609 000e BB1D     		add	r3, r7, #6
 610 0010 1970     		strb	r1, [r3]
 611 0012 7B1D     		add	r3, r7, #5
 612 0014 1A70     		strb	r2, [r3]
 232:..\..\..\..\..\simplelink\source/wlan.c ****     _SlPolicyMsg_u         Msg;
 233:..\..\..\..\..\simplelink\source/wlan.c ****     _SlCmdExt_t            CmdExt;
 234:..\..\..\..\..\simplelink\source/wlan.c **** 
 235:..\..\..\..\..\simplelink\source/wlan.c ****     CmdExt.TxPayloadLen = ValLen;
 613              		.loc 1 235 0
 614 0016 7B1D     		add	r3, r7, #5
 615 0018 1B78     		ldrb	r3, [r3]
 616 001a 9AB2     		uxth	r2, r3
 617 001c 3B1C     		mov	r3, r7
 618 001e 0833     		add	r3, r3, #8
 619 0020 1A80     		strh	r2, [r3]
 236:..\..\..\..\..\simplelink\source/wlan.c ****     CmdExt.RxPayloadLen = 0;
ARM GAS  C:\Users\X0217454\AppData\Local\Temp\ccwJRGby.s 			page 16


 620              		.loc 1 236 0
 621 0022 3B1C     		mov	r3, r7
 622 0024 0833     		add	r3, r3, #8
 623 0026 0022     		mov	r2, #0
 624 0028 5A80     		strh	r2, [r3, #2]
 237:..\..\..\..\..\simplelink\source/wlan.c ****     CmdExt.pTxPayload = (UINT8 *)pVal;
 625              		.loc 1 237 0
 626 002a 3B1C     		mov	r3, r7
 627 002c 0833     		add	r3, r3, #8
 628 002e 3A68     		ldr	r2, [r7]
 629 0030 9A60     		str	r2, [r3, #8]
 238:..\..\..\..\..\simplelink\source/wlan.c ****     CmdExt.pRxPayload = NULL;
 630              		.loc 1 238 0
 631 0032 3B1C     		mov	r3, r7
 632 0034 0833     		add	r3, r3, #8
 633 0036 0022     		mov	r2, #0
 634 0038 DA60     		str	r2, [r3, #12]
 239:..\..\..\..\..\simplelink\source/wlan.c **** 
 240:..\..\..\..\..\simplelink\source/wlan.c **** 
 241:..\..\..\..\..\simplelink\source/wlan.c ****     Msg.Cmd.PolicyType        = Type;
 635              		.loc 1 241 0
 636 003a 3B1C     		mov	r3, r7
 637 003c 1833     		add	r3, r3, #24
 638 003e FA1D     		add	r2, r7, #7
 639 0040 1278     		ldrb	r2, [r2]
 640 0042 1A70     		strb	r2, [r3]
 242:..\..\..\..\..\simplelink\source/wlan.c ****     Msg.Cmd.PolicyOption      = Policy;
 641              		.loc 1 242 0
 642 0044 3B1C     		mov	r3, r7
 643 0046 1833     		add	r3, r3, #24
 644 0048 BA1D     		add	r2, r7, #6
 645 004a 1278     		ldrb	r2, [r2]
 646 004c 9A70     		strb	r2, [r3, #2]
 243:..\..\..\..\..\simplelink\source/wlan.c ****     Msg.Cmd.PolicyOptionLen   = ValLen;
 647              		.loc 1 243 0
 648 004e 3B1C     		mov	r3, r7
 649 0050 1833     		add	r3, r3, #24
 650 0052 7A1D     		add	r2, r7, #5
 651 0054 1278     		ldrb	r2, [r2]
 652 0056 DA70     		strb	r2, [r3, #3]
 653              	.LBB3:
 244:..\..\..\..\..\simplelink\source/wlan.c **** 
 245:..\..\..\..\..\simplelink\source/wlan.c ****     VERIFY_RET_OK(_SlDrvCmdOp((_SlCmdCtrl_t *)&_SlPolicySetCmdCtrl, &Msg, &CmdExt));
 654              		.loc 1 245 0
 655 0058 0B49     		ldr	r1, .L34
 656 005a 3A1C     		mov	r2, r7
 657 005c 1832     		add	r2, r2, #24
 658 005e 3B1C     		mov	r3, r7
 659 0060 0833     		add	r3, r3, #8
 660 0062 081C     		mov	r0, r1
 661 0064 111C     		mov	r1, r2
 662 0066 1A1C     		mov	r2, r3
 663 0068 FFF7FEFF 		bl	_SlDrvCmdOp
 664 006c 031C     		mov	r3, r0
 665 006e FB61     		str	r3, [r7, #28]
 666 0070 FB69     		ldr	r3, [r7, #28]
 667 0072 002B     		cmp	r3, #0
ARM GAS  C:\Users\X0217454\AppData\Local\Temp\ccwJRGby.s 			page 17


 668 0074 00D0     		beq	.L31
 669              	.L32:
 670              		.loc 1 245 0 is_stmt 0 discriminator 1
 671 0076 FEE7     		b	.L32
 672              	.L31:
 673              	.LBE3:
 246:..\..\..\..\..\simplelink\source/wlan.c **** 
 247:..\..\..\..\..\simplelink\source/wlan.c ****     return (int)Msg.Rsp.status;
 674              		.loc 1 247 0 is_stmt 1
 675 0078 3B1C     		mov	r3, r7
 676 007a 1833     		add	r3, r3, #24
 677 007c 1B88     		ldrh	r3, [r3]
 678 007e 1BB2     		sxth	r3, r3
 248:..\..\..\..\..\simplelink\source/wlan.c **** }
 679              		.loc 1 248 0
 680 0080 181C     		mov	r0, r3
 681 0082 BD46     		mov	sp, r7
 682 0084 08B0     		add	sp, sp, #32
 683              		@ sp needed for prologue
 684 0086 80BD     		pop	{r7, pc}
 685              	.L35:
 686              		.align	2
 687              	.L34:
 688 0088 00000000 		.word	_SlPolicySetCmdCtrl
 689              		.cfi_endproc
 690              	.LFE2:
 691              		.size	sl_WlanPolicySet, .-sl_WlanPolicySet
 692              		.global	_SlPolicyGetCmdCtrl
 693              		.section	.rodata
 694              		.align	2
 695              		.type	_SlPolicyGetCmdCtrl, %object
 696              		.size	_SlPolicyGetCmdCtrl, 4
 697              	_SlPolicyGetCmdCtrl:
 698 0004 878C     		.short	-29561
 699 0006 04       		.byte	4
 700 0007 04       		.byte	4
 701              		.section	.text.sl_WlanPolicyGet,"ax",%progbits
 702              		.align	2
 703              		.global	sl_WlanPolicyGet
 704              		.code	16
 705              		.thumb_func
 706              		.type	sl_WlanPolicyGet, %function
 707              	sl_WlanPolicyGet:
 708              	.LFB3:
 249:..\..\..\..\..\simplelink\source/wlan.c **** #endif
 250:..\..\..\..\..\simplelink\source/wlan.c **** 
 251:..\..\..\..\..\simplelink\source/wlan.c **** 
 252:..\..\..\..\..\simplelink\source/wlan.c **** /******************************************************************************/
 253:..\..\..\..\..\simplelink\source/wlan.c **** /*  sl_PolicyGet  */
 254:..\..\..\..\..\simplelink\source/wlan.c **** /******************************************************************************/
 255:..\..\..\..\..\simplelink\source/wlan.c **** typedef union
 256:..\..\..\..\..\simplelink\source/wlan.c **** {
 257:..\..\..\..\..\simplelink\source/wlan.c **** 	_WlanPoliciySetGet_t	    Cmd;
 258:..\..\..\..\..\simplelink\source/wlan.c **** 	_WlanPoliciySetGet_t	    Rsp;
 259:..\..\..\..\..\simplelink\source/wlan.c **** }_SlPolicyGetMsg_u;
 260:..\..\..\..\..\simplelink\source/wlan.c **** 
 261:..\..\..\..\..\simplelink\source/wlan.c **** const _SlCmdCtrl_t _SlPolicyGetCmdCtrl =
ARM GAS  C:\Users\X0217454\AppData\Local\Temp\ccwJRGby.s 			page 18


 262:..\..\..\..\..\simplelink\source/wlan.c **** {
 263:..\..\..\..\..\simplelink\source/wlan.c ****     SL_OPCODE_WLAN_POLICYGETCOMMAND,
 264:..\..\..\..\..\simplelink\source/wlan.c ****     sizeof(_WlanPoliciySetGet_t),
 265:..\..\..\..\..\simplelink\source/wlan.c ****     sizeof(_WlanPoliciySetGet_t)
 266:..\..\..\..\..\simplelink\source/wlan.c **** };
 267:..\..\..\..\..\simplelink\source/wlan.c **** 
 268:..\..\..\..\..\simplelink\source/wlan.c **** #if _SL_INCLUDE_FUNC(sl_WlanPolicyGet)
 269:..\..\..\..\..\simplelink\source/wlan.c **** int sl_WlanPolicyGet(unsigned char Type , unsigned char Policy,unsigned char *pVal,unsigned char *p
 270:..\..\..\..\..\simplelink\source/wlan.c **** {
 709              		.loc 1 270 0
 710              		.cfi_startproc
 711 0000 80B5     		push	{r7, lr}
 712              	.LCFI8:
 713              		.cfi_def_cfa_offset 8
 714              		.cfi_offset 7, -8
 715              		.cfi_offset 14, -4
 716 0002 8AB0     		sub	sp, sp, #40
 717              	.LCFI9:
 718              		.cfi_def_cfa_offset 48
 719 0004 00AF     		add	r7, sp, #0
 720              	.LCFI10:
 721              		.cfi_def_cfa_register 7
 722 0006 BA60     		str	r2, [r7, #8]
 723 0008 7B60     		str	r3, [r7, #4]
 724 000a 3B1C     		mov	r3, r7
 725 000c 0F33     		add	r3, r3, #15
 726 000e 021C     		add	r2, r0, #0
 727 0010 1A70     		strb	r2, [r3]
 728 0012 3B1C     		mov	r3, r7
 729 0014 0E33     		add	r3, r3, #14
 730 0016 0A1C     		add	r2, r1, #0
 731 0018 1A70     		strb	r2, [r3]
 271:..\..\..\..\..\simplelink\source/wlan.c ****     _SlPolicyGetMsg_u      Msg;
 272:..\..\..\..\..\simplelink\source/wlan.c ****     _SlCmdExt_t            CmdExt;
 273:..\..\..\..\..\simplelink\source/wlan.c **** 
 274:..\..\..\..\..\simplelink\source/wlan.c **** 	if (*pValLen == 0)
 732              		.loc 1 274 0
 733 001a 7B68     		ldr	r3, [r7, #4]
 734 001c 1B78     		ldrb	r3, [r3]
 735 001e 002B     		cmp	r3, #0
 736 0020 01D1     		bne	.L37
 275:..\..\..\..\..\simplelink\source/wlan.c **** 	{
 276:..\..\..\..\..\simplelink\source/wlan.c **** 		return SL_EZEROLEN;
 737              		.loc 1 276 0
 738 0022 2D4B     		ldr	r3, .L44
 739 0024 54E0     		b	.L43
 740              	.L37:
 277:..\..\..\..\..\simplelink\source/wlan.c **** 	}
 278:..\..\..\..\..\simplelink\source/wlan.c ****     CmdExt.TxPayloadLen = 0;
 741              		.loc 1 278 0
 742 0026 3B1C     		mov	r3, r7
 743 0028 1033     		add	r3, r3, #16
 744 002a 0022     		mov	r2, #0
 745 002c 1A80     		strh	r2, [r3]
 279:..\..\..\..\..\simplelink\source/wlan.c ****     CmdExt.RxPayloadLen = *pValLen;
 746              		.loc 1 279 0
 747 002e 7B68     		ldr	r3, [r7, #4]
ARM GAS  C:\Users\X0217454\AppData\Local\Temp\ccwJRGby.s 			page 19


 748 0030 1B78     		ldrb	r3, [r3]
 749 0032 1A1C     		mov	r2, r3
 750 0034 3B1C     		mov	r3, r7
 751 0036 1033     		add	r3, r3, #16
 752 0038 5A80     		strh	r2, [r3, #2]
 280:..\..\..\..\..\simplelink\source/wlan.c ****     CmdExt.pTxPayload = NULL;
 753              		.loc 1 280 0
 754 003a 3B1C     		mov	r3, r7
 755 003c 1033     		add	r3, r3, #16
 756 003e 0022     		mov	r2, #0
 757 0040 9A60     		str	r2, [r3, #8]
 281:..\..\..\..\..\simplelink\source/wlan.c ****     CmdExt.pRxPayload = pVal;
 758              		.loc 1 281 0
 759 0042 3B1C     		mov	r3, r7
 760 0044 1033     		add	r3, r3, #16
 761 0046 BA68     		ldr	r2, [r7, #8]
 762 0048 DA60     		str	r2, [r3, #12]
 282:..\..\..\..\..\simplelink\source/wlan.c **** 	CmdExt.ActualRxPayloadLen = 0;
 763              		.loc 1 282 0
 764 004a 3B1C     		mov	r3, r7
 765 004c 1033     		add	r3, r3, #16
 766 004e 0022     		mov	r2, #0
 767 0050 9A80     		strh	r2, [r3, #4]
 283:..\..\..\..\..\simplelink\source/wlan.c **** 
 284:..\..\..\..\..\simplelink\source/wlan.c **** 
 285:..\..\..\..\..\simplelink\source/wlan.c ****     Msg.Cmd.PolicyType = Type;
 768              		.loc 1 285 0
 769 0052 3B1C     		mov	r3, r7
 770 0054 2033     		add	r3, r3, #32
 771 0056 3A1C     		mov	r2, r7
 772 0058 0F32     		add	r2, r2, #15
 773 005a 1278     		ldrb	r2, [r2]
 774 005c 1A70     		strb	r2, [r3]
 286:..\..\..\..\..\simplelink\source/wlan.c ****     Msg.Cmd.PolicyOption = Policy;
 775              		.loc 1 286 0
 776 005e 3B1C     		mov	r3, r7
 777 0060 2033     		add	r3, r3, #32
 778 0062 3A1C     		mov	r2, r7
 779 0064 0E32     		add	r2, r2, #14
 780 0066 1278     		ldrb	r2, [r2]
 781 0068 9A70     		strb	r2, [r3, #2]
 782              	.LBB4:
 287:..\..\..\..\..\simplelink\source/wlan.c ****     VERIFY_RET_OK(_SlDrvCmdOp((_SlCmdCtrl_t *)&_SlPolicyGetCmdCtrl, &Msg, &CmdExt));
 783              		.loc 1 287 0
 784 006a 1C49     		ldr	r1, .L44+4
 785 006c 3A1C     		mov	r2, r7
 786 006e 2032     		add	r2, r2, #32
 787 0070 3B1C     		mov	r3, r7
 788 0072 1033     		add	r3, r3, #16
 789 0074 081C     		mov	r0, r1
 790 0076 111C     		mov	r1, r2
 791 0078 1A1C     		mov	r2, r3
 792 007a FFF7FEFF 		bl	_SlDrvCmdOp
 793 007e 031C     		mov	r3, r0
 794 0080 7B62     		str	r3, [r7, #36]
 795 0082 7B6A     		ldr	r3, [r7, #36]
 796 0084 002B     		cmp	r3, #0
ARM GAS  C:\Users\X0217454\AppData\Local\Temp\ccwJRGby.s 			page 20


 797 0086 00D0     		beq	.L39
 798              	.L40:
 799              		.loc 1 287 0 is_stmt 0 discriminator 1
 800 0088 FEE7     		b	.L40
 801              	.L39:
 802              	.LBE4:
 288:..\..\..\..\..\simplelink\source/wlan.c **** 
 289:..\..\..\..\..\simplelink\source/wlan.c ****     
 290:..\..\..\..\..\simplelink\source/wlan.c **** 	if (CmdExt.RxPayloadLen < CmdExt.ActualRxPayloadLen) 
 803              		.loc 1 290 0 is_stmt 1
 804 008a 3B1C     		mov	r3, r7
 805 008c 1033     		add	r3, r3, #16
 806 008e 5A88     		ldrh	r2, [r3, #2]
 807 0090 3B1C     		mov	r3, r7
 808 0092 1033     		add	r3, r3, #16
 809 0094 9B88     		ldrh	r3, [r3, #4]
 810 0096 9A42     		cmp	r2, r3
 811 0098 06D2     		bcs	.L41
 291:..\..\..\..\..\simplelink\source/wlan.c **** 	{
 292:..\..\..\..\..\simplelink\source/wlan.c **** 		*pValLen = Msg.Rsp.PolicyOptionLen;
 812              		.loc 1 292 0
 813 009a 3B1C     		mov	r3, r7
 814 009c 2033     		add	r3, r3, #32
 815 009e DA78     		ldrb	r2, [r3, #3]
 816 00a0 7B68     		ldr	r3, [r7, #4]
 817 00a2 1A70     		strb	r2, [r3]
 293:..\..\..\..\..\simplelink\source/wlan.c **** 		return SL_ESMALLBUF;
 818              		.loc 1 293 0
 819 00a4 0E4B     		ldr	r3, .L44+8
 820 00a6 13E0     		b	.L43
 821              	.L41:
 294:..\..\..\..\..\simplelink\source/wlan.c **** 	}
 295:..\..\..\..\..\simplelink\source/wlan.c **** 	else
 296:..\..\..\..\..\simplelink\source/wlan.c **** 	{
 297:..\..\..\..\..\simplelink\source/wlan.c **** 		/*  no pointer valus, fill the results into char */
 298:..\..\..\..\..\simplelink\source/wlan.c **** 		*pValLen = (unsigned char)CmdExt.ActualRxPayloadLen;
 822              		.loc 1 298 0
 823 00a8 3B1C     		mov	r3, r7
 824 00aa 1033     		add	r3, r3, #16
 825 00ac 9B88     		ldrh	r3, [r3, #4]
 826 00ae DAB2     		uxtb	r2, r3
 827 00b0 7B68     		ldr	r3, [r7, #4]
 828 00b2 1A70     		strb	r2, [r3]
 299:..\..\..\..\..\simplelink\source/wlan.c **** 		if( 0 == CmdExt.ActualRxPayloadLen )
 829              		.loc 1 299 0
 830 00b4 3B1C     		mov	r3, r7
 831 00b6 1033     		add	r3, r3, #16
 832 00b8 9B88     		ldrh	r3, [r3, #4]
 833 00ba 002B     		cmp	r3, #0
 834 00bc 07D1     		bne	.L42
 300:..\..\..\..\..\simplelink\source/wlan.c **** 		{
 301:..\..\..\..\..\simplelink\source/wlan.c **** 			*pValLen = 1;
 835              		.loc 1 301 0
 836 00be 7B68     		ldr	r3, [r7, #4]
 837 00c0 0122     		mov	r2, #1
 838 00c2 1A70     		strb	r2, [r3]
 302:..\..\..\..\..\simplelink\source/wlan.c **** 			 pVal[0] = Msg.Rsp.PolicyOption;
ARM GAS  C:\Users\X0217454\AppData\Local\Temp\ccwJRGby.s 			page 21


 839              		.loc 1 302 0
 840 00c4 3B1C     		mov	r3, r7
 841 00c6 2033     		add	r3, r3, #32
 842 00c8 9A78     		ldrb	r2, [r3, #2]
 843 00ca BB68     		ldr	r3, [r7, #8]
 844 00cc 1A70     		strb	r2, [r3]
 845              	.L42:
 303:..\..\..\..\..\simplelink\source/wlan.c **** 		}
 304:..\..\..\..\..\simplelink\source/wlan.c **** 	}
 305:..\..\..\..\..\simplelink\source/wlan.c **** 
 306:..\..\..\..\..\simplelink\source/wlan.c ****     
 307:..\..\..\..\..\simplelink\source/wlan.c **** 	return (int)SL_OS_RET_CODE_OK;
 846              		.loc 1 307 0
 847 00ce 0023     		mov	r3, #0
 848              	.L43:
 308:..\..\..\..\..\simplelink\source/wlan.c **** }
 849              		.loc 1 308 0
 850 00d0 181C     		mov	r0, r3
 851 00d2 BD46     		mov	sp, r7
 852 00d4 0AB0     		add	sp, sp, #40
 853              		@ sp needed for prologue
 854 00d6 80BD     		pop	{r7, pc}
 855              	.L45:
 856              		.align	2
 857              	.L44:
 858 00d8 2EF8FFFF 		.word	-2002
 859 00dc 00000000 		.word	_SlPolicyGetCmdCtrl
 860 00e0 2FF8FFFF 		.word	-2001
 861              		.cfi_endproc
 862              	.LFE3:
 863              		.size	sl_WlanPolicyGet, .-sl_WlanPolicyGet
 864              		.section	.text.sl_WlanProfileAdd,"ax",%progbits
 865              		.align	2
 866              		.global	sl_WlanProfileAdd
 867              		.code	16
 868              		.thumb_func
 869              		.type	sl_WlanProfileAdd, %function
 870              	sl_WlanProfileAdd:
 871              	.LFB4:
 309:..\..\..\..\..\simplelink\source/wlan.c **** #endif
 310:..\..\..\..\..\simplelink\source/wlan.c **** 
 311:..\..\..\..\..\simplelink\source/wlan.c **** 
 312:..\..\..\..\..\simplelink\source/wlan.c **** /*******************************************************************************/
 313:..\..\..\..\..\simplelink\source/wlan.c **** /*  sl_ProfileAdd  */
 314:..\..\..\..\..\simplelink\source/wlan.c **** /*******************************************************************************/
 315:..\..\..\..\..\simplelink\source/wlan.c **** typedef struct
 316:..\..\..\..\..\simplelink\source/wlan.c **** {
 317:..\..\..\..\..\simplelink\source/wlan.c **** 	_WlanAddGetEapProfile_t	Args;
 318:..\..\..\..\..\simplelink\source/wlan.c ****     char                    Strings[MAX_SSID_LEN + MAX_KEY_LEN + MAX_USER_LEN + MAX_ANON_USER_LEN];
 319:..\..\..\..\..\simplelink\source/wlan.c **** }_SlProfileParams_t;
 320:..\..\..\..\..\simplelink\source/wlan.c **** 
 321:..\..\..\..\..\simplelink\source/wlan.c **** typedef union
 322:..\..\..\..\..\simplelink\source/wlan.c **** {
 323:..\..\..\..\..\simplelink\source/wlan.c **** 	_SlProfileParams_t	    Cmd;
 324:..\..\..\..\..\simplelink\source/wlan.c **** 	_BasicResponse_t	    Rsp;
 325:..\..\..\..\..\simplelink\source/wlan.c **** }_SlProfileAddMsg_u;
 326:..\..\..\..\..\simplelink\source/wlan.c **** 
ARM GAS  C:\Users\X0217454\AppData\Local\Temp\ccwJRGby.s 			page 22


 327:..\..\..\..\..\simplelink\source/wlan.c **** 
 328:..\..\..\..\..\simplelink\source/wlan.c **** 
 329:..\..\..\..\..\simplelink\source/wlan.c **** #if _SL_INCLUDE_FUNC(sl_WlanProfileAdd)
 330:..\..\..\..\..\simplelink\source/wlan.c **** int sl_WlanProfileAdd(char* pName, int NameLen, unsigned char *pMacAddr, SlSecParams_t* pSecParams 
 331:..\..\..\..\..\simplelink\source/wlan.c **** {
 872              		.loc 1 331 0
 873              		.cfi_startproc
 874 0000 80B5     		push	{r7, lr}
 875              	.LCFI11:
 876              		.cfi_def_cfa_offset 8
 877              		.cfi_offset 7, -8
 878              		.cfi_offset 14, -4
 879 0002 B4B0     		sub	sp, sp, #208
 880              	.LCFI12:
 881              		.cfi_def_cfa_offset 216
 882 0004 00AF     		add	r7, sp, #0
 883              	.LCFI13:
 884              		.cfi_def_cfa_register 7
 885 0006 F860     		str	r0, [r7, #12]
 886 0008 B960     		str	r1, [r7, #8]
 887 000a 7A60     		str	r2, [r7, #4]
 888 000c 3B60     		str	r3, [r7]
 332:..\..\..\..\..\simplelink\source/wlan.c ****     _SlProfileAddMsg_u      Msg;
 333:..\..\..\..\..\simplelink\source/wlan.c **** 	_SlCmdCtrl_t           CmdCtrl = {0};
 889              		.loc 1 333 0
 890 000e 3B1C     		mov	r3, r7
 891 0010 1433     		add	r3, r3, #20
 892 0012 0022     		mov	r2, #0
 893 0014 1A60     		str	r2, [r3]
 334:..\..\..\..\..\simplelink\source/wlan.c **** 	CmdCtrl.TxDescLen = 0;/* init */
 894              		.loc 1 334 0
 895 0016 3B1C     		mov	r3, r7
 896 0018 1433     		add	r3, r3, #20
 897 001a 0022     		mov	r2, #0
 898 001c 9A70     		strb	r2, [r3, #2]
 335:..\..\..\..\..\simplelink\source/wlan.c **** 	CmdCtrl.RxDescLen = sizeof(_BasicResponse_t);
 899              		.loc 1 335 0
 900 001e 3B1C     		mov	r3, r7
 901 0020 1433     		add	r3, r3, #20
 902 0022 0422     		mov	r2, #4
 903 0024 DA70     		strb	r2, [r3, #3]
 336:..\..\..\..\..\simplelink\source/wlan.c **** 
 337:..\..\..\..\..\simplelink\source/wlan.c **** 	/* update priority */
 338:..\..\..\..\..\simplelink\source/wlan.c **** 	Msg.Cmd.Args.Common.Priority = (UINT8)Priority; 
 904              		.loc 1 338 0
 905 0026 DC20     		mov	r0, #220
 906 0028 C019     		add	r0, r0, r7
 907 002a 0368     		ldr	r3, [r0]
 908 002c DAB2     		uxtb	r2, r3
 909 002e 3B1C     		mov	r3, r7
 910 0030 1833     		add	r3, r3, #24
 911 0032 9A70     		strb	r2, [r3, #2]
 339:..\..\..\..\..\simplelink\source/wlan.c **** 	/* verify SSID length */
 340:..\..\..\..\..\simplelink\source/wlan.c **** 	VERIFY_PROTOCOL(NameLen <= MAX_SSID_LEN);
 912              		.loc 1 340 0
 913 0034 BB68     		ldr	r3, [r7, #8]
 914 0036 202B     		cmp	r3, #32
ARM GAS  C:\Users\X0217454\AppData\Local\Temp\ccwJRGby.s 			page 23


 915 0038 00DD     		ble	.L47
 916              	.L48:
 917              		.loc 1 340 0 is_stmt 0 discriminator 1
 918 003a FEE7     		b	.L48
 919              	.L47:
 341:..\..\..\..\..\simplelink\source/wlan.c **** 	/* update SSID length */
 342:..\..\..\..\..\simplelink\source/wlan.c **** 	Msg.Cmd.Args.Common.SsidLen = (UINT8)NameLen;
 920              		.loc 1 342 0 is_stmt 1
 921 003c BB68     		ldr	r3, [r7, #8]
 922 003e DAB2     		uxtb	r2, r3
 923 0040 3B1C     		mov	r3, r7
 924 0042 1833     		add	r3, r3, #24
 925 0044 5A70     		strb	r2, [r3, #1]
 343:..\..\..\..\..\simplelink\source/wlan.c **** 
 344:..\..\..\..\..\simplelink\source/wlan.c **** 
 345:..\..\..\..\..\simplelink\source/wlan.c **** 	/* Enterprise security profile */
 346:..\..\..\..\..\simplelink\source/wlan.c ****         if  (NULL != pSecExtParams)
 926              		.loc 1 346 0
 927 0046 D821     		mov	r1, #216
 928 0048 C919     		add	r1, r1, r7
 929 004a 0B68     		ldr	r3, [r1]
 930 004c 002B     		cmp	r3, #0
 931 004e 00D1     		bne	.LCB820
 932 0050 F9E0     		b	.L49	@long jump
 933              	.LCB820:
 347:..\..\..\..\..\simplelink\source/wlan.c **** 	{
 348:..\..\..\..\..\simplelink\source/wlan.c **** 		/* Update command opcode */
 349:..\..\..\..\..\simplelink\source/wlan.c **** 		CmdCtrl.Opcode = SL_OPCODE_WLAN_EAP_PROFILEADDCOMMAND;
 934              		.loc 1 349 0
 935 0052 3B1C     		mov	r3, r7
 936 0054 1433     		add	r3, r3, #20
 937 0056 CA4A     		ldr	r2, .L74
 938 0058 1A80     		strh	r2, [r3]
 350:..\..\..\..\..\simplelink\source/wlan.c **** 		CmdCtrl.TxDescLen += sizeof(_WlanAddGetEapProfile_t);
 939              		.loc 1 350 0
 940 005a 3B1C     		mov	r3, r7
 941 005c 1433     		add	r3, r3, #20
 942 005e 9B78     		ldrb	r3, [r3, #2]
 943 0060 1433     		add	r3, r3, #20
 944 0062 DAB2     		uxtb	r2, r3
 945 0064 3B1C     		mov	r3, r7
 946 0066 1433     		add	r3, r3, #20
 947 0068 9A70     		strb	r2, [r3, #2]
 351:..\..\..\..\..\simplelink\source/wlan.c **** 
 352:..\..\..\..\..\simplelink\source/wlan.c **** 		/* copy SSID */
 353:..\..\..\..\..\simplelink\source/wlan.c **** 		memcpy(EAP_PROFILE_SSID_STRING(&Msg), pName, NameLen);	
 948              		.loc 1 353 0
 949 006a BB68     		ldr	r3, [r7, #8]
 950 006c 3A1C     		mov	r2, r7
 951 006e 1832     		add	r2, r2, #24
 952 0070 111C     		mov	r1, r2
 953 0072 1431     		add	r1, r1, #20
 954 0074 FA68     		ldr	r2, [r7, #12]
 955 0076 081C     		mov	r0, r1
 956 0078 111C     		mov	r1, r2
 957 007a 1A1C     		mov	r2, r3
 958 007c FFF7FEFF 		bl	memcpy
ARM GAS  C:\Users\X0217454\AppData\Local\Temp\ccwJRGby.s 			page 24


 354:..\..\..\..\..\simplelink\source/wlan.c **** 		CmdCtrl.TxDescLen += NameLen;
 959              		.loc 1 354 0
 960 0080 3B1C     		mov	r3, r7
 961 0082 1433     		add	r3, r3, #20
 962 0084 9A78     		ldrb	r2, [r3, #2]
 963 0086 BB68     		ldr	r3, [r7, #8]
 964 0088 DBB2     		uxtb	r3, r3
 965 008a D318     		add	r3, r2, r3
 966 008c DAB2     		uxtb	r2, r3
 967 008e 3B1C     		mov	r3, r7
 968 0090 1433     		add	r3, r3, #20
 969 0092 9A70     		strb	r2, [r3, #2]
 355:..\..\..\..\..\simplelink\source/wlan.c **** 
 356:..\..\..\..\..\simplelink\source/wlan.c **** 		/* Copy password if supplied */
 357:..\..\..\..\..\simplelink\source/wlan.c **** 		if ((NULL != pSecParams) && (pSecParams->KeyLen > 0))
 970              		.loc 1 357 0
 971 0094 3B68     		ldr	r3, [r7]
 972 0096 002B     		cmp	r3, #0
 973 0098 43D0     		beq	.L50
 974              		.loc 1 357 0 is_stmt 0 discriminator 1
 975 009a 3B68     		ldr	r3, [r7]
 976 009c 1B7A     		ldrb	r3, [r3, #8]
 977 009e 002B     		cmp	r3, #0
 978 00a0 3FD0     		beq	.L50
 358:..\..\..\..\..\simplelink\source/wlan.c **** 		{
 359:..\..\..\..\..\simplelink\source/wlan.c **** 			/* update security type */
 360:..\..\..\..\..\simplelink\source/wlan.c **** 			Msg.Cmd.Args.Common.SecType = pSecParams->Type;
 979              		.loc 1 360 0 is_stmt 1
 980 00a2 3B68     		ldr	r3, [r7]
 981 00a4 1B78     		ldrb	r3, [r3]
 982 00a6 DAB2     		uxtb	r2, r3
 983 00a8 3B1C     		mov	r3, r7
 984 00aa 1833     		add	r3, r3, #24
 985 00ac 1A70     		strb	r2, [r3]
 361:..\..\..\..\..\simplelink\source/wlan.c **** 
 362:..\..\..\..\..\simplelink\source/wlan.c **** 			if( SL_SEC_TYPE_WEP == Msg.Cmd.Args.Common.SecType )
 986              		.loc 1 362 0
 987 00ae 3B1C     		mov	r3, r7
 988 00b0 1833     		add	r3, r3, #24
 989 00b2 1B78     		ldrb	r3, [r3]
 990 00b4 5BB2     		sxtb	r3, r3
 991 00b6 012B     		cmp	r3, #1
 992 00b8 03D1     		bne	.L51
 363:..\..\..\..\..\simplelink\source/wlan.c **** 			{
 364:..\..\..\..\..\simplelink\source/wlan.c **** 			    Msg.Cmd.Args.Common.WepKeyId = 0;
 993              		.loc 1 364 0
 994 00ba 3B1C     		mov	r3, r7
 995 00bc 1833     		add	r3, r3, #24
 996 00be 0022     		mov	r2, #0
 997 00c0 9A72     		strb	r2, [r3, #10]
 998              	.L51:
 365:..\..\..\..\..\simplelink\source/wlan.c **** 			}
 366:..\..\..\..\..\simplelink\source/wlan.c **** 
 367:..\..\..\..\..\simplelink\source/wlan.c **** 			/* verify key length */
 368:..\..\..\..\..\simplelink\source/wlan.c **** 			if (pSecParams->KeyLen > MAX_KEY_LEN)
 999              		.loc 1 368 0
 1000 00c2 3B68     		ldr	r3, [r7]
ARM GAS  C:\Users\X0217454\AppData\Local\Temp\ccwJRGby.s 			page 25


 1001 00c4 1B7A     		ldrb	r3, [r3, #8]
 1002 00c6 3F2B     		cmp	r3, #63
 1003 00c8 01D9     		bls	.L52
 369:..\..\..\..\..\simplelink\source/wlan.c **** 			{
 370:..\..\..\..\..\simplelink\source/wlan.c **** 				return SL_INVALPARAM;
 1004              		.loc 1 370 0
 1005 00ca AE4B     		ldr	r3, .L74+4
 1006 00cc 53E1     		b	.L73
 1007              	.L52:
 371:..\..\..\..\..\simplelink\source/wlan.c **** 			}
 372:..\..\..\..\..\simplelink\source/wlan.c **** 			VERIFY_PROTOCOL(pSecParams->KeyLen <= MAX_KEY_LEN);
 1008              		.loc 1 372 0
 1009 00ce 3B68     		ldr	r3, [r7]
 1010 00d0 1B7A     		ldrb	r3, [r3, #8]
 1011 00d2 3F2B     		cmp	r3, #63
 1012 00d4 00D9     		bls	.L54
 1013              	.L55:
 1014              		.loc 1 372 0 is_stmt 0 discriminator 1
 1015 00d6 FEE7     		b	.L55
 1016              	.L54:
 373:..\..\..\..\..\simplelink\source/wlan.c **** 			/* update key length */
 374:..\..\..\..\..\simplelink\source/wlan.c **** 			Msg.Cmd.Args.Common.PasswordLen = pSecParams->KeyLen;	
 1017              		.loc 1 374 0 is_stmt 1
 1018 00d8 3B68     		ldr	r3, [r7]
 1019 00da 1A7A     		ldrb	r2, [r3, #8]
 1020 00dc 3B1C     		mov	r3, r7
 1021 00de 1833     		add	r3, r3, #24
 1022 00e0 5A72     		strb	r2, [r3, #9]
 375:..\..\..\..\..\simplelink\source/wlan.c **** 			CmdCtrl.TxDescLen += pSecParams->KeyLen;
 1023              		.loc 1 375 0
 1024 00e2 3B1C     		mov	r3, r7
 1025 00e4 1433     		add	r3, r3, #20
 1026 00e6 9A78     		ldrb	r2, [r3, #2]
 1027 00e8 3B68     		ldr	r3, [r7]
 1028 00ea 1B7A     		ldrb	r3, [r3, #8]
 1029 00ec D318     		add	r3, r2, r3
 1030 00ee DAB2     		uxtb	r2, r3
 1031 00f0 3B1C     		mov	r3, r7
 1032 00f2 1433     		add	r3, r3, #20
 1033 00f4 9A70     		strb	r2, [r3, #2]
 376:..\..\..\..\..\simplelink\source/wlan.c **** 			ARG_CHECK_PTR(pSecParams->Key);
 1034              		.loc 1 376 0
 1035 00f6 3B68     		ldr	r3, [r7]
 1036 00f8 5B68     		ldr	r3, [r3, #4]
 1037 00fa 002B     		cmp	r3, #0
 1038 00fc 00D1     		bne	.L56
 1039              	.L57:
 1040              		.loc 1 376 0 is_stmt 0 discriminator 1
 1041 00fe FEE7     		b	.L57
 1042              	.L56:
 377:..\..\..\..\..\simplelink\source/wlan.c **** 			/* copy key  */
 378:..\..\..\..\..\simplelink\source/wlan.c **** 			sl_Memcpy(EAP_PROFILE_PASSWORD_STRING(&Msg), pSecParams->Key, pSecParams->KeyLen);
 1043              		.loc 1 378 0 is_stmt 1
 1044 0100 3B1C     		mov	r3, r7
 1045 0102 1833     		add	r3, r3, #24
 1046 0104 5B78     		ldrb	r3, [r3, #1]
 1047 0106 1433     		add	r3, r3, #20
ARM GAS  C:\Users\X0217454\AppData\Local\Temp\ccwJRGby.s 			page 26


 1048 0108 3A1C     		mov	r2, r7
 1049 010a 1832     		add	r2, r2, #24
 1050 010c D118     		add	r1, r2, r3
 1051 010e 3B68     		ldr	r3, [r7]
 1052 0110 5A68     		ldr	r2, [r3, #4]
 1053 0112 3B68     		ldr	r3, [r7]
 1054 0114 1B7A     		ldrb	r3, [r3, #8]
 1055 0116 081C     		mov	r0, r1
 1056 0118 111C     		mov	r1, r2
 1057 011a 1A1C     		mov	r2, r3
 1058 011c FFF7FEFF 		bl	memcpy
 1059 0120 03E0     		b	.L58
 1060              	.L50:
 379:..\..\..\..\..\simplelink\source/wlan.c **** 		}
 380:..\..\..\..\..\simplelink\source/wlan.c **** 		else
 381:..\..\..\..\..\simplelink\source/wlan.c **** 		{
 382:..\..\..\..\..\simplelink\source/wlan.c **** 			Msg.Cmd.Args.Common.PasswordLen = 0;
 1061              		.loc 1 382 0
 1062 0122 3B1C     		mov	r3, r7
 1063 0124 1833     		add	r3, r3, #24
 1064 0126 0022     		mov	r2, #0
 1065 0128 5A72     		strb	r2, [r3, #9]
 1066              	.L58:
 383:..\..\..\..\..\simplelink\source/wlan.c **** 		}
 384:..\..\..\..\..\simplelink\source/wlan.c **** 
 385:..\..\..\..\..\simplelink\source/wlan.c **** 		ARG_CHECK_PTR(pSecExtParams);
 1067              		.loc 1 385 0
 1068 012a D822     		mov	r2, #216
 1069 012c D219     		add	r2, r2, r7
 1070 012e 1368     		ldr	r3, [r2]
 1071 0130 002B     		cmp	r3, #0
 1072 0132 00D1     		bne	.L59
 1073              	.L60:
 1074              		.loc 1 385 0 is_stmt 0 discriminator 1
 1075 0134 FEE7     		b	.L60
 1076              	.L59:
 386:..\..\..\..\..\simplelink\source/wlan.c **** 		/* Update Eap bitmask */
 387:..\..\..\..\..\simplelink\source/wlan.c **** 		Msg.Cmd.Args.EapBitmask = pSecExtParams->EapMethod;
 1077              		.loc 1 387 0 is_stmt 1
 1078 0136 D820     		mov	r0, #216
 1079 0138 C019     		add	r0, r0, r7
 1080 013a 0368     		ldr	r3, [r0]
 1081 013c 1A69     		ldr	r2, [r3, #16]
 1082 013e 3B1C     		mov	r3, r7
 1083 0140 1833     		add	r3, r3, #24
 1084 0142 1A61     		str	r2, [r3, #16]
 388:..\..\..\..\..\simplelink\source/wlan.c **** 		/* Update Certificate file ID index - currently not supported */
 389:..\..\..\..\..\simplelink\source/wlan.c **** 		Msg.Cmd.Args.CertIndex = pSecExtParams->CertIndex;
 1085              		.loc 1 389 0
 1086 0144 D821     		mov	r1, #216
 1087 0146 C919     		add	r1, r1, r7
 1088 0148 0B68     		ldr	r3, [r1]
 1089 014a 5A7B     		ldrb	r2, [r3, #13]
 1090 014c 3B1C     		mov	r3, r7
 1091 014e 1833     		add	r3, r3, #24
 1092 0150 5A73     		strb	r2, [r3, #13]
 390:..\..\..\..\..\simplelink\source/wlan.c **** 		/* verify user length */
ARM GAS  C:\Users\X0217454\AppData\Local\Temp\ccwJRGby.s 			page 27


 391:..\..\..\..\..\simplelink\source/wlan.c **** 		if (pSecExtParams->UserLen > MAX_USER_LEN)
 1093              		.loc 1 391 0
 1094 0152 D822     		mov	r2, #216
 1095 0154 D219     		add	r2, r2, r7
 1096 0156 1368     		ldr	r3, [r2]
 1097 0158 1B79     		ldrb	r3, [r3, #4]
 1098 015a 202B     		cmp	r3, #32
 1099 015c 01D9     		bls	.L61
 392:..\..\..\..\..\simplelink\source/wlan.c **** 		{
 393:..\..\..\..\..\simplelink\source/wlan.c **** 			return SL_INVALPARAM;
 1100              		.loc 1 393 0
 1101 015e 894B     		ldr	r3, .L74+4
 1102 0160 09E1     		b	.L73
 1103              	.L61:
 394:..\..\..\..\..\simplelink\source/wlan.c **** 		}
 395:..\..\..\..\..\simplelink\source/wlan.c **** 		Msg.Cmd.Args.UserLen = pSecExtParams->UserLen;
 1104              		.loc 1 395 0
 1105 0162 D820     		mov	r0, #216
 1106 0164 C019     		add	r0, r0, r7
 1107 0166 0368     		ldr	r3, [r0]
 1108 0168 1A79     		ldrb	r2, [r3, #4]
 1109 016a 3B1C     		mov	r3, r7
 1110 016c 1833     		add	r3, r3, #24
 1111 016e DA72     		strb	r2, [r3, #11]
 396:..\..\..\..\..\simplelink\source/wlan.c **** 		/* copy user name (identity) */
 397:..\..\..\..\..\simplelink\source/wlan.c **** 		if(pSecExtParams->UserLen > 0)
 1112              		.loc 1 397 0
 1113 0170 D821     		mov	r1, #216
 1114 0172 C919     		add	r1, r1, r7
 1115 0174 0B68     		ldr	r3, [r1]
 1116 0176 1B79     		ldrb	r3, [r3, #4]
 1117 0178 002B     		cmp	r3, #0
 1118 017a 24D0     		beq	.L62
 398:..\..\..\..\..\simplelink\source/wlan.c **** 		{
 399:..\..\..\..\..\simplelink\source/wlan.c **** 			sl_Memcpy(EAP_PROFILE_USER_STRING(&Msg), pSecExtParams->User, pSecExtParams->UserLen);
 1119              		.loc 1 399 0
 1120 017c 3B1C     		mov	r3, r7
 1121 017e 1833     		add	r3, r3, #24
 1122 0180 5B78     		ldrb	r3, [r3, #1]
 1123 0182 1A1C     		mov	r2, r3
 1124 0184 3B1C     		mov	r3, r7
 1125 0186 1833     		add	r3, r3, #24
 1126 0188 5B7A     		ldrb	r3, [r3, #9]
 1127 018a D318     		add	r3, r2, r3
 1128 018c 1433     		add	r3, r3, #20
 1129 018e 3A1C     		mov	r2, r7
 1130 0190 1832     		add	r2, r2, #24
 1131 0192 D118     		add	r1, r2, r3
 1132 0194 D822     		mov	r2, #216
 1133 0196 D219     		add	r2, r2, r7
 1134 0198 1368     		ldr	r3, [r2]
 1135 019a 1A68     		ldr	r2, [r3]
 1136 019c D820     		mov	r0, #216
 1137 019e C019     		add	r0, r0, r7
 1138 01a0 0368     		ldr	r3, [r0]
 1139 01a2 1B79     		ldrb	r3, [r3, #4]
 1140 01a4 081C     		mov	r0, r1
ARM GAS  C:\Users\X0217454\AppData\Local\Temp\ccwJRGby.s 			page 28


 1141 01a6 111C     		mov	r1, r2
 1142 01a8 1A1C     		mov	r2, r3
 1143 01aa FFF7FEFF 		bl	memcpy
 400:..\..\..\..\..\simplelink\source/wlan.c **** 			CmdCtrl.TxDescLen += pSecExtParams->UserLen;
 1144              		.loc 1 400 0
 1145 01ae 3B1C     		mov	r3, r7
 1146 01b0 1433     		add	r3, r3, #20
 1147 01b2 9A78     		ldrb	r2, [r3, #2]
 1148 01b4 D821     		mov	r1, #216
 1149 01b6 C919     		add	r1, r1, r7
 1150 01b8 0B68     		ldr	r3, [r1]
 1151 01ba 1B79     		ldrb	r3, [r3, #4]
 1152 01bc D318     		add	r3, r2, r3
 1153 01be DAB2     		uxtb	r2, r3
 1154 01c0 3B1C     		mov	r3, r7
 1155 01c2 1433     		add	r3, r3, #20
 1156 01c4 9A70     		strb	r2, [r3, #2]
 1157              	.L62:
 401:..\..\..\..\..\simplelink\source/wlan.c **** 		}
 402:..\..\..\..\..\simplelink\source/wlan.c **** 
 403:..\..\..\..\..\simplelink\source/wlan.c **** 		/* verify Anonymous user length (for tunneled) */
 404:..\..\..\..\..\simplelink\source/wlan.c **** 		if (pSecExtParams->AnonUserLen > MAX_ANON_USER_LEN)
 1158              		.loc 1 404 0
 1159 01c6 D822     		mov	r2, #216
 1160 01c8 D219     		add	r2, r2, r7
 1161 01ca 1368     		ldr	r3, [r2]
 1162 01cc 1B7B     		ldrb	r3, [r3, #12]
 1163 01ce 202B     		cmp	r3, #32
 1164 01d0 01D9     		bls	.L63
 405:..\..\..\..\..\simplelink\source/wlan.c **** 		{
 406:..\..\..\..\..\simplelink\source/wlan.c **** 			return SL_INVALPARAM;
 1165              		.loc 1 406 0
 1166 01d2 6C4B     		ldr	r3, .L74+4
 1167 01d4 CFE0     		b	.L73
 1168              	.L63:
 407:..\..\..\..\..\simplelink\source/wlan.c **** 		}
 408:..\..\..\..\..\simplelink\source/wlan.c **** 		Msg.Cmd.Args.AnonUserLen = pSecExtParams->AnonUserLen;
 1169              		.loc 1 408 0
 1170 01d6 D820     		mov	r0, #216
 1171 01d8 C019     		add	r0, r0, r7
 1172 01da 0368     		ldr	r3, [r0]
 1173 01dc 1A7B     		ldrb	r2, [r3, #12]
 1174 01de 3B1C     		mov	r3, r7
 1175 01e0 1833     		add	r3, r3, #24
 1176 01e2 1A73     		strb	r2, [r3, #12]
 409:..\..\..\..\..\simplelink\source/wlan.c **** 
 410:..\..\..\..\..\simplelink\source/wlan.c **** 		/* copy Anonymous user */
 411:..\..\..\..\..\simplelink\source/wlan.c **** 		if(pSecExtParams->AnonUserLen > 0)
 1177              		.loc 1 411 0
 1178 01e4 D821     		mov	r1, #216
 1179 01e6 C919     		add	r1, r1, r7
 1180 01e8 0B68     		ldr	r3, [r1]
 1181 01ea 1B7B     		ldrb	r3, [r3, #12]
 1182 01ec 002B     		cmp	r3, #0
 1183 01ee 00D1     		bne	.LCB1054
 1184 01f0 92E0     		b	.L64	@long jump
 1185              	.LCB1054:
ARM GAS  C:\Users\X0217454\AppData\Local\Temp\ccwJRGby.s 			page 29


 412:..\..\..\..\..\simplelink\source/wlan.c **** 		{
 413:..\..\..\..\..\simplelink\source/wlan.c **** 			sl_Memcpy(EAP_PROFILE_ANON_USER_STRING(&Msg), pSecExtParams->AnonUser, pSecExtParams->AnonUserLe
 1186              		.loc 1 413 0
 1187 01f2 3B1C     		mov	r3, r7
 1188 01f4 1833     		add	r3, r3, #24
 1189 01f6 5B78     		ldrb	r3, [r3, #1]
 1190 01f8 1A1C     		mov	r2, r3
 1191 01fa 3B1C     		mov	r3, r7
 1192 01fc 1833     		add	r3, r3, #24
 1193 01fe 5B7A     		ldrb	r3, [r3, #9]
 1194 0200 D218     		add	r2, r2, r3
 1195 0202 3B1C     		mov	r3, r7
 1196 0204 1833     		add	r3, r3, #24
 1197 0206 DB7A     		ldrb	r3, [r3, #11]
 1198 0208 D318     		add	r3, r2, r3
 1199 020a 1433     		add	r3, r3, #20
 1200 020c 3A1C     		mov	r2, r7
 1201 020e 1832     		add	r2, r2, #24
 1202 0210 D118     		add	r1, r2, r3
 1203 0212 D822     		mov	r2, #216
 1204 0214 D219     		add	r2, r2, r7
 1205 0216 1368     		ldr	r3, [r2]
 1206 0218 9A68     		ldr	r2, [r3, #8]
 1207 021a D820     		mov	r0, #216
 1208 021c C019     		add	r0, r0, r7
 1209 021e 0368     		ldr	r3, [r0]
 1210 0220 1B7B     		ldrb	r3, [r3, #12]
 1211 0222 081C     		mov	r0, r1
 1212 0224 111C     		mov	r1, r2
 1213 0226 1A1C     		mov	r2, r3
 1214 0228 FFF7FEFF 		bl	memcpy
 414:..\..\..\..\..\simplelink\source/wlan.c **** 			CmdCtrl.TxDescLen += pSecExtParams->AnonUserLen;
 1215              		.loc 1 414 0
 1216 022c 3B1C     		mov	r3, r7
 1217 022e 1433     		add	r3, r3, #20
 1218 0230 9A78     		ldrb	r2, [r3, #2]
 1219 0232 D821     		mov	r1, #216
 1220 0234 C919     		add	r1, r1, r7
 1221 0236 0B68     		ldr	r3, [r1]
 1222 0238 1B7B     		ldrb	r3, [r3, #12]
 1223 023a D318     		add	r3, r2, r3
 1224 023c DAB2     		uxtb	r2, r3
 1225 023e 3B1C     		mov	r3, r7
 1226 0240 1433     		add	r3, r3, #20
 1227 0242 9A70     		strb	r2, [r3, #2]
 1228 0244 68E0     		b	.L64
 1229              	.L49:
 415:..\..\..\..\..\simplelink\source/wlan.c **** 		}
 416:..\..\..\..\..\simplelink\source/wlan.c **** 
 417:..\..\..\..\..\simplelink\source/wlan.c **** 	}
 418:..\..\..\..\..\simplelink\source/wlan.c **** 	/* Regular or open security profile */
 419:..\..\..\..\..\simplelink\source/wlan.c **** 	else
 420:..\..\..\..\..\simplelink\source/wlan.c **** 	{
 421:..\..\..\..\..\simplelink\source/wlan.c **** 		/* Update command opcode */
 422:..\..\..\..\..\simplelink\source/wlan.c **** 		CmdCtrl.Opcode = SL_OPCODE_WLAN_PROFILEADDCOMMAND;
 1230              		.loc 1 422 0
 1231 0246 3B1C     		mov	r3, r7
ARM GAS  C:\Users\X0217454\AppData\Local\Temp\ccwJRGby.s 			page 30


 1232 0248 1433     		add	r3, r3, #20
 1233 024a 4F4A     		ldr	r2, .L74+8
 1234 024c 1A80     		strh	r2, [r3]
 423:..\..\..\..\..\simplelink\source/wlan.c **** 		/* update commnad length */
 424:..\..\..\..\..\simplelink\source/wlan.c **** 		CmdCtrl.TxDescLen += sizeof(_WlanAddGetProfile_t);
 1235              		.loc 1 424 0
 1236 024e 3B1C     		mov	r3, r7
 1237 0250 1433     		add	r3, r3, #20
 1238 0252 9B78     		ldrb	r3, [r3, #2]
 1239 0254 0B33     		add	r3, r3, #11
 1240 0256 DAB2     		uxtb	r2, r3
 1241 0258 3B1C     		mov	r3, r7
 1242 025a 1433     		add	r3, r3, #20
 1243 025c 9A70     		strb	r2, [r3, #2]
 425:..\..\..\..\..\simplelink\source/wlan.c **** 
 426:..\..\..\..\..\simplelink\source/wlan.c **** 		if (NULL != pName)
 1244              		.loc 1 426 0
 1245 025e FB68     		ldr	r3, [r7, #12]
 1246 0260 002B     		cmp	r3, #0
 1247 0262 14D0     		beq	.L65
 427:..\..\..\..\..\simplelink\source/wlan.c **** 		{
 428:..\..\..\..\..\simplelink\source/wlan.c **** 			/* copy SSID */
 429:..\..\..\..\..\simplelink\source/wlan.c ****             memcpy(PROFILE_SSID_STRING(&Msg), pName, NameLen);
 1248              		.loc 1 429 0
 1249 0264 BB68     		ldr	r3, [r7, #8]
 1250 0266 3A1C     		mov	r2, r7
 1251 0268 1832     		add	r2, r2, #24
 1252 026a 111C     		mov	r1, r2
 1253 026c 0B31     		add	r1, r1, #11
 1254 026e FA68     		ldr	r2, [r7, #12]
 1255 0270 081C     		mov	r0, r1
 1256 0272 111C     		mov	r1, r2
 1257 0274 1A1C     		mov	r2, r3
 1258 0276 FFF7FEFF 		bl	memcpy
 430:..\..\..\..\..\simplelink\source/wlan.c **** 			CmdCtrl.TxDescLen += NameLen;
 1259              		.loc 1 430 0
 1260 027a 3B1C     		mov	r3, r7
 1261 027c 1433     		add	r3, r3, #20
 1262 027e 9A78     		ldrb	r2, [r3, #2]
 1263 0280 BB68     		ldr	r3, [r7, #8]
 1264 0282 DBB2     		uxtb	r3, r3
 1265 0284 D318     		add	r3, r2, r3
 1266 0286 DAB2     		uxtb	r2, r3
 1267 0288 3B1C     		mov	r3, r7
 1268 028a 1433     		add	r3, r3, #20
 1269 028c 9A70     		strb	r2, [r3, #2]
 1270              	.L65:
 431:..\..\..\..\..\simplelink\source/wlan.c **** 		}
 432:..\..\..\..\..\simplelink\source/wlan.c **** 
 433:..\..\..\..\..\simplelink\source/wlan.c **** 		/* Copy password if supplied */
 434:..\..\..\..\..\simplelink\source/wlan.c **** 		if( NULL != pSecParams )
 1271              		.loc 1 434 0
 1272 028e 3B68     		ldr	r3, [r7]
 1273 0290 002B     		cmp	r3, #0
 1274 0292 39D0     		beq	.L66
 435:..\..\..\..\..\simplelink\source/wlan.c **** 		{
 436:..\..\..\..\..\simplelink\source/wlan.c **** 			/* update security type */
ARM GAS  C:\Users\X0217454\AppData\Local\Temp\ccwJRGby.s 			page 31


 437:..\..\..\..\..\simplelink\source/wlan.c **** 			Msg.Cmd.Args.Common.SecType = pSecParams->Type;
 1275              		.loc 1 437 0
 1276 0294 3B68     		ldr	r3, [r7]
 1277 0296 1B78     		ldrb	r3, [r3]
 1278 0298 DAB2     		uxtb	r2, r3
 1279 029a 3B1C     		mov	r3, r7
 1280 029c 1833     		add	r3, r3, #24
 1281 029e 1A70     		strb	r2, [r3]
 438:..\..\..\..\..\simplelink\source/wlan.c **** 
 439:..\..\..\..\..\simplelink\source/wlan.c **** 			if( SL_SEC_TYPE_WEP == Msg.Cmd.Args.Common.SecType )
 1282              		.loc 1 439 0
 1283 02a0 3B1C     		mov	r3, r7
 1284 02a2 1833     		add	r3, r3, #24
 1285 02a4 1B78     		ldrb	r3, [r3]
 1286 02a6 5BB2     		sxtb	r3, r3
 1287 02a8 012B     		cmp	r3, #1
 1288 02aa 03D1     		bne	.L67
 440:..\..\..\..\..\simplelink\source/wlan.c **** 			{
 441:..\..\..\..\..\simplelink\source/wlan.c **** 				 Msg.Cmd.Args.Common.WepKeyId = 0;
 1289              		.loc 1 441 0
 1290 02ac 3B1C     		mov	r3, r7
 1291 02ae 1833     		add	r3, r3, #24
 1292 02b0 0022     		mov	r2, #0
 1293 02b2 9A72     		strb	r2, [r3, #10]
 1294              	.L67:
 442:..\..\..\..\..\simplelink\source/wlan.c **** 			}
 443:..\..\..\..\..\simplelink\source/wlan.c **** 
 444:..\..\..\..\..\simplelink\source/wlan.c **** 			/* verify key length */
 445:..\..\..\..\..\simplelink\source/wlan.c **** 			if (pSecParams->KeyLen > MAX_KEY_LEN)
 1295              		.loc 1 445 0
 1296 02b4 3B68     		ldr	r3, [r7]
 1297 02b6 1B7A     		ldrb	r3, [r3, #8]
 1298 02b8 3F2B     		cmp	r3, #63
 1299 02ba 01D9     		bls	.L68
 446:..\..\..\..\..\simplelink\source/wlan.c **** 			{
 447:..\..\..\..\..\simplelink\source/wlan.c **** 				return SL_INVALPARAM;
 1300              		.loc 1 447 0
 1301 02bc 314B     		ldr	r3, .L74+4
 1302 02be 5AE0     		b	.L73
 1303              	.L68:
 448:..\..\..\..\..\simplelink\source/wlan.c **** 			}
 449:..\..\..\..\..\simplelink\source/wlan.c **** 			/* update key length */
 450:..\..\..\..\..\simplelink\source/wlan.c **** 			Msg.Cmd.Args.Common.PasswordLen = pSecParams->KeyLen;
 1304              		.loc 1 450 0
 1305 02c0 3B68     		ldr	r3, [r7]
 1306 02c2 1A7A     		ldrb	r2, [r3, #8]
 1307 02c4 3B1C     		mov	r3, r7
 1308 02c6 1833     		add	r3, r3, #24
 1309 02c8 5A72     		strb	r2, [r3, #9]
 451:..\..\..\..\..\simplelink\source/wlan.c **** 			CmdCtrl.TxDescLen += pSecParams->KeyLen;
 1310              		.loc 1 451 0
 1311 02ca 3B1C     		mov	r3, r7
 1312 02cc 1433     		add	r3, r3, #20
 1313 02ce 9A78     		ldrb	r2, [r3, #2]
 1314 02d0 3B68     		ldr	r3, [r7]
 1315 02d2 1B7A     		ldrb	r3, [r3, #8]
 1316 02d4 D318     		add	r3, r2, r3
ARM GAS  C:\Users\X0217454\AppData\Local\Temp\ccwJRGby.s 			page 32


 1317 02d6 DAB2     		uxtb	r2, r3
 1318 02d8 3B1C     		mov	r3, r7
 1319 02da 1433     		add	r3, r3, #20
 1320 02dc 9A70     		strb	r2, [r3, #2]
 452:..\..\..\..\..\simplelink\source/wlan.c ****             /* copy key (could be no key in case of WPS pin) */
 453:..\..\..\..\..\simplelink\source/wlan.c ****                         if( NULL != pSecParams->Key )
 1321              		.loc 1 453 0
 1322 02de 3B68     		ldr	r3, [r7]
 1323 02e0 5B68     		ldr	r3, [r3, #4]
 1324 02e2 002B     		cmp	r3, #0
 1325 02e4 18D0     		beq	.L64
 454:..\..\..\..\..\simplelink\source/wlan.c ****                         {
 455:..\..\..\..\..\simplelink\source/wlan.c **** 			sl_Memcpy(PROFILE_PASSWORD_STRING(&Msg), pSecParams->Key, pSecParams->KeyLen);
 1326              		.loc 1 455 0
 1327 02e6 3B1C     		mov	r3, r7
 1328 02e8 1833     		add	r3, r3, #24
 1329 02ea 5B78     		ldrb	r3, [r3, #1]
 1330 02ec 0B33     		add	r3, r3, #11
 1331 02ee 3A1C     		mov	r2, r7
 1332 02f0 1832     		add	r2, r2, #24
 1333 02f2 D118     		add	r1, r2, r3
 1334 02f4 3B68     		ldr	r3, [r7]
 1335 02f6 5A68     		ldr	r2, [r3, #4]
 1336 02f8 3B68     		ldr	r3, [r7]
 1337 02fa 1B7A     		ldrb	r3, [r3, #8]
 1338 02fc 081C     		mov	r0, r1
 1339 02fe 111C     		mov	r1, r2
 1340 0300 1A1C     		mov	r2, r3
 1341 0302 FFF7FEFF 		bl	memcpy
 1342 0306 07E0     		b	.L64
 1343              	.L66:
 456:..\..\..\..\..\simplelink\source/wlan.c **** 		}
 457:..\..\..\..\..\simplelink\source/wlan.c **** 		}
 458:..\..\..\..\..\simplelink\source/wlan.c **** 		else
 459:..\..\..\..\..\simplelink\source/wlan.c **** 		{
 460:..\..\..\..\..\simplelink\source/wlan.c **** 			Msg.Cmd.Args.Common.SecType = SL_SEC_TYPE_OPEN;
 1344              		.loc 1 460 0
 1345 0308 3B1C     		mov	r3, r7
 1346 030a 1833     		add	r3, r3, #24
 1347 030c 0022     		mov	r2, #0
 1348 030e 1A70     		strb	r2, [r3]
 461:..\..\..\..\..\simplelink\source/wlan.c **** 			Msg.Cmd.Args.Common.PasswordLen = 0;
 1349              		.loc 1 461 0
 1350 0310 3B1C     		mov	r3, r7
 1351 0312 1833     		add	r3, r3, #24
 1352 0314 0022     		mov	r2, #0
 1353 0316 5A72     		strb	r2, [r3, #9]
 1354              	.L64:
 462:..\..\..\..\..\simplelink\source/wlan.c **** 		}
 463:..\..\..\..\..\simplelink\source/wlan.c **** 
 464:..\..\..\..\..\simplelink\source/wlan.c **** 	}
 465:..\..\..\..\..\simplelink\source/wlan.c **** 
 466:..\..\..\..\..\simplelink\source/wlan.c **** 
 467:..\..\..\..\..\simplelink\source/wlan.c **** 	/* If BSSID is not null, copy to buffer, otherwise set to 0  */
 468:..\..\..\..\..\simplelink\source/wlan.c **** 	if(NULL != pMacAddr)
 1355              		.loc 1 468 0
 1356 0318 7B68     		ldr	r3, [r7, #4]
ARM GAS  C:\Users\X0217454\AppData\Local\Temp\ccwJRGby.s 			page 33


 1357 031a 002B     		cmp	r3, #0
 1358 031c 0CD0     		beq	.L69
 469:..\..\..\..\..\simplelink\source/wlan.c **** 	{
 470:..\..\..\..\..\simplelink\source/wlan.c **** 		sl_Memcpy(Msg.Cmd.Args.Common.Bssid, pMacAddr, sizeof(Msg.Cmd.Args.Common.Bssid));
 1359              		.loc 1 470 0
 1360 031e 391C     		mov	r1, r7
 1361 0320 1831     		add	r1, r1, #24
 1362 0322 0322     		mov	r2, #3
 1363 0324 7B68     		ldr	r3, [r7, #4]
 1364 0326 8918     		add	r1, r1, r2
 1365 0328 1A1C     		mov	r2, r3
 1366 032a 0623     		mov	r3, #6
 1367 032c 081C     		mov	r0, r1
 1368 032e 111C     		mov	r1, r2
 1369 0330 1A1C     		mov	r2, r3
 1370 0332 FFF7FEFF 		bl	memcpy
 1371 0336 07E0     		b	.L70
 1372              	.L69:
 471:..\..\..\..\..\simplelink\source/wlan.c **** 	}
 472:..\..\..\..\..\simplelink\source/wlan.c **** 	else
 473:..\..\..\..\..\simplelink\source/wlan.c **** 	{
 474:..\..\..\..\..\simplelink\source/wlan.c **** 		sl_Memset(Msg.Cmd.Args.Common.Bssid, 0, sizeof(Msg.Cmd.Args.Common.Bssid));
 1373              		.loc 1 474 0
 1374 0338 3B1C     		mov	r3, r7
 1375 033a 1833     		add	r3, r3, #24
 1376 033c 0333     		add	r3, r3, #3
 1377 033e 181C     		mov	r0, r3
 1378 0340 0021     		mov	r1, #0
 1379 0342 0622     		mov	r2, #6
 1380 0344 FFF7FEFF 		bl	memset
 1381              	.L70:
 1382              	.LBB5:
 475:..\..\..\..\..\simplelink\source/wlan.c **** 	}
 476:..\..\..\..\..\simplelink\source/wlan.c **** 
 477:..\..\..\..\..\simplelink\source/wlan.c **** 	VERIFY_RET_OK(_SlDrvCmdOp(&CmdCtrl, &Msg, NULL));
 1383              		.loc 1 477 0
 1384 0348 3A1C     		mov	r2, r7
 1385 034a 1432     		add	r2, r2, #20
 1386 034c 3B1C     		mov	r3, r7
 1387 034e 1833     		add	r3, r3, #24
 1388 0350 101C     		mov	r0, r2
 1389 0352 191C     		mov	r1, r3
 1390 0354 0022     		mov	r2, #0
 1391 0356 FFF7FEFF 		bl	_SlDrvCmdOp
 1392 035a 031C     		mov	r3, r0
 1393 035c CC22     		mov	r2, #204
 1394 035e D219     		add	r2, r2, r7
 1395 0360 1360     		str	r3, [r2]
 1396 0362 CC20     		mov	r0, #204
 1397 0364 C019     		add	r0, r0, r7
 1398 0366 0368     		ldr	r3, [r0]
 1399 0368 002B     		cmp	r3, #0
 1400 036a 00D0     		beq	.L71
 1401              	.L72:
 1402              		.loc 1 477 0 is_stmt 0 discriminator 1
 1403 036c FEE7     		b	.L72
 1404              	.L71:
ARM GAS  C:\Users\X0217454\AppData\Local\Temp\ccwJRGby.s 			page 34


 1405              	.LBE5:
 478:..\..\..\..\..\simplelink\source/wlan.c **** 
 479:..\..\..\..\..\simplelink\source/wlan.c ****     return (int)Msg.Rsp.status;
 1406              		.loc 1 479 0 is_stmt 1
 1407 036e 3B1C     		mov	r3, r7
 1408 0370 1833     		add	r3, r3, #24
 1409 0372 1B88     		ldrh	r3, [r3]
 1410 0374 1BB2     		sxth	r3, r3
 1411              	.L73:
 480:..\..\..\..\..\simplelink\source/wlan.c **** }
 1412              		.loc 1 480 0
 1413 0376 181C     		mov	r0, r3
 1414 0378 BD46     		mov	sp, r7
 1415 037a 34B0     		add	sp, sp, #208
 1416              		@ sp needed for prologue
 1417 037c 80BD     		pop	{r7, pc}
 1418              	.L75:
 1419 037e C046     		.align	2
 1420              	.L74:
 1421 0380 678CFFFF 		.word	-29593
 1422 0384 2DF8FFFF 		.word	-2003
 1423 0388 838CFFFF 		.word	-29565
 1424              		.cfi_endproc
 1425              	.LFE4:
 1426              		.size	sl_WlanProfileAdd, .-sl_WlanProfileAdd
 1427              		.global	_SlProfileGetCmdCtrl
 1428              		.section	.rodata
 1429              		.align	2
 1430              		.type	_SlProfileGetCmdCtrl, %object
 1431              		.size	_SlProfileGetCmdCtrl, 4
 1432              	_SlProfileGetCmdCtrl:
 1433 0008 848C     		.short	-29564
 1434 000a 04       		.byte	4
 1435 000b B4       		.byte	-76
 1436              		.section	.text.sl_WlanProfileGet,"ax",%progbits
 1437              		.align	2
 1438              		.global	sl_WlanProfileGet
 1439              		.code	16
 1440              		.thumb_func
 1441              		.type	sl_WlanProfileGet, %function
 1442              	sl_WlanProfileGet:
 1443              	.LFB5:
 481:..\..\..\..\..\simplelink\source/wlan.c **** #endif
 482:..\..\..\..\..\simplelink\source/wlan.c **** /*******************************************************************************/
 483:..\..\..\..\..\simplelink\source/wlan.c **** /*   sl_ProfileGet */
 484:..\..\..\..\..\simplelink\source/wlan.c **** /*******************************************************************************/
 485:..\..\..\..\..\simplelink\source/wlan.c **** typedef union
 486:..\..\..\..\..\simplelink\source/wlan.c **** {
 487:..\..\..\..\..\simplelink\source/wlan.c ****     _WlanProfileDelGetCommand_t Cmd;
 488:..\..\..\..\..\simplelink\source/wlan.c **** 	_SlProfileParams_t	        Rsp;
 489:..\..\..\..\..\simplelink\source/wlan.c **** }_SlProfileGetMsg_u;
 490:..\..\..\..\..\simplelink\source/wlan.c **** 
 491:..\..\..\..\..\simplelink\source/wlan.c **** const _SlCmdCtrl_t _SlProfileGetCmdCtrl =
 492:..\..\..\..\..\simplelink\source/wlan.c **** {
 493:..\..\..\..\..\simplelink\source/wlan.c ****     SL_OPCODE_WLAN_PROFILEGETCOMMAND,
 494:..\..\..\..\..\simplelink\source/wlan.c ****     sizeof(_WlanProfileDelGetCommand_t),
 495:..\..\..\..\..\simplelink\source/wlan.c ****     sizeof(_SlProfileParams_t)
ARM GAS  C:\Users\X0217454\AppData\Local\Temp\ccwJRGby.s 			page 35


 496:..\..\..\..\..\simplelink\source/wlan.c **** };
 497:..\..\..\..\..\simplelink\source/wlan.c **** #if _SL_INCLUDE_FUNC(sl_WlanProfileGet)
 498:..\..\..\..\..\simplelink\source/wlan.c **** int sl_WlanProfileGet(int Index,char* pName, int *pNameLen, unsigned char *pMacAddr, SlSecParams_t*
 499:..\..\..\..\..\simplelink\source/wlan.c **** {
 1444              		.loc 1 499 0
 1445              		.cfi_startproc
 1446 0000 80B5     		push	{r7, lr}
 1447              	.LCFI14:
 1448              		.cfi_def_cfa_offset 8
 1449              		.cfi_offset 7, -8
 1450              		.cfi_offset 14, -4
 1451 0002 B2B0     		sub	sp, sp, #200
 1452              	.LCFI15:
 1453              		.cfi_def_cfa_offset 208
 1454 0004 00AF     		add	r7, sp, #0
 1455              	.LCFI16:
 1456              		.cfi_def_cfa_register 7
 1457 0006 F860     		str	r0, [r7, #12]
 1458 0008 B960     		str	r1, [r7, #8]
 1459 000a 7A60     		str	r2, [r7, #4]
 1460 000c 3B60     		str	r3, [r7]
 500:..\..\..\..\..\simplelink\source/wlan.c ****     _SlProfileGetMsg_u      Msg;
 501:..\..\..\..\..\simplelink\source/wlan.c ****     Msg.Cmd.index = (UINT8)Index;
 1461              		.loc 1 501 0
 1462 000e FB68     		ldr	r3, [r7, #12]
 1463 0010 DAB2     		uxtb	r2, r3
 1464 0012 3B1C     		mov	r3, r7
 1465 0014 1033     		add	r3, r3, #16
 1466 0016 1A70     		strb	r2, [r3]
 1467              	.LBB6:
 502:..\..\..\..\..\simplelink\source/wlan.c **** 
 503:..\..\..\..\..\simplelink\source/wlan.c ****     VERIFY_RET_OK(_SlDrvCmdOp((_SlCmdCtrl_t *)&_SlProfileGetCmdCtrl, &Msg, NULL));
 1468              		.loc 1 503 0
 1469 0018 534A     		ldr	r2, .L82
 1470 001a 3B1C     		mov	r3, r7
 1471 001c 1033     		add	r3, r3, #16
 1472 001e 101C     		mov	r0, r2
 1473 0020 191C     		mov	r1, r3
 1474 0022 0022     		mov	r2, #0
 1475 0024 FFF7FEFF 		bl	_SlDrvCmdOp
 1476 0028 031C     		mov	r3, r0
 1477 002a C421     		mov	r1, #196
 1478 002c C919     		add	r1, r1, r7
 1479 002e 0B60     		str	r3, [r1]
 1480 0030 C422     		mov	r2, #196
 1481 0032 D219     		add	r2, r2, r7
 1482 0034 1368     		ldr	r3, [r2]
 1483 0036 002B     		cmp	r3, #0
 1484 0038 00D0     		beq	.L77
 1485              	.L78:
 1486              		.loc 1 503 0 is_stmt 0 discriminator 1
 1487 003a FEE7     		b	.L78
 1488              	.L77:
 1489              	.LBE6:
 504:..\..\..\..\..\simplelink\source/wlan.c **** 
 505:..\..\..\..\..\simplelink\source/wlan.c **** 	pSecParams->Type = Msg.Rsp.Args.Common.SecType;
 1490              		.loc 1 505 0 is_stmt 1
ARM GAS  C:\Users\X0217454\AppData\Local\Temp\ccwJRGby.s 			page 36


 1491 003c 3B1C     		mov	r3, r7
 1492 003e 1033     		add	r3, r3, #16
 1493 0040 1B78     		ldrb	r3, [r3]
 1494 0042 DAB2     		uxtb	r2, r3
 1495 0044 D021     		mov	r1, #208
 1496 0046 C919     		add	r1, r1, r7
 1497 0048 0B68     		ldr	r3, [r1]
 1498 004a 1A70     		strb	r2, [r3]
 506:..\..\..\..\..\simplelink\source/wlan.c **** 	/* since password is not transferred in getprofile, password length should always be zero */
 507:..\..\..\..\..\simplelink\source/wlan.c **** 	pSecParams->KeyLen = Msg.Rsp.Args.Common.PasswordLen;
 1499              		.loc 1 507 0
 1500 004c 3B1C     		mov	r3, r7
 1501 004e 1033     		add	r3, r3, #16
 1502 0050 5A7A     		ldrb	r2, [r3, #9]
 1503 0052 D021     		mov	r1, #208
 1504 0054 C919     		add	r1, r1, r7
 1505 0056 0B68     		ldr	r3, [r1]
 1506 0058 1A72     		strb	r2, [r3, #8]
 508:..\..\..\..\..\simplelink\source/wlan.c **** 	if (NULL != pEntParams)
 1507              		.loc 1 508 0
 1508 005a D422     		mov	r2, #212
 1509 005c D219     		add	r2, r2, r7
 1510 005e 1368     		ldr	r3, [r2]
 1511 0060 002B     		cmp	r3, #0
 1512 0062 55D0     		beq	.L79
 509:..\..\..\..\..\simplelink\source/wlan.c **** 	{
 510:..\..\..\..\..\simplelink\source/wlan.c **** 	pEntParams->UserLen = Msg.Rsp.Args.UserLen;
 1513              		.loc 1 510 0
 1514 0064 3B1C     		mov	r3, r7
 1515 0066 1033     		add	r3, r3, #16
 1516 0068 D97A     		ldrb	r1, [r3, #11]
 1517 006a D423     		mov	r3, #212
 1518 006c DB19     		add	r3, r3, r7
 1519 006e 1A68     		ldr	r2, [r3]
 1520 0070 2023     		mov	r3, #32
 1521 0072 D154     		strb	r1, [r2, r3]
 511:..\..\..\..\..\simplelink\source/wlan.c **** 	    /* copy user name */
 512:..\..\..\..\..\simplelink\source/wlan.c **** 	if (pEntParams->UserLen > 0)
 1522              		.loc 1 512 0
 1523 0074 D421     		mov	r1, #212
 1524 0076 C919     		add	r1, r1, r7
 1525 0078 0A68     		ldr	r2, [r1]
 1526 007a 2023     		mov	r3, #32
 1527 007c D35C     		ldrb	r3, [r2, r3]
 1528 007e 002B     		cmp	r3, #0
 1529 0080 18D0     		beq	.L80
 513:..\..\..\..\..\simplelink\source/wlan.c **** 	{	 
 514:..\..\..\..\..\simplelink\source/wlan.c **** 		memcpy(pEntParams->User, EAP_PROFILE_USER_STRING(&Msg), pEntParams->UserLen);
 1530              		.loc 1 514 0
 1531 0082 D422     		mov	r2, #212
 1532 0084 D219     		add	r2, r2, r7
 1533 0086 1168     		ldr	r1, [r2]
 1534 0088 3B1C     		mov	r3, r7
 1535 008a 1033     		add	r3, r3, #16
 1536 008c 5B78     		ldrb	r3, [r3, #1]
 1537 008e 1A1C     		mov	r2, r3
 1538 0090 3B1C     		mov	r3, r7
ARM GAS  C:\Users\X0217454\AppData\Local\Temp\ccwJRGby.s 			page 37


 1539 0092 1033     		add	r3, r3, #16
 1540 0094 5B7A     		ldrb	r3, [r3, #9]
 1541 0096 D318     		add	r3, r2, r3
 1542 0098 1433     		add	r3, r3, #20
 1543 009a 3A1C     		mov	r2, r7
 1544 009c 1032     		add	r2, r2, #16
 1545 009e D218     		add	r2, r2, r3
 1546 00a0 D423     		mov	r3, #212
 1547 00a2 DB19     		add	r3, r3, r7
 1548 00a4 1868     		ldr	r0, [r3]
 1549 00a6 2023     		mov	r3, #32
 1550 00a8 C35C     		ldrb	r3, [r0, r3]
 1551 00aa 081C     		mov	r0, r1
 1552 00ac 111C     		mov	r1, r2
 1553 00ae 1A1C     		mov	r2, r3
 1554 00b0 FFF7FEFF 		bl	memcpy
 1555              	.L80:
 515:..\..\..\..\..\simplelink\source/wlan.c **** 	}
 516:..\..\..\..\..\simplelink\source/wlan.c **** 	pEntParams->AnonUserLen = Msg.Rsp.Args.AnonUserLen;
 1556              		.loc 1 516 0
 1557 00b4 3B1C     		mov	r3, r7
 1558 00b6 1033     		add	r3, r3, #16
 1559 00b8 197B     		ldrb	r1, [r3, #12]
 1560 00ba D423     		mov	r3, #212
 1561 00bc DB19     		add	r3, r3, r7
 1562 00be 1A68     		ldr	r2, [r3]
 1563 00c0 4123     		mov	r3, #65
 1564 00c2 D154     		strb	r1, [r2, r3]
 517:..\..\..\..\..\simplelink\source/wlan.c **** 	    /* copy anonymous user name */
 518:..\..\..\..\..\simplelink\source/wlan.c **** 	if (pEntParams->AnonUserLen > 0)
 1565              		.loc 1 518 0
 1566 00c4 D421     		mov	r1, #212
 1567 00c6 C919     		add	r1, r1, r7
 1568 00c8 0A68     		ldr	r2, [r1]
 1569 00ca 4123     		mov	r3, #65
 1570 00cc D35C     		ldrb	r3, [r2, r3]
 1571 00ce 002B     		cmp	r3, #0
 1572 00d0 1ED0     		beq	.L79
 519:..\..\..\..\..\simplelink\source/wlan.c **** 	{
 520:..\..\..\..\..\simplelink\source/wlan.c **** 		memcpy(pEntParams->AnonUser, EAP_PROFILE_ANON_USER_STRING(&Msg), pEntParams->AnonUserLen);
 1573              		.loc 1 520 0
 1574 00d2 D422     		mov	r2, #212
 1575 00d4 D219     		add	r2, r2, r7
 1576 00d6 1368     		ldr	r3, [r2]
 1577 00d8 191C     		mov	r1, r3
 1578 00da 2131     		add	r1, r1, #33
 1579 00dc 3B1C     		mov	r3, r7
 1580 00de 1033     		add	r3, r3, #16
 1581 00e0 5B78     		ldrb	r3, [r3, #1]
 1582 00e2 1A1C     		mov	r2, r3
 1583 00e4 3B1C     		mov	r3, r7
 1584 00e6 1033     		add	r3, r3, #16
 1585 00e8 5B7A     		ldrb	r3, [r3, #9]
 1586 00ea D218     		add	r2, r2, r3
 1587 00ec 3B1C     		mov	r3, r7
 1588 00ee 1033     		add	r3, r3, #16
 1589 00f0 DB7A     		ldrb	r3, [r3, #11]
ARM GAS  C:\Users\X0217454\AppData\Local\Temp\ccwJRGby.s 			page 38


 1590 00f2 D318     		add	r3, r2, r3
 1591 00f4 1433     		add	r3, r3, #20
 1592 00f6 3A1C     		mov	r2, r7
 1593 00f8 1032     		add	r2, r2, #16
 1594 00fa D218     		add	r2, r2, r3
 1595 00fc D423     		mov	r3, #212
 1596 00fe DB19     		add	r3, r3, r7
 1597 0100 1868     		ldr	r0, [r3]
 1598 0102 4123     		mov	r3, #65
 1599 0104 C35C     		ldrb	r3, [r0, r3]
 1600 0106 081C     		mov	r0, r1
 1601 0108 111C     		mov	r1, r2
 1602 010a 1A1C     		mov	r2, r3
 1603 010c FFF7FEFF 		bl	memcpy
 1604              	.L79:
 521:..\..\..\..\..\simplelink\source/wlan.c **** 	}
 522:..\..\..\..\..\simplelink\source/wlan.c ****         }
 523:..\..\..\..\..\simplelink\source/wlan.c ****      
 524:..\..\..\..\..\simplelink\source/wlan.c ****     *pNameLen  = Msg.Rsp.Args.Common.SsidLen;      
 1605              		.loc 1 524 0
 1606 0110 3B1C     		mov	r3, r7
 1607 0112 1033     		add	r3, r3, #16
 1608 0114 5B78     		ldrb	r3, [r3, #1]
 1609 0116 1A1C     		mov	r2, r3
 1610 0118 7B68     		ldr	r3, [r7, #4]
 1611 011a 1A60     		str	r2, [r3]
 525:..\..\..\..\..\simplelink\source/wlan.c ****     *pPriority = Msg.Rsp.Args.Common.Priority;       
 1612              		.loc 1 525 0
 1613 011c 3B1C     		mov	r3, r7
 1614 011e 1033     		add	r3, r3, #16
 1615 0120 9B78     		ldrb	r3, [r3, #2]
 1616 0122 1A1C     		mov	r2, r3
 1617 0124 D821     		mov	r1, #216
 1618 0126 C919     		add	r1, r1, r7
 1619 0128 0B68     		ldr	r3, [r1]
 1620 012a 1A60     		str	r2, [r3]
 526:..\..\..\..\..\simplelink\source/wlan.c **** 
 527:..\..\..\..\..\simplelink\source/wlan.c **** 	if (NULL != Msg.Rsp.Args.Common.Bssid)
 528:..\..\..\..\..\simplelink\source/wlan.c **** 	{
 529:..\..\..\..\..\simplelink\source/wlan.c **** 		memcpy(pMacAddr, Msg.Rsp.Args.Common.Bssid, sizeof(Msg.Rsp.Args.Common.Bssid));
 1621              		.loc 1 529 0
 1622 012c 3A68     		ldr	r2, [r7]
 1623 012e 3B1C     		mov	r3, r7
 1624 0130 1333     		add	r3, r3, #19
 1625 0132 111C     		mov	r1, r2
 1626 0134 1A1C     		mov	r2, r3
 1627 0136 0623     		mov	r3, #6
 1628 0138 081C     		mov	r0, r1
 1629 013a 111C     		mov	r1, r2
 1630 013c 1A1C     		mov	r2, r3
 1631 013e FFF7FEFF 		bl	memcpy
 530:..\..\..\..\..\simplelink\source/wlan.c **** 	}
 531:..\..\..\..\..\simplelink\source/wlan.c **** 
 532:..\..\..\..\..\simplelink\source/wlan.c ****     memcpy(pName, EAP_PROFILE_SSID_STRING(&Msg), *pNameLen);
 1632              		.loc 1 532 0
 1633 0142 7B68     		ldr	r3, [r7, #4]
 1634 0144 1B68     		ldr	r3, [r3]
ARM GAS  C:\Users\X0217454\AppData\Local\Temp\ccwJRGby.s 			page 39


 1635 0146 B968     		ldr	r1, [r7, #8]
 1636 0148 3A1C     		mov	r2, r7
 1637 014a 1032     		add	r2, r2, #16
 1638 014c 1432     		add	r2, r2, #20
 1639 014e 081C     		mov	r0, r1
 1640 0150 111C     		mov	r1, r2
 1641 0152 1A1C     		mov	r2, r3
 1642 0154 FFF7FEFF 		bl	memcpy
 533:..\..\..\..\..\simplelink\source/wlan.c **** 
 534:..\..\..\..\..\simplelink\source/wlan.c ****     return (int)Msg.Rsp.Args.Common.SecType;
 1643              		.loc 1 534 0
 1644 0158 3B1C     		mov	r3, r7
 1645 015a 1033     		add	r3, r3, #16
 1646 015c 1B78     		ldrb	r3, [r3]
 1647 015e 5BB2     		sxtb	r3, r3
 535:..\..\..\..\..\simplelink\source/wlan.c **** 
 536:..\..\..\..\..\simplelink\source/wlan.c **** }
 1648              		.loc 1 536 0
 1649 0160 181C     		mov	r0, r3
 1650 0162 BD46     		mov	sp, r7
 1651 0164 32B0     		add	sp, sp, #200
 1652              		@ sp needed for prologue
 1653 0166 80BD     		pop	{r7, pc}
 1654              	.L83:
 1655              		.align	2
 1656              	.L82:
 1657 0168 00000000 		.word	_SlProfileGetCmdCtrl
 1658              		.cfi_endproc
 1659              	.LFE5:
 1660              		.size	sl_WlanProfileGet, .-sl_WlanProfileGet
 1661              		.global	_SlProfileDelCmdCtrl
 1662              		.section	.rodata
 1663              		.align	2
 1664              		.type	_SlProfileDelCmdCtrl, %object
 1665              		.size	_SlProfileDelCmdCtrl, 4
 1666              	_SlProfileDelCmdCtrl:
 1667 000c 858C     		.short	-29563
 1668 000e 04       		.byte	4
 1669 000f 04       		.byte	4
 1670              		.section	.text.sl_WlanProfileDel,"ax",%progbits
 1671              		.align	2
 1672              		.global	sl_WlanProfileDel
 1673              		.code	16
 1674              		.thumb_func
 1675              		.type	sl_WlanProfileDel, %function
 1676              	sl_WlanProfileDel:
 1677              	.LFB6:
 537:..\..\..\..\..\simplelink\source/wlan.c **** #endif
 538:..\..\..\..\..\simplelink\source/wlan.c **** /*******************************************************************************/
 539:..\..\..\..\..\simplelink\source/wlan.c **** /*   sl_ProfileDel  */
 540:..\..\..\..\..\simplelink\source/wlan.c **** /*******************************************************************************/
 541:..\..\..\..\..\simplelink\source/wlan.c **** typedef union
 542:..\..\..\..\..\simplelink\source/wlan.c **** {
 543:..\..\..\..\..\simplelink\source/wlan.c **** 	_WlanProfileDelGetCommand_t	    Cmd;
 544:..\..\..\..\..\simplelink\source/wlan.c **** 	_BasicResponse_t	            Rsp;
 545:..\..\..\..\..\simplelink\source/wlan.c **** }_SlProfileDelMsg_u;
 546:..\..\..\..\..\simplelink\source/wlan.c **** 
ARM GAS  C:\Users\X0217454\AppData\Local\Temp\ccwJRGby.s 			page 40


 547:..\..\..\..\..\simplelink\source/wlan.c **** const _SlCmdCtrl_t _SlProfileDelCmdCtrl =
 548:..\..\..\..\..\simplelink\source/wlan.c **** {
 549:..\..\..\..\..\simplelink\source/wlan.c ****     SL_OPCODE_WLAN_PROFILEDELCOMMAND,
 550:..\..\..\..\..\simplelink\source/wlan.c ****     sizeof(_WlanProfileDelGetCommand_t),
 551:..\..\..\..\..\simplelink\source/wlan.c ****     sizeof(_BasicResponse_t)
 552:..\..\..\..\..\simplelink\source/wlan.c **** };
 553:..\..\..\..\..\simplelink\source/wlan.c **** 
 554:..\..\..\..\..\simplelink\source/wlan.c **** #if _SL_INCLUDE_FUNC(sl_WlanProfileDel)
 555:..\..\..\..\..\simplelink\source/wlan.c **** int sl_WlanProfileDel(int Index)
 556:..\..\..\..\..\simplelink\source/wlan.c **** {
 1678              		.loc 1 556 0
 1679              		.cfi_startproc
 1680 0000 80B5     		push	{r7, lr}
 1681              	.LCFI17:
 1682              		.cfi_def_cfa_offset 8
 1683              		.cfi_offset 7, -8
 1684              		.cfi_offset 14, -4
 1685 0002 84B0     		sub	sp, sp, #16
 1686              	.LCFI18:
 1687              		.cfi_def_cfa_offset 24
 1688 0004 00AF     		add	r7, sp, #0
 1689              	.LCFI19:
 1690              		.cfi_def_cfa_register 7
 1691 0006 7860     		str	r0, [r7, #4]
 557:..\..\..\..\..\simplelink\source/wlan.c ****     _SlProfileDelMsg_u Msg;
 558:..\..\..\..\..\simplelink\source/wlan.c **** 
 559:..\..\..\..\..\simplelink\source/wlan.c ****     Msg.Cmd.index = (UINT8)Index;
 1692              		.loc 1 559 0
 1693 0008 7B68     		ldr	r3, [r7, #4]
 1694 000a DAB2     		uxtb	r2, r3
 1695 000c 3B1C     		mov	r3, r7
 1696 000e 0833     		add	r3, r3, #8
 1697 0010 1A70     		strb	r2, [r3]
 1698              	.LBB7:
 560:..\..\..\..\..\simplelink\source/wlan.c **** 
 561:..\..\..\..\..\simplelink\source/wlan.c ****     VERIFY_RET_OK(_SlDrvCmdOp((_SlCmdCtrl_t *)&_SlProfileDelCmdCtrl, &Msg, NULL));
 1699              		.loc 1 561 0
 1700 0012 0B4A     		ldr	r2, .L88
 1701 0014 3B1C     		mov	r3, r7
 1702 0016 0833     		add	r3, r3, #8
 1703 0018 101C     		mov	r0, r2
 1704 001a 191C     		mov	r1, r3
 1705 001c 0022     		mov	r2, #0
 1706 001e FFF7FEFF 		bl	_SlDrvCmdOp
 1707 0022 031C     		mov	r3, r0
 1708 0024 FB60     		str	r3, [r7, #12]
 1709 0026 FB68     		ldr	r3, [r7, #12]
 1710 0028 002B     		cmp	r3, #0
 1711 002a 00D0     		beq	.L85
 1712              	.L86:
 1713              		.loc 1 561 0 is_stmt 0 discriminator 1
 1714 002c FEE7     		b	.L86
 1715              	.L85:
 1716              	.LBE7:
 562:..\..\..\..\..\simplelink\source/wlan.c **** 
 563:..\..\..\..\..\simplelink\source/wlan.c ****     return (int)Msg.Rsp.status;
 1717              		.loc 1 563 0 is_stmt 1
ARM GAS  C:\Users\X0217454\AppData\Local\Temp\ccwJRGby.s 			page 41


 1718 002e 3B1C     		mov	r3, r7
 1719 0030 0833     		add	r3, r3, #8
 1720 0032 1B88     		ldrh	r3, [r3]
 1721 0034 1BB2     		sxth	r3, r3
 564:..\..\..\..\..\simplelink\source/wlan.c **** }
 1722              		.loc 1 564 0
 1723 0036 181C     		mov	r0, r3
 1724 0038 BD46     		mov	sp, r7
 1725 003a 04B0     		add	sp, sp, #16
 1726              		@ sp needed for prologue
 1727 003c 80BD     		pop	{r7, pc}
 1728              	.L89:
 1729 003e C046     		.align	2
 1730              	.L88:
 1731 0040 00000000 		.word	_SlProfileDelCmdCtrl
 1732              		.cfi_endproc
 1733              	.LFE6:
 1734              		.size	sl_WlanProfileDel, .-sl_WlanProfileDel
 1735              		.global	_SlWlanGetNetworkListCtrl
 1736              		.section	.rodata
 1737              		.align	2
 1738              		.type	_SlWlanGetNetworkListCtrl, %object
 1739              		.size	_SlWlanGetNetworkListCtrl, 4
 1740              	_SlWlanGetNetworkListCtrl:
 1741 0010 8C8C     		.short	-29556
 1742 0012 04       		.byte	4
 1743 0013 04       		.byte	4
 1744              		.section	.text.sl_WlanGetNetworkList,"ax",%progbits
 1745              		.align	2
 1746              		.global	sl_WlanGetNetworkList
 1747              		.code	16
 1748              		.thumb_func
 1749              		.type	sl_WlanGetNetworkList, %function
 1750              	sl_WlanGetNetworkList:
 1751              	.LFB7:
 565:..\..\..\..\..\simplelink\source/wlan.c **** #endif
 566:..\..\..\..\..\simplelink\source/wlan.c **** 
 567:..\..\..\..\..\simplelink\source/wlan.c **** 
 568:..\..\..\..\..\simplelink\source/wlan.c **** /******************************************************************************/
 569:..\..\..\..\..\simplelink\source/wlan.c **** /*  sl_WlanGetNetworkList  */
 570:..\..\..\..\..\simplelink\source/wlan.c **** /******************************************************************************/
 571:..\..\..\..\..\simplelink\source/wlan.c **** typedef union
 572:..\..\..\..\..\simplelink\source/wlan.c **** {
 573:..\..\..\..\..\simplelink\source/wlan.c **** 	_WlanGetNetworkListCommand_t    Cmd;
 574:..\..\..\..\..\simplelink\source/wlan.c **** 	_WlanGetNetworkListResponse_t   Rsp;
 575:..\..\..\..\..\simplelink\source/wlan.c **** }_SlWlanGetNetworkListMsg_u;
 576:..\..\..\..\..\simplelink\source/wlan.c **** 
 577:..\..\..\..\..\simplelink\source/wlan.c **** const _SlCmdCtrl_t _SlWlanGetNetworkListCtrl =
 578:..\..\..\..\..\simplelink\source/wlan.c **** {
 579:..\..\..\..\..\simplelink\source/wlan.c ****     SL_OPCODE_WLAN_SCANRESULTSGETCOMMAND,
 580:..\..\..\..\..\simplelink\source/wlan.c ****     sizeof(_WlanGetNetworkListCommand_t),
 581:..\..\..\..\..\simplelink\source/wlan.c ****     sizeof(_WlanGetNetworkListResponse_t)
 582:..\..\..\..\..\simplelink\source/wlan.c **** };
 583:..\..\..\..\..\simplelink\source/wlan.c **** 
 584:..\..\..\..\..\simplelink\source/wlan.c **** 
 585:..\..\..\..\..\simplelink\source/wlan.c **** #if _SL_INCLUDE_FUNC(sl_WlanGetNetworkList)
 586:..\..\..\..\..\simplelink\source/wlan.c **** int sl_WlanGetNetworkList(unsigned char Index, unsigned char Count, Sl_WlanNetworkEntry_t *pEntries
ARM GAS  C:\Users\X0217454\AppData\Local\Temp\ccwJRGby.s 			page 42


 587:..\..\..\..\..\simplelink\source/wlan.c **** {
 1752              		.loc 1 587 0
 1753              		.cfi_startproc
 1754 0000 80B5     		push	{r7, lr}
 1755              	.LCFI20:
 1756              		.cfi_def_cfa_offset 8
 1757              		.cfi_offset 7, -8
 1758              		.cfi_offset 14, -4
 1759 0002 8AB0     		sub	sp, sp, #40
 1760              	.LCFI21:
 1761              		.cfi_def_cfa_offset 48
 1762 0004 00AF     		add	r7, sp, #0
 1763              	.LCFI22:
 1764              		.cfi_def_cfa_register 7
 1765 0006 3A60     		str	r2, [r7]
 1766 0008 FB1D     		add	r3, r7, #7
 1767 000a 021C     		add	r2, r0, #0
 1768 000c 1A70     		strb	r2, [r3]
 1769 000e BB1D     		add	r3, r7, #6
 1770 0010 0A1C     		add	r2, r1, #0
 1771 0012 1A70     		strb	r2, [r3]
 588:..\..\..\..\..\simplelink\source/wlan.c ****     int retVal = 0;
 1772              		.loc 1 588 0
 1773 0014 0023     		mov	r3, #0
 1774 0016 7B62     		str	r3, [r7, #36]
 589:..\..\..\..\..\simplelink\source/wlan.c ****     _SlWlanGetNetworkListMsg_u Msg;
 590:..\..\..\..\..\simplelink\source/wlan.c ****     _SlCmdExt_t    CmdExt;
 591:..\..\..\..\..\simplelink\source/wlan.c **** 
 592:..\..\..\..\..\simplelink\source/wlan.c **** 	if (Count == 0)
 1775              		.loc 1 592 0
 1776 0018 BB1D     		add	r3, r7, #6
 1777 001a 1B78     		ldrb	r3, [r3]
 1778 001c 002B     		cmp	r3, #0
 1779 001e 01D1     		bne	.L91
 593:..\..\..\..\..\simplelink\source/wlan.c **** 	{
 594:..\..\..\..\..\simplelink\source/wlan.c **** 		return SL_EZEROLEN;
 1780              		.loc 1 594 0
 1781 0020 1D4B     		ldr	r3, .L96
 1782 0022 34E0     		b	.L95
 1783              	.L91:
 595:..\..\..\..\..\simplelink\source/wlan.c **** 	}
 596:..\..\..\..\..\simplelink\source/wlan.c ****     CmdExt.TxPayloadLen = 0;
 1784              		.loc 1 596 0
 1785 0024 3B1C     		mov	r3, r7
 1786 0026 0C33     		add	r3, r3, #12
 1787 0028 0022     		mov	r2, #0
 1788 002a 1A80     		strh	r2, [r3]
 597:..\..\..\..\..\simplelink\source/wlan.c ****     CmdExt.RxPayloadLen = sizeof(Sl_WlanNetworkEntry_t)*(Count);
 1789              		.loc 1 597 0
 1790 002c BB1D     		add	r3, r7, #6
 1791 002e 1B78     		ldrb	r3, [r3]
 1792 0030 9BB2     		uxth	r3, r3
 1793 0032 2C22     		mov	r2, #44
 1794 0034 5343     		mul	r3, r2
 1795 0036 9AB2     		uxth	r2, r3
 1796 0038 3B1C     		mov	r3, r7
 1797 003a 0C33     		add	r3, r3, #12
ARM GAS  C:\Users\X0217454\AppData\Local\Temp\ccwJRGby.s 			page 43


 1798 003c 5A80     		strh	r2, [r3, #2]
 598:..\..\..\..\..\simplelink\source/wlan.c ****     CmdExt.pTxPayload = NULL;
 1799              		.loc 1 598 0
 1800 003e 3B1C     		mov	r3, r7
 1801 0040 0C33     		add	r3, r3, #12
 1802 0042 0022     		mov	r2, #0
 1803 0044 9A60     		str	r2, [r3, #8]
 599:..\..\..\..\..\simplelink\source/wlan.c ****     CmdExt.pRxPayload = (UINT8 *)pEntries; 
 1804              		.loc 1 599 0
 1805 0046 3B1C     		mov	r3, r7
 1806 0048 0C33     		add	r3, r3, #12
 1807 004a 3A68     		ldr	r2, [r7]
 1808 004c DA60     		str	r2, [r3, #12]
 600:..\..\..\..\..\simplelink\source/wlan.c **** 
 601:..\..\..\..\..\simplelink\source/wlan.c ****     Msg.Cmd.index = Index;
 1809              		.loc 1 601 0
 1810 004e 3B1C     		mov	r3, r7
 1811 0050 1C33     		add	r3, r3, #28
 1812 0052 FA1D     		add	r2, r7, #7
 1813 0054 1278     		ldrb	r2, [r2]
 1814 0056 1A70     		strb	r2, [r3]
 602:..\..\..\..\..\simplelink\source/wlan.c ****     Msg.Cmd.count = Count;
 1815              		.loc 1 602 0
 1816 0058 3B1C     		mov	r3, r7
 1817 005a 1C33     		add	r3, r3, #28
 1818 005c BA1D     		add	r2, r7, #6
 1819 005e 1278     		ldrb	r2, [r2]
 1820 0060 5A70     		strb	r2, [r3, #1]
 1821              	.LBB8:
 603:..\..\..\..\..\simplelink\source/wlan.c **** 
 604:..\..\..\..\..\simplelink\source/wlan.c ****     VERIFY_RET_OK(_SlDrvCmdOp((_SlCmdCtrl_t *)&_SlWlanGetNetworkListCtrl, &Msg, &CmdExt));
 1822              		.loc 1 604 0
 1823 0062 0E49     		ldr	r1, .L96+4
 1824 0064 3A1C     		mov	r2, r7
 1825 0066 1C32     		add	r2, r2, #28
 1826 0068 3B1C     		mov	r3, r7
 1827 006a 0C33     		add	r3, r3, #12
 1828 006c 081C     		mov	r0, r1
 1829 006e 111C     		mov	r1, r2
 1830 0070 1A1C     		mov	r2, r3
 1831 0072 FFF7FEFF 		bl	_SlDrvCmdOp
 1832 0076 031C     		mov	r3, r0
 1833 0078 3B62     		str	r3, [r7, #32]
 1834 007a 3B6A     		ldr	r3, [r7, #32]
 1835 007c 002B     		cmp	r3, #0
 1836 007e 00D0     		beq	.L93
 1837              	.L94:
 1838              		.loc 1 604 0 is_stmt 0 discriminator 1
 1839 0080 FEE7     		b	.L94
 1840              	.L93:
 1841              	.LBE8:
 605:..\..\..\..\..\simplelink\source/wlan.c ****     retVal = Msg.Rsp.status;
 1842              		.loc 1 605 0 is_stmt 1
 1843 0082 3B1C     		mov	r3, r7
 1844 0084 1C33     		add	r3, r3, #28
 1845 0086 1B88     		ldrh	r3, [r3]
 1846 0088 1BB2     		sxth	r3, r3
ARM GAS  C:\Users\X0217454\AppData\Local\Temp\ccwJRGby.s 			page 44


 1847 008a 7B62     		str	r3, [r7, #36]
 606:..\..\..\..\..\simplelink\source/wlan.c **** 
 607:..\..\..\..\..\simplelink\source/wlan.c ****     return (int)retVal;
 1848              		.loc 1 607 0
 1849 008c 7B6A     		ldr	r3, [r7, #36]
 1850              	.L95:
 608:..\..\..\..\..\simplelink\source/wlan.c **** }
 1851              		.loc 1 608 0
 1852 008e 181C     		mov	r0, r3
 1853 0090 BD46     		mov	sp, r7
 1854 0092 0AB0     		add	sp, sp, #40
 1855              		@ sp needed for prologue
 1856 0094 80BD     		pop	{r7, pc}
 1857              	.L97:
 1858 0096 C046     		.align	2
 1859              	.L96:
 1860 0098 2EF8FFFF 		.word	-2002
 1861 009c 00000000 		.word	_SlWlanGetNetworkListCtrl
 1862              		.cfi_endproc
 1863              	.LFE7:
 1864              		.size	sl_WlanGetNetworkList, .-sl_WlanGetNetworkList
 1865              		.global	_SlRxFilterAddtCmdCtrl
 1866              		.section	.rodata
 1867              		.align	2
 1868              		.type	_SlRxFilterAddtCmdCtrl, %object
 1869              		.size	_SlRxFilterAddtCmdCtrl, 4
 1870              	_SlRxFilterAddtCmdCtrl:
 1871 0014 6C8C     		.short	-29588
 1872 0016 50       		.byte	80
 1873 0017 04       		.byte	4
 1874              		.global	_SlRxFilterSetCmdCtrl
 1875              		.align	2
 1876              		.type	_SlRxFilterSetCmdCtrl, %object
 1877              		.size	_SlRxFilterSetCmdCtrl, 4
 1878              	_SlRxFilterSetCmdCtrl:
 1879 0018 6D8C     		.short	-29587
 1880 001a 04       		.byte	4
 1881 001b 04       		.byte	4
 1882              		.global	_SlRxFilterGetCmdCtrl
 1883              		.align	2
 1884              		.type	_SlRxFilterGetCmdCtrl, %object
 1885              		.size	_SlRxFilterGetCmdCtrl, 4
 1886              	_SlRxFilterGetCmdCtrl:
 1887 001c 6F8C     		.short	-29585
 1888 001e 04       		.byte	4
 1889 001f 04       		.byte	4
 1890              		.section	.text.sl_WlanRxFilterAdd,"ax",%progbits
 1891              		.align	2
 1892              		.global	sl_WlanRxFilterAdd
 1893              		.code	16
 1894              		.thumb_func
 1895              		.type	sl_WlanRxFilterAdd, %function
 1896              	sl_WlanRxFilterAdd:
 1897              	.LFB8:
 609:..\..\..\..\..\simplelink\source/wlan.c **** #endif
 610:..\..\..\..\..\simplelink\source/wlan.c **** 
 611:..\..\..\..\..\simplelink\source/wlan.c **** 
ARM GAS  C:\Users\X0217454\AppData\Local\Temp\ccwJRGby.s 			page 45


 612:..\..\..\..\..\simplelink\source/wlan.c **** 
 613:..\..\..\..\..\simplelink\source/wlan.c **** 
 614:..\..\..\..\..\simplelink\source/wlan.c **** 
 615:..\..\..\..\..\simplelink\source/wlan.c **** /******************************************************************************/
 616:..\..\..\..\..\simplelink\source/wlan.c **** /*     RX filters message command response structures  */
 617:..\..\..\..\..\simplelink\source/wlan.c **** /******************************************************************************/
 618:..\..\..\..\..\simplelink\source/wlan.c **** 
 619:..\..\..\..\..\simplelink\source/wlan.c **** /* Set command */
 620:..\..\..\..\..\simplelink\source/wlan.c **** typedef union
 621:..\..\..\..\..\simplelink\source/wlan.c **** {
 622:..\..\..\..\..\simplelink\source/wlan.c **** 	_WlanRxFilterAddCommand_t	          Cmd;
 623:..\..\..\..\..\simplelink\source/wlan.c **** 	_WlanRxFilterAddCommandReponse_t      Rsp;
 624:..\..\..\..\..\simplelink\source/wlan.c **** }_SlrxFilterAddMsg_u;
 625:..\..\..\..\..\simplelink\source/wlan.c **** 
 626:..\..\..\..\..\simplelink\source/wlan.c **** const _SlCmdCtrl_t _SlRxFilterAddtCmdCtrl =
 627:..\..\..\..\..\simplelink\source/wlan.c **** {
 628:..\..\..\..\..\simplelink\source/wlan.c **** 	SL_OPCODE_WLAN_WLANRXFILTERADDCOMMAND,
 629:..\..\..\..\..\simplelink\source/wlan.c ****     sizeof(_WlanRxFilterAddCommand_t),
 630:..\..\..\..\..\simplelink\source/wlan.c ****     sizeof(_WlanRxFilterAddCommandReponse_t)
 631:..\..\..\..\..\simplelink\source/wlan.c **** };
 632:..\..\..\..\..\simplelink\source/wlan.c **** 
 633:..\..\..\..\..\simplelink\source/wlan.c **** 
 634:..\..\..\..\..\simplelink\source/wlan.c **** /* Set command */
 635:..\..\..\..\..\simplelink\source/wlan.c **** typedef union _SlRxFilterSetMsg_u
 636:..\..\..\..\..\simplelink\source/wlan.c **** {
 637:..\..\..\..\..\simplelink\source/wlan.c **** 	_WlanRxFilterSetCommand_t	            Cmd;
 638:..\..\..\..\..\simplelink\source/wlan.c **** 	_WlanRxFilterSetCommandReponse_t        Rsp;
 639:..\..\..\..\..\simplelink\source/wlan.c **** }_SlRxFilterSetMsg_u;
 640:..\..\..\..\..\simplelink\source/wlan.c **** 
 641:..\..\..\..\..\simplelink\source/wlan.c **** 
 642:..\..\..\..\..\simplelink\source/wlan.c **** const _SlCmdCtrl_t _SlRxFilterSetCmdCtrl =
 643:..\..\..\..\..\simplelink\source/wlan.c **** {
 644:..\..\..\..\..\simplelink\source/wlan.c **** 	SL_OPCODE_WLAN_WLANRXFILTERSETCOMMAND,
 645:..\..\..\..\..\simplelink\source/wlan.c ****     sizeof(_WlanRxFilterSetCommand_t),
 646:..\..\..\..\..\simplelink\source/wlan.c ****     sizeof(_WlanRxFilterSetCommandReponse_t)
 647:..\..\..\..\..\simplelink\source/wlan.c **** };
 648:..\..\..\..\..\simplelink\source/wlan.c **** 
 649:..\..\..\..\..\simplelink\source/wlan.c **** /* Get command */
 650:..\..\..\..\..\simplelink\source/wlan.c **** typedef union _SlRxFilterGetMsg_u
 651:..\..\..\..\..\simplelink\source/wlan.c **** {
 652:..\..\..\..\..\simplelink\source/wlan.c **** 	_WlanRxFilterGetCommand_t	            Cmd;
 653:..\..\..\..\..\simplelink\source/wlan.c **** 	_WlanRxFilterGetCommandReponse_t        Rsp;
 654:..\..\..\..\..\simplelink\source/wlan.c **** }_SlRxFilterGetMsg_u;
 655:..\..\..\..\..\simplelink\source/wlan.c **** 
 656:..\..\..\..\..\simplelink\source/wlan.c **** 
 657:..\..\..\..\..\simplelink\source/wlan.c **** const _SlCmdCtrl_t _SlRxFilterGetCmdCtrl =
 658:..\..\..\..\..\simplelink\source/wlan.c **** {
 659:..\..\..\..\..\simplelink\source/wlan.c **** 	SL_OPCODE_WLAN_WLANRXFILTERGETCOMMAND,
 660:..\..\..\..\..\simplelink\source/wlan.c ****     sizeof(_WlanRxFilterGetCommand_t),
 661:..\..\..\..\..\simplelink\source/wlan.c ****     sizeof(_WlanRxFilterGetCommandReponse_t)
 662:..\..\..\..\..\simplelink\source/wlan.c **** };
 663:..\..\..\..\..\simplelink\source/wlan.c **** 
 664:..\..\..\..\..\simplelink\source/wlan.c **** 
 665:..\..\..\..\..\simplelink\source/wlan.c **** /*******************************************************************************/
 666:..\..\..\..\..\simplelink\source/wlan.c **** /*     RX filters  */
 667:..\..\..\..\..\simplelink\source/wlan.c **** /*******************************************************************************/
 668:..\..\..\..\..\simplelink\source/wlan.c **** 
ARM GAS  C:\Users\X0217454\AppData\Local\Temp\ccwJRGby.s 			page 46


 669:..\..\..\..\..\simplelink\source/wlan.c **** #if _SL_INCLUDE_FUNC(sl_WlanRxFilterAdd)
 670:..\..\..\..\..\simplelink\source/wlan.c **** SlrxFilterID_t sl_WlanRxFilterAdd(	SlrxFilterRuleType_t 				RuleType,
 671:..\..\..\..\..\simplelink\source/wlan.c **** 									SlrxFilterFlags_t 					FilterFlags,
 672:..\..\..\..\..\simplelink\source/wlan.c **** 									const SlrxFilterRule_t* const 		Rule,
 673:..\..\..\..\..\simplelink\source/wlan.c **** 									const SlrxFilterTrigger_t* const 	Trigger,
 674:..\..\..\..\..\simplelink\source/wlan.c **** 									const SlrxFilterAction_t* const 	Action,
 675:..\..\..\..\..\simplelink\source/wlan.c **** 									SlrxFilterID_t*                     pFilterId)
 676:..\..\..\..\..\simplelink\source/wlan.c **** 
 677:..\..\..\..\..\simplelink\source/wlan.c **** {
 1898              		.loc 1 677 0
 1899              		.cfi_startproc
 1900 0000 90B5     		push	{r4, r7, lr}
 1901              	.LCFI23:
 1902              		.cfi_def_cfa_offset 12
 1903              		.cfi_offset 4, -12
 1904              		.cfi_offset 7, -8
 1905              		.cfi_offset 14, -4
 1906 0002 9BB0     		sub	sp, sp, #108
 1907              	.LCFI24:
 1908              		.cfi_def_cfa_offset 120
 1909 0004 00AF     		add	r7, sp, #0
 1910              	.LCFI25:
 1911              		.cfi_def_cfa_register 7
 1912 0006 3C1C     		mov	r4, r7
 1913 0008 0C34     		add	r4, r4, #12
 1914 000a 2170     		strb	r1, [r4]
 1915 000c BA60     		str	r2, [r7, #8]
 1916 000e 7B60     		str	r3, [r7, #4]
 1917 0010 3B1C     		mov	r3, r7
 1918 0012 0F33     		add	r3, r3, #15
 1919 0014 021C     		add	r2, r0, #0
 1920 0016 1A70     		strb	r2, [r3]
 678:..\..\..\..\..\simplelink\source/wlan.c **** 
 679:..\..\..\..\..\simplelink\source/wlan.c **** 
 680:..\..\..\..\..\simplelink\source/wlan.c **** 	_SlrxFilterAddMsg_u Msg;
 681:..\..\..\..\..\simplelink\source/wlan.c **** 	Msg.Cmd.RuleType = RuleType;
 1921              		.loc 1 681 0
 1922 0018 3B1C     		mov	r3, r7
 1923 001a 1433     		add	r3, r3, #20
 1924 001c 3A1C     		mov	r2, r7
 1925 001e 0F32     		add	r2, r2, #15
 1926 0020 1278     		ldrb	r2, [r2]
 1927 0022 1A70     		strb	r2, [r3]
 682:..\..\..\..\..\simplelink\source/wlan.c **** 	/* filterId is zero */
 683:..\..\..\..\..\simplelink\source/wlan.c **** 	Msg.Cmd.FilterId = 0;
 1928              		.loc 1 683 0
 1929 0024 3B1C     		mov	r3, r7
 1930 0026 1433     		add	r3, r3, #20
 1931 0028 0022     		mov	r2, #0
 1932 002a 9A70     		strb	r2, [r3, #2]
 684:..\..\..\..\..\simplelink\source/wlan.c **** 	Msg.Cmd.FilterFlags = FilterFlags;
 1933              		.loc 1 684 0
 1934 002c 3B1C     		mov	r3, r7
 1935 002e 1433     		add	r3, r3, #20
 1936 0030 3A1C     		mov	r2, r7
 1937 0032 0C32     		add	r2, r2, #12
 1938 0034 1278     		ldrb	r2, [r2]
ARM GAS  C:\Users\X0217454\AppData\Local\Temp\ccwJRGby.s 			page 47


 1939 0036 5A70     		strb	r2, [r3, #1]
 685:..\..\..\..\..\simplelink\source/wlan.c **** 	sl_Memcpy( &(Msg.Cmd.Rule), Rule, sizeof(SlrxFilterRule_t) );
 1940              		.loc 1 685 0
 1941 0038 3B1C     		mov	r3, r7
 1942 003a 1433     		add	r3, r3, #20
 1943 003c 1A1D     		add	r2, r3, #4
 1944 003e BB68     		ldr	r3, [r7, #8]
 1945 0040 101C     		mov	r0, r2
 1946 0042 191C     		mov	r1, r3
 1947 0044 3822     		mov	r2, #56
 1948 0046 FFF7FEFF 		bl	memcpy
 686:..\..\..\..\..\simplelink\source/wlan.c **** 	sl_Memcpy( &(Msg.Cmd.Trigger), Trigger, sizeof(SlrxFilterTrigger_t) );
 1949              		.loc 1 686 0
 1950 004a 3B1C     		mov	r3, r7
 1951 004c 1433     		add	r3, r3, #20
 1952 004e 1A1C     		mov	r2, r3
 1953 0050 3C32     		add	r2, r2, #60
 1954 0052 7B68     		ldr	r3, [r7, #4]
 1955 0054 101C     		mov	r0, r2
 1956 0056 191C     		mov	r1, r3
 1957 0058 0C22     		mov	r2, #12
 1958 005a FFF7FEFF 		bl	memcpy
 687:..\..\..\..\..\simplelink\source/wlan.c **** 	sl_Memcpy( &(Msg.Cmd.Action), Action, sizeof(SlrxFilterAction_t) );
 1959              		.loc 1 687 0
 1960 005e 3A1C     		mov	r2, r7
 1961 0060 5C32     		add	r2, r2, #92
 1962 0062 BB6F     		ldr	r3, [r7, #120]
 1963 0064 111C     		mov	r1, r2
 1964 0066 1A1C     		mov	r2, r3
 1965 0068 0823     		mov	r3, #8
 1966 006a 081C     		mov	r0, r1
 1967 006c 111C     		mov	r1, r2
 1968 006e 1A1C     		mov	r2, r3
 1969 0070 FFF7FEFF 		bl	memcpy
 1970              	.LBB9:
 688:..\..\..\..\..\simplelink\source/wlan.c **** 	VERIFY_RET_OK(_SlDrvCmdOp((_SlCmdCtrl_t *)&_SlRxFilterAddtCmdCtrl, &Msg, NULL) );
 1971              		.loc 1 688 0
 1972 0074 0D4A     		ldr	r2, .L102
 1973 0076 3B1C     		mov	r3, r7
 1974 0078 1433     		add	r3, r3, #20
 1975 007a 101C     		mov	r0, r2
 1976 007c 191C     		mov	r1, r3
 1977 007e 0022     		mov	r2, #0
 1978 0080 FFF7FEFF 		bl	_SlDrvCmdOp
 1979 0084 031C     		mov	r3, r0
 1980 0086 7B66     		str	r3, [r7, #100]
 1981 0088 7B6E     		ldr	r3, [r7, #100]
 1982 008a 002B     		cmp	r3, #0
 1983 008c 00D0     		beq	.L99
 1984              	.L100:
 1985              		.loc 1 688 0 is_stmt 0 discriminator 1
 1986 008e FEE7     		b	.L100
 1987              	.L99:
 1988              	.LBE9:
 689:..\..\..\..\..\simplelink\source/wlan.c **** 	*pFilterId = Msg.Rsp.FilterId;
 1989              		.loc 1 689 0 is_stmt 1
 1990 0090 3B1C     		mov	r3, r7
ARM GAS  C:\Users\X0217454\AppData\Local\Temp\ccwJRGby.s 			page 48


 1991 0092 1433     		add	r3, r3, #20
 1992 0094 1A78     		ldrb	r2, [r3]
 1993 0096 FB6F     		ldr	r3, [r7, #124]
 1994 0098 1A70     		strb	r2, [r3]
 690:..\..\..\..\..\simplelink\source/wlan.c **** 	return (int)Msg.Rsp.Status;
 1995              		.loc 1 690 0
 1996 009a 3B1C     		mov	r3, r7
 1997 009c 1433     		add	r3, r3, #20
 1998 009e 5B78     		ldrb	r3, [r3, #1]
 1999 00a0 DBB2     		uxtb	r3, r3
 2000 00a2 5BB2     		sxtb	r3, r3
 691:..\..\..\..\..\simplelink\source/wlan.c **** 
 692:..\..\..\..\..\simplelink\source/wlan.c **** }
 2001              		.loc 1 692 0
 2002 00a4 181C     		mov	r0, r3
 2003 00a6 BD46     		mov	sp, r7
 2004 00a8 1BB0     		add	sp, sp, #108
 2005              		@ sp needed for prologue
 2006 00aa 90BD     		pop	{r4, r7, pc}
 2007              	.L103:
 2008              		.align	2
 2009              	.L102:
 2010 00ac 00000000 		.word	_SlRxFilterAddtCmdCtrl
 2011              		.cfi_endproc
 2012              	.LFE8:
 2013              		.size	sl_WlanRxFilterAdd, .-sl_WlanRxFilterAdd
 2014              		.section	.text.sl_WlanRxFilterSet,"ax",%progbits
 2015              		.align	2
 2016              		.global	sl_WlanRxFilterSet
 2017              		.code	16
 2018              		.thumb_func
 2019              		.type	sl_WlanRxFilterSet, %function
 2020              	sl_WlanRxFilterSet:
 2021              	.LFB9:
 693:..\..\..\..\..\simplelink\source/wlan.c **** #endif
 694:..\..\..\..\..\simplelink\source/wlan.c **** 
 695:..\..\..\..\..\simplelink\source/wlan.c **** 
 696:..\..\..\..\..\simplelink\source/wlan.c **** 
 697:..\..\..\..\..\simplelink\source/wlan.c **** /*******************************************************************************/
 698:..\..\..\..\..\simplelink\source/wlan.c **** /*     RX filters    */
 699:..\..\..\..\..\simplelink\source/wlan.c **** /*******************************************************************************/
 700:..\..\..\..\..\simplelink\source/wlan.c **** #if _SL_INCLUDE_FUNC(sl_WlanRxFilterSet)
 701:..\..\..\..\..\simplelink\source/wlan.c **** int sl_WlanRxFilterSet(const SLrxFilterOperation_t RxFilterOperation,
 702:..\..\..\..\..\simplelink\source/wlan.c **** 		                           const unsigned char* const pInputBuffer,
 703:..\..\..\..\..\simplelink\source/wlan.c **** 		               UINT16 InputbufferLength)
 704:..\..\..\..\..\simplelink\source/wlan.c **** {
 2022              		.loc 1 704 0
 2023              		.cfi_startproc
 2024 0000 80B5     		push	{r7, lr}
 2025              	.LCFI26:
 2026              		.cfi_def_cfa_offset 8
 2027              		.cfi_offset 7, -8
 2028              		.cfi_offset 14, -4
 2029 0002 88B0     		sub	sp, sp, #32
 2030              	.LCFI27:
 2031              		.cfi_def_cfa_offset 40
 2032 0004 00AF     		add	r7, sp, #0
ARM GAS  C:\Users\X0217454\AppData\Local\Temp\ccwJRGby.s 			page 49


 2033              	.LCFI28:
 2034              		.cfi_def_cfa_register 7
 2035 0006 3960     		str	r1, [r7]
 2036 0008 FB1D     		add	r3, r7, #7
 2037 000a 011C     		add	r1, r0, #0
 2038 000c 1970     		strb	r1, [r3]
 2039 000e 3B1D     		add	r3, r7, #4
 2040 0010 1A80     		strh	r2, [r3]
 705:..\..\..\..\..\simplelink\source/wlan.c ****     _SlRxFilterSetMsg_u   Msg;
 706:..\..\..\..\..\simplelink\source/wlan.c ****     _SlCmdExt_t           CmdExt;
 707:..\..\..\..\..\simplelink\source/wlan.c **** 
 708:..\..\..\..\..\simplelink\source/wlan.c ****     CmdExt.TxPayloadLen = InputbufferLength;
 2041              		.loc 1 708 0
 2042 0012 3B1C     		mov	r3, r7
 2043 0014 0833     		add	r3, r3, #8
 2044 0016 3A1D     		add	r2, r7, #4
 2045 0018 1288     		ldrh	r2, [r2]
 2046 001a 1A80     		strh	r2, [r3]
 709:..\..\..\..\..\simplelink\source/wlan.c ****     CmdExt.pTxPayload   = (UINT8 *)pInputBuffer;
 2047              		.loc 1 709 0
 2048 001c 3B1C     		mov	r3, r7
 2049 001e 0833     		add	r3, r3, #8
 2050 0020 3A68     		ldr	r2, [r7]
 2051 0022 9A60     		str	r2, [r3, #8]
 710:..\..\..\..\..\simplelink\source/wlan.c ****     CmdExt.RxPayloadLen = 0;
 2052              		.loc 1 710 0
 2053 0024 3B1C     		mov	r3, r7
 2054 0026 0833     		add	r3, r3, #8
 2055 0028 0022     		mov	r2, #0
 2056 002a 5A80     		strh	r2, [r3, #2]
 711:..\..\..\..\..\simplelink\source/wlan.c ****     CmdExt.pRxPayload   = (UINT8 *)NULL;
 2057              		.loc 1 711 0
 2058 002c 3B1C     		mov	r3, r7
 2059 002e 0833     		add	r3, r3, #8
 2060 0030 0022     		mov	r2, #0
 2061 0032 DA60     		str	r2, [r3, #12]
 712:..\..\..\..\..\simplelink\source/wlan.c **** 
 713:..\..\..\..\..\simplelink\source/wlan.c **** 	Msg.Cmd.RxFilterOperation = RxFilterOperation;
 2062              		.loc 1 713 0
 2063 0034 3B1C     		mov	r3, r7
 2064 0036 1833     		add	r3, r3, #24
 2065 0038 FA1D     		add	r2, r7, #7
 2066 003a 1278     		ldrb	r2, [r2]
 2067 003c 9A70     		strb	r2, [r3, #2]
 714:..\..\..\..\..\simplelink\source/wlan.c **** 	Msg.Cmd.InputBufferLength = InputbufferLength;
 2068              		.loc 1 714 0
 2069 003e 3B1C     		mov	r3, r7
 2070 0040 1833     		add	r3, r3, #24
 2071 0042 3A1D     		add	r2, r7, #4
 2072 0044 1288     		ldrh	r2, [r2]
 2073 0046 1A80     		strh	r2, [r3]
 2074              	.LBB10:
 715:..\..\..\..\..\simplelink\source/wlan.c **** 
 716:..\..\..\..\..\simplelink\source/wlan.c **** 
 717:..\..\..\..\..\simplelink\source/wlan.c **** 	VERIFY_RET_OK(_SlDrvCmdOp((_SlCmdCtrl_t *)&_SlRxFilterSetCmdCtrl, &Msg, &CmdExt) );
 2075              		.loc 1 717 0
 2076 0048 0B49     		ldr	r1, .L108
ARM GAS  C:\Users\X0217454\AppData\Local\Temp\ccwJRGby.s 			page 50


 2077 004a 3A1C     		mov	r2, r7
 2078 004c 1832     		add	r2, r2, #24
 2079 004e 3B1C     		mov	r3, r7
 2080 0050 0833     		add	r3, r3, #8
 2081 0052 081C     		mov	r0, r1
 2082 0054 111C     		mov	r1, r2
 2083 0056 1A1C     		mov	r2, r3
 2084 0058 FFF7FEFF 		bl	_SlDrvCmdOp
 2085 005c 031C     		mov	r3, r0
 2086 005e FB61     		str	r3, [r7, #28]
 2087 0060 FB69     		ldr	r3, [r7, #28]
 2088 0062 002B     		cmp	r3, #0
 2089 0064 00D0     		beq	.L105
 2090              	.L106:
 2091              		.loc 1 717 0 is_stmt 0 discriminator 1
 2092 0066 FEE7     		b	.L106
 2093              	.L105:
 2094              	.LBE10:
 718:..\..\..\..\..\simplelink\source/wlan.c **** 
 719:..\..\..\..\..\simplelink\source/wlan.c **** 
 720:..\..\..\..\..\simplelink\source/wlan.c **** 	return (int)Msg.Rsp.Status;
 2095              		.loc 1 720 0 is_stmt 1
 2096 0068 3B1C     		mov	r3, r7
 2097 006a 1833     		add	r3, r3, #24
 2098 006c 1B78     		ldrb	r3, [r3]
 721:..\..\..\..\..\simplelink\source/wlan.c **** }
 2099              		.loc 1 721 0
 2100 006e 181C     		mov	r0, r3
 2101 0070 BD46     		mov	sp, r7
 2102 0072 08B0     		add	sp, sp, #32
 2103              		@ sp needed for prologue
 2104 0074 80BD     		pop	{r7, pc}
 2105              	.L109:
 2106 0076 C046     		.align	2
 2107              	.L108:
 2108 0078 00000000 		.word	_SlRxFilterSetCmdCtrl
 2109              		.cfi_endproc
 2110              	.LFE9:
 2111              		.size	sl_WlanRxFilterSet, .-sl_WlanRxFilterSet
 2112              		.section	.text.sl_WlanRxFilterGet,"ax",%progbits
 2113              		.align	2
 2114              		.global	sl_WlanRxFilterGet
 2115              		.code	16
 2116              		.thumb_func
 2117              		.type	sl_WlanRxFilterGet, %function
 2118              	sl_WlanRxFilterGet:
 2119              	.LFB10:
 722:..\..\..\..\..\simplelink\source/wlan.c **** #endif
 723:..\..\..\..\..\simplelink\source/wlan.c **** 
 724:..\..\..\..\..\simplelink\source/wlan.c **** /******************************************************************************/
 725:..\..\..\..\..\simplelink\source/wlan.c **** /*     RX filters  */
 726:..\..\..\..\..\simplelink\source/wlan.c **** /******************************************************************************/
 727:..\..\..\..\..\simplelink\source/wlan.c **** #if _SL_INCLUDE_FUNC(sl_WlanRxFilterGet)
 728:..\..\..\..\..\simplelink\source/wlan.c **** int sl_WlanRxFilterGet(const SLrxFilterOperation_t RxFilterOperation,
 729:..\..\..\..\..\simplelink\source/wlan.c **** 								 unsigned char* pOutputBuffer,
 730:..\..\..\..\..\simplelink\source/wlan.c **** 		               UINT16 OutputbufferLength)
 731:..\..\..\..\..\simplelink\source/wlan.c **** {
ARM GAS  C:\Users\X0217454\AppData\Local\Temp\ccwJRGby.s 			page 51


 2120              		.loc 1 731 0
 2121              		.cfi_startproc
 2122 0000 80B5     		push	{r7, lr}
 2123              	.LCFI29:
 2124              		.cfi_def_cfa_offset 8
 2125              		.cfi_offset 7, -8
 2126              		.cfi_offset 14, -4
 2127 0002 88B0     		sub	sp, sp, #32
 2128              	.LCFI30:
 2129              		.cfi_def_cfa_offset 40
 2130 0004 00AF     		add	r7, sp, #0
 2131              	.LCFI31:
 2132              		.cfi_def_cfa_register 7
 2133 0006 3960     		str	r1, [r7]
 2134 0008 FB1D     		add	r3, r7, #7
 2135 000a 011C     		add	r1, r0, #0
 2136 000c 1970     		strb	r1, [r3]
 2137 000e 3B1D     		add	r3, r7, #4
 2138 0010 1A80     		strh	r2, [r3]
 732:..\..\..\..\..\simplelink\source/wlan.c ****     _SlRxFilterGetMsg_u   Msg;
 733:..\..\..\..\..\simplelink\source/wlan.c ****     _SlCmdExt_t           CmdExt;
 734:..\..\..\..\..\simplelink\source/wlan.c **** 
 735:..\..\..\..\..\simplelink\source/wlan.c **** 	if (OutputbufferLength == 0)
 2139              		.loc 1 735 0
 2140 0012 3B1D     		add	r3, r7, #4
 2141 0014 1B88     		ldrh	r3, [r3]
 2142 0016 002B     		cmp	r3, #0
 2143 0018 01D1     		bne	.L111
 736:..\..\..\..\..\simplelink\source/wlan.c **** 	{
 737:..\..\..\..\..\simplelink\source/wlan.c **** 		return SL_EZEROLEN;
 2144              		.loc 1 737 0
 2145 001a 214B     		ldr	r3, .L117
 2146 001c 3BE0     		b	.L116
 2147              	.L111:
 738:..\..\..\..\..\simplelink\source/wlan.c **** 	}
 739:..\..\..\..\..\simplelink\source/wlan.c ****     CmdExt.TxPayloadLen = 0;
 2148              		.loc 1 739 0
 2149 001e 3B1C     		mov	r3, r7
 2150 0020 0833     		add	r3, r3, #8
 2151 0022 0022     		mov	r2, #0
 2152 0024 1A80     		strh	r2, [r3]
 740:..\..\..\..\..\simplelink\source/wlan.c ****     CmdExt.pTxPayload   = NULL;
 2153              		.loc 1 740 0
 2154 0026 3B1C     		mov	r3, r7
 2155 0028 0833     		add	r3, r3, #8
 2156 002a 0022     		mov	r2, #0
 2157 002c 9A60     		str	r2, [r3, #8]
 741:..\..\..\..\..\simplelink\source/wlan.c ****     CmdExt.RxPayloadLen = OutputbufferLength;
 2158              		.loc 1 741 0
 2159 002e 3B1C     		mov	r3, r7
 2160 0030 0833     		add	r3, r3, #8
 2161 0032 3A1D     		add	r2, r7, #4
 2162 0034 1288     		ldrh	r2, [r2]
 2163 0036 5A80     		strh	r2, [r3, #2]
 742:..\..\..\..\..\simplelink\source/wlan.c ****     CmdExt.pRxPayload   = (UINT8 *)pOutputBuffer;
 2164              		.loc 1 742 0
 2165 0038 3B1C     		mov	r3, r7
ARM GAS  C:\Users\X0217454\AppData\Local\Temp\ccwJRGby.s 			page 52


 2166 003a 0833     		add	r3, r3, #8
 2167 003c 3A68     		ldr	r2, [r7]
 2168 003e DA60     		str	r2, [r3, #12]
 743:..\..\..\..\..\simplelink\source/wlan.c **** 	CmdExt.ActualRxPayloadLen = 0;
 2169              		.loc 1 743 0
 2170 0040 3B1C     		mov	r3, r7
 2171 0042 0833     		add	r3, r3, #8
 2172 0044 0022     		mov	r2, #0
 2173 0046 9A80     		strh	r2, [r3, #4]
 744:..\..\..\..\..\simplelink\source/wlan.c **** 
 745:..\..\..\..\..\simplelink\source/wlan.c **** 	Msg.Cmd.RxFilterOperation = RxFilterOperation;
 2174              		.loc 1 745 0
 2175 0048 3B1C     		mov	r3, r7
 2176 004a 1833     		add	r3, r3, #24
 2177 004c FA1D     		add	r2, r7, #7
 2178 004e 1278     		ldrb	r2, [r2]
 2179 0050 9A70     		strb	r2, [r3, #2]
 746:..\..\..\..\..\simplelink\source/wlan.c **** 	Msg.Cmd.OutputBufferLength = OutputbufferLength;
 2180              		.loc 1 746 0
 2181 0052 3B1C     		mov	r3, r7
 2182 0054 1833     		add	r3, r3, #24
 2183 0056 3A1D     		add	r2, r7, #4
 2184 0058 1288     		ldrh	r2, [r2]
 2185 005a 1A80     		strh	r2, [r3]
 2186              	.LBB11:
 747:..\..\..\..\..\simplelink\source/wlan.c **** 
 748:..\..\..\..\..\simplelink\source/wlan.c **** 
 749:..\..\..\..\..\simplelink\source/wlan.c **** 	VERIFY_RET_OK(_SlDrvCmdOp((_SlCmdCtrl_t *)&_SlRxFilterGetCmdCtrl, &Msg, &CmdExt) );
 2187              		.loc 1 749 0
 2188 005c 1149     		ldr	r1, .L117+4
 2189 005e 3A1C     		mov	r2, r7
 2190 0060 1832     		add	r2, r2, #24
 2191 0062 3B1C     		mov	r3, r7
 2192 0064 0833     		add	r3, r3, #8
 2193 0066 081C     		mov	r0, r1
 2194 0068 111C     		mov	r1, r2
 2195 006a 1A1C     		mov	r2, r3
 2196 006c FFF7FEFF 		bl	_SlDrvCmdOp
 2197 0070 031C     		mov	r3, r0
 2198 0072 FB61     		str	r3, [r7, #28]
 2199 0074 FB69     		ldr	r3, [r7, #28]
 2200 0076 002B     		cmp	r3, #0
 2201 0078 00D0     		beq	.L113
 2202              	.L114:
 2203              		.loc 1 749 0 is_stmt 0 discriminator 1
 2204 007a FEE7     		b	.L114
 2205              	.L113:
 2206              	.LBE11:
 750:..\..\..\..\..\simplelink\source/wlan.c **** 
 751:..\..\..\..\..\simplelink\source/wlan.c **** 	if (CmdExt.RxPayloadLen < CmdExt.ActualRxPayloadLen) 
 2207              		.loc 1 751 0 is_stmt 1
 2208 007c 3B1C     		mov	r3, r7
 2209 007e 0833     		add	r3, r3, #8
 2210 0080 5A88     		ldrh	r2, [r3, #2]
 2211 0082 3B1C     		mov	r3, r7
 2212 0084 0833     		add	r3, r3, #8
 2213 0086 9B88     		ldrh	r3, [r3, #4]
ARM GAS  C:\Users\X0217454\AppData\Local\Temp\ccwJRGby.s 			page 53


 2214 0088 9A42     		cmp	r2, r3
 2215 008a 01D2     		bcs	.L115
 752:..\..\..\..\..\simplelink\source/wlan.c **** 	{
 753:..\..\..\..\..\simplelink\source/wlan.c **** 		return SL_ESMALLBUF;
 2216              		.loc 1 753 0
 2217 008c 064B     		ldr	r3, .L117+8
 2218 008e 02E0     		b	.L116
 2219              	.L115:
 754:..\..\..\..\..\simplelink\source/wlan.c **** 	}
 755:..\..\..\..\..\simplelink\source/wlan.c **** 
 756:..\..\..\..\..\simplelink\source/wlan.c **** 	return (int)Msg.Rsp.Status;
 2220              		.loc 1 756 0
 2221 0090 3B1C     		mov	r3, r7
 2222 0092 1833     		add	r3, r3, #24
 2223 0094 1B78     		ldrb	r3, [r3]
 2224              	.L116:
 757:..\..\..\..\..\simplelink\source/wlan.c **** }
 2225              		.loc 1 757 0
 2226 0096 181C     		mov	r0, r3
 2227 0098 BD46     		mov	sp, r7
 2228 009a 08B0     		add	sp, sp, #32
 2229              		@ sp needed for prologue
 2230 009c 80BD     		pop	{r7, pc}
 2231              	.L118:
 2232 009e C046     		.align	2
 2233              	.L117:
 2234 00a0 2EF8FFFF 		.word	-2002
 2235 00a4 00000000 		.word	_SlRxFilterGetCmdCtrl
 2236 00a8 2FF8FFFF 		.word	-2001
 2237              		.cfi_endproc
 2238              	.LFE10:
 2239              		.size	sl_WlanRxFilterGet, .-sl_WlanRxFilterGet
 2240              		.section	.text.sl_WlanRxStatStart,"ax",%progbits
 2241              		.align	2
 2242              		.global	sl_WlanRxStatStart
 2243              		.code	16
 2244              		.thumb_func
 2245              		.type	sl_WlanRxStatStart, %function
 2246              	sl_WlanRxStatStart:
 2247              	.LFB11:
 758:..\..\..\..\..\simplelink\source/wlan.c **** #endif
 759:..\..\..\..\..\simplelink\source/wlan.c **** 
 760:..\..\..\..\..\simplelink\source/wlan.c **** /*******************************************************************************/
 761:..\..\..\..\..\simplelink\source/wlan.c **** /*             sl_WlanRxStatStart                                              */
 762:..\..\..\..\..\simplelink\source/wlan.c **** /*******************************************************************************/
 763:..\..\..\..\..\simplelink\source/wlan.c **** #if _SL_INCLUDE_FUNC(sl_WlanRxStatStart)
 764:..\..\..\..\..\simplelink\source/wlan.c **** int sl_WlanRxStatStart(void)
 765:..\..\..\..\..\simplelink\source/wlan.c **** {
 2248              		.loc 1 765 0
 2249              		.cfi_startproc
 2250 0000 80B5     		push	{r7, lr}
 2251              	.LCFI32:
 2252              		.cfi_def_cfa_offset 8
 2253              		.cfi_offset 7, -8
 2254              		.cfi_offset 14, -4
 2255 0002 00AF     		add	r7, sp, #0
 2256              	.LCFI33:
ARM GAS  C:\Users\X0217454\AppData\Local\Temp\ccwJRGby.s 			page 54


 2257              		.cfi_def_cfa_register 7
 766:..\..\..\..\..\simplelink\source/wlan.c ****     return _SlDrvBasicCmd(SL_OPCODE_WLAN_STARTRXSTATCOMMAND);
 2258              		.loc 1 766 0
 2259 0004 034B     		ldr	r3, .L121
 2260 0006 181C     		mov	r0, r3
 2261 0008 FFF7FEFF 		bl	_SlDrvBasicCmd
 2262 000c 031C     		mov	r3, r0
 767:..\..\..\..\..\simplelink\source/wlan.c **** }
 2263              		.loc 1 767 0
 2264 000e 181C     		mov	r0, r3
 2265 0010 BD46     		mov	sp, r7
 2266              		@ sp needed for prologue
 2267 0012 80BD     		pop	{r7, pc}
 2268              	.L122:
 2269              		.align	2
 2270              	.L121:
 2271 0014 AC8C0000 		.word	36012
 2272              		.cfi_endproc
 2273              	.LFE11:
 2274              		.size	sl_WlanRxStatStart, .-sl_WlanRxStatStart
 2275              		.section	.text.sl_WlanRxStatStop,"ax",%progbits
 2276              		.align	2
 2277              		.global	sl_WlanRxStatStop
 2278              		.code	16
 2279              		.thumb_func
 2280              		.type	sl_WlanRxStatStop, %function
 2281              	sl_WlanRxStatStop:
 2282              	.LFB12:
 768:..\..\..\..\..\simplelink\source/wlan.c **** #endif
 769:..\..\..\..\..\simplelink\source/wlan.c **** 
 770:..\..\..\..\..\simplelink\source/wlan.c **** #if _SL_INCLUDE_FUNC(sl_WlanRxStatStop)
 771:..\..\..\..\..\simplelink\source/wlan.c **** int sl_WlanRxStatStop(void)
 772:..\..\..\..\..\simplelink\source/wlan.c **** {
 2283              		.loc 1 772 0
 2284              		.cfi_startproc
 2285 0000 80B5     		push	{r7, lr}
 2286              	.LCFI34:
 2287              		.cfi_def_cfa_offset 8
 2288              		.cfi_offset 7, -8
 2289              		.cfi_offset 14, -4
 2290 0002 00AF     		add	r7, sp, #0
 2291              	.LCFI35:
 2292              		.cfi_def_cfa_register 7
 773:..\..\..\..\..\simplelink\source/wlan.c ****     return _SlDrvBasicCmd(SL_OPCODE_WLAN_STOPRXSTATCOMMAND);
 2293              		.loc 1 773 0
 2294 0004 034B     		ldr	r3, .L125
 2295 0006 181C     		mov	r0, r3
 2296 0008 FFF7FEFF 		bl	_SlDrvBasicCmd
 2297 000c 031C     		mov	r3, r0
 774:..\..\..\..\..\simplelink\source/wlan.c **** }
 2298              		.loc 1 774 0
 2299 000e 181C     		mov	r0, r3
 2300 0010 BD46     		mov	sp, r7
 2301              		@ sp needed for prologue
 2302 0012 80BD     		pop	{r7, pc}
 2303              	.L126:
 2304              		.align	2
ARM GAS  C:\Users\X0217454\AppData\Local\Temp\ccwJRGby.s 			page 55


 2305              	.L125:
 2306 0014 AD8C0000 		.word	36013
 2307              		.cfi_endproc
 2308              	.LFE12:
 2309              		.size	sl_WlanRxStatStop, .-sl_WlanRxStatStop
 2310              		.section	.rodata
 2311              		.align	2
 2312              	.LC0:
 2313 0020 AF8C     		.short	-29521
 2314 0022 00       		.byte	0
 2315 0023 4C       		.byte	76
 2316              		.section	.text.sl_WlanRxStatGet,"ax",%progbits
 2317              		.align	2
 2318              		.global	sl_WlanRxStatGet
 2319              		.code	16
 2320              		.thumb_func
 2321              		.type	sl_WlanRxStatGet, %function
 2322              	sl_WlanRxStatGet:
 2323              	.LFB13:
 775:..\..\..\..\..\simplelink\source/wlan.c **** #endif
 776:..\..\..\..\..\simplelink\source/wlan.c **** 
 777:..\..\..\..\..\simplelink\source/wlan.c **** #if _SL_INCLUDE_FUNC(sl_WlanRxStatGet)
 778:..\..\..\..\..\simplelink\source/wlan.c **** int sl_WlanRxStatGet(SlGetRxStatResponse_t *pRxStat,unsigned long Flags)
 779:..\..\..\..\..\simplelink\source/wlan.c **** {
 2324              		.loc 1 779 0
 2325              		.cfi_startproc
 2326 0000 80B5     		push	{r7, lr}
 2327              	.LCFI36:
 2328              		.cfi_def_cfa_offset 8
 2329              		.cfi_offset 7, -8
 2330              		.cfi_offset 14, -4
 2331 0002 84B0     		sub	sp, sp, #16
 2332              	.LCFI37:
 2333              		.cfi_def_cfa_offset 24
 2334 0004 00AF     		add	r7, sp, #0
 2335              	.LCFI38:
 2336              		.cfi_def_cfa_register 7
 2337 0006 7860     		str	r0, [r7, #4]
 2338 0008 3960     		str	r1, [r7]
 780:..\..\..\..\..\simplelink\source/wlan.c ****     _SlCmdCtrl_t            CmdCtrl = {SL_OPCODE_WLAN_GETRXSTATCOMMAND, 0, sizeof(SlGetRxStatRespon
 2339              		.loc 1 780 0
 2340 000a 3A1C     		mov	r2, r7
 2341 000c 0832     		add	r2, r2, #8
 2342 000e 114B     		ldr	r3, .L131
 2343 0010 111C     		mov	r1, r2
 2344 0012 1A1C     		mov	r2, r3
 2345 0014 0423     		mov	r3, #4
 2346 0016 081C     		mov	r0, r1
 2347 0018 111C     		mov	r1, r2
 2348 001a 1A1C     		mov	r2, r3
 2349 001c FFF7FEFF 		bl	memcpy
 781:..\..\..\..\..\simplelink\source/wlan.c ****     memset(pRxStat,0,sizeof(SlGetRxStatResponse_t));
 2350              		.loc 1 781 0
 2351 0020 7B68     		ldr	r3, [r7, #4]
 2352 0022 181C     		mov	r0, r3
 2353 0024 0021     		mov	r1, #0
 2354 0026 4C22     		mov	r2, #76
ARM GAS  C:\Users\X0217454\AppData\Local\Temp\ccwJRGby.s 			page 56


 2355 0028 FFF7FEFF 		bl	memset
 2356              	.LBB12:
 782:..\..\..\..\..\simplelink\source/wlan.c ****     VERIFY_RET_OK(_SlDrvCmdOp((_SlCmdCtrl_t *)&CmdCtrl, pRxStat, NULL)); 
 2357              		.loc 1 782 0
 2358 002c 3A1C     		mov	r2, r7
 2359 002e 0832     		add	r2, r2, #8
 2360 0030 7B68     		ldr	r3, [r7, #4]
 2361 0032 101C     		mov	r0, r2
 2362 0034 191C     		mov	r1, r3
 2363 0036 0022     		mov	r2, #0
 2364 0038 FFF7FEFF 		bl	_SlDrvCmdOp
 2365 003c 031C     		mov	r3, r0
 2366 003e FB60     		str	r3, [r7, #12]
 2367 0040 FB68     		ldr	r3, [r7, #12]
 2368 0042 002B     		cmp	r3, #0
 2369 0044 00D0     		beq	.L128
 2370              	.L129:
 2371              		.loc 1 782 0 is_stmt 0 discriminator 1
 2372 0046 FEE7     		b	.L129
 2373              	.L128:
 2374              	.LBE12:
 783:..\..\..\..\..\simplelink\source/wlan.c **** 
 784:..\..\..\..\..\simplelink\source/wlan.c ****     return 0;
 2375              		.loc 1 784 0 is_stmt 1
 2376 0048 0023     		mov	r3, #0
 785:..\..\..\..\..\simplelink\source/wlan.c **** }
 2377              		.loc 1 785 0
 2378 004a 181C     		mov	r0, r3
 2379 004c BD46     		mov	sp, r7
 2380 004e 04B0     		add	sp, sp, #16
 2381              		@ sp needed for prologue
 2382 0050 80BD     		pop	{r7, pc}
 2383              	.L132:
 2384 0052 C046     		.align	2
 2385              	.L131:
 2386 0054 20000000 		.word	.LC0
 2387              		.cfi_endproc
 2388              	.LFE13:
 2389              		.size	sl_WlanRxStatGet, .-sl_WlanRxStatGet
 2390              		.section	.text.sl_WlanSmartConfigStop,"ax",%progbits
 2391              		.align	2
 2392              		.global	sl_WlanSmartConfigStop
 2393              		.code	16
 2394              		.thumb_func
 2395              		.type	sl_WlanSmartConfigStop, %function
 2396              	sl_WlanSmartConfigStop:
 2397              	.LFB14:
 786:..\..\..\..\..\simplelink\source/wlan.c **** #endif
 787:..\..\..\..\..\simplelink\source/wlan.c **** 
 788:..\..\..\..\..\simplelink\source/wlan.c **** 
 789:..\..\..\..\..\simplelink\source/wlan.c **** 
 790:..\..\..\..\..\simplelink\source/wlan.c **** /******************************************************************************/
 791:..\..\..\..\..\simplelink\source/wlan.c **** /*   sl_WlanSmartConfigStop                                                   */
 792:..\..\..\..\..\simplelink\source/wlan.c **** /******************************************************************************/
 793:..\..\..\..\..\simplelink\source/wlan.c **** #if _SL_INCLUDE_FUNC(sl_WlanSmartConfigStop)
 794:..\..\..\..\..\simplelink\source/wlan.c **** int sl_WlanSmartConfigStop(void)
 795:..\..\..\..\..\simplelink\source/wlan.c **** {
ARM GAS  C:\Users\X0217454\AppData\Local\Temp\ccwJRGby.s 			page 57


 2398              		.loc 1 795 0
 2399              		.cfi_startproc
 2400 0000 80B5     		push	{r7, lr}
 2401              	.LCFI39:
 2402              		.cfi_def_cfa_offset 8
 2403              		.cfi_offset 7, -8
 2404              		.cfi_offset 14, -4
 2405 0002 00AF     		add	r7, sp, #0
 2406              	.LCFI40:
 2407              		.cfi_def_cfa_register 7
 796:..\..\..\..\..\simplelink\source/wlan.c ****     return _SlDrvBasicCmd(SL_OPCODE_WLAN_SMART_CONFIG_STOP_COMMAND);
 2408              		.loc 1 796 0
 2409 0004 034B     		ldr	r3, .L135
 2410 0006 181C     		mov	r0, r3
 2411 0008 FFF7FEFF 		bl	_SlDrvBasicCmd
 2412 000c 031C     		mov	r3, r0
 797:..\..\..\..\..\simplelink\source/wlan.c **** }
 2413              		.loc 1 797 0
 2414 000e 181C     		mov	r0, r3
 2415 0010 BD46     		mov	sp, r7
 2416              		@ sp needed for prologue
 2417 0012 80BD     		pop	{r7, pc}
 2418              	.L136:
 2419              		.align	2
 2420              	.L135:
 2421 0014 B38C0000 		.word	36019
 2422              		.cfi_endproc
 2423              	.LFE14:
 2424              		.size	sl_WlanSmartConfigStop, .-sl_WlanSmartConfigStop
 2425              		.global	_SlSmartConfigStartCmdCtrl
 2426              		.section	.rodata
 2427              		.align	2
 2428              		.type	_SlSmartConfigStartCmdCtrl, %object
 2429              		.size	_SlSmartConfigStartCmdCtrl, 4
 2430              	_SlSmartConfigStartCmdCtrl:
 2431 0024 B28C     		.short	-29518
 2432 0026 38       		.byte	56
 2433 0027 04       		.byte	4
 2434              		.section	.text.sl_WlanSmartConfigStart,"ax",%progbits
 2435              		.align	2
 2436              		.global	sl_WlanSmartConfigStart
 2437              		.code	16
 2438              		.thumb_func
 2439              		.type	sl_WlanSmartConfigStart, %function
 2440              	sl_WlanSmartConfigStart:
 2441              	.LFB15:
 798:..\..\..\..\..\simplelink\source/wlan.c **** #endif
 799:..\..\..\..\..\simplelink\source/wlan.c **** 
 800:..\..\..\..\..\simplelink\source/wlan.c **** 
 801:..\..\..\..\..\simplelink\source/wlan.c **** /******************************************************************************/
 802:..\..\..\..\..\simplelink\source/wlan.c **** /*   sl_WlanSmartConfigStart                                                  */
 803:..\..\..\..\..\simplelink\source/wlan.c **** /******************************************************************************/
 804:..\..\..\..\..\simplelink\source/wlan.c **** 
 805:..\..\..\..\..\simplelink\source/wlan.c **** 
 806:..\..\..\..\..\simplelink\source/wlan.c **** typedef struct
 807:..\..\..\..\..\simplelink\source/wlan.c **** {
 808:..\..\..\..\..\simplelink\source/wlan.c **** 	_WlanSmartConfigStartCommand_t	Args;
ARM GAS  C:\Users\X0217454\AppData\Local\Temp\ccwJRGby.s 			page 58


 809:..\..\..\..\..\simplelink\source/wlan.c ****     char                            Strings[3 * MAX_SMART_CONFIG_KEY]; /* public key + groupId1 key
 810:..\..\..\..\..\simplelink\source/wlan.c **** }_SlSmartConfigStart_t;
 811:..\..\..\..\..\simplelink\source/wlan.c **** 
 812:..\..\..\..\..\simplelink\source/wlan.c **** typedef union
 813:..\..\..\..\..\simplelink\source/wlan.c **** {
 814:..\..\..\..\..\simplelink\source/wlan.c **** 	_SlSmartConfigStart_t	    Cmd;
 815:..\..\..\..\..\simplelink\source/wlan.c **** 	_BasicResponse_t	        Rsp;
 816:..\..\..\..\..\simplelink\source/wlan.c **** }_SlSmartConfigStartMsg_u;
 817:..\..\..\..\..\simplelink\source/wlan.c **** 
 818:..\..\..\..\..\simplelink\source/wlan.c **** const _SlCmdCtrl_t _SlSmartConfigStartCmdCtrl =
 819:..\..\..\..\..\simplelink\source/wlan.c **** {
 820:..\..\..\..\..\simplelink\source/wlan.c ****     SL_OPCODE_WLAN_SMART_CONFIG_START_COMMAND,
 821:..\..\..\..\..\simplelink\source/wlan.c ****     sizeof(_SlSmartConfigStart_t),
 822:..\..\..\..\..\simplelink\source/wlan.c ****     sizeof(_BasicResponse_t)
 823:..\..\..\..\..\simplelink\source/wlan.c **** };
 824:..\..\..\..\..\simplelink\source/wlan.c **** 
 825:..\..\..\..\..\simplelink\source/wlan.c **** #if _SL_INCLUDE_FUNC(sl_WlanSmartConfigStart)
 826:..\..\..\..\..\simplelink\source/wlan.c **** int sl_WlanSmartConfigStart( const unsigned long    groupIdBitmask,
 827:..\..\..\..\..\simplelink\source/wlan.c ****                              const unsigned char    cipher,
 828:..\..\..\..\..\simplelink\source/wlan.c ****                              const unsigned char    publicKeyLen,
 829:..\..\..\..\..\simplelink\source/wlan.c ****                              const unsigned char    group1KeyLen,
 830:..\..\..\..\..\simplelink\source/wlan.c ****                              const unsigned char    group2KeyLen,
 831:..\..\..\..\..\simplelink\source/wlan.c ****                              const unsigned char*   pPublicKey,
 832:..\..\..\..\..\simplelink\source/wlan.c ****                              const unsigned char*   pGroup1Key,
 833:..\..\..\..\..\simplelink\source/wlan.c ****                              const unsigned char*   pGroup2Key)
 834:..\..\..\..\..\simplelink\source/wlan.c **** {
 2442              		.loc 1 834 0
 2443              		.cfi_startproc
 2444 0000 80B5     		push	{r7, lr}
 2445              	.LCFI41:
 2446              		.cfi_def_cfa_offset 8
 2447              		.cfi_offset 7, -8
 2448              		.cfi_offset 14, -4
 2449 0002 92B0     		sub	sp, sp, #72
 2450              	.LCFI42:
 2451              		.cfi_def_cfa_offset 80
 2452 0004 00AF     		add	r7, sp, #0
 2453              	.LCFI43:
 2454              		.cfi_def_cfa_register 7
 2455 0006 7860     		str	r0, [r7, #4]
 2456 0008 081C     		mov	r0, r1
 2457 000a 111C     		mov	r1, r2
 2458 000c 1A1C     		mov	r2, r3
 2459 000e FB1C     		add	r3, r7, #3
 2460 0010 1870     		strb	r0, [r3]
 2461 0012 BB1C     		add	r3, r7, #2
 2462 0014 1970     		strb	r1, [r3]
 2463 0016 7B1C     		add	r3, r7, #1
 2464 0018 1A70     		strb	r2, [r3]
 835:..\..\..\..\..\simplelink\source/wlan.c ****     _SlSmartConfigStartMsg_u      Msg;
 836:..\..\..\..\..\simplelink\source/wlan.c **** 
 837:..\..\..\..\..\simplelink\source/wlan.c ****     Msg.Cmd.Args.groupIdBitmask = (UINT8)groupIdBitmask;
 2465              		.loc 1 837 0
 2466 001a 7B68     		ldr	r3, [r7, #4]
 2467 001c DBB2     		uxtb	r3, r3
 2468 001e 1A1C     		mov	r2, r3
 2469 0020 3B1C     		mov	r3, r7
ARM GAS  C:\Users\X0217454\AppData\Local\Temp\ccwJRGby.s 			page 59


 2470 0022 0C33     		add	r3, r3, #12
 2471 0024 1A60     		str	r2, [r3]
 838:..\..\..\..\..\simplelink\source/wlan.c ****     Msg.Cmd.Args.cipher         = (UINT8)cipher;
 2472              		.loc 1 838 0
 2473 0026 3B1C     		mov	r3, r7
 2474 0028 0C33     		add	r3, r3, #12
 2475 002a FA1C     		add	r2, r7, #3
 2476 002c 1278     		ldrb	r2, [r2]
 2477 002e 1A71     		strb	r2, [r3, #4]
 839:..\..\..\..\..\simplelink\source/wlan.c ****     Msg.Cmd.Args.publicKeyLen   = (UINT8)publicKeyLen;
 2478              		.loc 1 839 0
 2479 0030 3B1C     		mov	r3, r7
 2480 0032 0C33     		add	r3, r3, #12
 2481 0034 BA1C     		add	r2, r7, #2
 2482 0036 1278     		ldrb	r2, [r2]
 2483 0038 5A71     		strb	r2, [r3, #5]
 840:..\..\..\..\..\simplelink\source/wlan.c ****     Msg.Cmd.Args.group1KeyLen   = (UINT8)group1KeyLen;
 2484              		.loc 1 840 0
 2485 003a 3B1C     		mov	r3, r7
 2486 003c 0C33     		add	r3, r3, #12
 2487 003e 7A1C     		add	r2, r7, #1
 2488 0040 1278     		ldrb	r2, [r2]
 2489 0042 9A71     		strb	r2, [r3, #6]
 841:..\..\..\..\..\simplelink\source/wlan.c ****     Msg.Cmd.Args.group2KeyLen   = (UINT8)group2KeyLen;
 2490              		.loc 1 841 0
 2491 0044 3B1C     		mov	r3, r7
 2492 0046 0C33     		add	r3, r3, #12
 2493 0048 3A1C     		mov	r2, r7
 2494 004a 5032     		add	r2, r2, #80
 2495 004c 1278     		ldrb	r2, [r2]
 2496 004e DA71     		strb	r2, [r3, #7]
 842:..\..\..\..\..\simplelink\source/wlan.c **** 
 843:..\..\..\..\..\simplelink\source/wlan.c ****     /* copy keys (if exist) after command (one after another) */
 844:..\..\..\..\..\simplelink\source/wlan.c ****     memcpy(SMART_CONFIG_START_PUBLIC_KEY_STRING(&Msg), pPublicKey, publicKeyLen);
 2497              		.loc 1 844 0
 2498 0050 BB1C     		add	r3, r7, #2
 2499 0052 1B78     		ldrb	r3, [r3]
 2500 0054 3A1C     		mov	r2, r7
 2501 0056 0C32     		add	r2, r2, #12
 2502 0058 111C     		mov	r1, r2
 2503 005a 0831     		add	r1, r1, #8
 2504 005c 7A6D     		ldr	r2, [r7, #84]
 2505 005e 081C     		mov	r0, r1
 2506 0060 111C     		mov	r1, r2
 2507 0062 1A1C     		mov	r2, r3
 2508 0064 FFF7FEFF 		bl	memcpy
 845:..\..\..\..\..\simplelink\source/wlan.c ****     memcpy(SMART_CONFIG_START_GROUP1_KEY_STRING(&Msg), pGroup1Key, group1KeyLen);
 2509              		.loc 1 845 0
 2510 0068 3B1C     		mov	r3, r7
 2511 006a 0C33     		add	r3, r3, #12
 2512 006c 5B79     		ldrb	r3, [r3, #5]
 2513 006e 0833     		add	r3, r3, #8
 2514 0070 3A1C     		mov	r2, r7
 2515 0072 0C32     		add	r2, r2, #12
 2516 0074 D118     		add	r1, r2, r3
 2517 0076 7B1C     		add	r3, r7, #1
 2518 0078 1B78     		ldrb	r3, [r3]
ARM GAS  C:\Users\X0217454\AppData\Local\Temp\ccwJRGby.s 			page 60


 2519 007a BA6D     		ldr	r2, [r7, #88]
 2520 007c 081C     		mov	r0, r1
 2521 007e 111C     		mov	r1, r2
 2522 0080 1A1C     		mov	r2, r3
 2523 0082 FFF7FEFF 		bl	memcpy
 846:..\..\..\..\..\simplelink\source/wlan.c ****     memcpy(SMART_CONFIG_START_GROUP2_KEY_STRING(&Msg), pGroup2Key, group2KeyLen);
 2524              		.loc 1 846 0
 2525 0086 3B1C     		mov	r3, r7
 2526 0088 0C33     		add	r3, r3, #12
 2527 008a 5B79     		ldrb	r3, [r3, #5]
 2528 008c 1A1C     		mov	r2, r3
 2529 008e 3B1C     		mov	r3, r7
 2530 0090 0C33     		add	r3, r3, #12
 2531 0092 9B79     		ldrb	r3, [r3, #6]
 2532 0094 D318     		add	r3, r2, r3
 2533 0096 0833     		add	r3, r3, #8
 2534 0098 3A1C     		mov	r2, r7
 2535 009a 0C32     		add	r2, r2, #12
 2536 009c D118     		add	r1, r2, r3
 2537 009e 3B1C     		mov	r3, r7
 2538 00a0 5033     		add	r3, r3, #80
 2539 00a2 1B78     		ldrb	r3, [r3]
 2540 00a4 FA6D     		ldr	r2, [r7, #92]
 2541 00a6 081C     		mov	r0, r1
 2542 00a8 111C     		mov	r1, r2
 2543 00aa 1A1C     		mov	r2, r3
 2544 00ac FFF7FEFF 		bl	memcpy
 2545              	.LBB13:
 847:..\..\..\..\..\simplelink\source/wlan.c **** 
 848:..\..\..\..\..\simplelink\source/wlan.c ****     VERIFY_RET_OK(_SlDrvCmdOp((_SlCmdCtrl_t *)&_SlSmartConfigStartCmdCtrl , &Msg, NULL));
 2546              		.loc 1 848 0
 2547 00b0 0A4A     		ldr	r2, .L141
 2548 00b2 3B1C     		mov	r3, r7
 2549 00b4 0C33     		add	r3, r3, #12
 2550 00b6 101C     		mov	r0, r2
 2551 00b8 191C     		mov	r1, r3
 2552 00ba 0022     		mov	r2, #0
 2553 00bc FFF7FEFF 		bl	_SlDrvCmdOp
 2554 00c0 031C     		mov	r3, r0
 2555 00c2 7B64     		str	r3, [r7, #68]
 2556 00c4 7B6C     		ldr	r3, [r7, #68]
 2557 00c6 002B     		cmp	r3, #0
 2558 00c8 00D0     		beq	.L138
 2559              	.L139:
 2560              		.loc 1 848 0 is_stmt 0 discriminator 1
 2561 00ca FEE7     		b	.L139
 2562              	.L138:
 2563              	.LBE13:
 849:..\..\..\..\..\simplelink\source/wlan.c **** 
 850:..\..\..\..\..\simplelink\source/wlan.c ****     return (int)Msg.Rsp.status;
 2564              		.loc 1 850 0 is_stmt 1
 2565 00cc 3B1C     		mov	r3, r7
 2566 00ce 0C33     		add	r3, r3, #12
 2567 00d0 1B88     		ldrh	r3, [r3]
 2568 00d2 1BB2     		sxth	r3, r3
 851:..\..\..\..\..\simplelink\source/wlan.c **** 
 852:..\..\..\..\..\simplelink\source/wlan.c **** 
ARM GAS  C:\Users\X0217454\AppData\Local\Temp\ccwJRGby.s 			page 61


 853:..\..\..\..\..\simplelink\source/wlan.c **** }
 2569              		.loc 1 853 0
 2570 00d4 181C     		mov	r0, r3
 2571 00d6 BD46     		mov	sp, r7
 2572 00d8 12B0     		add	sp, sp, #72
 2573              		@ sp needed for prologue
 2574 00da 80BD     		pop	{r7, pc}
 2575              	.L142:
 2576              		.align	2
 2577              	.L141:
 2578 00dc 00000000 		.word	_SlSmartConfigStartCmdCtrl
 2579              		.cfi_endproc
 2580              	.LFE15:
 2581              		.size	sl_WlanSmartConfigStart, .-sl_WlanSmartConfigStart
 2582              		.global	_SlWlanSetModeCmdCtrl
 2583              		.section	.rodata
 2584              		.align	2
 2585              		.type	_SlWlanSetModeCmdCtrl, %object
 2586              		.size	_SlWlanSetModeCmdCtrl, 4
 2587              	_SlWlanSetModeCmdCtrl:
 2588 0028 B48C     		.short	-29516
 2589 002a 04       		.byte	4
 2590 002b 04       		.byte	4
 2591              		.section	.text.sl_WlanSetMode,"ax",%progbits
 2592              		.align	2
 2593              		.global	sl_WlanSetMode
 2594              		.code	16
 2595              		.thumb_func
 2596              		.type	sl_WlanSetMode, %function
 2597              	sl_WlanSetMode:
 2598              	.LFB16:
 854:..\..\..\..\..\simplelink\source/wlan.c **** #endif
 855:..\..\..\..\..\simplelink\source/wlan.c **** 
 856:..\..\..\..\..\simplelink\source/wlan.c **** 
 857:..\..\..\..\..\simplelink\source/wlan.c **** /*******************************************************************************/
 858:..\..\..\..\..\simplelink\source/wlan.c **** /*   sl_WlanSetMode  */
 859:..\..\..\..\..\simplelink\source/wlan.c **** /*******************************************************************************/
 860:..\..\..\..\..\simplelink\source/wlan.c **** typedef union
 861:..\..\..\..\..\simplelink\source/wlan.c **** {
 862:..\..\..\..\..\simplelink\source/wlan.c **** 	_WlanSetMode_t		    Cmd;
 863:..\..\..\..\..\simplelink\source/wlan.c **** 	_BasicResponse_t	    Rsp;
 864:..\..\..\..\..\simplelink\source/wlan.c **** }_SlwlanSetModeMsg_u;
 865:..\..\..\..\..\simplelink\source/wlan.c **** 
 866:..\..\..\..\..\simplelink\source/wlan.c **** const _SlCmdCtrl_t _SlWlanSetModeCmdCtrl =
 867:..\..\..\..\..\simplelink\source/wlan.c **** {
 868:..\..\..\..\..\simplelink\source/wlan.c ****     SL_OPCODE_WLAN_SET_MODE,
 869:..\..\..\..\..\simplelink\source/wlan.c ****     sizeof(_WlanSetMode_t),
 870:..\..\..\..\..\simplelink\source/wlan.c ****     sizeof(_BasicResponse_t)
 871:..\..\..\..\..\simplelink\source/wlan.c **** };
 872:..\..\..\..\..\simplelink\source/wlan.c **** 
 873:..\..\..\..\..\simplelink\source/wlan.c **** /* possible values are: 
 874:..\..\..\..\..\simplelink\source/wlan.c ****      WLAN_SET_STA_MODE   =   1
 875:..\..\..\..\..\simplelink\source/wlan.c ****      WLAN_SET_AP_MODE    =   2
 876:..\..\..\..\..\simplelink\source/wlan.c ****      WLAN_SET_P2P_MODE   =   3  */
 877:..\..\..\..\..\simplelink\source/wlan.c **** 
 878:..\..\..\..\..\simplelink\source/wlan.c **** #if _SL_INCLUDE_FUNC(sl_WlanSetMode)
 879:..\..\..\..\..\simplelink\source/wlan.c **** int sl_WlanSetMode(const unsigned char    mode)
ARM GAS  C:\Users\X0217454\AppData\Local\Temp\ccwJRGby.s 			page 62


 880:..\..\..\..\..\simplelink\source/wlan.c **** {
 2599              		.loc 1 880 0
 2600              		.cfi_startproc
 2601 0000 80B5     		push	{r7, lr}
 2602              	.LCFI44:
 2603              		.cfi_def_cfa_offset 8
 2604              		.cfi_offset 7, -8
 2605              		.cfi_offset 14, -4
 2606 0002 84B0     		sub	sp, sp, #16
 2607              	.LCFI45:
 2608              		.cfi_def_cfa_offset 24
 2609 0004 00AF     		add	r7, sp, #0
 2610              	.LCFI46:
 2611              		.cfi_def_cfa_register 7
 2612 0006 021C     		mov	r2, r0
 2613 0008 FB1D     		add	r3, r7, #7
 2614 000a 1A70     		strb	r2, [r3]
 881:..\..\..\..\..\simplelink\source/wlan.c ****     _SlwlanSetModeMsg_u      Msg;
 882:..\..\..\..\..\simplelink\source/wlan.c **** 
 883:..\..\..\..\..\simplelink\source/wlan.c **** 	Msg.Cmd.mode  = mode;
 2615              		.loc 1 883 0
 2616 000c 3B1C     		mov	r3, r7
 2617 000e 0833     		add	r3, r3, #8
 2618 0010 FA1D     		add	r2, r7, #7
 2619 0012 1278     		ldrb	r2, [r2]
 2620 0014 1A70     		strb	r2, [r3]
 2621              	.LBB14:
 884:..\..\..\..\..\simplelink\source/wlan.c **** 
 885:..\..\..\..\..\simplelink\source/wlan.c ****     VERIFY_RET_OK(_SlDrvCmdOp((_SlCmdCtrl_t *)&_SlWlanSetModeCmdCtrl , &Msg, NULL));
 2622              		.loc 1 885 0
 2623 0016 0B4A     		ldr	r2, .L147
 2624 0018 3B1C     		mov	r3, r7
 2625 001a 0833     		add	r3, r3, #8
 2626 001c 101C     		mov	r0, r2
 2627 001e 191C     		mov	r1, r3
 2628 0020 0022     		mov	r2, #0
 2629 0022 FFF7FEFF 		bl	_SlDrvCmdOp
 2630 0026 031C     		mov	r3, r0
 2631 0028 FB60     		str	r3, [r7, #12]
 2632 002a FB68     		ldr	r3, [r7, #12]
 2633 002c 002B     		cmp	r3, #0
 2634 002e 00D0     		beq	.L144
 2635              	.L145:
 2636              		.loc 1 885 0 is_stmt 0 discriminator 1
 2637 0030 FEE7     		b	.L145
 2638              	.L144:
 2639              	.LBE14:
 886:..\..\..\..\..\simplelink\source/wlan.c **** 
 887:..\..\..\..\..\simplelink\source/wlan.c ****     return (int)Msg.Rsp.status;
 2640              		.loc 1 887 0 is_stmt 1
 2641 0032 3B1C     		mov	r3, r7
 2642 0034 0833     		add	r3, r3, #8
 2643 0036 1B88     		ldrh	r3, [r3]
 2644 0038 1BB2     		sxth	r3, r3
 888:..\..\..\..\..\simplelink\source/wlan.c **** 
 889:..\..\..\..\..\simplelink\source/wlan.c **** }
 2645              		.loc 1 889 0
ARM GAS  C:\Users\X0217454\AppData\Local\Temp\ccwJRGby.s 			page 63


 2646 003a 181C     		mov	r0, r3
 2647 003c BD46     		mov	sp, r7
 2648 003e 04B0     		add	sp, sp, #16
 2649              		@ sp needed for prologue
 2650 0040 80BD     		pop	{r7, pc}
 2651              	.L148:
 2652 0042 C046     		.align	2
 2653              	.L147:
 2654 0044 00000000 		.word	_SlWlanSetModeCmdCtrl
 2655              		.cfi_endproc
 2656              	.LFE16:
 2657              		.size	sl_WlanSetMode, .-sl_WlanSetMode
 2658              		.global	_SlWlanCfgSetCmdCtrl
 2659              		.section	.rodata
 2660              		.align	2
 2661              		.type	_SlWlanCfgSetCmdCtrl, %object
 2662              		.size	_SlWlanCfgSetCmdCtrl, 4
 2663              	_SlWlanCfgSetCmdCtrl:
 2664 002c B58C     		.short	-29515
 2665 002e 08       		.byte	8
 2666 002f 04       		.byte	4
 2667              		.section	.text.sl_WlanSet,"ax",%progbits
 2668              		.align	2
 2669              		.global	sl_WlanSet
 2670              		.code	16
 2671              		.thumb_func
 2672              		.type	sl_WlanSet, %function
 2673              	sl_WlanSet:
 2674              	.LFB17:
 890:..\..\..\..\..\simplelink\source/wlan.c **** #endif
 891:..\..\..\..\..\simplelink\source/wlan.c **** 
 892:..\..\..\..\..\simplelink\source/wlan.c **** 
 893:..\..\..\..\..\simplelink\source/wlan.c **** 
 894:..\..\..\..\..\simplelink\source/wlan.c **** 
 895:..\..\..\..\..\simplelink\source/wlan.c **** /*******************************************************************************/
 896:..\..\..\..\..\simplelink\source/wlan.c **** /*   sl_WlanSet  */
 897:..\..\..\..\..\simplelink\source/wlan.c **** /* ******************************************************************************/
 898:..\..\..\..\..\simplelink\source/wlan.c **** typedef union
 899:..\..\..\..\..\simplelink\source/wlan.c **** {
 900:..\..\..\..\..\simplelink\source/wlan.c **** 	_WlanCfgSetGet_t	    Cmd;
 901:..\..\..\..\..\simplelink\source/wlan.c **** 	_BasicResponse_t	    Rsp;
 902:..\..\..\..\..\simplelink\source/wlan.c **** }_SlWlanCfgSetMsg_u;
 903:..\..\..\..\..\simplelink\source/wlan.c **** 
 904:..\..\..\..\..\simplelink\source/wlan.c **** const _SlCmdCtrl_t _SlWlanCfgSetCmdCtrl =
 905:..\..\..\..\..\simplelink\source/wlan.c **** {
 906:..\..\..\..\..\simplelink\source/wlan.c ****     SL_OPCODE_WLAN_CFG_SET,
 907:..\..\..\..\..\simplelink\source/wlan.c ****     sizeof(_WlanCfgSetGet_t),
 908:..\..\..\..\..\simplelink\source/wlan.c ****     sizeof(_BasicResponse_t)
 909:..\..\..\..\..\simplelink\source/wlan.c **** };
 910:..\..\..\..\..\simplelink\source/wlan.c **** 
 911:..\..\..\..\..\simplelink\source/wlan.c **** 
 912:..\..\..\..\..\simplelink\source/wlan.c **** #if _SL_INCLUDE_FUNC(sl_WlanSet)
 913:..\..\..\..\..\simplelink\source/wlan.c **** int sl_WlanSet(unsigned short ConfigId ,unsigned short ConfigOpt,unsigned short ConfigLen, unsigned
 914:..\..\..\..\..\simplelink\source/wlan.c **** {
 2675              		.loc 1 914 0
 2676              		.cfi_startproc
 2677 0000 80B5     		push	{r7, lr}
ARM GAS  C:\Users\X0217454\AppData\Local\Temp\ccwJRGby.s 			page 64


 2678              	.LCFI47:
 2679              		.cfi_def_cfa_offset 8
 2680              		.cfi_offset 7, -8
 2681              		.cfi_offset 14, -4
 2682 0002 8CB0     		sub	sp, sp, #48
 2683              	.LCFI48:
 2684              		.cfi_def_cfa_offset 56
 2685 0004 00AF     		add	r7, sp, #0
 2686              	.LCFI49:
 2687              		.cfi_def_cfa_register 7
 2688 0006 7B60     		str	r3, [r7, #4]
 2689 0008 3B1C     		mov	r3, r7
 2690 000a 0E33     		add	r3, r3, #14
 2691 000c 1880     		strh	r0, [r3]
 2692 000e 3B1C     		mov	r3, r7
 2693 0010 0C33     		add	r3, r3, #12
 2694 0012 1980     		strh	r1, [r3]
 2695 0014 3B1C     		mov	r3, r7
 2696 0016 0A33     		add	r3, r3, #10
 2697 0018 1A80     		strh	r2, [r3]
 915:..\..\..\..\..\simplelink\source/wlan.c ****     _SlWlanCfgSetMsg_u         Msg;
 916:..\..\..\..\..\simplelink\source/wlan.c ****     _SlCmdExt_t                CmdExt;
 917:..\..\..\..\..\simplelink\source/wlan.c **** 
 918:..\..\..\..\..\simplelink\source/wlan.c **** 	CmdExt.TxPayloadLen = (ConfigLen+3) & (~3);
 2698              		.loc 1 918 0
 2699 001a 3B1C     		mov	r3, r7
 2700 001c 0A33     		add	r3, r3, #10
 2701 001e 1B88     		ldrh	r3, [r3]
 2702 0020 0333     		add	r3, r3, #3
 2703 0022 9BB2     		uxth	r3, r3
 2704 0024 0322     		mov	r2, #3
 2705 0026 9343     		bic	r3, r2
 2706 0028 9AB2     		uxth	r2, r3
 2707 002a 3B1C     		mov	r3, r7
 2708 002c 1433     		add	r3, r3, #20
 2709 002e 1A80     		strh	r2, [r3]
 919:..\..\..\..\..\simplelink\source/wlan.c ****     CmdExt.RxPayloadLen = 0;
 2710              		.loc 1 919 0
 2711 0030 3B1C     		mov	r3, r7
 2712 0032 1433     		add	r3, r3, #20
 2713 0034 0022     		mov	r2, #0
 2714 0036 5A80     		strh	r2, [r3, #2]
 920:..\..\..\..\..\simplelink\source/wlan.c ****     CmdExt.pTxPayload = (UINT8 *)pValues;
 2715              		.loc 1 920 0
 2716 0038 3B1C     		mov	r3, r7
 2717 003a 1433     		add	r3, r3, #20
 2718 003c 7A68     		ldr	r2, [r7, #4]
 2719 003e 9A60     		str	r2, [r3, #8]
 921:..\..\..\..\..\simplelink\source/wlan.c ****     CmdExt.pRxPayload = NULL;
 2720              		.loc 1 921 0
 2721 0040 3B1C     		mov	r3, r7
 2722 0042 1433     		add	r3, r3, #20
 2723 0044 0022     		mov	r2, #0
 2724 0046 DA60     		str	r2, [r3, #12]
 922:..\..\..\..\..\simplelink\source/wlan.c **** 
 923:..\..\..\..\..\simplelink\source/wlan.c **** 
 924:..\..\..\..\..\simplelink\source/wlan.c ****     Msg.Cmd.ConfigId    = ConfigId;
ARM GAS  C:\Users\X0217454\AppData\Local\Temp\ccwJRGby.s 			page 65


 2725              		.loc 1 924 0
 2726 0048 3B1C     		mov	r3, r7
 2727 004a 2433     		add	r3, r3, #36
 2728 004c 3A1C     		mov	r2, r7
 2729 004e 0E32     		add	r2, r2, #14
 2730 0050 1288     		ldrh	r2, [r2]
 2731 0052 5A80     		strh	r2, [r3, #2]
 925:..\..\..\..\..\simplelink\source/wlan.c ****     Msg.Cmd.ConfigLen   = ConfigLen;
 2732              		.loc 1 925 0
 2733 0054 3B1C     		mov	r3, r7
 2734 0056 2433     		add	r3, r3, #36
 2735 0058 3A1C     		mov	r2, r7
 2736 005a 0A32     		add	r2, r2, #10
 2737 005c 1288     		ldrh	r2, [r2]
 2738 005e DA80     		strh	r2, [r3, #6]
 926:..\..\..\..\..\simplelink\source/wlan.c **** 	Msg.Cmd.ConfigOpt   = ConfigOpt;
 2739              		.loc 1 926 0
 2740 0060 3B1C     		mov	r3, r7
 2741 0062 2433     		add	r3, r3, #36
 2742 0064 3A1C     		mov	r2, r7
 2743 0066 0C32     		add	r2, r2, #12
 2744 0068 1288     		ldrh	r2, [r2]
 2745 006a 9A80     		strh	r2, [r3, #4]
 2746              	.LBB15:
 927:..\..\..\..\..\simplelink\source/wlan.c **** 
 928:..\..\..\..\..\simplelink\source/wlan.c ****     VERIFY_RET_OK(_SlDrvCmdOp((_SlCmdCtrl_t *)&_SlWlanCfgSetCmdCtrl, &Msg, &CmdExt));
 2747              		.loc 1 928 0
 2748 006c 0B49     		ldr	r1, .L153
 2749 006e 3A1C     		mov	r2, r7
 2750 0070 2432     		add	r2, r2, #36
 2751 0072 3B1C     		mov	r3, r7
 2752 0074 1433     		add	r3, r3, #20
 2753 0076 081C     		mov	r0, r1
 2754 0078 111C     		mov	r1, r2
 2755 007a 1A1C     		mov	r2, r3
 2756 007c FFF7FEFF 		bl	_SlDrvCmdOp
 2757 0080 031C     		mov	r3, r0
 2758 0082 FB62     		str	r3, [r7, #44]
 2759 0084 FB6A     		ldr	r3, [r7, #44]
 2760 0086 002B     		cmp	r3, #0
 2761 0088 00D0     		beq	.L150
 2762              	.L151:
 2763              		.loc 1 928 0 is_stmt 0 discriminator 1
 2764 008a FEE7     		b	.L151
 2765              	.L150:
 2766              	.LBE15:
 929:..\..\..\..\..\simplelink\source/wlan.c **** 
 930:..\..\..\..\..\simplelink\source/wlan.c ****     return (int)Msg.Rsp.status;
 2767              		.loc 1 930 0 is_stmt 1
 2768 008c 3B1C     		mov	r3, r7
 2769 008e 2433     		add	r3, r3, #36
 2770 0090 1B88     		ldrh	r3, [r3]
 2771 0092 1BB2     		sxth	r3, r3
 931:..\..\..\..\..\simplelink\source/wlan.c **** }
 2772              		.loc 1 931 0
 2773 0094 181C     		mov	r0, r3
 2774 0096 BD46     		mov	sp, r7
ARM GAS  C:\Users\X0217454\AppData\Local\Temp\ccwJRGby.s 			page 66


 2775 0098 0CB0     		add	sp, sp, #48
 2776              		@ sp needed for prologue
 2777 009a 80BD     		pop	{r7, pc}
 2778              	.L154:
 2779              		.align	2
 2780              	.L153:
 2781 009c 00000000 		.word	_SlWlanCfgSetCmdCtrl
 2782              		.cfi_endproc
 2783              	.LFE17:
 2784              		.size	sl_WlanSet, .-sl_WlanSet
 2785              		.global	_SlWlanCfgGetCmdCtrl
 2786              		.section	.rodata
 2787              		.align	2
 2788              		.type	_SlWlanCfgGetCmdCtrl, %object
 2789              		.size	_SlWlanCfgGetCmdCtrl, 4
 2790              	_SlWlanCfgGetCmdCtrl:
 2791 0030 B68C     		.short	-29514
 2792 0032 08       		.byte	8
 2793 0033 08       		.byte	8
 2794              		.section	.text.sl_WlanGet,"ax",%progbits
 2795              		.align	2
 2796              		.global	sl_WlanGet
 2797              		.code	16
 2798              		.thumb_func
 2799              		.type	sl_WlanGet, %function
 2800              	sl_WlanGet:
 2801              	.LFB18:
 932:..\..\..\..\..\simplelink\source/wlan.c **** #endif
 933:..\..\..\..\..\simplelink\source/wlan.c **** 
 934:..\..\..\..\..\simplelink\source/wlan.c **** 
 935:..\..\..\..\..\simplelink\source/wlan.c **** /******************************************************************************/
 936:..\..\..\..\..\simplelink\source/wlan.c **** /*  sl_WlanGet  */
 937:..\..\..\..\..\simplelink\source/wlan.c **** /******************************************************************************/
 938:..\..\..\..\..\simplelink\source/wlan.c **** typedef union
 939:..\..\..\..\..\simplelink\source/wlan.c **** {
 940:..\..\..\..\..\simplelink\source/wlan.c **** 	_WlanCfgSetGet_t	    Cmd;
 941:..\..\..\..\..\simplelink\source/wlan.c **** 	_WlanCfgSetGet_t	    Rsp;
 942:..\..\..\..\..\simplelink\source/wlan.c **** }_SlWlanCfgMsgGet_u;
 943:..\..\..\..\..\simplelink\source/wlan.c **** 
 944:..\..\..\..\..\simplelink\source/wlan.c **** const _SlCmdCtrl_t _SlWlanCfgGetCmdCtrl =
 945:..\..\..\..\..\simplelink\source/wlan.c **** {
 946:..\..\..\..\..\simplelink\source/wlan.c ****     SL_OPCODE_WLAN_CFG_GET,
 947:..\..\..\..\..\simplelink\source/wlan.c ****     sizeof(_WlanCfgSetGet_t),
 948:..\..\..\..\..\simplelink\source/wlan.c ****     sizeof(_WlanCfgSetGet_t)
 949:..\..\..\..\..\simplelink\source/wlan.c **** };
 950:..\..\..\..\..\simplelink\source/wlan.c **** 
 951:..\..\..\..\..\simplelink\source/wlan.c **** #if _SL_INCLUDE_FUNC(sl_WlanGet)
 952:..\..\..\..\..\simplelink\source/wlan.c **** int sl_WlanGet(unsigned short ConfigId, unsigned short *pConfigOpt,unsigned short *pConfigLen, unsi
 953:..\..\..\..\..\simplelink\source/wlan.c **** {
 2802              		.loc 1 953 0
 2803              		.cfi_startproc
 2804 0000 80B5     		push	{r7, lr}
 2805              	.LCFI50:
 2806              		.cfi_def_cfa_offset 8
 2807              		.cfi_offset 7, -8
 2808              		.cfi_offset 14, -4
 2809 0002 8CB0     		sub	sp, sp, #48
ARM GAS  C:\Users\X0217454\AppData\Local\Temp\ccwJRGby.s 			page 67


 2810              	.LCFI51:
 2811              		.cfi_def_cfa_offset 56
 2812 0004 00AF     		add	r7, sp, #0
 2813              	.LCFI52:
 2814              		.cfi_def_cfa_register 7
 2815 0006 B960     		str	r1, [r7, #8]
 2816 0008 7A60     		str	r2, [r7, #4]
 2817 000a 3B60     		str	r3, [r7]
 2818 000c 3B1C     		mov	r3, r7
 2819 000e 0E33     		add	r3, r3, #14
 2820 0010 021C     		add	r2, r0, #0
 2821 0012 1A80     		strh	r2, [r3]
 954:..\..\..\..\..\simplelink\source/wlan.c ****     _SlWlanCfgMsgGet_u        Msg;
 955:..\..\..\..\..\simplelink\source/wlan.c ****     _SlCmdExt_t               CmdExt;
 956:..\..\..\..\..\simplelink\source/wlan.c **** 
 957:..\..\..\..\..\simplelink\source/wlan.c **** 	if (*pConfigLen == 0)
 2822              		.loc 1 957 0
 2823 0014 7B68     		ldr	r3, [r7, #4]
 2824 0016 1B88     		ldrh	r3, [r3]
 2825 0018 002B     		cmp	r3, #0
 2826 001a 01D1     		bne	.L156
 958:..\..\..\..\..\simplelink\source/wlan.c **** 	{
 959:..\..\..\..\..\simplelink\source/wlan.c **** 		return SL_EZEROLEN;
 2827              		.loc 1 959 0
 2828 001c 2E4B     		ldr	r3, .L164
 2829 001e 57E0     		b	.L163
 2830              	.L156:
 960:..\..\..\..\..\simplelink\source/wlan.c **** 	}
 961:..\..\..\..\..\simplelink\source/wlan.c ****     CmdExt.TxPayloadLen = 0;
 2831              		.loc 1 961 0
 2832 0020 3B1C     		mov	r3, r7
 2833 0022 1433     		add	r3, r3, #20
 2834 0024 0022     		mov	r2, #0
 2835 0026 1A80     		strh	r2, [r3]
 962:..\..\..\..\..\simplelink\source/wlan.c ****     CmdExt.RxPayloadLen = *pConfigLen;
 2836              		.loc 1 962 0
 2837 0028 7B68     		ldr	r3, [r7, #4]
 2838 002a 1A88     		ldrh	r2, [r3]
 2839 002c 3B1C     		mov	r3, r7
 2840 002e 1433     		add	r3, r3, #20
 2841 0030 5A80     		strh	r2, [r3, #2]
 963:..\..\..\..\..\simplelink\source/wlan.c ****     CmdExt.pTxPayload = NULL;
 2842              		.loc 1 963 0
 2843 0032 3B1C     		mov	r3, r7
 2844 0034 1433     		add	r3, r3, #20
 2845 0036 0022     		mov	r2, #0
 2846 0038 9A60     		str	r2, [r3, #8]
 964:..\..\..\..\..\simplelink\source/wlan.c ****     CmdExt.pRxPayload = (UINT8 *)pValues;
 2847              		.loc 1 964 0
 2848 003a 3B1C     		mov	r3, r7
 2849 003c 1433     		add	r3, r3, #20
 2850 003e 3A68     		ldr	r2, [r7]
 2851 0040 DA60     		str	r2, [r3, #12]
 965:..\..\..\..\..\simplelink\source/wlan.c **** 	CmdExt.ActualRxPayloadLen = 0;
 2852              		.loc 1 965 0
 2853 0042 3B1C     		mov	r3, r7
 2854 0044 1433     		add	r3, r3, #20
ARM GAS  C:\Users\X0217454\AppData\Local\Temp\ccwJRGby.s 			page 68


 2855 0046 0022     		mov	r2, #0
 2856 0048 9A80     		strh	r2, [r3, #4]
 966:..\..\..\..\..\simplelink\source/wlan.c **** 
 967:..\..\..\..\..\simplelink\source/wlan.c ****     Msg.Cmd.ConfigId    = ConfigId;
 2857              		.loc 1 967 0
 2858 004a 3B1C     		mov	r3, r7
 2859 004c 2433     		add	r3, r3, #36
 2860 004e 3A1C     		mov	r2, r7
 2861 0050 0E32     		add	r2, r2, #14
 2862 0052 1288     		ldrh	r2, [r2]
 2863 0054 5A80     		strh	r2, [r3, #2]
 968:..\..\..\..\..\simplelink\source/wlan.c ****     if( pConfigOpt )
 2864              		.loc 1 968 0
 2865 0056 BB68     		ldr	r3, [r7, #8]
 2866 0058 002B     		cmp	r3, #0
 2867 005a 04D0     		beq	.L158
 969:..\..\..\..\..\simplelink\source/wlan.c ****     {
 970:..\..\..\..\..\simplelink\source/wlan.c ****        Msg.Cmd.ConfigOpt   = (UINT16)*pConfigOpt;
 2868              		.loc 1 970 0
 2869 005c BB68     		ldr	r3, [r7, #8]
 2870 005e 1A88     		ldrh	r2, [r3]
 2871 0060 3B1C     		mov	r3, r7
 2872 0062 2433     		add	r3, r3, #36
 2873 0064 9A80     		strh	r2, [r3, #4]
 2874              	.L158:
 2875              	.LBB16:
 971:..\..\..\..\..\simplelink\source/wlan.c ****     }
 972:..\..\..\..\..\simplelink\source/wlan.c ****     VERIFY_RET_OK(_SlDrvCmdOp((_SlCmdCtrl_t *)&_SlWlanCfgGetCmdCtrl, &Msg, &CmdExt));
 2876              		.loc 1 972 0
 2877 0066 1D49     		ldr	r1, .L164+4
 2878 0068 3A1C     		mov	r2, r7
 2879 006a 2432     		add	r2, r2, #36
 2880 006c 3B1C     		mov	r3, r7
 2881 006e 1433     		add	r3, r3, #20
 2882 0070 081C     		mov	r0, r1
 2883 0072 111C     		mov	r1, r2
 2884 0074 1A1C     		mov	r2, r3
 2885 0076 FFF7FEFF 		bl	_SlDrvCmdOp
 2886 007a 031C     		mov	r3, r0
 2887 007c FB62     		str	r3, [r7, #44]
 2888 007e FB6A     		ldr	r3, [r7, #44]
 2889 0080 002B     		cmp	r3, #0
 2890 0082 00D0     		beq	.L159
 2891              	.L160:
 2892              		.loc 1 972 0 is_stmt 0 discriminator 1
 2893 0084 FEE7     		b	.L160
 2894              	.L159:
 2895              	.LBE16:
 973:..\..\..\..\..\simplelink\source/wlan.c ****     
 974:..\..\..\..\..\simplelink\source/wlan.c ****      if( pConfigOpt )
 2896              		.loc 1 974 0 is_stmt 1
 2897 0086 BB68     		ldr	r3, [r7, #8]
 2898 0088 002B     		cmp	r3, #0
 2899 008a 06D0     		beq	.L161
 975:..\..\..\..\..\simplelink\source/wlan.c ****      {
 976:..\..\..\..\..\simplelink\source/wlan.c ****        *pConfigOpt = (UINT8)Msg.Rsp.ConfigOpt;
 2900              		.loc 1 976 0
ARM GAS  C:\Users\X0217454\AppData\Local\Temp\ccwJRGby.s 			page 69


 2901 008c 3B1C     		mov	r3, r7
 2902 008e 2433     		add	r3, r3, #36
 2903 0090 9B88     		ldrh	r3, [r3, #4]
 2904 0092 DBB2     		uxtb	r3, r3
 2905 0094 1A1C     		mov	r2, r3
 2906 0096 BB68     		ldr	r3, [r7, #8]
 2907 0098 1A80     		strh	r2, [r3]
 2908              	.L161:
 977:..\..\..\..\..\simplelink\source/wlan.c ****      }
 978:..\..\..\..\..\simplelink\source/wlan.c **** 	 if (CmdExt.RxPayloadLen < CmdExt.ActualRxPayloadLen) 
 2909              		.loc 1 978 0
 2910 009a 3B1C     		mov	r3, r7
 2911 009c 1433     		add	r3, r3, #20
 2912 009e 5A88     		ldrh	r2, [r3, #2]
 2913 00a0 3B1C     		mov	r3, r7
 2914 00a2 1433     		add	r3, r3, #20
 2915 00a4 9B88     		ldrh	r3, [r3, #4]
 2916 00a6 9A42     		cmp	r2, r3
 2917 00a8 08D2     		bcs	.L162
 979:..\..\..\..\..\simplelink\source/wlan.c **** 	 {
 980:..\..\..\..\..\simplelink\source/wlan.c **** 		*pConfigLen = (UINT8)CmdExt.RxPayloadLen;
 2918              		.loc 1 980 0
 2919 00aa 3B1C     		mov	r3, r7
 2920 00ac 1433     		add	r3, r3, #20
 2921 00ae 5B88     		ldrh	r3, [r3, #2]
 2922 00b0 DBB2     		uxtb	r3, r3
 2923 00b2 1A1C     		mov	r2, r3
 2924 00b4 7B68     		ldr	r3, [r7, #4]
 2925 00b6 1A80     		strh	r2, [r3]
 981:..\..\..\..\..\simplelink\source/wlan.c **** 		return SL_ESMALLBUF;
 2926              		.loc 1 981 0
 2927 00b8 094B     		ldr	r3, .L164+8
 2928 00ba 09E0     		b	.L163
 2929              	.L162:
 982:..\..\..\..\..\simplelink\source/wlan.c **** 	 }
 983:..\..\..\..\..\simplelink\source/wlan.c **** 	else
 984:..\..\..\..\..\simplelink\source/wlan.c ****     {
 985:..\..\..\..\..\simplelink\source/wlan.c **** 		*pConfigLen = (UINT8)CmdExt.ActualRxPayloadLen;
 2930              		.loc 1 985 0
 2931 00bc 3B1C     		mov	r3, r7
 2932 00be 1433     		add	r3, r3, #20
 2933 00c0 9B88     		ldrh	r3, [r3, #4]
 2934 00c2 DBB2     		uxtb	r3, r3
 2935 00c4 1A1C     		mov	r2, r3
 2936 00c6 7B68     		ldr	r3, [r7, #4]
 2937 00c8 1A80     		strh	r2, [r3]
 986:..\..\..\..\..\simplelink\source/wlan.c **** 	}
 987:..\..\..\..\..\simplelink\source/wlan.c **** 	 
 988:..\..\..\..\..\simplelink\source/wlan.c **** 
 989:..\..\..\..\..\simplelink\source/wlan.c ****     return (int)Msg.Rsp.Status;
 2938              		.loc 1 989 0
 2939 00ca 3B1C     		mov	r3, r7
 2940 00cc 2433     		add	r3, r3, #36
 2941 00ce 1B88     		ldrh	r3, [r3]
 2942              	.L163:
 990:..\..\..\..\..\simplelink\source/wlan.c **** }
 2943              		.loc 1 990 0
ARM GAS  C:\Users\X0217454\AppData\Local\Temp\ccwJRGby.s 			page 70


 2944 00d0 181C     		mov	r0, r3
 2945 00d2 BD46     		mov	sp, r7
 2946 00d4 0CB0     		add	sp, sp, #48
 2947              		@ sp needed for prologue
 2948 00d6 80BD     		pop	{r7, pc}
 2949              	.L165:
 2950              		.align	2
 2951              	.L164:
 2952 00d8 2EF8FFFF 		.word	-2002
 2953 00dc 00000000 		.word	_SlWlanCfgGetCmdCtrl
 2954 00e0 2FF8FFFF 		.word	-2001
 2955              		.cfi_endproc
 2956              	.LFE18:
 2957              		.size	sl_WlanGet, .-sl_WlanGet
 2958              		.text
 2959              	.Letext0:
 2960              		.file 2 "..\\..\\..\\..\\..\\simplelink\\source\\datatypes.h"
 2961              		.file 3 "..\\..\\..\\..\\..\\simplelink\\include/wlan.h"
 2962              		.file 4 "..\\..\\..\\..\\..\\simplelink\\include/wlan_rx_filters.h"
 2963              		.file 5 "..\\..\\..\\..\\..\\simplelink\\source\\protocol.h"
 2964              		.file 6 "..\\..\\..\\..\\..\\simplelink\\source\\driver.h"