ARM GAS  C:\Users\X0217454\AppData\Local\Temp\ccwJRGby.s 			page 1


   1              		.cpu cortex-m0
   2              		.fpu softvfp
   3              		.eabi_attribute 20, 1
   4              		.eabi_attribute 21, 1
   5              		.eabi_attribute 23, 3
   6              		.eabi_attribute 24, 1
   7              		.eabi_attribute 25, 1
   8              		.eabi_attribute 26, 1
   9              		.eabi_attribute 30, 6
  10              		.eabi_attribute 34, 0
  11              		.eabi_attribute 18, 4
  12              		.code	16
  13              		.file	"wlan.c"
  14              		.text
  15              	.Ltext0:
  16              		.cfi_sections	.debug_frame
  17              		.section	.text.sl_WlanConnect,"ax",%progbits
  18              		.align	2
  19              		.global	sl_WlanConnect
  20              		.code	16
  21              		.thumb_func
  22              		.type	sl_WlanConnect, %function
  23              	sl_WlanConnect:
  24              	.LFB0:
  25              		.file 1 "..\\..\\..\\..\\..\\simplelink\\source\\wlan.c"
   1:..\..\..\..\..\simplelink\source/wlan.c **** /*
   2:..\..\..\..\..\simplelink\source/wlan.c ****  * wlan.c - CC31xx/CC32xx Host Driver Implementation
   3:..\..\..\..\..\simplelink\source/wlan.c ****  *
   4:..\..\..\..\..\simplelink\source/wlan.c ****  * Copyright (C) 2014 Texas Instruments Incorporated - http://www.ti.com/ 
   5:..\..\..\..\..\simplelink\source/wlan.c ****  * 
   6:..\..\..\..\..\simplelink\source/wlan.c ****  * 
   7:..\..\..\..\..\simplelink\source/wlan.c ****  *  Redistribution and use in source and binary forms, with or without 
   8:..\..\..\..\..\simplelink\source/wlan.c ****  *  modification, are permitted provided that the following conditions 
   9:..\..\..\..\..\simplelink\source/wlan.c ****  *  are met:
  10:..\..\..\..\..\simplelink\source/wlan.c ****  *
  11:..\..\..\..\..\simplelink\source/wlan.c ****  *    Redistributions of source code must retain the above copyright 
  12:..\..\..\..\..\simplelink\source/wlan.c ****  *    notice, this list of conditions and the following disclaimer.
  13:..\..\..\..\..\simplelink\source/wlan.c ****  *
  14:..\..\..\..\..\simplelink\source/wlan.c ****  *    Redistributions in binary form must reproduce the above copyright
  15:..\..\..\..\..\simplelink\source/wlan.c ****  *    notice, this list of conditions and the following disclaimer in the 
  16:..\..\..\..\..\simplelink\source/wlan.c ****  *    documentation and/or other materials provided with the   
  17:..\..\..\..\..\simplelink\source/wlan.c ****  *    distribution.
  18:..\..\..\..\..\simplelink\source/wlan.c ****  *
  19:..\..\..\..\..\simplelink\source/wlan.c ****  *    Neither the name of Texas Instruments Incorporated nor the names of
  20:..\..\..\..\..\simplelink\source/wlan.c ****  *    its contributors may be used to endorse or promote products derived
  21:..\..\..\..\..\simplelink\source/wlan.c ****  *    from this software without specific prior written permission.
  22:..\..\..\..\..\simplelink\source/wlan.c ****  *
  23:..\..\..\..\..\simplelink\source/wlan.c ****  *  THIS SOFTWARE IS PROVIDED BY THE COPYRIGHT HOLDERS AND CONTRIBUTORS 
  24:..\..\..\..\..\simplelink\source/wlan.c ****  *  "AS IS" AND ANY EXPRESS OR IMPLIED WARRANTIES, INCLUDING, BUT NOT 
  25:..\..\..\..\..\simplelink\source/wlan.c ****  *  LIMITED TO, THE IMPLIED WARRANTIES OF MERCHANTABILITY AND FITNESS FOR
  26:..\..\..\..\..\simplelink\source/wlan.c ****  *  A PARTICULAR PURPOSE ARE DISCLAIMED. IN NO EVENT SHALL THE COPYRIGHT 
  27:..\..\..\..\..\simplelink\source/wlan.c ****  *  OWNER OR CONTRIBUTORS BE LIABLE FOR ANY DIRECT, INDIRECT, INCIDENTAL, 
  28:..\..\..\..\..\simplelink\source/wlan.c ****  *  SPECIAL, EXEMPLARY, OR CONSEQUENTIAL DAMAGES (INCLUDING, BUT NOT 
  29:..\..\..\..\..\simplelink\source/wlan.c ****  *  LIMITED TO, PROCUREMENT OF SUBSTITUTE GOODS OR SERVICES; LOSS OF USE,
  30:..\..\..\..\..\simplelink\source/wlan.c ****  *  DATA, OR PROFITS; OR BUSINESS INTERRUPTION) HOWEVER CAUSED AND ON ANY
  31:..\..\..\..\..\simplelink\source/wlan.c ****  *  THEORY OF LIABILITY, WHETHER IN CONTRACT, STRICT LIABILITY, OR TORT 
  32:..\..\..\..\..\simplelink\source/wlan.c ****  *  (INCLUDING NEGLIGENCE OR OTHERWISE) ARISING IN ANY WAY OUT OF THE USE 
ARM GAS  C:\Users\X0217454\AppData\Local\Temp\ccwJRGby.s 			page 2


  33:..\..\..\..\..\simplelink\source/wlan.c ****  *  OF THIS SOFTWARE, EVEN IF ADVISED OF THE POSSIBILITY OF SUCH DAMAGE.
  34:..\..\..\..\..\simplelink\source/wlan.c ****  *
  35:..\..\..\..\..\simplelink\source/wlan.c **** */
  36:..\..\..\..\..\simplelink\source/wlan.c **** 
  37:..\..\..\..\..\simplelink\source/wlan.c **** /*****************************************************************************
  38:..\..\..\..\..\simplelink\source/wlan.c **** 
  39:..\..\..\..\..\simplelink\source/wlan.c ****     API Prototypes
  40:..\..\..\..\..\simplelink\source/wlan.c **** 
  41:..\..\..\..\..\simplelink\source/wlan.c ****  *****************************************************************************/
  42:..\..\..\..\..\simplelink\source/wlan.c **** #include "datatypes.h"
  43:..\..\..\..\..\simplelink\source/wlan.c **** #include "simplelink.h"
  44:..\..\..\..\..\simplelink\source/wlan.c **** #include "protocol.h"
  45:..\..\..\..\..\simplelink\source/wlan.c **** #include "driver.h"
  46:..\..\..\..\..\simplelink\source/wlan.c **** 
  47:..\..\..\..\..\simplelink\source/wlan.c **** /*****************************************************************************
  48:..\..\..\..\..\simplelink\source/wlan.c **** 
  49:..\..\..\..\..\simplelink\source/wlan.c **** *****************************************************************************/
  50:..\..\..\..\..\simplelink\source/wlan.c **** 
  51:..\..\..\..\..\simplelink\source/wlan.c **** #define MAX_SSID_LEN        32
  52:..\..\..\..\..\simplelink\source/wlan.c **** #define MAX_KEY_LEN         63
  53:..\..\..\..\..\simplelink\source/wlan.c **** #define MAX_USER_LEN        32
  54:..\..\..\..\..\simplelink\source/wlan.c **** #define MAX_ANON_USER_LEN   32
  55:..\..\..\..\..\simplelink\source/wlan.c **** 
  56:..\..\..\..\..\simplelink\source/wlan.c **** #define MAX_SMART_CONFIG_KEY    16
  57:..\..\..\..\..\simplelink\source/wlan.c **** 
  58:..\..\..\..\..\simplelink\source/wlan.c **** typedef struct 
  59:..\..\..\..\..\simplelink\source/wlan.c **** {
  60:..\..\..\..\..\simplelink\source/wlan.c ****     _WlanConnectEapCommand_t    Args;
  61:..\..\..\..\..\simplelink\source/wlan.c ****     char                        Strings[MAX_SSID_LEN + MAX_KEY_LEN + MAX_USER_LEN + MAX_ANON_USER_L
  62:..\..\..\..\..\simplelink\source/wlan.c **** }_WlanConnectCmd_t;
  63:..\..\..\..\..\simplelink\source/wlan.c **** 
  64:..\..\..\..\..\simplelink\source/wlan.c **** typedef union
  65:..\..\..\..\..\simplelink\source/wlan.c **** {
  66:..\..\..\..\..\simplelink\source/wlan.c **** 	_WlanConnectCmd_t   Cmd;
  67:..\..\..\..\..\simplelink\source/wlan.c **** 	_BasicResponse_t	Rsp;
  68:..\..\..\..\..\simplelink\source/wlan.c **** }_SlWlanConnectMsg_u;
  69:..\..\..\..\..\simplelink\source/wlan.c **** 
  70:..\..\..\..\..\simplelink\source/wlan.c **** /*****************************************************************************
  71:..\..\..\..\..\simplelink\source/wlan.c ****   sl_WlanConnect
  72:..\..\..\..\..\simplelink\source/wlan.c **** *****************************************************************************/
  73:..\..\..\..\..\simplelink\source/wlan.c **** #if _SL_INCLUDE_FUNC(sl_WlanConnect)
  74:..\..\..\..\..\simplelink\source/wlan.c **** int sl_WlanConnect(char* pName, int NameLen, unsigned char *pMacAddr, SlSecParams_t* pSecParams , S
  75:..\..\..\..\..\simplelink\source/wlan.c **** {
  26              		.loc 1 75 0
  27              		.cfi_startproc
  28 0000 80B5     		push	{r7, lr}
  29              	.LCFI0:
  30              		.cfi_def_cfa_offset 8
  31              		.cfi_offset 7, -8
  32              		.cfi_offset 14, -4
  33 0002 B2B0     		sub	sp, sp, #200
  34              	.LCFI1:
  35              		.cfi_def_cfa_offset 208
  36 0004 00AF     		add	r7, sp, #0
  37              	.LCFI2:
  38              		.cfi_def_cfa_register 7
  39 0006 F860     		str	r0, [r7, #12]
ARM GAS  C:\Users\X0217454\AppData\Local\Temp\ccwJRGby.s 			page 3


  40 0008 B960     		str	r1, [r7, #8]
  41 000a 7A60     		str	r2, [r7, #4]
  42 000c 3B60     		str	r3, [r7]
  76:..\..\..\..\..\simplelink\source/wlan.c ****     _SlWlanConnectMsg_u    Msg = {0};
  43              		.loc 1 76 0
  44 000e 3B1C     		mov	r3, r7
  45 0010 1433     		add	r3, r3, #20
  46 0012 1A1C     		mov	r2, r3
  47 0014 B023     		mov	r3, #176
  48 0016 101C     		mov	r0, r2
  49 0018 0021     		mov	r1, #0
  50 001a 1A1C     		mov	r2, r3
  51 001c FFF7FEFF 		bl	memset
  77:..\..\..\..\..\simplelink\source/wlan.c ****     _SlCmdCtrl_t           CmdCtrl = {0};
  52              		.loc 1 77 0
  53 0020 3B1C     		mov	r3, r7
  54 0022 1033     		add	r3, r3, #16
  55 0024 0022     		mov	r2, #0
  56 0026 1A60     		str	r2, [r3]
  78:..\..\..\..\..\simplelink\source/wlan.c **** 
  79:..\..\..\..\..\simplelink\source/wlan.c ****     CmdCtrl.TxDescLen = 0;/* init */
  57              		.loc 1 79 0
  58 0028 3B1C     		mov	r3, r7
  59 002a 1033     		add	r3, r3, #16
  60 002c 0022     		mov	r2, #0
  61 002e 9A70     		strb	r2, [r3, #2]
  80:..\..\..\..\..\simplelink\source/wlan.c ****     CmdCtrl.RxDescLen = sizeof(_BasicResponse_t);
  62              		.loc 1 80 0
  63 0030 3B1C     		mov	r3, r7
  64 0032 1033     		add	r3, r3, #16
  65 0034 0422     		mov	r2, #4
  66 0036 DA70     		strb	r2, [r3, #3]
  81:..\..\..\..\..\simplelink\source/wlan.c **** 
  82:..\..\..\..\..\simplelink\source/wlan.c ****     /* verify SSID length */
  83:..\..\..\..\..\simplelink\source/wlan.c ****     VERIFY_PROTOCOL(NameLen <= MAX_SSID_LEN);
  67              		.loc 1 83 0
  68 0038 BB68     		ldr	r3, [r7, #8]
  69 003a 202B     		cmp	r3, #32
  70 003c 00DD     		ble	.L2
  71              	.L3:
  72              		.loc 1 83 0 is_stmt 0 discriminator 1
  73 003e FEE7     		b	.L3
  74              	.L2:
  84:..\..\..\..\..\simplelink\source/wlan.c ****     /* update SSID length */
  85:..\..\..\..\..\simplelink\source/wlan.c ****     Msg.Cmd.Args.Common.SsidLen = NameLen;
  75              		.loc 1 85 0 is_stmt 1
  76 0040 BB68     		ldr	r3, [r7, #8]
  77 0042 DAB2     		uxtb	r2, r3
  78 0044 3B1C     		mov	r3, r7
  79 0046 1433     		add	r3, r3, #20
  80 0048 5A70     		strb	r2, [r3, #1]
  86:..\..\..\..\..\simplelink\source/wlan.c **** 
  87:..\..\..\..\..\simplelink\source/wlan.c ****     /* Profile with no security */
  88:..\..\..\..\..\simplelink\source/wlan.c ****     /* Enterprise security profile */
  89:..\..\..\..\..\simplelink\source/wlan.c ****     if (NULL != pSecExtParams)
  81              		.loc 1 89 0
  82 004a D020     		mov	r0, #208
ARM GAS  C:\Users\X0217454\AppData\Local\Temp\ccwJRGby.s 			page 4


  83 004c C019     		add	r0, r0, r7
  84 004e 0368     		ldr	r3, [r0]
  85 0050 002B     		cmp	r3, #0
  86 0052 00D1     		bne	.LCB56
  87 0054 E9E0     		b	.L4	@long jump
  88              	.LCB56:
  90:..\..\..\..\..\simplelink\source/wlan.c ****     {
  91:..\..\..\..\..\simplelink\source/wlan.c ****         /* Update command opcode */
  92:..\..\..\..\..\simplelink\source/wlan.c ****         CmdCtrl.Opcode = SL_OPCODE_WLAN_WLANCONNECTEAPCOMMAND;
  89              		.loc 1 92 0
  90 0056 3B1C     		mov	r3, r7
  91 0058 1033     		add	r3, r3, #16
  92 005a BB4A     		ldr	r2, .L24
  93 005c 1A80     		strh	r2, [r3]
  93:..\..\..\..\..\simplelink\source/wlan.c ****         CmdCtrl.TxDescLen += sizeof(_WlanConnectEapCommand_t);
  94              		.loc 1 93 0
  95 005e 3B1C     		mov	r3, r7
  96 0060 1033     		add	r3, r3, #16
  97 0062 9B78     		ldrb	r3, [r3, #2]
  98 0064 1033     		add	r3, r3, #16
  99 0066 DAB2     		uxtb	r2, r3
 100 0068 3B1C     		mov	r3, r7
 101 006a 1033     		add	r3, r3, #16
 102 006c 9A70     		strb	r2, [r3, #2]
  94:..\..\..\..\..\simplelink\source/wlan.c ****         /* copy SSID */
  95:..\..\..\..\..\simplelink\source/wlan.c ****         sl_Memcpy(EAP_SSID_STRING(&Msg), pName, NameLen);
 103              		.loc 1 95 0
 104 006e BB68     		ldr	r3, [r7, #8]
 105 0070 3A1C     		mov	r2, r7
 106 0072 1432     		add	r2, r2, #20
 107 0074 111C     		mov	r1, r2
 108 0076 1031     		add	r1, r1, #16
 109 0078 FA68     		ldr	r2, [r7, #12]
 110 007a 081C     		mov	r0, r1
 111 007c 111C     		mov	r1, r2
 112 007e 1A1C     		mov	r2, r3
 113 0080 FFF7FEFF 		bl	memcpy
  96:..\..\..\..\..\simplelink\source/wlan.c ****         CmdCtrl.TxDescLen += NameLen;
 114              		.loc 1 96 0
 115 0084 3B1C     		mov	r3, r7
 116 0086 1033     		add	r3, r3, #16
 117 0088 9A78     		ldrb	r2, [r3, #2]
 118 008a BB68     		ldr	r3, [r7, #8]
 119 008c DBB2     		uxtb	r3, r3
 120 008e D318     		add	r3, r2, r3
 121 0090 DAB2     		uxtb	r2, r3
 122 0092 3B1C     		mov	r3, r7
 123 0094 1033     		add	r3, r3, #16
 124 0096 9A70     		strb	r2, [r3, #2]
  97:..\..\..\..\..\simplelink\source/wlan.c ****         /* Copy password if supplied */
  98:..\..\..\..\..\simplelink\source/wlan.c ****         if ((NULL != pSecParams) && (pSecParams->KeyLen > 0))
 125              		.loc 1 98 0
 126 0098 3B68     		ldr	r3, [r7]
 127 009a 002B     		cmp	r3, #0
 128 009c 33D0     		beq	.L5
 129              		.loc 1 98 0 is_stmt 0 discriminator 1
 130 009e 3B68     		ldr	r3, [r7]
ARM GAS  C:\Users\X0217454\AppData\Local\Temp\ccwJRGby.s 			page 5


 131 00a0 1B7A     		ldrb	r3, [r3, #8]
 132 00a2 002B     		cmp	r3, #0
 133 00a4 2FD0     		beq	.L5
  99:..\..\..\..\..\simplelink\source/wlan.c ****     {
 100:..\..\..\..\..\simplelink\source/wlan.c ****             /* update security type */
 101:..\..\..\..\..\simplelink\source/wlan.c **** 		Msg.Cmd.Args.Common.SecType = pSecParams->Type;
 134              		.loc 1 101 0 is_stmt 1
 135 00a6 3B68     		ldr	r3, [r7]
 136 00a8 1A78     		ldrb	r2, [r3]
 137 00aa 3B1C     		mov	r3, r7
 138 00ac 1433     		add	r3, r3, #20
 139 00ae 1A70     		strb	r2, [r3]
 102:..\..\..\..\..\simplelink\source/wlan.c ****             /* verify key length */
 103:..\..\..\..\..\simplelink\source/wlan.c **** 			if (pSecParams->KeyLen > MAX_KEY_LEN)
 140              		.loc 1 103 0
 141 00b0 3B68     		ldr	r3, [r7]
 142 00b2 1B7A     		ldrb	r3, [r3, #8]
 143 00b4 3F2B     		cmp	r3, #63
 144 00b6 01D9     		bls	.L6
 104:..\..\..\..\..\simplelink\source/wlan.c **** 			{
 105:..\..\..\..\..\simplelink\source/wlan.c **** 				return SL_INVALPARAM;
 145              		.loc 1 105 0
 146 00b8 A44B     		ldr	r3, .L24+4
 147 00ba 40E1     		b	.L23
 148              	.L6:
 106:..\..\..\..\..\simplelink\source/wlan.c **** 			}
 107:..\..\..\..\..\simplelink\source/wlan.c ****             /* update key length */
 108:..\..\..\..\..\simplelink\source/wlan.c **** 		Msg.Cmd.Args.Common.PasswordLen = pSecParams->KeyLen;
 149              		.loc 1 108 0
 150 00bc 3B68     		ldr	r3, [r7]
 151 00be 1A7A     		ldrb	r2, [r3, #8]
 152 00c0 3B1C     		mov	r3, r7
 153 00c2 1433     		add	r3, r3, #20
 154 00c4 1A72     		strb	r2, [r3, #8]
 109:..\..\..\..\..\simplelink\source/wlan.c **** 			ARG_CHECK_PTR(pSecParams->Key);
 155              		.loc 1 109 0
 156 00c6 3B68     		ldr	r3, [r7]
 157 00c8 5B68     		ldr	r3, [r3, #4]
 158 00ca 002B     		cmp	r3, #0
 159 00cc 00D1     		bne	.L8
 160              	.L9:
 161              		.loc 1 109 0 is_stmt 0 discriminator 1
 162 00ce FEE7     		b	.L9
 163              	.L8:
 110:..\..\..\..\..\simplelink\source/wlan.c ****             /* copy key		 */
 111:..\..\..\..\..\simplelink\source/wlan.c **** 			sl_Memcpy(EAP_PASSWORD_STRING(&Msg), pSecParams->Key, pSecParams->KeyLen);
 164              		.loc 1 111 0 is_stmt 1
 165 00d0 3B1C     		mov	r3, r7
 166 00d2 1433     		add	r3, r3, #20
 167 00d4 5B78     		ldrb	r3, [r3, #1]
 168 00d6 1033     		add	r3, r3, #16
 169 00d8 3A1C     		mov	r2, r7
 170 00da 1432     		add	r2, r2, #20
 171 00dc D118     		add	r1, r2, r3
 172 00de 3B68     		ldr	r3, [r7]
 173 00e0 5A68     		ldr	r2, [r3, #4]
 174 00e2 3B68     		ldr	r3, [r7]
ARM GAS  C:\Users\X0217454\AppData\Local\Temp\ccwJRGby.s 			page 6


 175 00e4 1B7A     		ldrb	r3, [r3, #8]
 176 00e6 081C     		mov	r0, r1
 177 00e8 111C     		mov	r1, r2
 178 00ea 1A1C     		mov	r2, r3
 179 00ec FFF7FEFF 		bl	memcpy
 112:..\..\..\..\..\simplelink\source/wlan.c **** 			CmdCtrl.TxDescLen += pSecParams->KeyLen;
 180              		.loc 1 112 0
 181 00f0 3B1C     		mov	r3, r7
 182 00f2 1033     		add	r3, r3, #16
 183 00f4 9A78     		ldrb	r2, [r3, #2]
 184 00f6 3B68     		ldr	r3, [r7]
 185 00f8 1B7A     		ldrb	r3, [r3, #8]
 186 00fa D318     		add	r3, r2, r3
 187 00fc DAB2     		uxtb	r2, r3
 188 00fe 3B1C     		mov	r3, r7
 189 0100 1033     		add	r3, r3, #16
 190 0102 9A70     		strb	r2, [r3, #2]
 191 0104 03E0     		b	.L10
 192              	.L5:
 113:..\..\..\..\..\simplelink\source/wlan.c **** 		}
 114:..\..\..\..\..\simplelink\source/wlan.c **** 		else
 115:..\..\..\..\..\simplelink\source/wlan.c **** 		{
 116:..\..\..\..\..\simplelink\source/wlan.c ****             Msg.Cmd.Args.Common.PasswordLen = 0;
 193              		.loc 1 116 0
 194 0106 3B1C     		mov	r3, r7
 195 0108 1433     		add	r3, r3, #20
 196 010a 0022     		mov	r2, #0
 197 010c 1A72     		strb	r2, [r3, #8]
 198              	.L10:
 117:..\..\..\..\..\simplelink\source/wlan.c ****     }
 118:..\..\..\..\..\simplelink\source/wlan.c **** 
 119:..\..\..\..\..\simplelink\source/wlan.c ****         ARG_CHECK_PTR(pSecExtParams);
 199              		.loc 1 119 0
 200 010e D021     		mov	r1, #208
 201 0110 C919     		add	r1, r1, r7
 202 0112 0B68     		ldr	r3, [r1]
 203 0114 002B     		cmp	r3, #0
 204 0116 00D1     		bne	.L11
 205              	.L12:
 206              		.loc 1 119 0 is_stmt 0 discriminator 1
 207 0118 FEE7     		b	.L12
 208              	.L11:
 120:..\..\..\..\..\simplelink\source/wlan.c ****         /* Update Eap bitmask */
 121:..\..\..\..\..\simplelink\source/wlan.c ****         Msg.Cmd.Args.EapBitmask = pSecExtParams->EapMethod;
 209              		.loc 1 121 0 is_stmt 1
 210 011a D022     		mov	r2, #208
 211 011c D219     		add	r2, r2, r7
 212 011e 1368     		ldr	r3, [r2]
 213 0120 1A69     		ldr	r2, [r3, #16]
 214 0122 3B1C     		mov	r3, r7
 215 0124 1433     		add	r3, r3, #20
 216 0126 DA60     		str	r2, [r3, #12]
 122:..\..\..\..\..\simplelink\source/wlan.c ****         /* Update Certificate file ID index - currently not supported */
 123:..\..\..\..\..\simplelink\source/wlan.c ****         Msg.Cmd.Args.CertIndex = pSecExtParams->CertIndex;
 217              		.loc 1 123 0
 218 0128 D020     		mov	r0, #208
 219 012a C019     		add	r0, r0, r7
ARM GAS  C:\Users\X0217454\AppData\Local\Temp\ccwJRGby.s 			page 7


 220 012c 0368     		ldr	r3, [r0]
 221 012e 5A7B     		ldrb	r2, [r3, #13]
 222 0130 3B1C     		mov	r3, r7
 223 0132 1433     		add	r3, r3, #20
 224 0134 DA72     		strb	r2, [r3, #11]
 124:..\..\..\..\..\simplelink\source/wlan.c ****         /* verify user length */
 125:..\..\..\..\..\simplelink\source/wlan.c **** 		if (pSecExtParams->UserLen > MAX_USER_LEN)
 225              		.loc 1 125 0
 226 0136 D021     		mov	r1, #208
 227 0138 C919     		add	r1, r1, r7
 228 013a 0B68     		ldr	r3, [r1]
 229 013c 1B79     		ldrb	r3, [r3, #4]
 230 013e 202B     		cmp	r3, #32
 231 0140 01D9     		bls	.L13
 126:..\..\..\..\..\simplelink\source/wlan.c **** 		{
 127:..\..\..\..\..\simplelink\source/wlan.c **** 			return SL_INVALPARAM;
 232              		.loc 1 127 0
 233 0142 824B     		ldr	r3, .L24+4
 234 0144 FBE0     		b	.L23
 235              	.L13:
 128:..\..\..\..\..\simplelink\source/wlan.c **** 		}
 129:..\..\..\..\..\simplelink\source/wlan.c ****         Msg.Cmd.Args.UserLen = pSecExtParams->UserLen;
 236              		.loc 1 129 0
 237 0146 D022     		mov	r2, #208
 238 0148 D219     		add	r2, r2, r7
 239 014a 1368     		ldr	r3, [r2]
 240 014c 1A79     		ldrb	r2, [r3, #4]
 241 014e 3B1C     		mov	r3, r7
 242 0150 1433     		add	r3, r3, #20
 243 0152 5A72     		strb	r2, [r3, #9]
 130:..\..\..\..\..\simplelink\source/wlan.c ****         /* copy user name (identity) */
 131:..\..\..\..\..\simplelink\source/wlan.c ****         if(pSecExtParams->UserLen > 0)
 244              		.loc 1 131 0
 245 0154 D020     		mov	r0, #208
 246 0156 C019     		add	r0, r0, r7
 247 0158 0368     		ldr	r3, [r0]
 248 015a 1B79     		ldrb	r3, [r3, #4]
 249 015c 002B     		cmp	r3, #0
 250 015e 24D0     		beq	.L14
 132:..\..\..\..\..\simplelink\source/wlan.c ****         {
 133:..\..\..\..\..\simplelink\source/wlan.c ****             sl_Memcpy(EAP_USER_STRING(&Msg), pSecExtParams->User, pSecExtParams->UserLen);
 251              		.loc 1 133 0
 252 0160 3B1C     		mov	r3, r7
 253 0162 1433     		add	r3, r3, #20
 254 0164 5B78     		ldrb	r3, [r3, #1]
 255 0166 1A1C     		mov	r2, r3
 256 0168 3B1C     		mov	r3, r7
 257 016a 1433     		add	r3, r3, #20
 258 016c 1B7A     		ldrb	r3, [r3, #8]
 259 016e D318     		add	r3, r2, r3
 260 0170 1033     		add	r3, r3, #16
 261 0172 3A1C     		mov	r2, r7
 262 0174 1432     		add	r2, r2, #20
 263 0176 D118     		add	r1, r2, r3
 264 0178 D022     		mov	r2, #208
 265 017a D219     		add	r2, r2, r7
 266 017c 1368     		ldr	r3, [r2]
ARM GAS  C:\Users\X0217454\AppData\Local\Temp\ccwJRGby.s 			page 8


 267 017e 1A68     		ldr	r2, [r3]
 268 0180 D020     		mov	r0, #208
 269 0182 C019     		add	r0, r0, r7
 270 0184 0368     		ldr	r3, [r0]
 271 0186 1B79     		ldrb	r3, [r3, #4]
 272 0188 081C     		mov	r0, r1
 273 018a 111C     		mov	r1, r2
 274 018c 1A1C     		mov	r2, r3
 275 018e FFF7FEFF 		bl	memcpy
 134:..\..\..\..\..\simplelink\source/wlan.c ****             CmdCtrl.TxDescLen += pSecExtParams->UserLen;
 276              		.loc 1 134 0
 277 0192 3B1C     		mov	r3, r7
 278 0194 1033     		add	r3, r3, #16
 279 0196 9A78     		ldrb	r2, [r3, #2]
 280 0198 D021     		mov	r1, #208
 281 019a C919     		add	r1, r1, r7
 282 019c 0B68     		ldr	r3, [r1]
 283 019e 1B79     		ldrb	r3, [r3, #4]
 284 01a0 D318     		add	r3, r2, r3
 285 01a2 DAB2     		uxtb	r2, r3
 286 01a4 3B1C     		mov	r3, r7
 287 01a6 1033     		add	r3, r3, #16
 288 01a8 9A70     		strb	r2, [r3, #2]
 289              	.L14:
 135:..\..\..\..\..\simplelink\source/wlan.c ****         }
 136:..\..\..\..\..\simplelink\source/wlan.c ****         /* verify Anonymous user length  */
 137:..\..\..\..\..\simplelink\source/wlan.c **** 		if (pSecExtParams->AnonUserLen > MAX_ANON_USER_LEN)
 290              		.loc 1 137 0
 291 01aa D022     		mov	r2, #208
 292 01ac D219     		add	r2, r2, r7
 293 01ae 1368     		ldr	r3, [r2]
 294 01b0 1B7B     		ldrb	r3, [r3, #12]
 295 01b2 202B     		cmp	r3, #32
 296 01b4 01D9     		bls	.L15
 138:..\..\..\..\..\simplelink\source/wlan.c **** 		{
 139:..\..\..\..\..\simplelink\source/wlan.c **** 			return SL_INVALPARAM;
 297              		.loc 1 139 0
 298 01b6 654B     		ldr	r3, .L24+4
 299 01b8 C1E0     		b	.L23
 300              	.L15:
 140:..\..\..\..\..\simplelink\source/wlan.c **** 		}
 141:..\..\..\..\..\simplelink\source/wlan.c ****         Msg.Cmd.Args.AnonUserLen = pSecExtParams->AnonUserLen;
 301              		.loc 1 141 0
 302 01ba D020     		mov	r0, #208
 303 01bc C019     		add	r0, r0, r7
 304 01be 0368     		ldr	r3, [r0]
 305 01c0 1A7B     		ldrb	r2, [r3, #12]
 306 01c2 3B1C     		mov	r3, r7
 307 01c4 1433     		add	r3, r3, #20
 308 01c6 9A72     		strb	r2, [r3, #10]
 142:..\..\..\..\..\simplelink\source/wlan.c ****         /* copy Anonymous user */
 143:..\..\..\..\..\simplelink\source/wlan.c ****         if(pSecExtParams->AnonUserLen > 0)
 309              		.loc 1 143 0
 310 01c8 D021     		mov	r1, #208
 311 01ca C919     		add	r1, r1, r7
 312 01cc 0B68     		ldr	r3, [r1]
 313 01ce 1B7B     		ldrb	r3, [r3, #12]
ARM GAS  C:\Users\X0217454\AppData\Local\Temp\ccwJRGby.s 			page 9


 314 01d0 002B     		cmp	r3, #0
 315 01d2 00D1     		bne	.LCB268
 316 01d4 84E0     		b	.L16	@long jump
 317              	.LCB268:
 144:..\..\..\..\..\simplelink\source/wlan.c ****         {
 145:..\..\..\..\..\simplelink\source/wlan.c ****             sl_Memcpy(EAP_ANON_USER_STRING(&Msg), pSecExtParams->AnonUser, pSecExtParams->AnonUserL
 318              		.loc 1 145 0
 319 01d6 3B1C     		mov	r3, r7
 320 01d8 1433     		add	r3, r3, #20
 321 01da 5B78     		ldrb	r3, [r3, #1]
 322 01dc 1A1C     		mov	r2, r3
 323 01de 3B1C     		mov	r3, r7
 324 01e0 1433     		add	r3, r3, #20
 325 01e2 1B7A     		ldrb	r3, [r3, #8]
 326 01e4 D218     		add	r2, r2, r3
 327 01e6 3B1C     		mov	r3, r7
 328 01e8 1433     		add	r3, r3, #20
 329 01ea 5B7A     		ldrb	r3, [r3, #9]
 330 01ec D318     		add	r3, r2, r3
 331 01ee 1033     		add	r3, r3, #16
 332 01f0 3A1C     		mov	r2, r7
 333 01f2 1432     		add	r2, r2, #20
 334 01f4 D118     		add	r1, r2, r3
 335 01f6 D022     		mov	r2, #208
 336 01f8 D219     		add	r2, r2, r7
 337 01fa 1368     		ldr	r3, [r2]
 338 01fc 9A68     		ldr	r2, [r3, #8]
 339 01fe D020     		mov	r0, #208
 340 0200 C019     		add	r0, r0, r7
 341 0202 0368     		ldr	r3, [r0]
 342 0204 1B7B     		ldrb	r3, [r3, #12]
 343 0206 081C     		mov	r0, r1
 344 0208 111C     		mov	r1, r2
 345 020a 1A1C     		mov	r2, r3
 346 020c FFF7FEFF 		bl	memcpy
 146:..\..\..\..\..\simplelink\source/wlan.c ****             CmdCtrl.TxDescLen += pSecExtParams->AnonUserLen;
 347              		.loc 1 146 0
 348 0210 3B1C     		mov	r3, r7
 349 0212 1033     		add	r3, r3, #16
 350 0214 9A78     		ldrb	r2, [r3, #2]
 351 0216 D021     		mov	r1, #208
 352 0218 C919     		add	r1, r1, r7
 353 021a 0B68     		ldr	r3, [r1]
 354 021c 1B7B     		ldrb	r3, [r3, #12]
 355 021e D318     		add	r3, r2, r3
 356 0220 DAB2     		uxtb	r2, r3
 357 0222 3B1C     		mov	r3, r7
 358 0224 1033     		add	r3, r3, #16
 359 0226 9A70     		strb	r2, [r3, #2]
 360 0228 5AE0     		b	.L16
 361              	.L4:
 147:..\..\..\..\..\simplelink\source/wlan.c ****         }
 148:..\..\..\..\..\simplelink\source/wlan.c ****         
 149:..\..\..\..\..\simplelink\source/wlan.c ****     }
 150:..\..\..\..\..\simplelink\source/wlan.c **** 
 151:..\..\..\..\..\simplelink\source/wlan.c **** 	/* Regular or open security profile */
 152:..\..\..\..\..\simplelink\source/wlan.c ****     else
ARM GAS  C:\Users\X0217454\AppData\Local\Temp\ccwJRGby.s 			page 10


 153:..\..\..\..\..\simplelink\source/wlan.c ****     {
 154:..\..\..\..\..\simplelink\source/wlan.c ****         /* Update command opcode */
 155:..\..\..\..\..\simplelink\source/wlan.c ****         CmdCtrl.Opcode = SL_OPCODE_WLAN_WLANCONNECTCOMMAND;
 362              		.loc 1 155 0
 363 022a 3B1C     		mov	r3, r7
 364 022c 1033     		add	r3, r3, #16
 365 022e 484A     		ldr	r2, .L24+8
 366 0230 1A80     		strh	r2, [r3]
 156:..\..\..\..\..\simplelink\source/wlan.c ****         CmdCtrl.TxDescLen += sizeof(_WlanConnectCommon_t);
 367              		.loc 1 156 0
 368 0232 3B1C     		mov	r3, r7
 369 0234 1033     		add	r3, r3, #16
 370 0236 9B78     		ldrb	r3, [r3, #2]
 371 0238 0933     		add	r3, r3, #9
 372 023a DAB2     		uxtb	r2, r3
 373 023c 3B1C     		mov	r3, r7
 374 023e 1033     		add	r3, r3, #16
 375 0240 9A70     		strb	r2, [r3, #2]
 157:..\..\..\..\..\simplelink\source/wlan.c ****         /* copy SSID */
 158:..\..\..\..\..\simplelink\source/wlan.c ****         memcpy(SSID_STRING(&Msg), pName, NameLen);	
 376              		.loc 1 158 0
 377 0242 BB68     		ldr	r3, [r7, #8]
 378 0244 3A1C     		mov	r2, r7
 379 0246 1432     		add	r2, r2, #20
 380 0248 111C     		mov	r1, r2
 381 024a 0931     		add	r1, r1, #9
 382 024c FA68     		ldr	r2, [r7, #12]
 383 024e 081C     		mov	r0, r1
 384 0250 111C     		mov	r1, r2
 385 0252 1A1C     		mov	r2, r3
 386 0254 FFF7FEFF 		bl	memcpy
 159:..\..\..\..\..\simplelink\source/wlan.c ****         CmdCtrl.TxDescLen += NameLen;
 387              		.loc 1 159 0
 388 0258 3B1C     		mov	r3, r7
 389 025a 1033     		add	r3, r3, #16
 390 025c 9A78     		ldrb	r2, [r3, #2]
 391 025e BB68     		ldr	r3, [r7, #8]
 392 0260 DBB2     		uxtb	r3, r3
 393 0262 D318     		add	r3, r2, r3
 394 0264 DAB2     		uxtb	r2, r3
 395 0266 3B1C     		mov	r3, r7
 396 0268 1033     		add	r3, r3, #16
 397 026a 9A70     		strb	r2, [r3, #2]
 160:..\..\..\..\..\simplelink\source/wlan.c ****         /* Copy password if supplied */
 161:..\..\..\..\..\simplelink\source/wlan.c ****         if( NULL != pSecParams )
 398              		.loc 1 161 0
 399 026c 3B68     		ldr	r3, [r7]
 400 026e 002B     		cmp	r3, #0
 401 0270 2ED0     		beq	.L17
 162:..\..\..\..\..\simplelink\source/wlan.c ****         {
 163:..\..\..\..\..\simplelink\source/wlan.c ****             /* update security type */
 164:..\..\..\..\..\simplelink\source/wlan.c ****             Msg.Cmd.Args.Common.SecType = pSecParams->Type;
 402              		.loc 1 164 0
 403 0272 3B68     		ldr	r3, [r7]
 404 0274 1A78     		ldrb	r2, [r3]
 405 0276 3B1C     		mov	r3, r7
 406 0278 1433     		add	r3, r3, #20
ARM GAS  C:\Users\X0217454\AppData\Local\Temp\ccwJRGby.s 			page 11


 407 027a 1A70     		strb	r2, [r3]
 165:..\..\..\..\..\simplelink\source/wlan.c ****             /* verify key length is valid */
 166:..\..\..\..\..\simplelink\source/wlan.c ****             if (pSecParams->KeyLen > MAX_KEY_LEN)
 408              		.loc 1 166 0
 409 027c 3B68     		ldr	r3, [r7]
 410 027e 1B7A     		ldrb	r3, [r3, #8]
 411 0280 3F2B     		cmp	r3, #63
 412 0282 01D9     		bls	.L18
 167:..\..\..\..\..\simplelink\source/wlan.c **** 			{
 168:..\..\..\..\..\simplelink\source/wlan.c **** 				return SL_INVALPARAM;
 413              		.loc 1 168 0
 414 0284 314B     		ldr	r3, .L24+4
 415 0286 5AE0     		b	.L23
 416              	.L18:
 169:..\..\..\..\..\simplelink\source/wlan.c **** 			}
 170:..\..\..\..\..\simplelink\source/wlan.c ****             /* update key length */
 171:..\..\..\..\..\simplelink\source/wlan.c ****             Msg.Cmd.Args.Common.PasswordLen = pSecParams->KeyLen;
 417              		.loc 1 171 0
 418 0288 3B68     		ldr	r3, [r7]
 419 028a 1A7A     		ldrb	r2, [r3, #8]
 420 028c 3B1C     		mov	r3, r7
 421 028e 1433     		add	r3, r3, #20
 422 0290 1A72     		strb	r2, [r3, #8]
 172:..\..\..\..\..\simplelink\source/wlan.c ****             CmdCtrl.TxDescLen += pSecParams->KeyLen;
 423              		.loc 1 172 0
 424 0292 3B1C     		mov	r3, r7
 425 0294 1033     		add	r3, r3, #16
 426 0296 9A78     		ldrb	r2, [r3, #2]
 427 0298 3B68     		ldr	r3, [r7]
 428 029a 1B7A     		ldrb	r3, [r3, #8]
 429 029c D318     		add	r3, r2, r3
 430 029e DAB2     		uxtb	r2, r3
 431 02a0 3B1C     		mov	r3, r7
 432 02a2 1033     		add	r3, r3, #16
 433 02a4 9A70     		strb	r2, [r3, #2]
 173:..\..\..\..\..\simplelink\source/wlan.c ****             /* copy key (could be no key in case of WPS pin) */
 174:..\..\..\..\..\simplelink\source/wlan.c ****             if( NULL != pSecParams->Key )
 434              		.loc 1 174 0
 435 02a6 3B68     		ldr	r3, [r7]
 436 02a8 5B68     		ldr	r3, [r3, #4]
 437 02aa 002B     		cmp	r3, #0
 438 02ac 18D0     		beq	.L16
 175:..\..\..\..\..\simplelink\source/wlan.c ****             {
 176:..\..\..\..\..\simplelink\source/wlan.c ****             sl_Memcpy(PASSWORD_STRING(&Msg), pSecParams->Key, pSecParams->KeyLen);
 439              		.loc 1 176 0
 440 02ae 3B1C     		mov	r3, r7
 441 02b0 1433     		add	r3, r3, #20
 442 02b2 5B78     		ldrb	r3, [r3, #1]
 443 02b4 0933     		add	r3, r3, #9
 444 02b6 3A1C     		mov	r2, r7
 445 02b8 1432     		add	r2, r2, #20
 446 02ba D118     		add	r1, r2, r3
 447 02bc 3B68     		ldr	r3, [r7]
 448 02be 5A68     		ldr	r2, [r3, #4]
 449 02c0 3B68     		ldr	r3, [r7]
 450 02c2 1B7A     		ldrb	r3, [r3, #8]
 451 02c4 081C     		mov	r0, r1
ARM GAS  C:\Users\X0217454\AppData\Local\Temp\ccwJRGby.s 			page 12


 452 02c6 111C     		mov	r1, r2
 453 02c8 1A1C     		mov	r2, r3
 454 02ca FFF7FEFF 		bl	memcpy
 455 02ce 07E0     		b	.L16
 456              	.L17:
 177:..\..\..\..\..\simplelink\source/wlan.c ****         }
 178:..\..\..\..\..\simplelink\source/wlan.c ****         }
 179:..\..\..\..\..\simplelink\source/wlan.c **** 		/* Profile with no security */
 180:..\..\..\..\..\simplelink\source/wlan.c ****         else
 181:..\..\..\..\..\simplelink\source/wlan.c ****         {
 182:..\..\..\..\..\simplelink\source/wlan.c ****             Msg.Cmd.Args.Common.PasswordLen = 0;
 457              		.loc 1 182 0
 458 02d0 3B1C     		mov	r3, r7
 459 02d2 1433     		add	r3, r3, #20
 460 02d4 0022     		mov	r2, #0
 461 02d6 1A72     		strb	r2, [r3, #8]
 183:..\..\..\..\..\simplelink\source/wlan.c **** 			Msg.Cmd.Args.Common.SecType = SL_SEC_TYPE_OPEN;
 462              		.loc 1 183 0
 463 02d8 3B1C     		mov	r3, r7
 464 02da 1433     		add	r3, r3, #20
 465 02dc 0022     		mov	r2, #0
 466 02de 1A70     		strb	r2, [r3]
 467              	.L16:
 184:..\..\..\..\..\simplelink\source/wlan.c ****         }	
 185:..\..\..\..\..\simplelink\source/wlan.c ****     }
 186:..\..\..\..\..\simplelink\source/wlan.c ****     /* If BSSID is not null, copy to buffer, otherwise set to 0 */
 187:..\..\..\..\..\simplelink\source/wlan.c ****     if(NULL != pMacAddr)
 468              		.loc 1 187 0
 469 02e0 7B68     		ldr	r3, [r7, #4]
 470 02e2 002B     		cmp	r3, #0
 471 02e4 0CD0     		beq	.L19
 188:..\..\..\..\..\simplelink\source/wlan.c ****     {
 189:..\..\..\..\..\simplelink\source/wlan.c ****         sl_Memcpy(Msg.Cmd.Args.Common.Bssid, pMacAddr, sizeof(Msg.Cmd.Args.Common.Bssid));
 472              		.loc 1 189 0
 473 02e6 391C     		mov	r1, r7
 474 02e8 1431     		add	r1, r1, #20
 475 02ea 0222     		mov	r2, #2
 476 02ec 7B68     		ldr	r3, [r7, #4]
 477 02ee 8918     		add	r1, r1, r2
 478 02f0 1A1C     		mov	r2, r3
 479 02f2 0623     		mov	r3, #6
 480 02f4 081C     		mov	r0, r1
 481 02f6 111C     		mov	r1, r2
 482 02f8 1A1C     		mov	r2, r3
 483 02fa FFF7FEFF 		bl	memcpy
 484 02fe 07E0     		b	.L20
 485              	.L19:
 190:..\..\..\..\..\simplelink\source/wlan.c ****     }
 191:..\..\..\..\..\simplelink\source/wlan.c ****     else
 192:..\..\..\..\..\simplelink\source/wlan.c ****     {
 193:..\..\..\..\..\simplelink\source/wlan.c ****         sl_Memset(Msg.Cmd.Args.Common.Bssid, 0, sizeof(Msg.Cmd.Args.Common.Bssid));
 486              		.loc 1 193 0
 487 0300 3B1C     		mov	r3, r7
 488 0302 1433     		add	r3, r3, #20
 489 0304 0233     		add	r3, r3, #2
 490 0306 181C     		mov	r0, r3
 491 0308 0021     		mov	r1, #0
ARM GAS  C:\Users\X0217454\AppData\Local\Temp\ccwJRGby.s 			page 13


 492 030a 0622     		mov	r2, #6
 493 030c FFF7FEFF 		bl	memset
 494              	.L20:
 495              	.LBB2:
 194:..\..\..\..\..\simplelink\source/wlan.c ****     }
 195:..\..\..\..\..\simplelink\source/wlan.c **** 
 196:..\..\..\..\..\simplelink\source/wlan.c **** 
 197:..\..\..\..\..\simplelink\source/wlan.c ****     VERIFY_RET_OK ( _SlDrvCmdOp(&CmdCtrl, &Msg, NULL));
 496              		.loc 1 197 0
 497 0310 3A1C     		mov	r2, r7
 498 0312 1032     		add	r2, r2, #16
 499 0314 3B1C     		mov	r3, r7
 500 0316 1433     		add	r3, r3, #20
 501 0318 101C     		mov	r0, r2
 502 031a 191C     		mov	r1, r3
 503 031c 0022     		mov	r2, #0
 504 031e FFF7FEFF 		bl	_SlDrvCmdOp
 505 0322 031C     		mov	r3, r0
 506 0324 C422     		mov	r2, #196
 507 0326 D219     		add	r2, r2, r7
 508 0328 1360     		str	r3, [r2]
 509 032a C420     		mov	r0, #196
 510 032c C019     		add	r0, r0, r7
 511 032e 0368     		ldr	r3, [r0]
 512 0330 002B     		cmp	r3, #0
 513 0332 00D0     		beq	.L21
 514              	.L22:
 515              		.loc 1 197 0 is_stmt 0 discriminator 1
 516 0334 FEE7     		b	.L22
 517              	.L21:
 518              	.LBE2:
 198:..\..\..\..\..\simplelink\source/wlan.c **** 
 199:..\..\..\..\..\simplelink\source/wlan.c ****     return (int)Msg.Rsp.status;
 519              		.loc 1 199 0 is_stmt 1
 520 0336 3B1C     		mov	r3, r7
 521 0338 1433     		add	r3, r3, #20
 522 033a 1B88     		ldrh	r3, [r3]
 523 033c 1BB2     		sxth	r3, r3
 524              	.L23:
 200:..\..\..\..\..\simplelink\source/wlan.c **** }
 525              		.loc 1 200 0
 526 033e 181C     		mov	r0, r3
 527 0340 BD46     		mov	sp, r7
 528 0342 32B0     		add	sp, sp, #200
 529              		@ sp needed for prologue
 530 0344 80BD     		pop	{r7, pc}
 531              	.L25:
 532 0346 C046     		.align	2
 533              	.L24:
 534 0348 828CFFFF 		.word	-29566
 535 034c 2DF8FFFF 		.word	-2003
 536 0350 808CFFFF 		.word	-29568
 537              		.cfi_endproc
 538              	.LFE0:
 539              		.size	sl_WlanConnect, .-sl_WlanConnect
 540              		.section	.text.sl_WlanDisconnect,"ax",%progbits
 541              		.align	2
ARM GAS  C:\Users\X0217454\AppData\Local\Temp\ccwJRGby.s 			page 14


 542              		.global	sl_WlanDisconnect
 543              		.code	16
 544              		.thumb_func
 545              		.type	sl_WlanDisconnect, %function
 546              	sl_WlanDisconnect:
 547              	.LFB1:
 201:..\..\..\..\..\simplelink\source/wlan.c **** #endif
 202:..\..\..\..\..\simplelink\source/wlan.c **** 
 203:..\..\..\..\..\simplelink\source/wlan.c **** /*******************************************************************************/
 204:..\..\..\..\..\simplelink\source/wlan.c **** /*   sl_Disconnect  */
 205:..\..\..\..\..\simplelink\source/wlan.c **** /* ******************************************************************************/
 206:..\..\..\..\..\simplelink\source/wlan.c **** #if _SL_INCLUDE_FUNC(sl_WlanDisconnect)
 207:..\..\..\..\..\simplelink\source/wlan.c **** int sl_WlanDisconnect(void)
 208:..\..\..\..\..\simplelink\source/wlan.c **** {
 548              		.loc 1 208 0
 549              		.cfi_startproc
 550 0000 80B5     		push	{r7, lr}
 551              	.LCFI3:
 552              		.cfi_def_cfa_offset 8
 553              		.cfi_offset 7, -8
 554              		.cfi_offset 14, -4
 555 0002 00AF     		add	r7, sp, #0
 556              	.LCFI4:
 557              		.cfi_def_cfa_register 7
 209:..\..\..\..\..\simplelink\source/wlan.c ****     return _SlDrvBasicCmd(SL_OPCODE_WLAN_WLANDISCONNECTCOMMAND);
 558              		.loc 1 209 0
 559 0004 034B     		ldr	r3, .L28
 560 0006 181C     		mov	r0, r3
 561 0008 FFF7FEFF 		bl	_SlDrvBasicCmd
 562 000c 031C     		mov	r3, r0
 210:..\..\..\..\..\simplelink\source/wlan.c **** }
 563              		.loc 1 210 0
 564 000e 181C     		mov	r0, r3
 565 0010 BD46     		mov	sp, r7
 566              		@ sp needed for prologue
 567 0012 80BD     		pop	{r7, pc}
 568              	.L29:
 569              		.align	2
 570              	.L28:
 571 0014 818C0000 		.word	35969
 572              		.cfi_endproc
 573              	.LFE1:
 574              		.size	sl_WlanDisconnect, .-sl_WlanDisconnect
 575              		.global	_SlPolicySetCmdCtrl
 576              		.section	.rodata
 577              		.align	2
 578              		.type	_SlPolicySetCmdCtrl, %object
 579              		.size	_SlPolicySetCmdCtrl, 4
 580              	_SlPolicySetCmdCtrl:
 581 0000 868C     		.short	-29562
 582 0002 04       		.byte	4
 583 0003 04       		.byte	4
 584              		.section	.text.sl_WlanPolicySet,"ax",%progbits
 585              		.align	2
 586              		.global	sl_WlanPolicySet
 587              		.code	16
 588              		.thumb_func
ARM GAS  C:\Users\X0217454\AppData\Local\Temp\ccwJRGby.s 			page 15


 589              		.type	sl_WlanPolicySet, %function
 590              	sl_WlanPolicySet:
 591              	.LFB2:
 211:..\..\..\..\..\simplelink\source/wlan.c **** #endif
 212:..\..\..\..\..\simplelink\source/wlan.c **** 
 213:..\..\..\..\..\simplelink\source/wlan.c **** /******************************************************************************/
 214:..\..\..\..\..\simplelink\source/wlan.c **** /*  sl_PolicySet  */
 215:..\..\..\..\..\simplelink\source/wlan.c **** /******************************************************************************/
 216:..\..\..\..\..\simplelink\source/wlan.c **** typedef union
 217:..\..\..\..\..\simplelink\source/wlan.c **** {
 218:..\..\..\..\..\simplelink\source/wlan.c ****     _WlanPoliciySetGet_t    Cmd;
 219:..\..\..\..\..\simplelink\source/wlan.c **** 	_BasicResponse_t	    Rsp;
 220:..\..\..\..\..\simplelink\source/wlan.c **** }_SlPolicyMsg_u;
 221:..\..\..\..\..\simplelink\source/wlan.c **** 
 222:..\..\..\..\..\simplelink\source/wlan.c **** const _SlCmdCtrl_t _SlPolicySetCmdCtrl =
 223:..\..\..\..\..\simplelink\source/wlan.c **** {
 224:..\..\..\..\..\simplelink\source/wlan.c ****     SL_OPCODE_WLAN_POLICYSETCOMMAND,
 225:..\..\..\..\..\simplelink\source/wlan.c ****     sizeof(_WlanPoliciySetGet_t),
 226:..\..\..\..\..\simplelink\source/wlan.c ****     sizeof(_BasicResponse_t)
 227:..\..\..\..\..\simplelink\source/wlan.c **** };
 228:..\..\..\..\..\simplelink\source/wlan.c **** 
 229:..\..\..\..\..\simplelink\source/wlan.c **** #if _SL_INCLUDE_FUNC(sl_WlanPolicySet)
 230:..\..\..\..\..\simplelink\source/wlan.c **** int sl_WlanPolicySet(unsigned char Type , const unsigned char Policy, unsigned char *pVal,unsigned 
 231:..\..\..\..\..\simplelink\source/wlan.c **** {
 592              		.loc 1 231 0
 593              		.cfi_startproc
 594 0000 80B5     		push	{r7, lr}
 595              	.LCFI5:
 596              		.cfi_def_cfa_offset 8
 597              		.cfi_offset 7, -8
 598              		.cfi_offset 14, -4
 599 0002 88B0     		sub	sp, sp, #32
 600              	.LCFI6:
 601              		.cfi_def_cfa_offset 40
 602 0004 00AF     		add	r7, sp, #0
 603              	.LCFI7:
 604              		.cfi_def_cfa_register 7
 605 0006 3A60     		str	r2, [r7]
 606 0008 1A1C     		mov	r2, r3
 607 000a FB1D     		add	r3, r7, #7
 608 000c 1870     		strb	r0, [r3]
 609 000e BB1D     		add	r3, r7, #6
 610 0010 1970     		strb	r1, [r3]
 611 0012 7B1D     		add	r3, r7, #5
 612 0014 1A70     		strb	r2, [r3]
 232:..\..\..\..\..\simplelink\source/wlan.c ****     _SlPolicyMsg_u         Msg;
 233:..\..\..\..\..\simplelink\source/wlan.c ****     _SlCmdExt_t            CmdExt;
 234:..\..\..\..\..\simplelink\source/wlan.c **** 
 235:..\..\..\..\..\simplelink\source/wlan.c ****     CmdExt.TxPayloadLen = ValLen;
 613              		.loc 1 235 0
 614 0016 7B1D     		add	r3, r7, #5
 615 0018 1B78     		ldrb	r3, [r3]
 616 001a 9AB2     		uxth	r2, r3
 617 001c 3B1C     		mov	r3, r7
 618 001e 0833     		add	r3, r3, #8
 619 0020 1A80     		strh	r2, [r3]
 236:..\..\..\..\..\simplelink\source/wlan.c ****     CmdExt.RxPayloadLen = 0;
ARM GAS  C:\Users\X0217454\AppData\Local\Temp\ccwJRGby.s 			page 16


 620              		.loc 1 236 0
 621 0022 3B1C     		mov	r3, r7
 622 0024 0833     		add	r3, r3, #8
 623 0026 0022     		mov	r2, #0
 624 0028 5A80     		strh	r2, [r3, #2]
 237:..\..\..\..\..\simplelink\source/wlan.c ****     CmdExt.pTxPayload = (UINT8 *)pVal;
 625              		.loc 1 237 0
 626 002a 3B1C     		mov	r3, r7
 627 002c 0833     		add	r3, r3, #8
 628 002e 3A68     		ldr	r2, [r7]
 629 0030 9A60     		str	r2, [r3, #8]
 238:..\..\..\..\..\simplelink\source/wlan.c ****     CmdExt.pRxPayload = NULL;
 630              		.loc 1 238 0
 631 0032 3B1C     		mov	r3, r7
 632 0034 0833     		add	r3, r3, #8
 633 0036 0022     		mov	r2, #0
 634 0038 DA60     		str	r2, [r3, #12]
 239:..\..\..\..\..\simplelink\source/wlan.c **** 
 240:..\..\..\..\..\simplelink\source/wlan.c **** 
 241:..\..\..\..\..\simplelink\source/wlan.c ****     Msg.Cmd.PolicyType        = Type;
 635              		.loc 1 241 0
 636 003a 3B1C     		mov	r3, r7
 637 003c 1833     		add	r3, r3, #24
 638 003e FA1D     		add	r2, r7, #7
 639 0040 1278     		ldrb	r2, [r2]
 640 0042 1A70     		strb	r2, [r3]
 242:..\..\..\..\..\simplelink\source/wlan.c ****     Msg.Cmd.PolicyOption      = Policy;
 641              		.loc 1 242 0
 642 0044 3B1C     		mov	r3, r7
 643 0046 1833     		add	r3, r3, #24
 644 0048 BA1D     		add	r2, r7, #6
 645 004a 1278     		ldrb	r2, [r2]
 646 004c 9A70     		strb	r2, [r3, #2]
 243:..\..\..\..\..\simplelink\source/wlan.c ****     Msg.Cmd.PolicyOptionLen   = ValLen;
 647              		.loc 1 243 0
 648 004e 3B1C     		mov	r3, r7
 649 0050 1833     		add	r3, r3, #24
 650 0052 7A1D     		add	r2, r7, #5
 651 0054 1278     		ldrb	r2, [r2]
 652 0056 DA70     		strb	r2, [r3, #3]
 653              	.LBB3:
 244:..\..\..\..\..\simplelink\source/wlan.c **** 
 245:..\..\..\..\..\simplelink\source/wlan.c ****     VERIFY_RET_OK(_SlDrvCmdOp((_SlCmdCtrl_t *)&_SlPolicySetCmdCtrl, &Msg, &CmdExt));
 654              		.loc 1 245 0
 655 0058 0B49     		ldr	r1, .L34
 656 005a 3A1C     		mov	r2, r7
 657 005c 1832     		add	r2, r2, #24
 658 005e 3B1C     		mov	r3, r7
 659 0060 0833     		add	r3, r3, #8
 660 0062 081C     		mov	r0, r1
 661 0064 111C     		mov	r1, r2
 662 0066 1A1C     		mov	r2, r3
 663 0068 FFF7FEFF 		bl	_SlDrvCmdOp
 664 006c 031C     		mov	r3, r0
 665 006e FB61     		str	r3, [r7, #28]
 666 0070 FB69     		ldr	r3, [r7, #28]
 667 0072 002B     		cmp	r3, #0
ARM GAS  C:\Users\X0217454\AppData\Local\Temp\ccwJRGby.s 			page 17


 668 0074 00D0     		beq	.L31
 669              	.L32:
 670              		.loc 1 245 0 is_stmt 0 discriminator 1
 671 0076 FEE7     		b	.L32
 672              	.L31:
 673              	.LBE3:
 246:..\..\..\..\..\simplelink\source/wlan.c **** 
 247:..\..\..\..\..\simplelink\source/wlan.c ****     return (int)Msg.Rsp.status;
 674              		.loc 1 247 0 is_stmt 1
 675 0078 3B1C     		mov	r3, r7
 676 007a 1833     		add	r3, r3, #24
 677 007c 1B88     		ldrh	r3, [r3]
 678 007e 1BB2     		sxth	r3, r3
 248:..\..\..\..\..\simplelink\source/wlan.c **** }
 679              		.loc 1 248 0
 680 0080 181C     		mov	r0, r3
 681 0082 BD46     		mov	sp, r7
 682 0084 08B0     		add	sp, sp, #32
 683              		@ sp needed for prologue
 684 0086 80BD     		pop	{r7, pc}
 685              	.L35:
 686              		.align	2
 687              	.L34:
 688 0088 00000000 		.word	_SlPolicySetCmdCtrl
 689              		.cfi_endproc
 690              	.LFE2:
 691              		.size	sl_WlanPolicySet, .-sl_WlanPolicySet
 692              		.global	_SlPolicyGetCmdCtrl
 693              		.section	.rodata
 694              		.align	2
 695              		.type	_SlPolicyGetCmdCtrl, %object
 696              		.size	_SlPolicyGetCmdCtrl, 4
 697              	_SlPolicyGetCmdCtrl:
 698 0004 878C     		.short	-29561
 699 0006 04       		.byte	4
 700 0007 04       		.byte	4
 701              		.section	.text.sl_WlanPolicyGet,"ax",%progbits
 702              		.align	2
 703              		.global	sl_WlanPolicyGet
 704              		.code	16
 705              		.thumb_func
 706              		.type	sl_WlanPolicyGet, %function
 707              	sl_WlanPolicyGet:
 708              	.LFB3:
 249:..\..\..\..\..\simplelink\source/wlan.c **** #endif
 250:..\..\..\..\..\simplelink\source/wlan.c **** 
 251:..\..\..\..\..\simplelink\source/wlan.c **** 
 252:..\..\..\..\..\simplelink\source/wlan.c **** /******************************************************************************/
 253:..\..\..\..\..\simplelink\source/wlan.c **** /*  sl_PolicyGet  */
 254:..\..\..\..\..\simplelink\source/wlan.c **** /******************************************************************************/
 255:..\..\..\..\..\simplelink\source/wlan.c **** typedef union
 256:..\..\..\..\..\simplelink\source/wlan.c **** {
 257:..\..\..\..\..\simplelink\source/wlan.c **** 	_WlanPoliciySetGet_t	    Cmd;
 258:..\..\..\..\..\simplelink\source/wlan.c **** 	_WlanPoliciySetGet_t	    Rsp;
 259:..\..\..\..\..\simplelink\source/wlan.c **** }_SlPolicyGetMsg_u;
 260:..\..\..\..\..\simplelink\source/wlan.c **** 
 261:..\..\..\..\..\simplelink\source/wlan.c **** const _SlCmdCtrl_t _SlPolicyGetCmdCtrl =
ARM GAS  C:\Users\X0217454\AppData\Local\Temp\ccwJRGby.s 			page 18


 262:..\..\..\..\..\simplelink\source/wlan.c **** {
 263:..\..\..\..\..\simplelink\source/wlan.c ****     SL_OPCODE_WLAN_POLICYGETCOMMAND,
 264:..\..\..\..\..\simplelink\source/wlan.c ****     sizeof(_WlanPoliciySetGet_t),
 265:..\..\..\..\..\simplelink\source/wlan.c ****     sizeof(_WlanPoliciySetGet_t)
 266:..\..\..\..\..\simplelink\source/wlan.c **** };
 267:..\..\..\..\..\simplelink\source/wlan.c **** 
 268:..\..\..\..\..\simplelink\source/wlan.c **** #if _SL_INCLUDE_FUNC(sl_WlanPolicyGet)
 269:..\..\..\..\..\simplelink\source/wlan.c **** int sl_WlanPolicyGet(unsigned char Type , unsigned char Policy,unsigned char *pVal,unsigned char *p
 270:..\..\..\..\..\simplelink\source/wlan.c **** {
 709              		.loc 1 270 0
 710              		.cfi_startproc
 711 0000 80B5     		push	{r7, lr}
 712              	.LCFI8:
 713              		.cfi_def_cfa_offset 8
 714              		.cfi_offset 7, -8
 715              		.cfi_offset 14, -4
 716 0002 8AB0     		sub	sp, sp, #40
 717              	.LCFI9:
 718              		.cfi_def_cfa_offset 48
 719 0004 00AF     		add	r7, sp, #0
 720              	.LCFI10:
 721              		.cfi_def_cfa_register 7
 722 0006 BA60     		str	r2, [r7, #8]
 723 0008 7B60     		str	r3, [r7, #4]
 724 000a 3B1C     		mov	r3, r7
 725 000c 0F33     		add	r3, r3, #15
 726 000e 021C     		add	r2, r0, #0
 727 0010 1A70     		strb	r2, [r3]
 728 0012 3B1C     		mov	r3, r7
 729 0014 0E33     		add	r3, r3, #14
 730 0016 0A1C     		add	r2, r1, #0
 731 0018 1A70     		strb	r2, [r3]
 271:..\..\..\..\..\simplelink\source/wlan.c ****     _SlPolicyGetMsg_u      Msg;
 272:..\..\..\..\..\simplelink\source/wlan.c ****     _SlCmdExt_t            CmdExt;
 273:..\..\..\..\..\simplelink\source/wlan.c **** 
 274:..\..\..\..\..\simplelink\source/wlan.c **** 	if (*pValLen == 0)
 732              		.loc 1 274 0
 733 001a 7B68     		ldr	r3, [r7, #4]
 734 001c 1B78     		ldrb	r3, [r3]
 735 001e 002B     		cmp	r3, #0
 736 0020 01D1     		bne	.L37
 275:..\..\..\..\..\simplelink\source/wlan.c **** 	{
 276:..\..\..\..\..\simplelink\source/wlan.c **** 		return SL_EZEROLEN;
 737              		.loc 1 276 0
 738 0022 2D4B     		ldr	r3, .L44
 739 0024 54E0     		b	.L43
 740              	.L37:
 277:..\..\..\..\..\simplelink\source/wlan.c **** 	}
 278:..\..\..\..\..\simplelink\source/wlan.c ****     CmdExt.TxPayloadLen = 0;
 741              		.loc 1 278 0
 742 0026 3B1C     		mov	r3, r7
 743 0028 1033     		add	r3, r3, #16
 744 002a 0022     		mov	r2, #0
 745 002c 1A80     		strh	r2, [r3]
 279:..\..\..\..\..\simplelink\source/wlan.c ****     CmdExt.RxPayloadLen = *pValLen;
 746              		.loc 1 279 0
 747 002e 7B68     		ldr	r3, [r7, #4]
ARM GAS  C:\Users\X0217454\AppData\Local\Temp\ccwJRGby.s 			page 19


 748 0030 1B78     		ldrb	r3, [r3]
 749 0032 1A1C     		mov	r2, r3
 750 0034 3B1C     		mov	r3, r7
 751 0036 1033     		add	r3, r3, #16
 752 0038 5A80     		strh	r2, [r3, #2]
 280:..\..\..\..\..\simplelink\source/wlan.c ****     CmdExt.pTxPayload = NULL;
 753              		.loc 1 280 0
 754 003a 3B1C     		mov	r3, r7
 755 003c 1033     		add	r3, r3, #16
 756 003e 0022     		mov	r2, #0
 757 0040 9A60     		str	r2, [r3, #8]
 281:..\..\..\..\..\simplelink\source/wlan.c ****     CmdExt.pRxPayload = pVal;
 758              		.loc 1 281 0
 759 0042 3B1C     		mov	r3, r7
 760 0044 1033     		add	r3, r3, #16
 761 0046 BA68     		ldr	r2, [r7, #8]
 762 0048 DA60     		str	r2, [r3, #12]
 282:..\..\..\..\..\simplelink\source/wlan.c **** 	CmdExt.ActualRxPayloadLen = 0;
 763              		.loc 1 282 0
 764 004a 3B1C     		mov	r3, r7
 765 004c 1033     		add	r3, r3, #16
 766 004e 0022     		mov	r2, #0
 767 0050 9A80     		strh	r2, [r3, #4]
 283:..\..\..\..\..\simplelink\source/wlan.c **** 
 284:..\..\..\..\..\simplelink\source/wlan.c **** 
 285:..\..\..\..\..\simplelink\source/wlan.c ****     Msg.Cmd.PolicyType = Type;
 768              		.loc 1 285 0
 769 0052 3B1C     		mov	r3, r7
 770 0054 2033     		add	r3, r3, #32
 771 0056 3A1C     		mov	r2, r7
 772 0058 0F32     		add	r2, r2, #15
 773 005a 1278     		ldrb	r2, [r2]
 774 005c 1A70     		strb	r2, [r3]
 286:..\..\..\..\..\simplelink\source/wlan.c ****     Msg.Cmd.PolicyOption = Policy;
 775              		.loc 1 286 0
 776 005e 3B1C     		mov	r3, r7
 777 0060 2033     		add	r3, r3, #32
 778 0062 3A1C     		mov	r2, r7
 779 0064 0E32     		add	r2, r2, #14
 780 0066 1278     		ldrb	r2, [r2]
 781 0068 9A70     		strb	r2, [r3, #2]
 782              	.LBB4:
 287:..\..\..\..\..\simplelink\source/wlan.c ****     VERIFY_RET_OK(_SlDrvCmdOp((_SlCmdCtrl_t *)&_SlPolicyGetCmdCtrl, &Msg, &CmdExt));
 783              		.loc 1 287 0
 784 006a 1C49     		ldr	r1, .L44+4
 785 006c 3A1C     		mov	r2, r7
 786 006e 2032     		add	r2, r2, #32
 787 0070 3B1C     		mov	r3, r7
 788 0072 1033     		add	r3, r3, #16
 789 0074 081C     		mov	r0, r1
 790 0076 111C     		mov	r1, r2
 791 0078 1A1C     		mov	r2, r3
 792 007a FFF7FEFF 		bl	_SlDrvCmdOp
 793 007e 031C     		mov	r3, r0
 794 0080 7B62     		str	r3, [r7, #36]
 795 0082 7B6A     		ldr	r3, [r7, #36]
 796 0084 002B     		cmp	r3, #0
ARM GAS  C:\Users\X0217454\AppData\Local\Temp\ccwJRGby.s 			page 20


 797 0086 00D0     		beq	.L39
 798              	.L40:
 799              		.loc 1 287 0 is_stmt 0 discriminator 1
 800 0088 FEE7     		b	.L40
 801              	.L39:
 802              	.LBE4:
 288:..\..\..\..\..\simplelink\source/wlan.c **** 
 289:..\..\..\..\..\simplelink\source/wlan.c ****     
 290:..\..\..\..\..\simplelink\source/wlan.c **** 	if (CmdExt.RxPayloadLen < CmdExt.ActualRxPayloadLen) 
 803              		.loc 1 290 0 is_stmt 1
 804 008a 3B1C     		mov	r3, r7
 805 008c 1033     		add	r3, r3, #16
 806 008e 5A88     		ldrh	r2, [r3, #2]
 807 0090 3B1C     		mov	r3, r7
 808 0092 1033     		add	r3, r3, #16
 809 0094 9B88     		ldrh	r3, [r3, #4]
 810 0096 9A42     		cmp	r2, r3
 811 0098 06D2     		bcs	.L41
 291:..\..\..\..\..\simplelink\source/wlan.c **** 	{
 292:..\..\..\..\..\simplelink\source/wlan.c **** 		*pValLen = Msg.Rsp.PolicyOptionLen;
 812              		.loc 1 292 0
 813 009a 3B1C     		mov	r3, r7
 814 009c 2033     		add	r3, r3, #32
 815 009e DA78     		ldrb	r2, [r3, #3]
 816 00a0 7B68     		ldr	r3, [r7, #4]
 817 00a2 1A70     		strb	r2, [r3]
 293:..\..\..\..\..\simplelink\source/wlan.c **** 		return SL_ESMALLBUF;
 818              		.loc 1 293 0
 819 00a4 0E4B     		ldr	r3, .L44+8
 820 00a6 13E0     		b	.L43
 821              	.L41:
 294:..\..\..\..\..\simplelink\source/wlan.c **** 	}
 295:..\..\..\..\..\simplelink\source/wlan.c **** 	else
 296:..\..\..\..\..\simplelink\source/wlan.c **** 	{
 297:..\..\..\..\..\simplelink\source/wlan.c **** 		/*  no pointer valus, fill the results into char */
 298:..\..\..\..\..\simplelink\source/wlan.c **** 		*pValLen = (unsigned char)CmdExt.ActualRxPayloadLen;
 822              		.loc 1 298 0
 823 00a8 3B1C     		mov	r3, r7
 824 00aa 1033     		add	r3, r3, #16
 825 00ac 9B88     		ldrh	r3, [r3, #4]
 826 00ae DAB2     		uxtb	r2, r3
 827 00b0 7B68     		ldr	r3, [r7, #4]
 828 00b2 1A70     		strb	r2, [r3]
 299:..\..\..\..\..\simplelink\source/wlan.c **** 		if( 0 == CmdExt.ActualRxPayloadLen )
 829              		.loc 1 299 0
 830 00b4 3B1C     		mov	r3, r7
 831 00b6 1033     		add	r3, r3, #16
 832 00b8 9B88     		ldrh	r3, [r3, #4]
 833 00ba 002B     		cmp	r3, #0
 834 00bc 07D1     		bne	.L42
 300:..\..\..\..\..\simplelink\source/wlan.c **** 		{
 301:..\..\..\..\..\simplelink\source/wlan.c **** 			*pValLen = 1;
 835              		.loc 1 301 0
 836 00be 7B68     		ldr	r3, [r7, #4]
 837 00c0 0122     		mov	r2, #1
 838 00c2 1A70     		strb	r2, [r3]
 302:..\..\..\..\..\simplelink\source/wlan.c **** 			 pVal[0] = Msg.Rsp.PolicyOption;
ARM GAS  C:\Users\X0217454\AppData\Local\Temp\ccwJRGby.s 			page 21


 839              		.loc 1 302 0
 840 00c4 3B1C     		mov	r3, r7
 841 00c6 2033     		add	r3, r3, #32
 842 00c8 9A78     		ldrb	r2, [r3, #2]
 843 00ca BB68     		ldr	r3, [r7, #8]
 844 00cc 1A70     		strb	r2, [r3]
 845              	.L42:
 303:..\..\..\..\..\simplelink\source/wlan.c **** 		}
 304:..\..\..\..\..\simplelink\source/wlan.c **** 	}
 305:..\..\..\..\..\simplelink\source/wlan.c **** 
 306:..\..\..\..\..\simplelink\source/wlan.c ****     
 307:..\..\..\..\..\simplelink\source/wlan.c **** 	return (int)SL_OS_RET_CODE_OK;
 846              		.loc 1 307 0
 847 00ce 0023     		mov	r3, #0
 848              	.L43:
 308:..\..\..\..\..\simplelink\source/wlan.c **** }
 849              		.loc 1 308 0
 850 00d0 181C     		mov	r0, r3
 851 00d2 BD46     		mov	sp, r7
 852 00d4 0AB0     		add	sp, sp, #40
 853              		@ sp needed for prologue
 854 00d6 80BD     		pop	{r7, pc}
 855              	.L45:
 856              		.align	2
 857              	.L44:
 858 00d8 2EF8FFFF 		.word	-2002
 859 00dc 00000000 		.word	_SlPolicyGetCmdCtrl
 860 00e0 2FF8FFFF 		.word	-2001
 861              		.cfi_endproc
 862              	.LFE3:
 863              		.size	sl_WlanPolicyGet, .-sl_WlanPolicyGet
 864              		.section	.text.sl_WlanProfileAdd,"ax",%progbits
 865              		.align	2
 866              		.global	sl_WlanProfileAdd
 867              		.code	16
 868              		.thumb_func
 869              		.type	sl_WlanProfileAdd, %function
 870              	sl_WlanProfileAdd:
 871              	.LFB4:
 309:..\..\..\..\..\simplelink\source/wlan.c **** #endif
 310:..\..\..\..\..\simplelink\source/wlan.c **** 
 311:..\..\..\..\..\simplelink\source/wlan.c **** 
 312:..\..\..\..\..\simplelink\source/wlan.c **** /*******************************************************************************/
 313:..\..\..\..\..\simplelink\source/wlan.c **** /*  sl_ProfileAdd  */
 314:..\..\..\..\..\simplelink\source/wlan.c **** /*******************************************************************************/
 315:..\..\..\..\..\simplelink\source/wlan.c **** typedef struct
 316:..\..\..\..\..\simplelink\source/wlan.c **** {
 317:..\..\..\..\..\simplelink\source/wlan.c **** 	_WlanAddGetEapProfile_t	Args;
 318:..\..\..\..\..\simplelink\source/wlan.c ****     char                    Strings[MAX_SSID_LEN + MAX_KEY_LEN + MAX_USER_LEN + MAX_ANON_USER_LEN];
 319:..\..\..\..\..\simplelink\source/wlan.c **** }_SlProfileParams_t;
 320:..\..\..\..\..\simplelink\source/wlan.c **** 
 321:..\..\..\..\..\simplelink\source/wlan.c **** typedef union
 322:..\..\..\..\..\simplelink\source/wlan.c **** {
 323:..\..\..\..\..\simplelink\source/wlan.c **** 	_SlProfileParams_t	    Cmd;
 324:..\..\..\..\..\simplelink\source/wlan.c **** 	_BasicResponse_t	    Rsp;
 325:..\..\..\..\..\simplelink\source/wlan.c **** }_SlProfileAddMsg_u;
 326:..\..\..\..\..\simplelink\source/wlan.c **** 
ARM GAS  C:\Users\X0217454\AppData\Local\Temp\ccwJRGby.s 			page 22


 327:..\..\..\..\..\simplelink\source/wlan.c **** 
 328:..\..\..\..\..\simplelink\source/wlan.c **** 
 329:..\..\..\..\..\simplelink\source/wlan.c **** #if _SL_INCLUDE_FUNC(sl_WlanProfileAdd)
 330:..\..\..\..\..\simplelink\source/wlan.c **** int sl_WlanProfileAdd(char* pName, int NameLen, unsigned char *pMacAddr, SlSecParams_t* pSecParams 
 331:..\..\..\..\..\simplelink\source/wlan.c **** {
 872              		.loc 1 331 0
 873              		.cfi_startproc
 874 0000 80B5     		push	{r7, lr}
 875              	.LCFI11:
 876              		.cfi_def_cfa_offset 8
 877              		.cfi_offset 7, -8
 878              		.cfi_offset 14, -4
 879 0002 B4B0     		sub	sp, sp, #208
 880              	.LCFI12:
 881              		.cfi_def_cfa_offset 216
 882 0004 00AF     		add	r7, sp, #0
 883              	.LCFI13:
 884              		.cfi_def_cfa_register 7
 885 0006 F860     		str	r0, [r7, #12]
 886 0008 B960     		str	r1, [r7, #8]
 887 000a 7A60     		str	r2, [r7, #4]
 888 000c 3B60     		str	r3, [r7]
 332:..\..\..\..\..\simplelink\source/wlan.c ****     _SlProfileAddMsg_u      Msg;
 333:..\..\..\..\..\simplelink\source/wlan.c **** 	_SlCmdCtrl_t           CmdCtrl = {0};
 889              		.loc 1 333 0
 890 000e 3B1C     		mov	r3, r7
 891 0010 1433     		add	r3, r3, #20
 892 0012 0022     		mov	r2, #0
 893 0014 1A60     		str	r2, [r3]
 334:..\..\..\..\..\simplelink\source/wlan.c **** 	CmdCtrl.TxDescLen = 0;/* init */
 894              		.loc 1 334 0
 895 0016 3B1C     		mov	r3, r7
 896 0018 1433     		add	r3, r3, #20
 897 001a 0022     		mov	r2, #0
 898 001c 9A70     		strb	r2, [r3, #2]
 335:..\..\..\..\..\simplelink\source/wlan.c **** 	CmdCtrl.RxDescLen = sizeof(_BasicResponse_t);
 899              		.loc 1 335 0
 900 001e 3B1C     		mov	r3, r7
 901 0020 1433     		add	r3, r3, #20
 902 0022 0422     		mov	r2, #4
 903 0024 DA70     		strb	r2, [r3, #3]
 336:..\..\..\..\..\simplelink\source/wlan.c **** 
 337:..\..\..\..\..\simplelink\source/wlan.c **** 	/* update priority */
 338:..\..\..\..\..\simplelink\source/wlan.c **** 	Msg.Cmd.Args.Common.Priority = (UINT8)Priority; 
 904              		.loc 1 338 0
 905 0026 DC20     		mov	r0, #220
 906 0028 C019     		add	r0, r0, r7
 907 002a 0368     		ldr	r3, [r0]
 908 002c DAB2     		uxtb	r2, r3
 909 002e 3B1C     		mov	r3, r7
 910 0030 1833     		add	r3, r3, #24
 911 0032 9A70     		strb	r2, [r3, #2]
 339:..\..\..\..\..\simplelink\source/wlan.c **** 	/* verify SSID length */
 340:..\..\..\..\..\simplelink\source/wlan.c **** 	VERIFY_PROTOCOL(NameLen <= MAX_SSID_LEN);
 912              		.loc 1 340 0
 913 0034 BB68     		ldr	r3, [r7, #8]
 914 0036 202B     		cmp	r3, #32
ARM GAS  C:\Users\X0217454\AppData\Local\Temp\ccwJRGby.s 			page 23


 915 0038 00DD     		ble	.L47
 916              	.L48:
 917              		.loc 1 340 0 is_stmt 0 discriminator 1
 918 003a FEE7     		b	.L48
 919              	.L47:
 341:..\..\..\..\..\simplelink\source/wlan.c **** 	/* update SSID length */
 342:..\..\..\..\..\simplelink\source/wlan.c **** 	Msg.Cmd.Args.Common.SsidLen = (UINT8)NameLen;
 920              		.loc 1 342 0 is_stmt 1
 921 003c BB68     		ldr	r3, [r7, #8]
 922 003e DAB2     		uxtb	r2, r3
 923 0040 3B1C     		mov	r3, r7
 924 0042 1833     		add	r3, r3, #24
 925 0044 5A70     		strb	r2, [r3, #1]
 343:..\..\..\..\..\simplelink\source/wlan.c **** 
 344:..\..\..\..\..\simplelink\source/wlan.c **** 
 345:..\..\..\..\..\simplelink\source/wlan.c **** 	/* Enterprise security profile */
 346:..\..\..\..\..\simplelink\source/wlan.c ****         if  (NULL != pSecExtParams)
 926              		.loc 1 346 0
 927 0046 D821     		mov	r1, #216
 928 0048 C919     		add	r1, r1, r7
 929 004a 0B68     		ldr	r3, [r1]
 930 004c 002B     		cmp	r3, #0
 931 004e 00D1     		bne	.LCB820
 932 0050 F9E0     		b	.L49	@long jump
 933              	.LCB820:
 347:..\..\..\..\..\simplelink\source/wlan.c **** 	{
 348:..\..\..\..\..\simplelink\source/wlan.c **** 		/* Update command opcode */
 349:..\..\..\..\..\simplelink\source/wlan.c **** 		CmdCtrl.Opcode = SL_OPCODE_WLAN_EAP_PROFILEADDCOMMAND;
 934              		.loc 1 349 0
 935 0052 3B1C     		mov	r3, r7
 936 0054 1433     		add	r3, r3, #20
 937 0056 CA4A     		ldr	r2, .L74
 938 0058 1A80     		strh	r2, [r3]
 350:..\..\..\..\..\simplelink\source/wlan.c **** 		CmdCtrl.TxDescLen += sizeof(_WlanAddGetEapProfile_t);
 939              		.loc 1 350 0
 940 005a 3B1C     		mov	r3, r7
 941 005c 1433     		add	r3, r3, #20
 942 005e 9B78     		ldrb	r3, [r3, #2]
 943 0060 1433     		add	r3, r3, #20
 944 0062 DAB2     		uxtb	r2, r3
 945 0064 3B1C     		mov	r3, r7
 946 0066 1433     		add	r3, r3, #20
 947 0068 9A70     		strb	r2, [r3, #2]
 351:..\..\..\..\..\simplelink\source/wlan.c **** 
 352:..\..\..\..\..\simplelink\source/wlan.c **** 		/* copy SSID */
 353:..\..\..\..\..\simplelink\source/wlan.c **** 		memcpy(EAP_PROFILE_SSID_STRING(&Msg), pName, NameLen);	
 948              		.loc 1 353 0
 949 006a BB68     		ldr	r3, [r7, #8]
 950 006c 3A1C     		mov	r2, r7
 951 006e 1832     		add	r2, r2, #24
 952 0070 111C     		mov	r1, r2
 953 0072 1431     		add	r1, r1, #20
 954 0074 FA68     		ldr	r2, [r7, #12]
 955 0076 081C     		mov	r0, r1
 956 0078 111C     		mov	r1, r2
 957 007a 1A1C     		mov	r2, r3
 958 007c FFF7FEFF 		bl	memcpy
ARM GAS  C:\Users\X0217454\AppData\Local\Temp\ccwJRGby.s 			page 24


 354:..\..\..\..\..\simplelink\source/wlan.c **** 		CmdCtrl.TxDescLen += NameLen;
 959              		.loc 1 354 0
 960 0080 3B1C     		mov	r3, r7
 961 0082 1433     		add	r3, r3, #20
 962 0084 9A78     		ldrb	r2, [r3, #2]
 963 0086 BB68     		ldr	r3, [r7, #8]
 964 0088 DBB2     		uxtb	r3, r3
 965 008a D318     		add	r3, r2, r3
 966 008c DAB2     		uxtb	r2, r3
 967 008e 3B1C     		mov	r3, r7
 968 0090 1433     		add	r3, r3, #20
 969 0092 9A70     		strb	r2, [r3, #2]
 355:..\..\..\..\..\simplelink\source/wlan.c **** 
 356:..\..\..\..\..\simplelink\source/wlan.c **** 		/* Copy password if supplied */
 357:..\..\..\..\..\simplelink\source/wlan.c **** 		if ((NULL != pSecParams) && (pSecParams->KeyLen > 0))
 970              		.loc 1 357 0
 971 0094 3B68     		ldr	r3, [r7]
 972 0096 002B     		cmp	r3, #0
 973 0098 43D0     		beq	.L50
 974              		.loc 1 357 0 is_stmt 0 discriminator 1
 975 009a 3B68     		ldr	r3, [r7]
 976 009c 1B7A     		ldrb	r3, [r3, #8]
 977 009e 002B     		cmp	r3, #0
 978 00a0 3FD0     		beq	.L50
 358:..\..\..\..\..\simplelink\source/wlan.c **** 		{
 359:..\..\..\..\..\simplelink\source/wlan.c **** 			/* update security type */
 360:..\..\..\..\..\simplelink\source/wlan.c **** 			Msg.Cmd.Args.Common.SecType = pSecParams->Type;
 979              		.loc 1 360 0 is_stmt 1
 980 00a2 3B68     		ldr	r3, [r7]
 981 00a4 1B78     		ldrb	r3, [r3]
 982 00a6 DAB2     		uxtb	r2, r3
 983 00a8 3B1C     		mov	r3, r7
 984 00aa 1833     		add	r3, r3, #24
 985 00ac 1A70     		strb	r2, [r3]
 361:..\..\..\..\..\simplelink\source/wlan.c **** 
 362:..\..\..\..\..\simplelink\source/wlan.c **** 			if( SL_SEC_TYPE_WEP == Msg.Cmd.Args.Common.SecType )
 986              		.loc 1 362 0
 987 00ae 3B1C     		mov	r3, r7
 988 00b0 1833     		add	r3, r3, #24
 989 00b2 1B78     		ldrb	r3, [r3]
 990 00b4 5BB2     		sxtb	r3, r3
 991 00b6 012B     		cmp	r3, #1
 992 00b8 03D1     		bne	.L51
 363:..\..\..\..\..\simplelink\source/wlan.c **** 			{
 364:..\..\..\..\..\simplelink\source/wlan.c **** 			    Msg.Cmd.Args.Common.WepKeyId = 0;
 993              		.loc 1 364 0
 994 00ba 3B1C     		mov	r3, r7
 995 00bc 1833     		add	r3, r3, #24
 996 00be 0022     		mov	r2, #0
 997 00c0 9A72     		strb	r2, [r3, #10]
 998              	.L51:
 365:..\..\..\..\..\simplelink\source/wlan.c **** 			}
 366:..\..\..\..\..\simplelink\source/wlan.c **** 
 367:..\..\..\..\..\simplelink\source/wlan.c **** 			/* verify key length */
 368:..\..\..\..\..\simplelink\source/wlan.c **** 			if (pSecParams->KeyLen > MAX_KEY_LEN)
 999              		.loc 1 368 0
 1000 00c2 3B68     		ldr	r3, [r7]
ARM GAS  C:\Users\X0217454\AppData\Local\Temp\ccwJRGby.s 			page 25


 1001 00c4 1B7A     		ldrb	r3, [r3, #8]
 1002 00c6 3F2B     		cmp	r3, #63
 1003 00c8 01D9     		bls	.L52
 369:..\..\..\..\..\simplelink\source/wlan.c **** 			{
 370:..\..\..\..\..\simplelink\source/wlan.c **** 				return SL_INVALPARAM;
 1004              		.loc 1 370 0
 1005 00ca AE4B     		ldr	r3, .L74+4
 1006 00cc 53E1     		b	.L73
 1007              	.L52:
 371:..\..\..\..\..\simplelink\source/wlan.c **** 			}
 372:..\..\..\..\..\simplelink\source/wlan.c **** 			VERIFY_PROTOCOL(pSecParams->KeyLen <= MAX_KEY_LEN);
 1008              		.loc 1 372 0
 1009 00ce 3B68     		ldr	r3, [r7]
 1010 00d0 1B7A     		ldrb	r3, [r3, #8]
 1011 00d2 3F2B     		cmp	r3, #63
 1012 00d4 00D9     		bls	.L54
 1013              	.L55:
 1014              		.loc 1 372 0 is_stmt 0 discriminator 1
 1015 00d6 FEE7     		b	.L55
 1016              	.L54:
 373:..\..\..\..\..\simplelink\source/wlan.c **** 			/* update key length */
 374:..\..\..\..\..\simplelink\source/wlan.c **** 			Msg.Cmd.Args.Common.PasswordLen = pSecParams->KeyLen;	
 1017              		.loc 1 374 0 is_stmt 1
 1018 00d8 3B68     		ldr	r3, [r7]
 1019 00da 1A7A     		ldrb	r2, [r3, #8]
 1020 00dc 3B1C     		mov	r3, r7
 1021 00de 1833     		add	r3, r3, #24
 1022 00e0 5A72     		strb	r2, [r3, #9]
 375:..\..\..\..\..\simplelink\source/wlan.c **** 			CmdCtrl.TxDescLen += pSecParams->KeyLen;
 1023              		.loc 1 375 0
 1024 00e2 3B1C     		mov	r3, r7
 1025 00e4 1433     		add	r3, r3, #20
 1026 00e6 9A78     		ldrb	r2, [r3, #2]
 1027 00e8 3B68     		ldr	r3, [r7]
 1028 00ea 1B7A     		ldrb	r3, [r3, #8]
 1029 00ec D318     		add	r3, r2, r3
 1030 00ee DAB2     		uxtb	r2, r3
 1031 00f0 3B1C     		mov	r3, r7
 1032 00f2 1433     		add	r3, r3, #20
 1033 00f4 9A70     		strb	r2, [r3, #2]
 376:..\..\..\..\..\simplelink\source/wlan.c **** 			ARG_CHECK_PTR(pSecParams->Key);
 1034              		.loc 1 376 0
 1035 00f6 3B68     		ldr	r3, [r7]
 1036 00f8 5B68     		ldr	r3, [r3, #4]
 1037 00fa 002B     		cmp	r3, #0
 1038 00fc 00D1     		bne	.L56
 1039              	.L57:
 1040              		.loc 1 376 0 is_stmt 0 discriminator 1
 1041 00fe FEE7     		b	.L57
 1042              	.L56:
 377:..\..\..\..\..\simplelink\source/wlan.c **** 			/* copy key  */
 378:..\..\..\..\..\simplelink\source/wlan.c **** 			sl_Memcpy(EAP_PROFILE_PASSWORD_STRING(&Msg), pSecParams->Key, pSecParams->KeyLen);
 1043              		.loc 1 378 0 is_stmt 1
 1044 0100 3B1C     		mov	r3, r7
 1045 0102 1833     		add	r3, r3, #24
 1046 0104 5B78     		ldrb	r3, [r3, #1]
 1047 0106 1433     		add	r3, r3, #20
ARM GAS  C:\Users\X0217454\AppData\Local\Temp\ccwJRGby.s 			page 26


 1048 0108 3A1C     		mov	r2, r7
 1049 010a 1832     		add	r2, r2, #24
 1050 010c D118     		add	r1, r2, r3
 1051 010e 3B68     		ldr	r3, [r7]
 1052 0110 5A68     		ldr	r2, [r3, #4]
 1053 0112 3B68     		ldr	r3, [r7]
 1054 0114 1B7A     		ldrb	r3, [r3, #8]
 1055 0116 081C     		mov	r0, r1
 1056 0118 111C     		mov	r1, r2
 1057 011a 1A1C     		mov	r2, r3
 1058 011c FFF7FEFF 		bl	memcpy
 1059 0120 03E0     		b	.L58
 1060              	.L50:
 379:..\..\..\..\..\simplelink\source/wlan.c **** 		}
 380:..\..\..\..\..\simplelink\source/wlan.c **** 		else
 381:..\..\..\..\..\simplelink\source/wlan.c **** 		{
 382:..\..\..\..\..\simplelink\source/wlan.c **** 			Msg.Cmd.Args.Common.PasswordLen = 0;
 1061              		.loc 1 382 0
 1062 0122 3B1C     		mov	r3, r7
 1063 0124 1833     		add	r3, r3, #24
 1064 0126 0022     		mov	r2, #0
 1065 0128 5A72     		strb	r2, [r3, #9]
 1066              	.L58:
 383:..\..\..\..\..\simplelink\source/wlan.c **** 		}
 384:..\..\..\..\..\simplelink\source/wlan.c **** 
 385:..\..\..\..\..\simplelink\source/wlan.c **** 		ARG_CHECK_PTR(pSecExtParams);
 1067              		.loc 1 385 0
 1068 012a D822     		mov	r2, #216
 1069 012c D219     		add	r2, r2, r7
 1070 012e 1368     		ldr	r3, [r2]
 1071 0130 002B     		cmp	r3, #0
 1072 0132 00D1     		bne	.L59
 1073              	.L60:
 1074              		.loc 1 385 0 is_stmt 0 discriminator 1
 1075 0134 FEE7     		b	.L60
 1076              	.L59:
 386:..\..\..\..\..\simplelink\source/wlan.c **** 		/* Update Eap bitmask */
 387:..\..\..\..\..\simplelink\source/wlan.c **** 		Msg.Cmd.Args.EapBitmask = pSecExtParams->EapMethod;
 1077              		.loc 1 387 0 is_stmt 1
 1078 0136 D820     		mov	r0, #216
 1079 0138 C019     		add	r0, r0, r7
 1080 013a 0368     		ldr	r3, [r0]
 1081 013c 1A69     		ldr	r2, [r3, #16]
 1082 013e 3B1C     		mov	r3, r7
 1083 0140 1833     		add	r3, r3, #24
 1084 0142 1A61     		str	r2, [r3, #16]
 388:..\..\..\..\..\simplelink\source/wlan.c **** 		/* Update Certificate file ID index - currently not supported */
 389:..\..\..\..\..\simplelink\source/wlan.c **** 		Msg.Cmd.Args.CertIndex = pSecExtParams->CertIndex;
 1085              		.loc 1 389 0
 1086 0144 D821     		mov	r1, #216
 1087 0146 C919     		add	r1, r1, r7
 1088 0148 0B68     		ldr	r3, [r1]
 1089 014a 5A7B     		ldrb	r2, [r3, #13]
 1090 014c 3B1C     		mov	r3, r7
 1091 014e 1833     		add	r3, r3, #24
 1092 0150 5A73     		strb	r2, [r3, #13]
 390:..\..\..\..\..\simplelink\source/wlan.c **** 		/* verify user length */
ARM GAS  C:\Users\X0217454\AppData\Local\Temp\ccwJRGby.s 			page 27


 391:..\..\..\..\..\simplelink\source/wlan.c **** 		if (pSecExtParams->UserLen > MAX_USER_LEN)
 1093              		.loc 1 391 0
 1094 0152 D822     		mov	r2, #216
 1095 0154 D219     		add	r2, r2, r7
 1096 0156 1368     		ldr	r3, [r2]
 1097 0158 1B79     		ldrb	r3, [r3, #4]
 1098 015a 202B     		cmp	r3, #32
 1099 015c 01D9     		bls	.L61
 392:..\..\..\..\..\simplelink\source/wlan.c **** 		{
 393:..\..\..\..\..\simplelink\source/wlan.c **** 			return SL_INVALPARAM;
 1100              		.loc 1 393 0
 1101 015e 894B     		ldr	r3, .L74+4
 1102 0160 09E1     		b	.L73
 1103              	.L61:
 394:..\..\..\..\..\simplelink\source/wlan.c **** 		}
 395:..\..\..\..\..\simplelink\source/wlan.c **** 		Msg.Cmd.Args.UserLen = pSecExtParams->UserLen;
 1104              		.loc 1 395 0
 1105 0162 D820     		mov	r0, #216
 1106 0164 C019     		add	r0, r0, r7
 1107 0166 0368     		ldr	r3, [r0]
 1108 0168 1A79     		ldrb	r2, [r3, #4]
 1109 016a 3B1C     		mov	r3, r7
 1110 016c 1833     		add	r3, r3, #24
 1111 016e DA72     		strb	r2, [r3, #11]
 396:..\..\..\..\..\simplelink\source/wlan.c **** 		/* copy user name (identity) */
 397:..\..\..\..\..\simplelink\source/wlan.c **** 		if(pSecExtParams->UserLen > 0)
 1112              		.loc 1 397 0
 1113 0170 D821     		mov	r1, #216
 1114 0172 C919     		add	r1, r1, r7
 1115 0174 0B68     		ldr	r3, [r1]
 1116 0176 1B79     		ldrb	r3, [r3, #4]
 1117 0178 002B     		cmp	r3, #0
 1118 017a 24D0     		beq	.L62
 398:..\..\..\..\..\simplelink\source/wlan.c **** 		{
 399:..\..\..\..\..\simplelink\source/wlan.c **** 			sl_Memcpy(EAP_PROFILE_USER_STRING(&Msg), pSecExtParams->User, pSecExtParams->UserLen);
 1119              		.loc 1 399 0
 1120 017c 3B1C     		mov	r3, r7
 1121 017e 1833     		add	r3, r3, #24
 1122 0180 5B78     		ldrb	r3, [r3, #1]
 1123 0182 1A1C     		mov	r2, r3
 1124 0184 3B1C     		mov	r3, r7
 1125 0186 1833     		add	r3, r3, #24
 1126 0188 5B7A     		ldrb	r3, [r3, #9]
 1127 018a D318     		add	r3, r2, r3
 1128 018c 1433     		add	r3, r3, #20
 1129 018e 3A1C     		mov	r2, r7
 1130 0190 1832     		add	r2, r2, #24
 1131 0192 D118     		add	r1, r2, r3
 1132 0194 D822     		mov	r2, #216
 1133 0196 D219     		add	r2, r2, r7
 1134 0198 1368     		ldr	r3, [r2]
 1135 019a 1A68     		ldr	r2, [r3]
 1136 019c D820     		mov	r0, #216
 1137 019e C019     		add	r0, r0, r7
 1138 01a0 0368     		ldr	r3, [r0]
 1139 01a2 1B79     		ldrb	r3, [r3, #4]
 1140 01a4 081C     		mov	r0, r1
ARM GAS  C:\Users\X0217454\AppData\Local\Temp\ccwJRGby.s 			page 28


 1141 01a6 111C     		mov	r1, r2
 1142 01a8 1A1C     		mov	r2, r3
 1143 01aa FFF7FEFF 		bl	memcpy
 400:..\..\..\..\..\simplelink\source/wlan.c **** 			CmdCtrl.TxDescLen += pSecExtParams->UserLen;
 1144              		.loc 1 400 0
 1145 01ae 3B1C     		mov	r3, r7
 1146 01b0 1433     		add	r3, r3, #20
 1147 01b2 9A78     		ldrb	r2, [r3, #2]
 1148 01b4 D821     		mov	r1, #216
 1149 01b6 C919     		add	r1, r1, r7
 1150 01b8 0B68     		ldr	r3, [r1]
 1151 01ba 1B79     		ldrb	r3, [r3, #4]
 1152 01bc D318     		add	r3, r2, r3
 1153 01be DAB2     		uxtb	r2, r3
 1154 01c0 3B1C     		mov	r3, r7
 1155 01c2 1433     		add	r3, r3, #20
 1156 01c4 9A70     		strb	r2, [r3, #2]
 1157              	.L62:
 401:..\..\..\..\..\simplelink\source/wlan.c **** 		}
 402:..\..\..\..\..\simplelink\source/wlan.c **** 
 403:..\..\..\..\..\simplelink\source/wlan.c **** 		/* verify Anonymous user length (for tunneled) */
 404:..\..\..\..\..\simplelink\source/wlan.c **** 		if (pSecExtParams->AnonUserLen > MAX_ANON_USER_LEN)
 1158              		.loc 1 404 0
 1159 01c6 D822     		mov	r2, #216
 1160 01c8 D219     		add	r2, r2, r7
 1161 01ca 1368     		ldr	r3, [r2]
 1162 01cc 1B7B     		ldrb	r3, [r3, #12]
 1163 01ce 202B     		cmp	r3, #32
 1164 01d0 01D9     		bls	.L63
 405:..\..\..\..\..\simplelink\source/wlan.c **** 		{
 406:..\..\..\..\..\simplelink\source/wlan.c **** 			return SL_INVALPARAM;
 1165              		.loc 1 406 0
 1166 01d2 6C4B     		ldr	r3, .L74+4
 1167 01d4 CFE0     		b	.L73
 1168              	.L63:
 407:..\..\..\..\..\simplelink\source/wlan.c **** 		}
 408:..\..\..\..\..\simplelink\source/wlan.c **** 		Msg.Cmd.Args.AnonUserLen = pSecExtParams->AnonUserLen;
 1169              		.loc 1 408 0
 1170 01d6 D820     		mov	r0, #216
 1171 01d8 C019     		add	r0, r0, r7
 1172 01da 0368     		ldr	r3, [r0]
 1173 01dc 1A7B     		ldrb	r2, [r3, #12]
 1174 01de 3B1C     		mov	r3, r7
 1175 01e0 1833     		add	r3, r3, #24
 1176 01e2 1A73     		strb	r2, [r3, #12]
 409:..\..\..\..\..\simplelink\source/wlan.c **** 
 410:..\..\..\..\..\simplelink\source/wlan.c **** 		/* copy Anonymous user */
 411:..\..\..\..\..\simplelink\source/wlan.c **** 		if(pSecExtParams->AnonUserLen > 0)
 1177              		.loc 1 411 0
 1178 01e4 D821     		mov	r1, #216
 1179 01e6 C919     		add	r1, r1, r7
 1180 01e8 0B68     		ldr	r3, [r1]
 1181 01ea 1B7B     		ldrb	r3, [r3, #12]
 1182 01ec 002B     		cmp	r3, #0
 1183 01ee 00D1     		bne	.LCB1054
 1184 01f0 92E0     		b	.L64	@long jump
 1185              	.LCB1054:
ARM GAS  C:\Users\X0217454\AppData\Local\Temp\ccwJRGby.s 			page 29


 412:..\..\..\..\..\simplelink\source/wlan.c **** 		{
 413:..\..\..\..\..\simplelink\source/wlan.c **** 			sl_Memcpy(EAP_PROFILE_ANON_USER_STRING(&Msg), pSecExtParams->AnonUser, pSecExtParams->AnonUserLe
 1186              		.loc 1 413 0
 1187 01f2 3B1C     		mov	r3, r7
 1188 01f4 1833     		add	r3, r3, #24
 1189 01f6 5B78     		ldrb	r3, [r3, #1]
 1190 01f8 1A1C     		mov	r2, r3
 1191 01fa 3B1C     		mov	r3, r7
 1192 01fc 1833     		add	r3, r3, #24
 1193 01fe 5B7A     		ldrb	r3, [r3, #9]
 1194 0200 D218     		add	r2, r2, r3
 1195 0202 3B1C     		mov	r3, r7
 1196 0204 1833     		add	r3, r3, #24
 1197 0206 DB7A     		ldrb	r3, [r3, #11]
 1198 0208 D318     		add	r3, r2, r3
 1199 020a 1433     		add	r3, r3, #20
 1200 020c 3A1C     		mov	r2, r7
 1201 020e 1832     		add	r2, r2, #24
 1202 0210 D118     		add	r1, r2, r3
 1203 0212 D822     		mov	r2, #216
 1204 0214 D219     		add	r2, r2, r7
 1205 0216 1368     		ldr	r3, [r2]
 1206 0218 9A68     		ldr	r2, [r3, #8]
 1207 021a D820     		mov	r0, #216
 1208 021c C019     		add	r0, r0, r7
 1209 021e 0368     		ldr	r3, [r0]
 1210 0220 1B7B     		ldrb	r3, [r3, #12]
 1211 0222 081C     		mov	r0, r1
 1212 0224 111C     		mov	r1, r2
 1213 0226 1A1C     		mov	r2, r3
 1214 0228 FFF7FEFF 		bl	memcpy
 414:..\..\..\..\..\simplelink\source/wlan.c **** 			CmdCtrl.TxDescLen += pSecExtParams->AnonUserLen;
 1215              		.loc 1 414 0
 1216 022c 3B1C     		mov	r3, r7
 1217 022e 1433     		add	r3, r3, #20
 1218 0230 9A78     		ldrb	r2, [r3, #2]
 1219 0232 D821     		mov	r1, #216
 1220 0234 C919     		add	r1, r1, r7
 1221 0236 0B68     		ldr	r3, [r1]
 1222 0238 1B7B     		ldrb	r3, [r3, #12]
 1223 023a D318     		add	r3, r2, r3
 1224 023c DAB2     		uxtb	r2, r3
 1225 023e 3B1C     		mov	r3, r7
 1226 0240 1433     		add	r3, r3, #20
 1227 0242 9A70     		strb	r2, [r3, #2]
 1228 0244 68E0     		b	.L64
 1229              	.L49:
 415:..\..\..\..\..\simplelink\source/wlan.c **** 		}
 416:..\..\..\..\..\simplelink\source/wlan.c **** 
 417:..\..\..\..\..\simplelink\source/wlan.c **** 	}
 418:..\..\..\..\..\simplelink\source/wlan.c **** 	/* Regular or open security profile */
 419:..\..\..\..\..\simplelink\source/wlan.c **** 	else
 420:..\..\..\..\..\simplelink\source/wlan.c **** 	{
 421:..\..\..\..\..\simplelink\source/wlan.c **** 		/* Update command opcode */
 422:..\..\..\..\..\simplelink\source/wlan.c **** 		CmdCtrl.Opcode = SL_OPCODE_WLAN_PROFILEADDCOMMAND;
 1230              		.loc 1 422 0
 1231 0246 3B1C     		mov	r3, r7
ARM GAS  C:\Users\X0217454\AppData\Local\Temp\ccwJRGby.s 			page 30


 1232 0248 1433     		add	r3, r3, #20
 1233 024a 4F4A     		ldr	r2, .L74+8
 1234 024c 1A80     		strh	r2, [r3]
 423:..\..\..\..\..\simplelink\source/wlan.c **** 		/* update commnad length */
 424:..\..\..\..\..\simplelink\source/wlan.c **** 		CmdCtrl.TxDescLen += sizeof(_WlanAddGetProfile_t);
 1235              		.loc 1 424 0
 1236 024e 3B1C     		mov	r3, r7
 1237 0250 1433     		add	r3, r3, #20
 1238 0252 9B78     		ldrb	r3, [r3, #2]
 1239 0254 0B33     		add	r3, r3, #11
 1240 0256 DAB2     		uxtb	r2, r3
 1241 0258 3B1C     		mov	r3, r7
 1242 025a 1433     		add	r3, r3, #20
 1243 025c 9A70     		strb	r2, [r3, #2]
 425:..\..\..\..\..\simplelink\source/wlan.c **** 
 426:..\..\..\..\..\simplelink\source/wlan.c **** 		if (NULL != pName)
 1244              		.loc 1 426 0
 1245 025e FB68     		ldr	r3, [r7, #12]
 1246 0260 002B     		cmp	r3, #0
 1247 0262 14D0     		beq	.L65
 427:..\..\..\..\..\simplelink\source/wlan.c **** 		{
 428:..\..\..\..\..\simplelink\source/wlan.c **** 			/* copy SSID */
 429:..\..\..\..\..\simplelink\source/wlan.c ****             memcpy(PROFILE_SSID_STRING(&Msg), pName, NameLen);
 1248              		.loc 1 429 0
 1249 0264 BB68     		ldr	r3, [r7, #8]
 1250 0266 3A1C     		mov	r2, r7
 1251 0268 1832     		add	r2, r2, #24
 1252 026a 111C     		mov	r1, r2
 1253 026c 0B31     		add	r1, r1, #11
 1254 026e FA68     		ldr	r2, [r7, #12]
 1255 0270 081C     		mov	r0, r1
 1256 0272 111C     		mov	r1, r2
 1257 0274 1A1C     		mov	r2, r3
 1258 0276 FFF7FEFF 		bl	memcpy
 430:..\..\..\..\..\simplelink\source/wlan.c **** 			CmdCtrl.TxDescLen += NameLen;
 1259              		.loc 1 430 0
 1260 027a 3B1C     		mov	r3, r7
 1261 027c 1433     		add	r3, r3, #20
 1262 027e 9A78     		ldrb	r2, [r3, #2]
 1263 0280 BB68     		ldr	r3, [r7, #8]
 1264 0282 DBB2     		uxtb	r3, r3
 1265 0284 D318     		add	r3, r2, r3
 1266 0286 DAB2     		uxtb	r2, r3
 1267 0288 3B1C     		mov	r3, r7
 1268 028a 1433     		add	r3, r3, #20
 1269 028c 9A70     		strb	r2, [r3, #2]
 1270              	.L65:
 431:..\..\..\..\..\simplelink\source/wlan.c **** 		}
 432:..\..\..\..\..\simplelink\source/wlan.c **** 
 433:..\..\..\..\..\simplelink\source/wlan.c **** 		/* Copy password if supplied */
 434:..\..\..\..\..\simplelink\source/wlan.c **** 		if( NULL != pSecParams )
 1271              		.loc 1 434 0
 1272 028e 3B68     		ldr	r3, [r7]
 1273 0290 002B     		cmp	r3, #0
 1274 0292 39D0     		beq	.L66
 435:..\..\..\..\..\simplelink\source/wlan.c **** 		{
 436:..\..\..\..\..\simplelink\source/wlan.c **** 			/* update security type */
ARM GAS  C:\Users\X0217454\AppData\Local\Temp\ccwJRGby.s 			page 31


 437:..\..\..\..\..\simplelink\source/wlan.c **** 			Msg.Cmd.Args.Common.SecType = pSecParams->Type;
 1275              		.loc 1 437 0
 1276 0294 3B68     		ldr	r3, [r7]
 1277 0296 1B78     		ldrb	r3, [r3]
 1278 0298 DAB2     		uxtb	r2, r3
 1279 029a 3B1C     		mov	r3, r7
 1280 029c 1833     		add	r3, r3, #24
 1281 029e 1A70     		strb	r2, [r3]
 438:..\..\..\..\..\simplelink\source/wlan.c **** 
 439:..\..\..\..\..\simplelink\source/wlan.c **** 			if( SL_SEC_TYPE_WEP == Msg.Cmd.Args.Common.SecType )
 1282              		.loc 1 439 0
 1283 02a0 3B1C     		mov	r3, r7
 1284 02a2 1833     		add	r3, r3, #24
 1285 02a4 1B78     		ldrb	r3, [r3]
 1286 02a6 5BB2     		sxtb	r3, r3
 1287 02a8 012B     		cmp	r3, #1
 1288 02aa 03D1     		bne	.L67
 440:..\..\..\..\..\simplelink\source/wlan.c **** 			{
 441:..\..\..\..\..\simplelink\source/wlan.c **** 				 Msg.Cmd.Args.Common.WepKeyId = 0;
 1289              		.loc 1 441 0
 1290 02ac 3B1C     		mov	r3, r7
 1291 02ae 1833     		add	r3, r3, #24
 1292 02b0 0022     		mov	r2, #0
 1293 02b2 9A72     		strb	r2, [r3, #10]
 1294              	.L67:
 442:..\..\..\..\..\simplelink\source/wlan.c **** 			}
 443:..\..\..\..\..\simplelink\source/wlan.c **** 
 444:..\..\..\..\..\simplelink\source/wlan.c **** 			/* verify key length */
 445:..\..\..\..\..\simplelink\source/wlan.c **** 			if (pSecParams->KeyLen > MAX_KEY_LEN)
 1295              		.loc 1 445 0
 1296 02b4 3B68     		ldr	r3, [r7]
 1297 02b6 1B7A     		ldrb	r3, [r3, #8]
 1298 02b8 3F2B     		cmp	r3, #63
 1299 02ba 01D9     		bls	.L68
 446:..\..\..\..\..\simplelink\source/wlan.c **** 			{
 447:..\..\..\..\..\simplelink\source/wlan.c **** 				return SL_INVALPARAM;
 1300              		.loc 1 447 0
 1301 02bc 314B     		ldr	r3, .L74+4
 1302 02be 5AE0     		b	.L73
 1303              	.L68:
 448:..\..\..\..\..\simplelink\source/wlan.c **** 			}
 449:..\..\..\..\..\simplelink\source/wlan.c **** 			/* update key length */
 450:..\..\..\..\..\simplelink\source/wlan.c **** 			Msg.Cmd.Args.Common.PasswordLen = pSecParams->KeyLen;
 1304              		.loc 1 450 0
 1305 02c0 3B68     		ldr	r3, [r7]
 1306 02c2 1A7A     		ldrb	r2, [r3, #8]
 1307 02c4 3B1C     		mov	r3, r7
 1308 02c6 1833     		add	r3, r3, #24
 1309 02c8 5A72     		strb	r2, [r3, #9]
 451:..\..\..\..\..\simplelink\source/wlan.c **** 			CmdCtrl.TxDescLen += pSecParams->KeyLen;
 1310              		.loc 1 451 0
 1311 02ca 3B1C     		mov	r3, r7
 1312 02cc 1433     		add	r3, r3, #20
 1313 02ce 9A78     		ldrb	r2, [r3, #2]
 1314 02d0 3B68     		ldr	r3, [r7]
 1315 02d2 1B7A     		ldrb	r3, [r3, #8]
 1316 02d4 D318     		add	r3, r2, r3
ARM GAS  C:\Users\X0217454\AppData\Local\Temp\ccwJRGby.s 			page 32


 1317 02d6 DAB2     		uxtb	r2, r3
 1318 02d8 3B1C     		mov	r3, r7
 1319 02da 1433     		add	r3, r3, #20
 1320 02dc 9A70     		strb	r2, [r3, #2]
 452:..\..\..\..\..\simplelink\source/wlan.c ****             /* copy key (could be no key in case of WPS pin) */
 453:..\..\..\..\..\simplelink\source/wlan.c ****                         if( NULL != pSecParams->Key )
 1321              		.loc 1 453 0
 1322 02de 3B68     		ldr	r3, [r7]
 1323 02e0 5B68     		ldr	r3, [r3, #4]
 1324 02e2 002B     		cmp	r3, #0
 1325 02e4 18D0     		beq	.L64
 454:..\..\..\..\..\simplelink\source/wlan.c ****                         {
 455:..\..\..\..\..\simplelink\source/wlan.c **** 			sl_Memcpy(PROFILE_PASSWORD_STRING(&Msg), pSecParams->Key, pSecParams->KeyLen);
 1326              		.loc 1 455 0
 1327 02e6 3B1C     		mov	r3, r7
 1328 02e8 1833     		add	r3, r3, #24
 1329 02ea 5B78     		ldrb	r3, [r3, #1]
 1330 02ec 0B33     		add	r3, r3, #11
 1331 02ee 3A1C     		mov	r2, r7
 1332 02f0 1832     		add	r2, r2, #24
 1333 02f2 D118     		add	r1, r2, r3
 1334 02f4 3B68     		ldr	r3, [r7]
 1335 02f6 5A68     		ldr	r2, [r3, #4]
 1336 02f8 3B68     		ldr	r3, [r7]
 1337 02fa 1B7A     		ldrb	r3, [r3, #8]
 1338 02fc 081C     		mov	r0, r1
 1339 02fe 111C     		mov	r1, r2
 1340 0300 1A1C     		mov	r2, r3
 1341 0302 FFF7FEFF 		bl	memcpy
 1342 0306 07E0     		b	.L64
 1343              	.L66:
 456:..\..\..\..\..\simplelink\source/wlan.c **** 		}
 457:..\..\..\..\..\simplelink\source/wlan.c **** 		}
 458:..\..\..\..\..\simplelink\source/wlan.c **** 		else
 459:..\..\..\..\..\simplelink\source/wlan.c **** 		{
 460:..\..\..\..\..\simplelink\source/wlan.c **** 			Msg.Cmd.Args.Common.SecType = SL_SEC_TYPE_OPEN;
 1344              		.loc 1 460 0
 1345 0308 3B1C     		mov	r3, r7
 1346 030a 1833     		add	r3, r3, #24
 1347 030c 0022     		mov	r2, #0
 1348 030e 1A70     		strb	r2, [r3]
 461:..\..\..\..\..\simplelink\source/wlan.c **** 			Msg.Cmd.Args.Common.PasswordLen = 0;
 1349              		.loc 1 461 0
 1350 0310 3B1C     		mov	r3, r7
 1351 0312 1833     		add	r3, r3, #24
 1352 0314 0022     		mov	r2, #0
 1353 0316 5A72     		strb	r2, [r3, #9]
 1354              	.L64:
 462:..\..\..\..\..\simplelink\source/wlan.c **** 		}
 463:..\..\..\..\..\simplelink\source/wlan.c **** 
 464:..\..\..\..\..\simplelink\source/wlan.c **** 	}
 465:..\..\..\..\..\simplelink\source/wlan.c **** 
 466:..\..\..\..\..\simplelink\source/wlan.c **** 
 467:..\..\..\..\..\simplelink\source/wlan.c **** 	/* If BSSID is not null, copy to buffer, otherwise set to 0  */
 468:..\..\..\..\..\simplelink\source/wlan.c **** 	if(NULL != pMacAddr)
 1355              		.loc 1 468 0
 1356 0318 7B68     		ldr	r3, [r7, #4]
ARM GAS  C:\Users\X0217454\AppData\Local\Temp\ccwJRGby.s 			page 33


 1357 031a 002B     		cmp	r3, #0
 1358 031c 0CD0     		beq	.L69
 469:..\..\..\..\..\simplelink\source/wlan.c **** 	{
 470:..\..\..\..\..\simplelink\source/wlan.c **** 		sl_Memcpy(Msg.Cmd.Args.Common.Bssid, pMacAddr, sizeof(Msg.Cmd.Args.Common.Bssid));
 1359              		.loc 1 470 0
 1360 031e 391C     		mov	r1, r7
 1361 0320 1831     		add	r1, r1, #24
 1362 0322 0322     		mov	r2, #3
 1363 0324 7B68     		ldr	r3, [r7, #4]
 1364 0326 8918     		add	r1, r1, r2
 1365 0328 1A1C     		mov	r2, r3
 1366 032a 0623     		mov	r3, #6
 1367 032c 081C     		mov	r0, r1
 1368 032e 111C     		mov	r1, r2
 1369 0330 1A1C     		mov	r2, r3
 1370 0332 FFF7FEFF 		bl	memcpy
 1371 0336 07E0     		b	.L70
 1372              	.L69:
 471:..\..\..\..\..\simplelink\source/wlan.c **** 	}
 472:..\..\..\..\..\simplelink\source/wlan.c **** 	else
 473:..\..\..\..\..\simplelink\source/wlan.c **** 	{
 474:..\..\..\..\..\simplelink\source/wlan.c **** 		sl_Memset(Msg.Cmd.Args.Common.Bssid, 0, sizeof(Msg.Cmd.Args.Common.Bssid));
 1373              		.loc 1 474 0
 1374 0338 3B1C     		mov	r3, r7
 1375 033a 1833     		add	r3, r3, #24
 1376 033c 0333     		add	r3, r3, #3
 1377 033e 181C     		mov	r0, r3
 1378 0340 0021     		mov	r1, #0
 1379 0342 0622     		mov	r2, #6
 1380 0344 FFF7FEFF 		bl	memset
 1381              	.L70:
 1382              	.LBB5:
 475:..\..\..\..\..\simplelink\source/wlan.c **** 	}
 476:..\..\..\..\..\simplelink\source/wlan.c **** 
 477:..\..\..\..\..\simplelink\source/wlan.c **** 	VERIFY_RET_OK(_SlDrvCmdOp(&CmdCtrl, &Msg, NULL));
 1383              		.loc 1 477 0
 1384 0348 3A1C     		mov	r2, r7
 1385 034a 1432     		add	r2, r2, #20
 1386 034c 3B1C     		mov	r3, r7
 1387 034e 1833     		add	r3, r3, #24
 1388 0350 101C     		mov	r0, r2
 1389 0352 191C     		mov	r1, r3
 1390 0354 0022     		mov	r2, #0
 1391 0356 FFF7FEFF 		bl	_SlDrvCmdOp
 1392 035a 031C     		mov	r3, r0
 1393 035c CC22     		mov	r2, #204
 1394 035e D219     		add	r2, r2, r7
 1395 0360 1360     		str	r3, [r2]
 1396 0362 CC20     		mov	r0, #204
 1397 0364 C019     		add	r0, r0, r7
 1398 0366 0368     		ldr	r3, [r0]
 1399 0368 002B     		cmp	r3, #0
 1400 036a 00D0     		beq	.L71
 1401              	.L72:
 1402              		.loc 1 477 0 is_stmt 0 discriminator 1
 1403 036c FEE7     		b	.L72
 1404              	.L71:
ARM GAS  C:\Users\X0217454\AppData\Local\Temp\ccwJRGby.s 			page 34


 1405              	.LBE5:
 478:..\..\..\..\..\simplelink\source/wlan.c **** 
 479:..\..\..\..\..\simplelink\source/wlan.c ****     return (int)Msg.Rsp.status;
 1406              		.loc 1 479 0 is_stmt 1
 1407 036e 3B1C     		mov	r3, r7
 1408 0370 1833     		add	r3, r3, #24
 1409 0372 1B88     		ldrh	r3, [r3]
 1410 0374 1BB2     		sxth	r3, r3
 1411              	.L73:
 480:..\..\..\..\..\simplelink\source/wlan.c **** }
 1412              		.loc 1 480 0
 1413 0376 181C     		mov	r0, r3
 1414 0378 BD46     		mov	sp, r7
 1415 037a 34B0     		add	sp, sp, #208
 1416              		@ sp needed for prologue
 1417 037c 80BD     		pop	{r7, pc}
 1418              	.L75:
 1419 037e C046     		.align	2
 1420              	.L74:
 1421 0380 678CFFFF 		.word	-29593
 1422 0384 2DF8FFFF 		.word	-2003
 1423 0388 838CFFFF 		.word	-29565
 1424              		.cfi_endproc
 1425              	.LFE4:
 1426              		.size	sl_WlanProfileAdd, .-sl_WlanProfileAdd
 1427              		.global	_SlProfileGetCmdCtrl
 1428              		.section	.rodata
 1429              		.align	2
 1430              		.type	_SlProfileGetCmdCtrl, %object
 1431              		.size	_SlProfileGetCmdCtrl, 4
 1432              	_SlProfileGetCmdCtrl:
 1433 0008 848C     		.short	-29564
 1434 000a 04       		.byte	4
 1435 000b B4       		.byte	-76
 1436              		.section	.text.sl_WlanProfileGet,"ax",%progbits
 1437              		.align	2
 1438              		.global	sl_WlanProfileGet
 1439              		.code	16
 1440              		.thumb_func
 1441              		.type	sl_WlanProfileGet, %function
 1442              	sl_WlanProfileGet:
 1443              	.LFB5:
 481:..\..\..\..\..\simplelink\source/wlan.c **** #endif
 482:..\..\..\..\..\simplelink\source/wlan.c **** /*******************************************************************************/
 483:..\..\..\..\..\simplelink\source/wlan.c **** /*   sl_ProfileGet */
 484:..\..\..\..\..\simplelink\source/wlan.c **** /*******************************************************************************/
 485:..\..\..\..\..\simplelink\source/wlan.c **** typedef union
 486:..\..\..\..\..\simplelink\source/wlan.c **** {
 487:..\..\..\..\..\simplelink\source/wlan.c ****     _WlanProfileDelGetCommand_t Cmd;
 488:..\..\..\..\..\simplelink\source/wlan.c **** 	_SlProfileParams_t	        Rsp;
 489:..\..\..\..\..\simplelink\source/wlan.c **** }_SlProfileGetMsg_u;
 490:..\..\..\..\..\simplelink\source/wlan.c **** 
 491:..\..\..\..\..\simplelink\source/wlan.c **** const _SlCmdCtrl_t _SlProfileGetCmdCtrl =
 492:..\..\..\..\..\simplelink\source/wlan.c **** {
 493:..\..\..\..\..\simplelink\source/wlan.c ****     SL_OPCODE_WLAN_PROFILEGETCOMMAND,
 494:..\..\..\..\..\simplelink\source/wlan.c ****     sizeof(_WlanProfileDelGetCommand_t),
 495:..\..\..\..\..\simplelink\source/wlan.c ****     sizeof(_SlProfileParams_t)
ARM GAS  C:\Users\X0217454\AppData\Local\Temp\ccwJRGby.s 			page 35


 496:..\..\..\..\..\simplelink\source/wlan.c **** };
 497:..\..\..\..\..\simplelink\source/wlan.c **** #if _SL_INCLUDE_FUNC(sl_WlanProfileGet)
 498:..\..\..\..\..\simplelink\source/wlan.c **** int sl_WlanProfileGet(int Index,char* pName, int *pNameLen, unsigned char *pMacAddr, SlSecParams_t*
 499:..\..\..\..\..\simplelink\source/wlan.c **** {
 1444              		.loc 1 499 0
 1445              		.cfi_startproc
 1446 0000 80B5     		push	{r7, lr}
 1447              	.LCFI14:
 1448              		.cfi_def_cfa_offset 8
 1449              		.cfi_offset 7, -8
 1450              		.cfi_offset 14, -4
 1451 0002 B2B0     		sub	sp, sp, #200
 1452              	.LCFI15:
 1453              		.cfi_def_cfa_offset 208
 1454 0004 00AF     		add	r7, sp, #0
 1455              	.LCFI16:
 1456              		.cfi_def_cfa_register 7
 1457 0006 F860     		str	r0, [r7, #12]
 1458 0008 B960     		str	r1, [r7, #8]
 1459 000a 7A60     		str	r2, [r7, #4]
 1460 000c 3B60     		str	r3, [r7]
 500:..\..\..\..\..\simplelink\source/wlan.c ****     _SlProfileGetMsg_u      Msg;
 501:..\..\..\..\..\simplelink\source/wlan.c ****     Msg.Cmd.index = (UINT8)Index;
 1461              		.loc 1 501 0
 1462 000e FB68     		ldr	r3, [r7, #12]
 1463 0010 DAB2     		uxtb	r2, r3
 1464 0012 3B1C     		mov	r3, r7
 1465 0014 1033     		add	r3, r3, #16
 1466 0016 1A70     		strb	r2, [r3]
 1467              	.LBB6:
 502:..\..\..\..\..\simplelink\source/wlan.c **** 
 503:..\..\..\..\..\simplelink\source/wlan.c ****     VERIFY_RET_OK(_SlDrvCmdOp((_SlCmdCtrl_t *)&_SlProfileGetCmdCtrl, &Msg, NULL));
 1468              		.loc 1 503 0
 1469 0018 534A     		ldr	r2, .L82
 1470 001a 3B1C     		mov	r3, r7
 1471 001c 1033     		add	r3, r3, #16
 1472 001e 101C     		mov	r0, r2
 1473 0020 191C     		mov	r1, r3
 1474 0022 0022     		mov	r2, #0
 1475 0024 FFF7FEFF 		bl	_SlDrvCmdOp
 1476 0028 031C     		mov	r3, r0
 1477 002a C421     		mov	r1, #196
 1478 002c C919     		add	r1, r1, r7
 1479 002e 0B60     		str	r3, [r1]
 1480 0030 C422     		mov	r2, #196
 1481 0032 D219     		add	r2, r2, r7
 1482 0034 1368     		ldr	r3, [r2]
 1483 0036 002B     		cmp	r3, #0
 1484 0038 00D0     		beq	.L77
 1485              	.L78:
 1486              		.loc 1 503 0 is_stmt 0 discriminator 1
 1487 003a FEE7     		b	.L78
 1488              	.L77:
 1489              	.LBE6:
 504:..\..\..\..\..\simplelink\source/wlan.c **** 
 505:..\..\..\..\..\simplelink\source/wlan.c **** 	pSecParams->Type = Msg.Rsp.Args.Common.SecType;
 1490              		.loc 1 505 0 is_stmt 1
ARM GAS  C:\Users\X0217454\AppData\Local\Temp\ccwJRGby.s 			page 36


 1491 003c 3B1C     		mov	r3, r7
 1492 003e 1033     		add	r3, r3, #16
 1493 0040 1B78     		ldrb	r3, [r3]
 1494 0042 DAB2     		uxtb	r2, r3
 1495 0044 D021     		mov	r1, #208
 1496 0046 C919     		add	r1, r1, r7
 1497 0048 0B68     		ldr	r3, [r1]
 1498 004a 1A70     		strb	r2, [r3]
 506:..\..\..\..\..\simplelink\source/wlan.c **** 	/* since password is not transferred in getprofile, password length should always be zero */
 507:..\..\..\..\..\simplelink\source/wlan.c **** 	pSecParams->KeyLen = Msg.Rsp.Args.Common.PasswordLen;
 1499              		.loc 1 507 0
 1500 004c 3B1C     		mov	r3, r7
 1501 004e 1033     		add	r3, r3, #16
 1502 0050 5A7A     		ldrb	r2, [r3, #9]
 1503 0052 D021     		mov	r1, #208
 1504 0054 C919     		add	r1, r1, r7
 1505 0056 0B68     		ldr	r3, [r1]
 1506 0058 1A72     		strb	r2, [r3, #8]
 508:..\..\..\..\..\simplelink\source/wlan.c **** 	if (NULL != pEntParams)
 1507              		.loc 1 508 0
 1508 005a D422     		mov	r2, #212
 1509 005c D219     		add	r2, r2, r7
 1510 005e 1368     		ldr	r3, [r2]
 1511 0060 002B     		cmp	r3, #0
 1512 0062 55D0     		beq	.L79
 509:..\..\..\..\..\simplelink\source/wlan.c **** 	{
 510:..\..\..\..\..\simplelink\source/wlan.c **** 	pEntParams->UserLen = Msg.Rsp.Args.UserLen;
 1513              		.loc 1 510 0
 1514 0064 3B1C     		mov	r3, r7
 1515 0066 1033     		add	r3, r3, #16
 1516 0068 D97A     		ldrb	r1, [r3, #11]
 1517 006a D423     		mov	r3, #212
 1518 006c DB19     		add	r3, r3, r7
 1519 006e 1A68     		ldr	r2, [r3]
 1520 0070 2023     		mov	r3, #32
 1521 0072 D154     		strb	r1, [r2, r3]
 511:..\..\..\..\..\simplelink\source/wlan.c **** 	    /* copy user name */
 512:..\..\..\..\..\simplelink\source/wlan.c **** 	if (pEntParams->UserLen > 0)
 1522              		.loc 1 512 0
 1523 0074 D421     		mov	r1, #212
 1524 0076 C919     		add	r1, r1, r7
 1525 0078 0A68     		ldr	r2, [r1]
 1526 007a 2023     		mov	r3, #32
 1527 007c D35C     		ldrb	r3, [r2, r3]
 1528 007e 002B     		cmp	r3, #0
 1529 0080 18D0     		beq	.L80
 513:..\..\..\..\..\simplelink\source/wlan.c **** 	{	 
 514:..\..\..\..\..\simplelink\source/wlan.c **** 		memcpy(pEntParams->User, EAP_PROFILE_USER_STRING(&Msg), pEntParams->UserLen);
 1530              		.loc 1 514 0
 1531 0082 D422     		mov	r2, #212
 1532 0084 D219     		add	r2, r2, r7
 1533 0086 1168     		ldr	r1, [r2]
 1534 0088 3B1C     		mov	r3, r7
 1535 008a 1033     		add	r3, r3, #16
 1536 008c 5B78     		ldrb	r3, [r3, #1]
 1537 008e 1A1C     		mov	r2, r3
 1538 0090 3B1C     		mov	r3, r7
ARM GAS  C:\Users\X0217454\AppData\Local\Temp\ccwJRGby.s 			page 37


 1539 0092 1033     		add	r3, r3, #16
 1540 0094 5B7A     		ldrb	r3, [r3, #9]
 1541 0096 D318     		add	r3, r2, r3
 1542 0098 1433     		add	r3, r3, #20
 1543 009a 3A1C     		mov	r2, r7
 1544 009c 1032     		add	r2, r2, #16
 1545 009e D218     		add	r2, r2, r3
 1546 00a0 D423     		mov	r3, #212
 1547 00a2 DB19     		add	r3, r3, r7
 1548 00a4 1868     		ldr	r0, [r3]
 1549 00a6 2023     		mov	r3, #32
 1550 00a8 C35C     		ldrb	r3, [r0, r3]
 1551 00aa 081C     		mov	r0, r1
 1552 00ac 111C     		mov	r1, r2
 1553 00ae 1A1C     		mov	r2, r3
 1554 00b0 FFF7FEFF 		bl	memcpy
 1555              	.L80:
 515:..\..\..\..\..\simplelink\source/wlan.c **** 	}
 516:..\..\..\..\..\simplelink\source/wlan.c **** 	pEntParams->AnonUserLen = Msg.Rsp.Args.AnonUserLen;
 1556              		.loc 1 516 0
 1557 00b4 3B1C     		mov	r3, r7
 1558 00b6 1033     		add	r3, r3, #16
 1559 00b8 197B     		ldrb	r1, [r3, #12]
 1560 00ba D423     		mov	r3, #212
 1561 00bc DB19     		add	r3, r3, r7
 1562 00be 1A68     		ldr	r2, [r3]
 1563 00c0 4123     		mov	r3, #65
 1564 00c2 D154     		strb	r1, [r2, r3]
 517:..\..\..\..\..\simplelink\source/wlan.c **** 	    /* copy anonymous user name */
 518:..\..\..\..\..\simplelink\source/wlan.c **** 	if (pEntParams->AnonUserLen > 0)
 1565              		.loc 1 518 0
 1566 00c4 D421     		mov	r1, #212
 1567 00c6 C919     		add	r1, r1, r7
 1568 00c8 0A68     		ldr	r2, [r1]
 1569 00ca 4123     		mov	r3, #65
 1570 00cc D35C     		ldrb	r3, [r2, r3]
 1571 00ce 002B     		cmp	r3, #0
 1572 00d0 1ED0     		beq	.L79
 519:..\..\..\..\..\simplelink\source/wlan.c **** 	{
 520:..\..\..\..\..\simplelink\source/wlan.c **** 		memcpy(pEntParams->AnonUser, EAP_PROFILE_ANON_USER_STRING(&Msg), pEntParams->AnonUserLen);
 1573              		.loc 1 520 0
 1574 00d2 D422     		mov	r2, #212
 1575 00d4 D219     		add	r2, r2, r7
 1576 00d6 1368     		ldr	r3, [r2]
 1577 00d8 191C     		mov	r1, r3
 1578 00da 2131     		add	r1, r1, #33
 1579 00dc 3B1C     		mov	r3, r7
 1580 00de 1033     		add	r3, r3, #16
 1581 00e0 5B78     		ldrb	r3, [r3, #1]
 1582 00e2 1A1C     		mov	r2, r3
 1583 00e4 3B1C     		mov	r3, r7
 1584 00e6 1033     		add	r3, r3, #16
 1585 00e8 5B7A     		ldrb	r3, [r3, #9]
 1586 00ea D218     		add	r2, r2, r3
 1587 00ec 3B1C     		mov	r3, r7
 1588 00ee 1033     		add	r3, r3, #16
 1589 00f0 DB7A     		ldrb	r3, [r3, #11]
ARM GAS  C:\Users\X0217454\AppData\Local\Temp\ccwJRGby.s 			page 38


 1590 00f2 D318     		add	r3, r2, r3
 1591 00f4 1433     		add	r3, r3, #20
 1592 00f6 3A1C     		mov	r2, r7
 1593 00f8 1032     		add	r2, r2, #16
 1594 00fa D218     		add	r2, r2, r3
 1595 00fc D423     		mov	r3, #212
 1596 00fe DB19     		add	r3, r3, r7
 1597 0100 1868     		ldr	r0, [r3]
 1598 0102 4123     		mov	r3, #65
 1599 0104 C35C     		ldrb	r3, [r0, r3]
 1600 0106 081C     		mov	r0, r1
 1601 0108 111C     		mov	r1, r2
 1602 010a 1A1C     		mov	r2, r3
 1603 010c FFF7FEFF 		bl	memcpy
 1604              	.L79:
 521:..\..\..\..\..\simplelink\source/wlan.c **** 	}
 522:..\..\..\..\..\simplelink\source/wlan.c ****         }
 523:..\..\..\..\..\simplelink\source/wlan.c ****      
 524:..\..\..\..\..\simplelink\source/wlan.c ****     *pNameLen  = Msg.Rsp.Args.Common.SsidLen;      
 1605              		.loc 1 524 0
 1606 0110 3B1C     		mov	r3, r7
 1607 0112 1033     		add	r3, r3, #16
 1608 0114 5B78     		ldrb	r3, [r3, #1]
 1609 0116 1A1C     		mov	r2, r3
 1610 0118 7B68     		ldr	r3, [r7, #4]
 1611 011a 1A60     		str	r2, [r3]
 525:..\..\..\..\..\simplelink\source/wlan.c ****     *pPriority = Msg.Rsp.Args.Common.Priority;       
 1612              		.loc 1 525 0
 1613 011c 3B1C     		mov	r3, r7
 1614 011e 1033     		add	r3, r3, #16
 1615 0120 9B78     		ldrb	r3, [r3, #2]
 1616 0122 1A1C     		mov	r2, r3
 1617 0124 D821     		mov	r1, #216
 1618 0126 C919     		add	r1, r1, r7
 1619 0128 0B68     		ldr	r3, [r1]
 1620 012a 1A60     		str	r2, [r3]
 526:..\..\..\..\..\simplelink\source/wlan.c **** 
 527:..\..\..\..\..\simplelink\source/wlan.c **** 	if (NULL != Msg.Rsp.Args.Common.Bssid)
 528:..\..\..\..\..\simplelink\source/wlan.c **** 	{
 529:..\..\..\..\..\simplelink\source/wlan.c **** 		memcpy(pMacAddr, Msg.Rsp.Args.Common.Bssid, sizeof(Msg.Rsp.Args.Common.Bssid));
 1621              		.loc 1 529 0
 1622 012c 3A68     		ldr	r2, [r7]
 1623 012e 3B1C     		mov	r3, r7
 1624 0130 1333     		add	r3, r3, #19
 1625 0132 111C     		mov	r1, r2
 1626 0134 1A1C     		mov	r2, r3
 1627 0136 0623     		mov	r3, #6
 1628 0138 081C     		mov	r0, r1
 1629 013a 111C     		mov	r1, r2
 1630 013c 1A1C     		mov	r2, r3
 1631 013e FFF7FEFF 		bl	memcpy
 530:..\..\..\..\..\simplelink\source/wlan.c **** 	}
 531:..\..\..\..\..\simplelink\source/wlan.c **** 
 532:..\..\..\..\..\simplelink\source/wlan.c ****     memcpy(pName, EAP_PROFILE_SSID_STRING(&Msg), *pNameLen);
 1632              		.loc 1 532 0
 1633 0142 7B68     		ldr	r3, [r7, #4]
 1634 0144 1B68     		ldr	r3, [r3]
ARM GAS  C:\Users\X0217454\AppData\Local\Temp\ccwJRGby.s 			page 39


 1635 0146 B968     		ldr	r1, [r7, #8]
 1636 0148 3A1C     		mov	r2, r7
 1637 014a 1032     		add	r2, r2, #16
 1638 014c 1432     		add	r2, r2, #20
 1639 014e 081C     		mov	r0, r1
 1640 0150 111C     		mov	r1, r2
 1641 0152 1A1C     		mov	r2, r3
 1642 0154 FFF7FEFF 		bl	memcpy
 533:..\..\..\..\..\simplelink\source/wlan.c **** 
 534:..\..\..\..\..\simplelink\source/wlan.c ****     return (int)Msg.Rsp.Args.Common.SecType;
 1643              		.loc 1 534 0
 1644 0158 3B1C     		mov	r3, r7
 1645 015a 1033     		add	r3, r3, #16
 1646 015c 1B78     		ldrb	r3, [r3]
 1647 015e 5BB2     		sxtb	r3, r3
 535:..\..\..\..\..\simplelink\source/wlan.c **** 
 536:..\..\..\..\..\simplelink\source/wlan.c **** }
 1648              		.loc 1 536 0
 1649 0160 181C     		mov	r0, r3
 1650 0162 BD46     		mov	sp, r7
 1651 0164 32B0     		add	sp, sp, #200
 1652              		@ sp needed for prologue
 1653 0166 80BD     		pop	{r7, pc}
 1654              	.L83:
 1655              		.align	2
 1656              	.L82:
 1657 0168 00000000 		.word	_SlProfileGetCmdCtrl
 1658              		.cfi_endproc
 1659              	.LFE5:
 1660              		.size	sl_WlanProfileGet, .-sl_WlanProfileGet
 1661              		.global	_SlProfileDelCmdCtrl
 1662              		.section	.rodata
 1663              		.align	2
 1664              		.type	_SlProfileDelCmdCtrl, %object
 1665              		.size	_SlProfileDelCmdCtrl, 4
 1666              	_SlProfileDelCmdCtrl:
 1667 000c 858C     		.short	-29563
 1668 000e 04       		.byte	4
 1669 000f 04       		.byte	4
 1670              		.section	.text.sl_WlanProfileDel,"ax",%progbits
 1671              		.align	2
 1672              		.global	sl_WlanProfileDel
 1673              		.code	16
 1674              		.thumb_func
 1675              		.type	sl_WlanProfileDel, %function
 1676              	sl_WlanProfileDel:
 1677              	.LFB6:
 537:..\..\..\..\..\simplelink\source/wlan.c **** #endif
 538:..\..\..\..\..\simplelink\source/wlan.c **** /*******************************************************************************/
 539:..\..\..\..\..\simplelink\source/wlan.c **** /*   sl_ProfileDel  */
 540:..\..\..\..\..\simplelink\source/wlan.c **** /*******************************************************************************/
 541:..\..\..\..\..\simplelink\source/wlan.c **** typedef union
 542:..\..\..\..\..\simplelink\source/wlan.c **** {
 543:..\..\..\..\..\simplelink\source/wlan.c **** 	_WlanProfileDelGetCommand_t	    Cmd;
 544:..\..\..\..\..\simplelink\source/wlan.c **** 	_BasicResponse_t	            Rsp;
 545:..\..\..\..\..\simplelink\source/wlan.c **** }_SlProfileDelMsg_u;
 546:..\..\..\..\..\simplelink\source/wlan.c **** 
ARM GAS  C:\Users\X0217454\AppData\Local\Temp\ccwJRGby.s 			page 40


 547:..\..\..\..\..\simplelink\source/wlan.c **** const _SlCmdCtrl_t _SlProfileDelCmdCtrl =
 548:..\..\..\..\..\simplelink\source/wlan.c **** {
 549:..\..\..\..\..\simplelink\source/wlan.c ****     SL_OPCODE_WLAN_PROFILEDELCOMMAND,
 550:..\..\..\..\..\simplelink\source/wlan.c ****     sizeof(_WlanProfileDelGetCommand_t),
 551:..\..\..\..\..\simplelink\source/wlan.c ****     sizeof(_BasicResponse_t)
 552:..\..\..\..\..\simplelink\source/wlan.c **** };
 553:..\..\..\..\..\simplelink\source/wlan.c **** 
 554:..\..\..\..\..\simplelink\source/wlan.c **** #if _SL_INCLUDE_FUNC(sl_WlanProfileDel)
 555:..\..\..\..\..\simplelink\source/wlan.c **** int sl_WlanProfileDel(int Index)
 556:..\..\..\..\..\simplelink\source/wlan.c **** {
 1678              		.loc 1 556 0
 1679              		.cfi_startproc
 1680 0000 80B5     		push	{r7, lr}
 1681              	.LCFI17:
 1682              		.cfi_def_cfa_offset 8
 1683              		.cfi_offset 7, -8
 1684              		.cfi_offset 14, -4
 1685 0002 84B0     		sub	sp, sp, #16
 1686              	.LCFI18:
 1687              		.cfi_def_cfa_offset 24
 1688 0004 00AF     		add	r7, sp, #0
 1689              	.LCFI19:
 1690              		.cfi_def_cfa_register 7
 1691 0006 7860     		str	r0, [r7, #4]
 557:..\..\..\..\..\simplelink\source/wlan.c ****     _SlProfileDelMsg_u Msg;
 558:..\..\..\..\..\simplelink\source/wlan.c **** 
 559:..\..\..\..\..\simplelink\source/wlan.c ****     Msg.Cmd.index = (UINT8)Index;
 1692              		.loc 1 559 0
 1693 0008 7B68     		ldr	r3, [r7, #4]
 1694 000a DAB2     		uxtb	r2, r3
 1695 000c 3B1C     		mov	r3, r7
 1696 000e 0833     		add	r3, r3, #8
 1697 0010 1A70     		strb	r2, [r3]
 1698              	.LBB7:
 560:..\..\..\..\..\simplelink\source/wlan.c **** 
 561:..\..\..\..\..\simplelink\source/wlan.c ****     VERIFY_RET_OK(_SlDrvCmdOp((_SlCmdCtrl_t *)&_SlProfileDelCmdCtrl, &Msg, NULL));
 1699              		.loc 1 561 0
 1700 0012 0B4A     		ldr	r2, .L88
 1701 0014 3B1C     		mov	r3, r7
 1702 0016 0833     		add	r3, r3, #8
 1703 0018 101C     		mov	r0, r2
 1704 001a 191C     		mov	r1, r3
 1705 001c 0022     		mov	r2, #0
 1706 001e FFF7FEFF 		bl	_SlDrvCmdOp
 1707 0022 031C     		mov	r3, r0
 1708 0024 FB60     		str	r3, [r7, #12]
 1709 0026 FB68     		ldr	r3, [r7, #12]
 1710 0028 002B     		cmp	r3, #0
 1711 002a 00D0     		beq	.L85
 1712              	.L86:
 1713              		.loc 1 561 0 is_stmt 0 discriminator 1
 1714 002c FEE7     		b	.L86
 1715              	.L85:
 1716              	.LBE7:
 562:..\..\..\..\..\simplelink\source/wlan.c **** 
 563:..\..\..\..\..\simplelink\source/wlan.c ****     return (int)Msg.Rsp.status;
 1717              		.loc 1 563 0 is_stmt 1
ARM GAS  C:\Users\X0217454\AppData\Local\Temp\ccwJRGby.s 			page 41


 1718 002e 3B1C     		mov	r3, r7
 1719 0030 0833     		add	r3, r3, #8
 1720 0032 1B88     		ldrh	r3, [r3]
 1721 0034 1BB2     		sxth	r3, r3
 564:..\..\..\..\..\simplelink\source/wlan.c **** }
 1722              		.loc 1 564 0
 1723 0036 181C     		mov	r0, r3
 1724 0038 BD46     		mov	sp, r7
 1725 003a 04B0     		add	sp, sp, #16
 1726              		@ sp needed for prologue
 1727 003c 80BD     		pop	{r7, pc}
 1728              	.L89:
 1729 003e C046     		.align	2
 1730              	.L88:
 1731 0040 00000000 		.word	_SlProfileDelCmdCtrl
 1732              		.cfi_endproc
 1733              	.LFE6:
 1734              		.size	sl_WlanProfileDel, .-sl_WlanProfileDel
 1735              		.global	_SlWlanGetNetworkListCtrl
 1736              		.section	.rodata
 1737              		.align	2
 1738              		.type	_SlWlanGetNetworkListCtrl, %object
 1739              		.size	_SlWlanGetNetworkListCtrl, 4
 1740              	_SlWlanGetNetworkListCtrl:
 1741 0010 8C8C     		.short	-29556
 1742 0012 04       		.byte	4
 1743 0013 04       		.byte	4
 1744              		.section	.text.sl_WlanGetNetworkList,"ax",%progbits
 1745              		.align	2
 1746              		.global	sl_WlanGetNetworkList
 1747              		.code	16
 1748              		.thumb_func
 1749              		.type	sl_WlanGetNetworkList, %function
 1750              	sl_WlanGetNetworkList:
 1751              	.LFB7:
 565:..\..\..\..\..\simplelink\source/wlan.c **** #endif
 566:..\..\..\..\..\simplelink\source/wlan.c **** 
 567:..\..\..\..\..\simplelink\source/wlan.c **** 
 568:..\..\..\..\..\simplelink\source/wlan.c **** /******************************************************************************/
 569:..\..\..\..\..\simplelink\source/wlan.c **** /*  sl_WlanGetNetworkList  */
 570:..\..\..\..\..\simplelink\source/wlan.c **** /******************************************************************************/
 571:..\..\..\..\..\simplelink\source/wlan.c **** typedef union
 572:..\..\..\..\..\simplelink\source/wlan.c **** {
 573:..\..\..\..\..\simplelink\source/wlan.c **** 	_WlanGetNetworkListCommand_t    Cmd;
 574:..\..\..\..\..\simplelink\source/wlan.c **** 	_WlanGetNetworkListResponse_t   Rsp;
 575:..\..\..\..\..\simplelink\source/wlan.c **** }_SlWlanGetNetworkListMsg_u;
 576:..\..\..\..\..\simplelink\source/wlan.c **** 
 577:..\..\..\..\..\simplelink\source/wlan.c **** const _SlCmdCtrl_t _SlWlanGetNetworkListCtrl =
 578:..\..\..\..\..\simplelink\source/wlan.c **** {
 579:..\..\..\..\..\simplelink\source/wlan.c ****     SL_OPCODE_WLAN_SCANRESULTSGETCOMMAND,
 580:..\..\..\..\..\simplelink\source/wlan.c ****     sizeof(_WlanGetNetworkListCommand_t),
 581:..\..\..\..\..\simplelink\source/wlan.c ****     sizeof(_WlanGetNetworkListResponse_t)
 582:..\..\..\..\..\simplelink\source/wlan.c **** };
 583:..\..\..\..\..\simplelink\source/wlan.c **** 
 584:..\..\..\..\..\simplelink\source/wlan.c **** 
 585:..\..\..\..\..\simplelink\source/wlan.c **** #if _SL_INCLUDE_FUNC(sl_WlanGetNetworkList)
 586:..\..\..\..\..\simplelink\source/wlan.c **** int sl_WlanGetNetworkList(unsigned char Index, unsigned char Count, Sl_WlanNetworkEntry_t *pEntries
ARM GAS  C:\Users\X0217454\AppData\Local\Temp\ccwJRGby.s 			page 42


 587:..\..\..\..\..\simplelink\source/wlan.c **** {
 1752              		.loc 1 587 0
 1753              		.cfi_startproc
 1754 0000 80B5     		push	{r7, lr}
 1755              	.LCFI20:
 1756              		.cfi_def_cfa_offset 8
 1757              		.cfi_offset 7, -8
 1758              		.cfi_offset 14, -4
 1759 0002 8AB0     		sub	sp, sp, #40
 1760              	.LCFI21:
 1761              		.cfi_def_cfa_offset 48
 1762 0004 00AF     		add	r7, sp, #0
 1763              	.LCFI22:
 1764              		.cfi_def_cfa_register 7
 1765 0006 3A60     		str	r2, [r7]
 1766 0008 FB1D     		add	r3, r7, #7
 1767 000a 021C     		add	r2, r0, #0
 1768 000c 1A70     		strb	r2, [r3]
 1769 000e BB1D     		add	r3, r7, #6
 1770 0010 0A1C     		add	r2, r1, #0
 1771 0012 1A70     		strb	r2, [r3]
 588:..\..\..\..\..\simplelink\source/wlan.c ****     int retVal = 0;
 1772              		.loc 1 588 0
 1773 0014 0023     		mov	r3, #0
 1774 0016 7B62     		str	r3, [r7, #36]
 589:..\..\..\..\..\simplelink\source/wlan.c ****     _SlWlanGetNetworkListMsg_u Msg;
 590:..\..\..\..\..\simplelink\source/wlan.c ****     _SlCmdExt_t    CmdExt;
 591:..\..\..\..\..\simplelink\source/wlan.c **** 
 592:..\..\..\..\..\simplelink\source/wlan.c **** 	if (Count == 0)
 1775              		.loc 1 592 0
 1776 0018 BB1D     		add	r3, r7, #6
 1777 001a 1B78     		ldrb	r3, [r3]
 1778 001c 002B     		cmp	r3, #0
 1779 001e 01D1     		bne	.L91
 593:..\..\..\..\..\simplelink\source/wlan.c **** 	{
 594:..\..\..\..\..\simplelink\source/wlan.c **** 		return SL_EZEROLEN;
 1780              		.loc 1 594 0
 1781 0020 1D4B     		ldr	r3, .L96
 1782 0022 34E0     		b	.L95
 1783              	.L91:
 595:..\..\..\..\..\simplelink\source/wlan.c **** 	}
 596:..\..\..\..\..\simplelink\source/wlan.c ****     CmdExt.TxPayloadLen = 0;
 1784              		.loc 1 596 0
 1785 0024 3B1C     		mov	r3, r7
 1786 0026 0C33     		add	r3, r3, #12
 1787 0028 0022     		mov	r2, #0
 1788 002a 1A80     		strh	r2, [r3]
 597:..\..\..\..\..\simplelink\source/wlan.c ****     CmdExt.RxPayloadLen = sizeof(Sl_WlanNetworkEntry_t)*(Count);
 1789              		.loc 1 597 0
 1790 002c BB1D     		add	r3, r7, #6
 1791 002e 1B78     		ldrb	r3, [r3]
 1792 0030 9BB2     		uxth	r3, r3
 1793 0032 2C22     		mov	r2, #44
 1794 0034 5343     		mul	r3, r2
 1795 0036 9AB2     		uxth	r2, r3
 1796 0038 3B1C     		mov	r3, r7
 1797 003a 0C33     		add	r3, r3, #12
ARM GAS  C:\Users\X0217454\AppData\Local\Temp\ccwJRGby.s 			page 43


 1798 003c 5A80     		strh	r2, [r3, #2]
 598:..\..\..\..\..\simplelink\source/wlan.c ****     CmdExt.pTxPayload = NULL;
 1799              		.loc 1 598 0
 1800 003e 3B1C     		mov	r3, r7
 1801 0040 0C33     		add	r3, r3, #12
 1802 0042 0022     		mov	r2, #0
 1803 0044 9A60     		str	r2, [r3, #8]
 599:..\..\..\..\..\simplelink\source/wlan.c ****     CmdExt.pRxPayload = (UINT8 *)pEntries; 
 1804              		.loc 1 599 0
 1805 0046 3B1C     		mov	r3, r7
 1806 0048 0C33     		add	r3, r3, #12
 1807 004a 3A68     		ldr	r2, [r7]
 1808 004c DA60     		str	r2, [r3, #12]
 600:..\..\..\..\..\simplelink\source/wlan.c **** 
 601:..\..\..\..\..\simplelink\source/wlan.c ****     Msg.Cmd.index = Index;
 1809              		.loc 1 601 0
 1810 004e 3B1C     		mov	r3, r7
 1811 0050 1C33     		add	r3, r3, #28
 1812 0052 FA1D     		add	r2, r7, #7
 1813 0054 1278     		ldrb	r2, [r2]
 1814 0056 1A70     		strb	r2, [r3]
 602:..\..\..\..\..\simplelink\source/wlan.c ****     Msg.Cmd.count = Count;
 1815              		.loc 1 602 0
 1816 0058 3B1C     		mov	r3, r7
 1817 005a 1C33     		add	r3, r3, #28
 1818 005c BA1D     		add	r2, r7, #6
 1819 005e 1278     		ldrb	r2, [r2]
 1820 0060 5A70     		strb	r2, [r3, #1]
 1821              	.LBB8:
 603:..\..\..\..\..\simplelink\source/wlan.c **** 
 604:..\..\..\..\..\simplelink\source/wlan.c ****     VERIFY_RET_OK(_SlDrvCmdOp((_SlCmdCtrl_t *)&_SlWlanGetNetworkListCtrl, &Msg, &CmdExt));
 1822              		.loc 1 604 0
 1823 0062 0E49     		ldr	r1, .L96+4
 1824 0064 3A1C     		mov	r2, r7
 1825 0066 1C32     		add	r2, r2, #28
 1826 0068 3B1C     		mov	r3, r7
 1827 006a 0C33     		add	r3, r3, #12
 1828 006c 081C     		mov	r0, r1
 1829 006e 111C     		mov	r1, r2
 1830 0070 1A1C     		mov	r2, r3
 1831 0072 FFF7FEFF 		bl	_SlDrvCmdOp
 1832 0076 031C     		mov	r3, r0
 1833 0078 3B62     		str	r3, [r7, #32]
 1834 007a 3B6A     		ldr	r3, [r7, #32]
 1835 007c 002B     		cmp	r3, #0
 1836 007e 00D0     		beq	.L93
 1837              	.L94:
 1838              		.loc 1 604 0 is_stmt 0 discriminator 1
 1839 0080 FEE7     		b	.L94
 1840              	.L93:
 1841              	.LBE8:
 605:..\..\..\..\..\simplelink\source/wlan.c ****     retVal = Msg.Rsp.status;
 1842              		.loc 1 605 0 is_stmt 1
 1843 0082 3B1C     		mov	r3, r7
 1844 0084 1C33     		add	r3, r3, #28
 1845 0086 1B88     		ldrh	r3, [r3]
 1846 0088 1BB2     		sxth	r3, r3
ARM GAS  C:\Users\X0217454\AppData\Local\Temp\ccwJRGby.s 			page 44


 1847 008a 7B62     		str	r3, [r7, #36]
 606:..\..\..\..\..\simplelink\source/wlan.c **** 
 607:..\..\..\..\..\simplelink\source/wlan.c ****     return (int)retVal;
 1848              		.loc 1 607 0
 1849 008c 7B6A     		ldr	r3, [r7, #36]
 1850              	.L95:
 608:..\..\..\..\..\simplelink\source/wlan.c **** }
 1851              		.loc 1 608 0
 1852 008e 181C     		mov	r0, r3
 1853 0090 BD46     		mov	sp, r7
 1854 0092 0AB0     		add	sp, sp, #40
 1855              		@ sp needed for prologue
 1856 0094 80BD     		pop	{r7, pc}
 1857              	.L97:
 1858 0096 C046     		.align	2
 1859              	.L96:
 1860 0098 2EF8FFFF 		.word	-2002
 1861 009c 00000000 		.word	_SlWlanGetNetworkListCtrl
 1862              		.cfi_endproc
 1863              	.LFE7:
 1864              		.size	sl_WlanGetNetworkList, .-sl_WlanGetNetworkList
 1865              		.global	_SlRxFilterAddtCmdCtrl
 1866              		.section	.rodata
 1867              		.align	2
 1868              		.type	_SlRxFilterAddtCmdCtrl, %object
 1869              		.size	_SlRxFilterAddtCmdCtrl, 4
 1870              	_SlRxFilterAddtCmdCtrl:
 1871 0014 6C8C     		.short	-29588
 1872 0016 50       		.byte	80
 1873 0017 04       		.byte	4
 1874              		.global	_SlRxFilterSetCmdCtrl
 1875              		.align	2
 1876              		.type	_SlRxFilterSetCmdCtrl, %object
 1877              		.size	_SlRxFilterSetCmdCtrl, 4
 1878              	_SlRxFilterSetCmdCtrl:
 1879 0018 6D8C     		.short	-29587
 1880 001a 04       		.byte	4
 1881 001b 04       		.byte	4
 1882              		.global	_SlRxFilterGetCmdCtrl
 1883              		.align	2
 1884              		.type	_SlRxFilterGetCmdCtrl, %object
 1885              		.size	_SlRxFilterGetCmdCtrl, 4
 1886              	_SlRxFilterGetCmdCtrl:
 1887 001c 6F8C     		.short	-29585
 1888 001e 04       		.byte	4
 1889 001f 04       		.byte	4
 1890              		.section	.text.sl_WlanRxFilterAdd,"ax",%progbits
 1891              		.align	2
 1892              		.global	sl_WlanRxFilterAdd
 1893              		.code	16
 1894              		.thumb_func
 1895              		.type	sl_WlanRxFilterAdd, %function
 1896              	sl_WlanRxFilterAdd:
 1897              	.LFB8:
 609:..\..\..\..\..\simplelink\source/wlan.c **** #endif
 610:..\..\..\..\..\simplelink\source/wlan.c **** 
 611:..\..\..\..\..\simplelink\source/wlan.c **** 
ARM GAS  C:\Users\X0217454\AppData\Local\Temp\ccwJRGby.s 			page 45


 612:..\..\..\..\..\simplelink\source/wlan.c **** 
 613:..\..\..\..\..\simplelink\source/wlan.c **** 
 614:..\..\..\..\..\simplelink\source/wlan.c **** 
 615:..\..\..\..\..\simplelink\source/wlan.c **** /******************************************************************************/
 616:..\..\..\..\..\simplelink\source/wlan.c **** /*     RX filters message command response structures  */
 617:..\..\..\..\..\simplelink\source/wlan.c **** /******************************************************************************/
 618:..\..\..\..\..\simplelink\source/wlan.c **** 
 619:..\..\..\..\..\simplelink\source/wlan.c **** /* Set command */
 620:..\..\..\..\..\simplelink\source/wlan.c **** typedef union
 621:..\..\..\..\..\simplelink\source/wlan.c **** {
 622:..\..\..\..\..\simplelink\source/wlan.c **** 	_WlanRxFilterAddCommand_t	          Cmd;
 623:..\..\..\..\..\simplelink\source/wlan.c **** 	_WlanRxFilterAddCommandReponse_t      Rsp;
 624:..\..\..\..\..\simplelink\source/wlan.c **** }_SlrxFilterAddMsg_u;
 625:..\..\..\..\..\simplelink\source/wlan.c **** 
 626:..\..\..\..\..\simplelink\source/wlan.c **** const _SlCmdCtrl_t _SlRxFilterAddtCmdCtrl =
 627:..\..\..\..\..\simplelink\source/wlan.c **** {
 628:..\..\..\..\..\simplelink\source/wlan.c **** 	SL_OPCODE_WLAN_WLANRXFILTERADDCOMMAND,
 629:..\..\..\..\..\simplelink\source/wlan.c ****     sizeof(_WlanRxFilterAddCommand_t),
 630:..\..\..\..\..\simplelink\source/wlan.c ****     sizeof(_WlanRxFilterAddCommandReponse_t)
 631:..\..\..\..\..\simplelink\source/wlan.c **** };
 632:..\..\..\..\..\simplelink\source/wlan.c **** 
 633:..\..\..\..\..\simplelink\source/wlan.c **** 
 634:..\..\..\..\..\simplelink\source/wlan.c **** /* Set command */
 635:..\..\..\..\..\simplelink\source/wlan.c **** typedef union _SlRxFilterSetMsg_u
 636:..\..\..\..\..\simplelink\source/wlan.c **** {
 637:..\..\..\..\..\simplelink\source/wlan.c **** 	_WlanRxFilterSetCommand_t	            Cmd;
 638:..\..\..\..\..\simplelink\source/wlan.c **** 	_WlanRxFilterSetCommandReponse_t        Rsp;
 639:..\..\..\..\..\simplelink\source/wlan.c **** }_SlRxFilterSetMsg_u;
 640:..\..\..\..\..\simplelink\source/wlan.c **** 
 641:..\..\..\..\..\simplelink\source/wlan.c **** 
 642:..\..\..\..\..\simplelink\source/wlan.c **** const _SlCmdCtrl_t _SlRxFilterSetCmdCtrl =
 643:..\..\..\..\..\simplelink\source/wlan.c **** {
 644:..\..\..\..\..\simplelink\source/wlan.c **** 	SL_OPCODE_WLAN_WLANRXFILTERSETCOMMAND,
 645:..\..\..\..\..\simplelink\source/wlan.c ****     sizeof(_WlanRxFilterSetCommand_t),
 646:..\..\..\..\..\simplelink\source/wlan.c ****     sizeof(_WlanRxFilterSetCommandReponse_t)
 647:..\..\..\..\..\simplelink\source/wlan.c **** };
 648:..\..\..\..\..\simplelink\source/wlan.c **** 
 649:..\..\..\..\..\simplelink\source/wlan.c **** /* Get command */
 650:..\..\..\..\..\simplelink\source/wlan.c **** typedef union _SlRxFilterGetMsg_u
 651:..\..\..\..\..\simplelink\source/wlan.c **** {
 652:..\..\..\..\..\simplelink\source/wlan.c **** 	_WlanRxFilterGetCommand_t	            Cmd;
 653:..\..\..\..\..\simplelink\source/wlan.c **** 	_WlanRxFilterGetCommandReponse_t        Rsp;
 654:..\..\..\..\..\simplelink\source/wlan.c **** }_SlRxFilterGetMsg_u;
 655:..\..\..\..\..\simplelink\source/wlan.c **** 
 656:..\..\..\..\..\simplelink\source/wlan.c **** 
 657:..\..\..\..\..\simplelink\source/wlan.c **** const _SlCmdCtrl_t _SlRxFilterGetCmdCtrl =
 658:..\..\..\..\..\simplelink\source/wlan.c **** {
 659:..\..\..\..\..\simplelink\source/wlan.c **** 	SL_OPCODE_WLAN_WLANRXFILTERGETCOMMAND,
 660:..\..\..\..\..\simplelink\source/wlan.c ****     sizeof(_WlanRxFilterGetCommand_t),
 661:..\..\..\..\..\simplelink\source/wlan.c ****     sizeof(_WlanRxFilterGetCommandReponse_t)
 662:..\..\..\..\..\simplelink\source/wlan.c **** };
 663:..\..\..\..\..\simplelink\source/wlan.c **** 
 664:..\..\..\..\..\simplelink\source/wlan.c **** 
 665:..\..\..\..\..\simplelink\source/wlan.c **** /*******************************************************************************/
 666:..\..\..\..\..\simplelink\source/wlan.c **** /*     RX filters  */
 667:..\..\..\..\..\simplelink\source/wlan.c **** /*******************************************************************************/
 668:..\..\..\..\..\simplelink\source/wlan.c **** 
ARM GAS  C:\Users\X0217454\AppData\Local\Temp\ccwJRGby.s 			page 46


 669:..\..\..\..\..\simplelink\source/wlan.c **** #if _SL_INCLUDE_FUNC(sl_WlanRxFilterAdd)
 670:..\..\..\..\..\simplelink\source/wlan.c **** SlrxFilterID_t sl_WlanRxFilterAdd(	SlrxFilterRuleType_t 				RuleType,
 671:..\..\..\..\..\simplelink\source/wlan.c **** 									SlrxFilterFlags_t 					FilterFlags,
 672:..\..\..\..\..\simplelink\source/wlan.c **** 									const SlrxFilterRule_t* const 		Rule,
 673:..\..\..\..\..\simplelink\source/wlan.c **** 									const SlrxFilterTrigger_t* const 	Trigger,
 674:..\..\..\..\..\simplelink\source/wlan.c **** 									const SlrxFilterAction_t* const 	Action,
 675:..\..\..\..\..\simplelink\source/wlan.c **** 									SlrxFilterID_t*                     pFilterId)
 676:..\..\..\..\..\simplelink\source/wlan.c **** 
 677:..\..\..\..\..\simplelink\source/wlan.c **** {
 1898              		.loc 1 677 0
 1899              		.cfi_startproc
 1900 0000 90B5     		push	{r4, r7, lr}
 1901              	.LCFI23:
 1902              		.cfi_def_cfa_offset 12
 1903              		.cfi_offset 4, -12
 1904              		.cfi_offset 7, -8
 1905              		.cfi_offset 14, -4
 1906 0002 9BB0     		sub	sp, sp, #108
 1907              	.LCFI24:
 1908              		.cfi_def_cfa_offset 120
 1909 0004 00AF     		add	r7, sp, #0
 1910              	.LCFI25:
 1911              		.cfi_def_cfa_register 7
 1912 0006 3C1C     		mov	r4, r7
 1913 0008 0C34     		add	r4, r4, #12
 1914 000a 2170     		strb	r1, [r4]
 1915 000c BA60     		str	r2, [r7, #8]
 1916 000e 7B60     		str	r3, [r7, #4]
 1917 0010 3B1C     		mov	r3, r7
 1918 0012 0F33     		add	r3, r3, #15
 1919 0014 021C     		add	r2, r0, #0
 1920 0016 1A70     		strb	r2, [r3]
 678:..\..\..\..\..\simplelink\source/wlan.c **** 
 679:..\..\..\..\..\simplelink\source/wlan.c **** 
 680:..\..\..\..\..\simplelink\source/wlan.c **** 	_SlrxFilterAddMsg_u Msg;
 681:..\..\..\..\..\simplelink\source/wlan.c **** 	Msg.Cmd.RuleType = RuleType;
 1921              		.loc 1 681 0
 1922 0018 3B1C     		mov	r3, r7
 1923 001a 1433     		add	r3, r3, #20
 1924 001c 3A1C     		mov	r2, r7
 1925 001e 0F32     		add	r2, r2, #15
 1926 0020 1278     		ldrb	r2, [r2]
 1927 0022 1A70     		strb	r2, [r3]
 682:..\..\..\..\..\simplelink\source/wlan.c **** 	/* filterId is zero */
 683:..\..\..\..\..\simplelink\source/wlan.c **** 	Msg.Cmd.FilterId = 0;
 1928              		.loc 1 683 0
 1929 0024 3B1C     		mov	r3, r7
 1930 0026 1433     		add	r3, r3, #20
 1931 0028 0022     		mov	r2, #0
 1932 002a 9A70     		strb	r2, [r3, #2]
 684:..\..\..\..\..\simplelink\source/wlan.c **** 	Msg.Cmd.FilterFlags = FilterFlags;
 1933              		.loc 1 684 0
 1934 002c 3B1C     		mov	r3, r7
 1935 002e 1433     		add	r3, r3, #20
 1936 0030 3A1C     		mov	r2, r7
 1937 0032 0C32     		add	r2, r2, #12
 1938 0034 1278     		ldrb	r2, [r2]
ARM GAS  C:\Users\X0217454\AppData\Local\Temp\ccwJRGby.s 			page 47


 1939 0036 5A70     		strb	r2, [r3, #1]
 685:..\..\..\..\..\simplelink\source/wlan.c **** 	sl_Memcpy( &(Msg.Cmd.Rule), Rule, sizeof(SlrxFilterRule_t) );
 1940              		.loc 1 685 0
 1941 0038 3B1C     		mov	r3, r7
 1942 003a 1433     		add	r3, r3, #20
 1943 003c 1A1D     		add	r2, r3, #4
 1944 003e BB68     		ldr	r3, [r7, #8]
 1945 0040 101C     		mov	r0, r2
 1946 0042 191C     		mov	r1, r3
 1947 0044 3822     		mov	r2, #56
 1948 0046 FFF7FEFF 		bl	memcpy
 686:..\..\..\..\..\simplelink\source/wlan.c **** 	sl_Memcpy( &(Msg.Cmd.Trigger), Trigger, sizeof(SlrxFilterTrigger_t) );
 1949              		.loc 1 686 0
 1950 004a 3B1C     		mov	r3, r7
 1951 004c 1433     		add	r3, r3, #20
 1952 004e 1A1C     		mov	r2, r3
 1953 0050 3C32     		add	r2, r2, #60
 1954 0052 7B68     		ldr	r3, [r7, #4]
 1955 0054 101C     		mov	r0, r2
 1956 0056 191C     		mov	r1, r3
 1957 0058 0C22     		mov	r2, #12
 1958 005a FFF7FEFF 		bl	memcpy
 687:..\..\..\..\..\simplelink\source/wlan.c **** 	sl_Memcpy( &(Msg.Cmd.Action), Action, sizeof(SlrxFilterAction_t) );
 1959              		.loc 1 687 0
 1960 005e 3A1C     		mov	r2, r7
 1961 0060 5C32     		add	r2, r2, #92
 1962 0062 BB6F     		ldr	r3, [r7, #120]
 1963 0064 111C     		mov	r1, r2
 1964 0066 1A1C     		mov	r2, r3
 1965 0068 0823     		mov	r3, #8
 1966 006a 081C     		mov	r0, r1
 1967 006c 111C     		mov	r1, r2
 1968 006e 1A1C     		mov	r2, r3
 1969 0070 FFF7FEFF 		bl	memcpy
 1970              	.LBB9:
 688:..\..\..\..\..\simplelink\source/wlan.c **** 	VERIFY_RET_OK(_SlDrvCmdOp((_SlCmdCtrl_t *)&_SlRxFilterAddtCmdCtrl, &Msg, NULL) );
 1971              		.loc 1 688 0
 1972 0074 0D4A     		ldr	r2, .L102
 1973 0076 3B1C     		mov	r3, r7
 1974 0078 1433     		add	r3, r3, #20
 1975 007a 101C     		mov	r0, r2
 1976 007c 191C     		mov	r1, r3
 1977 007e 0022     		mov	r2, #0
 1978 0080 FFF7FEFF 		bl	_SlDrvCmdOp
 1979 0084 031C     		mov	r3, r0
 1980 0086 7B66     		str	r3, [r7, #100]
 1981 0088 7B6E     		ldr	r3, [r7, #100]
 1982 008a 002B     		cmp	r3, #0
 1983 008c 00D0     		beq	.L99
 1984              	.L100:
 1985              		.loc 1 688 0 is_stmt 0 discriminator 1
 1986 008e FEE7     		b	.L100
 1987              	.L99:
 1988              	.LBE9:
 689:..\..\..\..\..\simplelink\source/wlan.c **** 	*pFilterId = Msg.Rsp.FilterId;
 1989              		.loc 1 689 0 is_stmt 1
 1990 0090 3B1C     		mov	r3, r7
ARM GAS  C:\Users\X0217454\AppData\Local\Temp\ccwJRGby.s 			page 48


 1991 0092 1433     		add	r3, r3, #20
 1992 0094 1A78     		ldrb	r2, [r3]
 1993 0096 FB6F     		ldr	r3, [r7, #124]
 1994 0098 1A70     		strb	r2, [r3]
 690:..\..\..\..\..\simplelink\source/wlan.c **** 	return (int)Msg.Rsp.Status;
 1995              		.loc 1 690 0
 1996 009a 3B1C     		mov	r3, r7
 1997 009c 1433     		add	r3, r3, #20
 1998 009e 5B78     		ldrb	r3, [r3, #1]
 1999 00a0 DBB2     		uxtb	r3, r3
 2000 00a2 5BB2     		sxtb	r3, r3
 691:..\..\..\..\..\simplelink\source/wlan.c **** 
 692:..\..\..\..\..\simplelink\source/wlan.c **** }
 2001              		.loc 1 692 0
 2002 00a4 181C     		mov	r0, r3
 2003 00a6 BD46     		mov	sp, r7
 2004 00a8 1BB0     		add	sp, sp, #108
 2005              		@ sp needed for prologue
 2006 00aa 90BD     		pop	{r4, r7, pc}
 2007              	.L103:
 2008              		.align	2
 2009              	.L102:
 2010 00ac 00000000 		.word	_SlRxFilterAddtCmdCtrl
 2011              		.cfi_endproc
 2012              	.LFE8:
 2013              		.size	sl_WlanRxFilterAdd, .-sl_WlanRxFilterAdd
 2014              		.section	.text.sl_WlanRxFilterSet,"ax",%progbits
 2015              		.align	2
 2016              		.global	sl_WlanRxFilterSet
 2017              		.code	16
 2018              		.thumb_func
 2019              		.type	sl_WlanRxFilterSet, %function
 2020              	sl_WlanRxFilterSet:
 2021              	.LFB9:
 693:..\..\..\..\..\simplelink\source/wlan.c **** #endif
 694:..\..\..\..\..\simplelink\source/wlan.c **** 
 695:..\..\..\..\..\simplelink\source/wlan.c **** 
 696:..\..\..\..\..\simplelink\source/wlan.c **** 
 697:..\..\..\..\..\simplelink\source/wlan.c **** /*******************************************************************************/
 698:..\..\..\..\..\simplelink\source/wlan.c **** /*     RX filters    */
 699:..\..\..\..\..\simplelink\source/wlan.c **** /*******************************************************************************/
 700:..\..\..\..\..\simplelink\source/wlan.c **** #if _SL_INCLUDE_FUNC(sl_WlanRxFilterSet)
 701:..\..\..\..\..\simplelink\source/wlan.c **** int sl_WlanRxFilterSet(const SLrxFilterOperation_t RxFilterOperation,
 702:..\..\..\..\..\simplelink\source/wlan.c **** 		                           const unsigned char* const pInputBuffer,
 703:..\..\..\..\..\simplelink\source/wlan.c **** 		               UINT16 InputbufferLength)
 704:..\..\..\..\..\simplelink\source/wlan.c **** {
 2022              		.loc 1 704 0
 2023              		.cfi_startproc
 2024 0000 80B5     		push	{r7, lr}
 2025              	.LCFI26:
 2026              		.cfi_def_cfa_offset 8
 2027              		.cfi_offset 7, -8
 2028              		.cfi_offset 14, -4
 2029 0002 88B0     		sub	sp, sp, #32
 2030              	.LCFI27:
 2031              		.cfi_def_cfa_offset 40
 2032 0004 00AF     		add	r7, sp, #0
ARM GAS  C:\Users\X0217454\AppData\Local\Temp\ccwJRGby.s 			page 49


 2033              	.LCFI28:
 2034              		.cfi_def_cfa_register 7
 2035 0006 3960     		str	r1, [r7]
 2036 0008 FB1D     		add	r3, r7, #7
 2037 000a 011C     		add	r1, r0, #0
 2038 000c 1970     		strb	r1, [r3]
 2039 000e 3B1D     		add	r3, r7, #4
 2040 0010 1A80     		strh	r2, [r3]
 705:..\..\..\..\..\simplelink\source/wlan.c ****     _SlRxFilterSetMsg_u   Msg;
 706:..\..\..\..\..\simplelink\source/wlan.c ****     _SlCmdExt_t           CmdExt;
 707:..\..\..\..\..\simplelink\source/wlan.c **** 
 708:..\..\..\..\..\simplelink\source/wlan.c ****     CmdExt.TxPayloadLen = InputbufferLength;
 2041              		.loc 1 708 0
 2042 0012 3B1C     		mov	r3, r7
 2043 0014 0833     		add	r3, r3, #8
 2044 0016 3A1D     		add	r2, r7, #4
 2045 0018 1288     		ldrh	r2, [r2]
 2046 001a 1A80     		strh	r2, [r3]
 709:..\..\..\..\..\simplelink\source/wlan.c ****     CmdExt.pTxPayload   = (UINT8 *)pInputBuffer;
 2047              		.loc 1 709 0
 2048 001c 3B1C     		mov	r3, r7
 2049 001e 0833     		add	r3, r3, #8
 2050 0020 3A68     		ldr	r2, [r7]
 2051 0022 9A60     		str	r2, [r3, #8]
 710:..\..\..\..\..\simplelink\source/wlan.c ****     CmdExt.RxPayloadLen = 0;
 2052              		.loc 1 710 0
 2053 0024 3B1C     		mov	r3, r7
 2054 0026 0833     		add	r3, r3, #8
 2055 0028 0022     		mov	r2, #0
 2056 002a 5A80     		strh	r2, [r3, #2]
 711:..\..\..\..\..\simplelink\source/wlan.c ****     CmdExt.pRxPayload   = (UINT8 *)NULL;
 2057              		.loc 1 711 0
 2058 002c 3B1C     		mov	r3, r7
 2059 002e 0833     		add	r3, r3, #8
 2060 0030 0022     		mov	r2, #0
 2061 0032 DA60     		str	r2, [r3, #12]
 712:..\..\..\..\..\simplelink\source/wlan.c **** 
 713:..\..\..\..\..\simplelink\source/wlan.c **** 	Msg.Cmd.RxFilterOperation = RxFilterOperation;
 2062              		.loc 1 713 0
 2063 0034 3B1C     		mov	r3, r7
 2064 0036 1833     		add	r3, r3, #24
 2065 0038 FA1D     		add	r2, r7, #7
 2066 003a 1278     		ldrb	r2, [r2]
 2067 003c 9A70     		strb	r2, [r3, #2]
 714:..\..\..\..\..\simplelink\source/wlan.c **** 	Msg.Cmd.InputBufferLength = InputbufferLength;
 2068              		.loc 1 714 0
 2069 003e 3B1C     		mov	r3, r7
 2070 0040 1833     		add	r3, r3, #24
 2071 0042 3A1D     		add	r2, r7, #4
 2072 0044 1288     		ldrh	r2, [r2]
 2073 0046 1A80     		strh	r2, [r3]
 2074              	.LBB10:
 715:..\..\..\..\..\simplelink\source/wlan.c **** 
 716:..\..\..\..\..\simplelink\source/wlan.c **** 
 717:..\..\..\..\..\simplelink\source/wlan.c **** 	VERIFY_RET_OK(_SlDrvCmdOp((_SlCmdCtrl_t *)&_SlRxFilterSetCmdCtrl, &Msg, &CmdExt) );
 2075              		.loc 1 717 0
 2076 0048 0B49     		ldr	r1, .L108
ARM GAS  C:\Users\X0217454\AppData\Local\Temp\ccwJRGby.s 			page 50


 2077 004a 3A1C     		mov	r2, r7
 2078 004c 1832     		add	r2, r2, #24
 2079 004e 3B1C     		mov	r3, r7
 2080 0050 0833     		add	r3, r3, #8
 2081 0052 081C     		mov	r0, r1
 2082 0054 111C     		mov	r1, r2
 2083 0056 1A1C     		mov	r2, r3
 2084 0058 FFF7FEFF 		bl	_SlDrvCmdOp
 2085 005c 031C     		mov	r3, r0
 2086 005e FB61     		str	r3, [r7, #28]
 2087 0060 FB69     		ldr	r3, [r7, #28]
 2088 0062 002B     		cmp	r3, #0
 2089 0064 00D0     		beq	.L105
 2090              	.L106:
 2091              		.loc 1 717 0 is_stmt 0 discriminator 1
 2092 0066 FEE7     		b	.L106
 2093              	.L105:
 2094              	.LBE10:
 718:..\..\..\..\..\simplelink\source/wlan.c **** 
 719:..\..\..\..\..\simplelink\source/wlan.c **** 
 720:..\..\..\..\..\simplelink\source/wlan.c **** 	return (int)Msg.Rsp.Status;
 2095              		.loc 1 720 0 is_stmt 1
 2096 0068 3B1C     		mov	r3, r7
 2097 006a 1833     		add	r3, r3, #24
 2098 006c 1B78     		ldrb	r3, [r3]
 721:..\..\..\..\..\simplelink\source/wlan.c **** }
 2099              		.loc 1 721 0
 2100 006e 181C     		mov	r0, r3
 2101 0070 BD46     		mov	sp, r7
 2102 0072 08B0     		add	sp, sp, #32
 2103              		@ sp needed for prologue
 2104 0074 80BD     		pop	{r7, pc}
 2105              	.L109:
 2106 0076 C046     		.align	2
 2107              	.L108:
 2108 0078 00000000 		.word	_SlRxFilterSetCmdCtrl
 2109              		.cfi_endproc
 2110              	.LFE9:
 2111              		.size	sl_WlanRxFilterSet, .-sl_WlanRxFilterSet
 2112              		.section	.text.sl_WlanRxFilterGet,"ax",%progbits
 2113              		.align	2
 2114              		.global	sl_WlanRxFilterGet
 2115              		.code	16
 2116              		.thumb_func
 2117              		.type	sl_WlanRxFilterGet, %function
 2118              	sl_WlanRxFilterGet:
 2119              	.LFB10:
 722:..\..\..\..\..\simplelink\source/wlan.c **** #endif
 723:..\..\..\..\..\simplelink\source/wlan.c **** 
 724:..\..\..\..\..\simplelink\source/wlan.c **** /******************************************************************************/
 725:..\..\..\..\..\simplelink\source/wlan.c **** /*     RX filters  */
 726:..\..\..\..\..\simplelink\source/wlan.c **** /******************************************************************************/
 727:..\..\..\..\..\simplelink\source/wlan.c **** #if _SL_INCLUDE_FUNC(sl_WlanRxFilterGet)
 728:..\..\..\..\..\simplelink\source/wlan.c **** int sl_WlanRxFilterGet(const SLrxFilterOperation_t RxFilterOperation,
 729:..\..\..\..\..\simplelink\source/wlan.c **** 								 unsigned char* pOutputBuffer,
 730:..\..\..\..\..\simplelink\source/wlan.c **** 		               UINT16 OutputbufferLength)
 731:..\..\..\..\..\simplelink\source/wlan.c **** {
ARM GAS  C:\Users\X0217454\AppData\Local\Temp\ccwJRGby.s 			page 51


 2120              		.loc 1 731 0
 2121              		.cfi_startproc
 2122 0000 80B5     		push	{r7, lr}
 2123              	.LCFI29:
 2124              		.cfi_def_cfa_offset 8
 2125              		.cfi_offset 7, -8
 2126              		.cfi_offset 14, -4
 2127 0002 88B0     		sub	sp, sp, #32
 2128              	.LCFI30:
 2129              		.cfi_def_cfa_offset 40
 2130 0004 00AF     		add	r7, sp, #0
 2131              	.LCFI31:
 2132              		.cfi_def_cfa_register 7
 2133 0006 3960     		str	r1, [r7]
 2134 0008 FB1D     		add	r3, r7, #7
 2135 000a 011C     		add	r1, r0, #0
 2136 000c 1970     		strb	r1, [r3]
 2137 000e 3B1D     		add	r3, r7, #4
 2138 0010 1A80     		strh	r2, [r3]
 732:..\..\..\..\..\simplelink\source/wlan.c ****     _SlRxFilterGetMsg_u   Msg;
 733:..\..\..\..\..\simplelink\source/wlan.c ****     _SlCmdExt_t           CmdExt;
 734:..\..\..\..\..\simplelink\source/wlan.c **** 
 735:..\..\..\..\..\simplelink\source/wlan.c **** 	if (OutputbufferLength == 0)
 2139              		.loc 1 735 0
 2140 0012 3B1D     		add	r3, r7, #4
 2141 0014 1B88     		ldrh	r3, [r3]
 2142 0016 002B     		cmp	r3, #0
 2143 0018 01D1     		bne	.L111
 736:..\..\..\..\..\simplelink\source/wlan.c **** 	{
 737:..\..\..\..\..\simplelink\source/wlan.c **** 		return SL_EZEROLEN;
 2144              		.loc 1 737 0
 2145 001a 214B     		ldr	r3, .L117
 2146 001c 3BE0     		b	.L116
 2147              	.L111:
 738:..\..\..\..\..\simplelink\source/wlan.c **** 	}
 739:..\..\..\..\..\simplelink\source/wlan.c ****     CmdExt.TxPayloadLen = 0;
 2148              		.loc 1 739 0
 2149 001e 3B1C     		mov	r3, r7
 2150 0020 0833     		add	r3, r3, #8
 2151 0022 0022     		mov	r2, #0
 2152 0024 1A80     		strh	r2, [r3]
 740:..\..\..\..\..\simplelink\source/wlan.c ****     CmdExt.pTxPayload   = NULL;
 2153              		.loc 1 740 0
 2154 0026 3B1C     		mov	r3, r7
 2155 0028 0833     		add	r3, r3, #8
 2156 002a 0022     		mov	r2, #0
 2157 002c 9A60     		str	r2, [r3, #8]
 741:..\..\..\..\..\simplelink\source/wlan.c ****     CmdExt.RxPayloadLen = OutputbufferLength;
 2158              		.loc 1 741 0
 2159 002e 3B1C     		mov	r3, r7
 2160 0030 0833     		add	r3, r3, #8
 2161 0032 3A1D     		add	r2, r7, #4
 2162 0034 1288     		ldrh	r2, [r2]
 2163 0036 5A80     		strh	r2, [r3, #2]
 742:..\..\..\..\..\simplelink\source/wlan.c ****     CmdExt.pRxPayload   = (UINT8 *)pOutputBuffer;
 2164              		.loc 1 742 0
 2165 0038 3B1C     		mov	r3, r7
ARM GAS  C:\Users\X0217454\AppData\Local\Temp\ccwJRGby.s 			page 52


 2166 003a 0833     		add	r3, r3, #8
 2167 003c 3A68     		ldr	r2, [r7]
 2168 003e DA60     		str	r2, [r3, #12]
 743:..\..\..\..\..\simplelink\source/wlan.c **** 	CmdExt.ActualRxPayloadLen = 0;
 2169              		.loc 1 743 0
 2170 0040 3B1C     		mov	r3, r7
 2171 0042 0833     		add	r3, r3, #8
 2172 0044 0022     		mov	r2, #0
 2173 0046 9A80     		strh	r2, [r3, #4]
 744:..\..\..\..\..\simplelink\source/wlan.c **** 
 745:..\..\..\..\..\simplelink\source/wlan.c **** 	Msg.Cmd.RxFilterOperation = RxFilterOperation;
 2174              		.loc 1 745 0
 2175 0048 3B1C     		mov	r3, r7
 2176 004a 1833     		add	r3, r3, #24
 2177 004c FA1D     		add	r2, r7, #7
 2178 004e 1278     		ldrb	r2, [r2]
 2179 0050 9A70     		strb	r2, [r3, #2]
 746:..\..\..\..\..\simplelink\source/wlan.c **** 	Msg.Cmd.OutputBufferLength = OutputbufferLength;
 2180              		.loc 1 746 0
 2181 0052 3B1C     		mov	r3, r7
 2182 0054 1833     		add	r3, r3, #24
 2183 0056 3A1D     		add	r2, r7, #4
 2184 0058 1288     		ldrh	r2, [r2]
 2185 005a 1A80     		strh	r2, [r3]
 2186              	.LBB11:
 747:..\..\..\..\..\simplelink\source/wlan.c **** 
 748:..\..\..\..\..\simplelink\source/wlan.c **** 
 749:..\..\..\..\..\simplelink\source/wlan.c **** 	VERIFY_RET_OK(_SlDrvCmdOp((_SlCmdCtrl_t *)&_SlRxFilterGetCmdCtrl, &Msg, &CmdExt) );
 2187              		.loc 1 749 0
 2188 005c 1149     		ldr	r1, .L117+4
 2189 005e 3A1C     		mov	r2, r7
 2190 0060 1832     		add	r2, r2, #24
 2191 0062 3B1C     		mov	r3, r7
 2192 0064 0833     		add	r3, r3, #8
 2193 0066 081C     		mov	r0, r1
 2194 0068 111C     		mov	r1, r2
 2195 006a 1A1C     		mov	r2, r3
 2196 006c FFF7FEFF 		bl	_SlDrvCmdOp
 2197 0070 031C     		mov	r3, r0
 2198 0072 FB61     		str	r3, [r7, #28]
 2199 0074 FB69     		ldr	r3, [r7, #28]
 2200 0076 002B     		cmp	r3, #0
 2201 0078 00D0     		beq	.L113
 2202              	.L114:
 2203              		.loc 1 749 0 is_stmt 0 discriminator 1
 2204 007a FEE7     		b	.L114
 2205              	.L113:
 2206              	.LBE11:
 750:..\..\..\..\..\simplelink\source/wlan.c **** 
 751:..\..\..\..\..\simplelink\source/wlan.c **** 	if (CmdExt.RxPayloadLen < CmdExt.ActualRxPayloadLen) 
 2207              		.loc 1 751 0 is_stmt 1
 2208 007c 3B1C     		mov	r3, r7
 2209 007e 0833     		add	r3, r3, #8
 2210 0080 5A88     		ldrh	r2, [r3, #2]
 2211 0082 3B1C     		mov	r3, r7
 2212 0084 0833     		add	r3, r3, #8
 2213 0086 9B88     		ldrh	r3, [r3, #4]
ARM GAS  C:\Users\X0217454\AppData\Local\Temp\ccwJRGby.s 			page 53


 2214 0088 9A42     		cmp	r2, r3
 2215 008a 01D2     		bcs	.L115
 752:..\..\..\..\..\simplelink\source/wlan.c **** 	{
 753:..\..\..\..\..\simplelink\source/wlan.c **** 		return SL_ESMALLBUF;
 2216              		.loc 1 753 0
 2217 008c 064B     		ldr	r3, .L117+8
 2218 008e 02E0     		b	.L116
 2219              	.L115:
 754:..\..\..\..\..\simplelink\source/wlan.c **** 	}
 755:..\..\..\..\..\simplelink\source/wlan.c **** 
 756:..\..\..\..\..\simplelink\source/wlan.c **** 	return (int)Msg.Rsp.Status;
 2220              		.loc 1 756 0
 2221 0090 3B1C     		mov	r3, r7
 2222 0092 1833     		add	r3, r3, #24
 2223 0094 1B78     		ldrb	r3, [r3]
 2224              	.L116:
 757:..\..\..\..\..\simplelink\source/wlan.c **** }
 2225              		.loc 1 757 0
 2226 0096 181C     		mov	r0, r3
 2227 0098 BD46     		mov	sp, r7
 2228 009a 08B0     		add	sp, sp, #32
 2229              		@ sp needed for prologue
 2230 009c 80BD     		pop	{r7, pc}
 2231              	.L118:
 2232 009e C046     		.align	2
 2233              	.L117:
 2234 00a0 2EF8FFFF 		.word	-2002
 2235 00a4 00000000 		.word	_SlRxFilterGetCmdCtrl
 2236 00a8 2FF8FFFF 		.word	-2001
 2237              		.cfi_endproc
 2238              	.LFE10:
 2239              		.size	sl_WlanRxFilterGet, .-sl_WlanRxFilterGet
 2240              		.section	.text.sl_WlanRxStatStart,"ax",%progbits
 2241              		.align	2
 2242              		.global	sl_WlanRxStatStart
 2243              		.code	16
 2244              		.thumb_func
 2245              		.type	sl_WlanRxStatStart, %function
 2246              	sl_WlanRxStatStart:
 2247              	.LFB11:
 758:..\..\..\..\..\simplelink\source/wlan.c **** #endif
 759:..\..\..\..\..\simplelink\source/wlan.c **** 
 760:..\..\..\..\..\simplelink\source/wlan.c **** /*******************************************************************************/
 761:..\..\..\..\..\simplelink\source/wlan.c **** /*             sl_WlanRxStatStart                                              */
 762:..\..\..\..\..\simplelink\source/wlan.c **** /*******************************************************************************/
 763:..\..\..\..\..\simplelink\source/wlan.c **** #if _SL_INCLUDE_FUNC(sl_WlanRxStatStart)
 764:..\..\..\..\..\simplelink\source/wlan.c **** int sl_WlanRxStatStart(void)
 765:..\..\..\..\..\simplelink\source/wlan.c **** {
 2248              		.loc 1 765 0
 2249              		.cfi_startproc
 2250 0000 80B5     		push	{r7, lr}
 2251              	.LCFI32:
 2252              		.cfi_def_cfa_offset 8
 2253              		.cfi_offset 7, -8
 2254              		.cfi_offset 14, -4
 2255 0002 00AF     		add	r7, sp, #0
 2256              	.LCFI33:
ARM GAS  C:\Users\X0217454\AppData\Local\Temp\ccwJRGby.s 			page 54


 2257              		.cfi_def_cfa_register 7
 766:..\..\..\..\..\simplelink\source/wlan.c ****     return _SlDrvBasicCmd(SL_OPCODE_WLAN_STARTRXSTATCOMMAND);
 2258              		.loc 1 766 0
 2259 0004 034B     		ldr	r3, .L121
 2260 0006 181C     		mov	r0, r3
 2261 0008 FFF7FEFF 		bl	_SlDrvBasicCmd
 2262 000c 031C     		mov	r3, r0
 767:..\..\..\..\..\simplelink\source/wlan.c **** }
 2263              		.loc 1 767 0
 2264 000e 181C     		mov	r0, r3
 2265 0010 BD46     		mov	sp, r7
 2266              		@ sp needed for prologue
 2267 0012 80BD     		pop	{r7, pc}
 2268              	.L122:
 2269              		.align	2
 2270              	.L121:
 2271 0014 AC8C0000 		.word	36012
 2272              		.cfi_endproc
 2273              	.LFE11:
 2274              		.size	sl_WlanRxStatStart, .-sl_WlanRxStatStart
 2275              		.section	.text.sl_WlanRxStatStop,"ax",%progbits
 2276              		.align	2
 2277              		.global	sl_WlanRxStatStop
 2278              		.code	16
 2279              		.thumb_func
 2280              		.type	sl_WlanRxStatStop, %function
 2281              	sl_WlanRxStatStop:
 2282              	.LFB12:
 768:..\..\..\..\..\simplelink\source/wlan.c **** #endif
 769:..\..\..\..\..\simplelink\source/wlan.c **** 
 770:..\..\..\..\..\simplelink\source/wlan.c **** #if _SL_INCLUDE_FUNC(sl_WlanRxStatStop)
 771:..\..\..\..\..\simplelink\source/wlan.c **** int sl_WlanRxStatStop(void)
 772:..\..\..\..\..\simplelink\source/wlan.c **** {
 2283              		.loc 1 772 0
 2284              		.cfi_startproc
 2285 0000 80B5     		push	{r7, lr}
 2286              	.LCFI34:
 2287              		.cfi_def_cfa_offset 8
 2288              		.cfi_offset 7, -8
 2289              		.cfi_offset 14, -4
 2290 0002 00AF     		add	r7, sp, #0
 2291              	.LCFI35:
 2292              		.cfi_def_cfa_register 7
 773:..\..\..\..\..\simplelink\source/wlan.c ****     return _SlDrvBasicCmd(SL_OPCODE_WLAN_STOPRXSTATCOMMAND);
 2293              		.loc 1 773 0
 2294 0004 034B     		ldr	r3, .L125
 2295 0006 181C     		mov	r0, r3
 2296 0008 FFF7FEFF 		bl	_SlDrvBasicCmd
 2297 000c 031C     		mov	r3, r0
 774:..\..\..\..\..\simplelink\source/wlan.c **** }
 2298              		.loc 1 774 0
 2299 000e 181C     		mov	r0, r3
 2300 0010 BD46     		mov	sp, r7
 2301              		@ sp needed for prologue
 2302 0012 80BD     		pop	{r7, pc}
 2303              	.L126:
 2304              		.align	2
ARM GAS  C:\Users\X0217454\AppData\Local\Temp\ccwJRGby.s 			page 55


 2305              	.L125:
 2306 0014 AD8C0000 		.word	36013
 2307              		.cfi_endproc
 2308              	.LFE12:
 2309              		.size	sl_WlanRxStatStop, .-sl_WlanRxStatStop
 2310              		.section	.rodata
 2311              		.align	2
 2312              	.LC0:
 2313 0020 AF8C     		.short	-29521
 2314 0022 00       		.byte	0
 2315 0023 4C       		.byte	76
 2316              		.section	.text.sl_WlanRxStatGet,"ax",%progbits
 2317              		.align	2
 2318              		.global	sl_WlanRxStatGet
 2319              		.code	16
 2320              		.thumb_func
 2321              		.type	sl_WlanRxStatGet, %function
 2322              	sl_WlanRxStatGet:
 2323              	.LFB13:
 775:..\..\..\..\..\simplelink\source/wlan.c **** #endif
 776:..\..\..\..\..\simplelink\source/wlan.c **** 
 777:..\..\..\..\..\simplelink\source/wlan.c **** #if _SL_INCLUDE_FUNC(sl_WlanRxStatGet)
 778:..\..\..\..\..\simplelink\source/wlan.c **** int sl_WlanRxStatGet(SlGetRxStatResponse_t *pRxStat,unsigned long Flags)
 779:..\..\..\..\..\simplelink\source/wlan.c **** {
 2324              		.loc 1 779 0
 2325              		.cfi_startproc
 2326 0000 80B5     		push	{r7, lr}
 2327              	.LCFI36:
 2328              		.cfi_def_cfa_offset 8
 2329              		.cfi_offset 7, -8
 2330              		.cfi_offset 14, -4
 2331 0002 84B0     		sub	sp, sp, #16
 2332              	.LCFI37:
 2333              		.cfi_def_cfa_offset 24
 2334 0004 00AF     		add	r7, sp, #0
 2335              	.LCFI38:
 2336              		.cfi_def_cfa_register 7
 2337 0006 7860     		str	r0, [r7, #4]
 2338 0008 3960     		str	r1, [r7]
 780:..\..\..\..\..\simplelink\source/wlan.c ****     _SlCmdCtrl_t            CmdCtrl = {SL_OPCODE_WLAN_GETRXSTATCOMMAND, 0, sizeof(SlGetRxStatRespon
 2339              		.loc 1 780 0
 2340 000a 3A1C     		mov	r2, r7
 2341 000c 0832     		add	r2, r2, #8
 2342 000e 114B     		ldr	r3, .L131
 2343 0010 111C     		mov	r1, r2
 2344 0012 1A1C     		mov	r2, r3
 2345 0014 0423     		mov	r3, #4
 2346 0016 081C     		mov	r0, r1
 2347 0018 111C     		mov	r1, r2
 2348 001a 1A1C     		mov	r2, r3
 2349 001c FFF7FEFF 		bl	memcpy
 781:..\..\..\..\..\simplelink\source/wlan.c ****     memset(pRxStat,0,sizeof(SlGetRxStatResponse_t));
 2350              		.loc 1 781 0
 2351 0020 7B68     		ldr	r3, [r7, #4]
 2352 0022 181C     		mov	r0, r3
 2353 0024 0021     		mov	r1, #0
 2354 0026 4C22     		mov	r2, #76
ARM GAS  C:\Users\X0217454\AppData\Local\Temp\ccwJRGby.s 			page 56


 2355 0028 FFF7FEFF 		bl	memset
 2356              	.LBB12:
 782:..\..\..\..\..\simplelink\source/wlan.c ****     VERIFY_RET_OK(_SlDrvCmdOp((_SlCmdCtrl_t *)&CmdCtrl, pRxStat, NULL)); 
 2357              		.loc 1 782 0
 2358 002c 3A1C     		mov	r2, r7
 2359 002e 0832     		add	r2, r2, #8
 2360 0030 7B68     		ldr	r3, [r7, #4]
 2361 0032 101C     		mov	r0, r2
 2362 0034 191C     		mov	r1, r3
 2363 0036 0022     		mov	r2, #0
 2364 0038 FFF7FEFF 		bl	_SlDrvCmdOp
 2365 003c 031C     		mov	r3, r0
 2366 003e FB60     		str	r3, [r7, #12]
 2367 0040 FB68     		ldr	r3, [r7, #12]
 2368 0042 002B     		cmp	r3, #0
 2369 0044 00D0     		beq	.L128
 2370              	.L129:
 2371              		.loc 1 782 0 is_stmt 0 discriminator 1
 2372 0046 FEE7     		b	.L129
 2373              	.L128:
 2374              	.LBE12:
 783:..\..\..\..\..\simplelink\source/wlan.c **** 
 784:..\..\..\..\..\simplelink\source/wlan.c ****     return 0;
 2375              		.loc 1 784 0 is_stmt 1
 2376 0048 0023     		mov	r3, #0
 785:..\..\..\..\..\simplelink\source/wlan.c **** }
 2377              		.loc 1 785 0
 2378 004a 181C     		mov	r0, r3
 2379 004c BD46     		mov	sp, r7
 2380 004e 04B0     		add	sp, sp, #16
 2381              		@ sp needed for prologue
 2382 0050 80BD     		pop	{r7, pc}
 2383              	.L132:
 2384 0052 C046     		.align	2
 2385              	.L131:
 2386 0054 20000000 		.word	.LC0
 2387              		.cfi_endproc
 2388              	.LFE13:
 2389              		.size	sl_WlanRxStatGet, .-sl_WlanRxStatGet
 2390              		.section	.text.sl_WlanSmartConfigStop,"ax",%progbits
 2391              		.align	2
 2392              		.global	sl_WlanSmartConfigStop
 2393              		.code	16
 2394              		.thumb_func
 2395              		.type	sl_WlanSmartConfigStop, %function
 2396              	sl_WlanSmartConfigStop:
 2397              	.LFB14:
 786:..\..\..\..\..\simplelink\source/wlan.c **** #endif
 787:..\..\..\..\..\simplelink\source/wlan.c **** 
 788:..\..\..\..\..\simplelink\source/wlan.c **** 
 789:..\..\..\..\..\simplelink\source/wlan.c **** 
 790:..\..\..\..\..\simplelink\source/wlan.c **** /******************************************************************************/
 791:..\..\..\..\..\simplelink\source/wlan.c **** /*   sl_WlanSmartConfigStop                                                   */
 792:..\..\..\..\..\simplelink\source/wlan.c **** /******************************************************************************/
 793:..\..\..\..\..\simplelink\source/wlan.c **** #if _SL_INCLUDE_FUNC(sl_WlanSmartConfigStop)
 794:..\..\..\..\..\simplelink\source/wlan.c **** int sl_WlanSmartConfigStop(void)
 795:..\..\..\..\..\simplelink\source/wlan.c **** {
ARM GAS  C:\Users\X0217454\AppData\Local\Temp\ccwJRGby.s 			page 57


 2398              		.loc 1 795 0
 2399              		.cfi_startproc
 2400 0000 80B5     		push	{r7, lr}
 2401              	.LCFI39:
 2402              		.cfi_def_cfa_offset 8
 2403              		.cfi_offset 7, -8
 2404              		.cfi_offset 14, -4
 2405 0002 00AF     		add	r7, sp, #0
 2406              	.LCFI40:
 2407              		.cfi_def_cfa_register 7
 796:..\..\..\..\..\simplelink\source/wlan.c ****     return _SlDrvBasicCmd(SL_OPCODE_WLAN_SMART_CONFIG_STOP_COMMAND);
 2408              		.loc 1 796 0
 2409 0004 034B     		ldr	r3, .L135
 2410 0006 181C     		mov	r0, r3
 2411 0008 FFF7FEFF 		bl	_SlDrvBasicCmd
 2412 000c 031C     		mov	r3, r0
 797:..\..\..\..\..\simplelink\source/wlan.c **** }
 2413              		.loc 1 797 0
 2414 000e 181C     		mov	r0, r3
 2415 0010 BD46     		mov	sp, r7
 2416              		@ sp needed for prologue
 2417 0012 80BD     		pop	{r7, pc}
 2418              	.L136:
 2419              		.align	2
 2420              	.L135:
 2421 0014 B38C0000 		.word	36019
 2422              		.cfi_endproc
 2423              	.LFE14:
 2424              		.size	sl_WlanSmartConfigStop, .-sl_WlanSmartConfigStop
 2425              		.global	_SlSmartConfigStartCmdCtrl
 2426              		.section	.rodata
 2427              		.align	2
 2428              		.type	_SlSmartConfigStartCmdCtrl, %object
 2429              		.size	_SlSmartConfigStartCmdCtrl, 4
 2430              	_SlSmartConfigStartCmdCtrl:
 2431 0024 B28C     		.short	-29518
 2432 0026 38       		.byte	56
 2433 0027 04       		.byte	4
 2434              		.section	.text.sl_WlanSmartConfigStart,"ax",%progbits
 2435              		.align	2
 2436              		.global	sl_WlanSmartConfigStart
 2437              		.code	16
 2438              		.thumb_func
 2439              		.type	sl_WlanSmartConfigStart, %function
 2440              	sl_WlanSmartConfigStart:
 2441              	.LFB15:
 798:..\..\..\..\..\simplelink\source/wlan.c **** #endif
 799:..\..\..\..\..\simplelink\source/wlan.c **** 
 800:..\..\..\..\..\simplelink\source/wlan.c **** 
 801:..\..\..\..\..\simplelink\source/wlan.c **** /******************************************************************************/
 802:..\..\..\..\..\simplelink\source/wlan.c **** /*   sl_WlanSmartConfigStart                                                  */
 803:..\..\..\..\..\simplelink\source/wlan.c **** /******************************************************************************/
 804:..\..\..\..\..\simplelink\source/wlan.c **** 
 805:..\..\..\..\..\simplelink\source/wlan.c **** 
 806:..\..\..\..\..\simplelink\source/wlan.c **** typedef struct
 807:..\..\..\..\..\simplelink\source/wlan.c **** {
 808:..\..\..\..\..\simplelink\source/wlan.c **** 	_WlanSmartConfigStartCommand_t	Args;
ARM GAS  C:\Users\X0217454\AppData\Local\Temp\ccwJRGby.s 			page 58


 809:..\..\..\..\..\simplelink\source/wlan.c ****     char                            Strings[3 * MAX_SMART_CONFIG_KEY]; /* public key + groupId1 key
 810:..\..\..\..\..\simplelink\source/wlan.c **** }_SlSmartConfigStart_t;
 811:..\..\..\..\..\simplelink\source/wlan.c **** 
 812:..\..\..\..\..\simplelink\source/wlan.c **** typedef union
 813:..\..\..\..\..\simplelink\source/wlan.c **** {
 814:..\..\..\..\..\simplelink\source/wlan.c **** 	_SlSmartConfigStart_t	    Cmd;
 815:..\..\..\..\..\simplelink\source/wlan.c **** 	_BasicResponse_t	        Rsp;
 816:..\..\..\..\..\simplelink\source/wlan.c **** }_SlSmartConfigStartMsg_u;
 817:..\..\..\..\..\simplelink\source/wlan.c **** 
 818:..\..\..\..\..\simplelink\source/wlan.c **** const _SlCmdCtrl_t _SlSmartConfigStartCmdCtrl =
 819:..\..\..\..\..\simplelink\source/wlan.c **** {
 820:..\..\..\..\..\simplelink\source/wlan.c ****     SL_OPCODE_WLAN_SMART_CONFIG_START_COMMAND,
 821:..\..\..\..\..\simplelink\source/wlan.c ****     sizeof(_SlSmartConfigStart_t),
 822:..\..\..\..\..\simplelink\source/wlan.c ****     sizeof(_BasicResponse_t)
 823:..\..\..\..\..\simplelink\source/wlan.c **** };
 824:..\..\..\..\..\simplelink\source/wlan.c **** 
 825:..\..\..\..\..\simplelink\source/wlan.c **** #if _SL_INCLUDE_FUNC(sl_WlanSmartConfigStart)
 826:..\..\..\..\..\simplelink\source/wlan.c **** int sl_WlanSmartConfigStart( const unsigned long    groupIdBitmask,
 827:..\..\..\..\..\simplelink\source/wlan.c ****                              const unsigned char    cipher,
 828:..\..\..\..\..\simplelink\source/wlan.c ****                              const unsigned char    publicKeyLen,
 829:..\..\..\..\..\simplelink\source/wlan.c ****                              const unsigned char    group1KeyLen,
 830:..\..\..\..\..\simplelink\source/wlan.c ****                              const unsigned char    group2KeyLen,
 831:..\..\..\..\..\simplelink\source/wlan.c ****                              const unsigned char*   pPublicKey,
 832:..\..\..\..\..\simplelink\source/wlan.c ****                              const unsigned char*   pGroup1Key,
 833:..\..\..\..\..\simplelink\source/wlan.c ****                              const unsigned char*   pGroup2Key)
 834:..\..\..\..\..\simplelink\source/wlan.c **** {
 2442              		.loc 1 834 0
 2443              		.cfi_startproc
 2444 0000 80B5     		push	{r7, lr}
 2445              	.LCFI41:
 2446              		.cfi_def_cfa_offset 8
 2447              		.cfi_offset 7, -8
 2448              		.cfi_offset 14, -4
 2449 0002 92B0     		sub	sp, sp, #72
 2450              	.LCFI42:
 2451              		.cfi_def_cfa_offset 80
 2452 0004 00AF     		add	r7, sp, #0
 2453              	.LCFI43:
 2454              		.cfi_def_cfa_register 7
 2455 0006 7860     		str	r0, [r7, #4]
 2456 0008 081C     		mov	r0, r1
 2457 000a 111C     		mov	r1, r2
 2458 000c 1A1C     		mov	r2, r3
 2459 000e FB1C     		add	r3, r7, #3
 2460 0010 1870     		strb	r0, [r3]
 2461 0012 BB1C     		add	r3, r7, #2
 2462 0014 1970     		strb	r1, [r3]
 2463 0016 7B1C     		add	r3, r7, #1
 2464 0018 1A70     		strb	r2, [r3]
 835:..\..\..\..\..\simplelink\source/wlan.c ****     _SlSmartConfigStartMsg_u      Msg;
 836:..\..\..\..\..\simplelink\source/wlan.c **** 
 837:..\..\..\..\..\simplelink\source/wlan.c ****     Msg.Cmd.Args.groupIdBitmask = (UINT8)groupIdBitmask;
 2465              		.loc 1 837 0
 2466 001a 7B68     		ldr	r3, [r7, #4]
 2467 001c DBB2     		uxtb	r3, r3
 2468 001e 1A1C     		mov	r2, r3
 2469 0020 3B1C     		mov	r3, r7
ARM GAS  C:\Users\X0217454\AppData\Local\Temp\ccwJRGby.s 			page 59


 2470 0022 0C33     		add	r3, r3, #12
 2471 0024 1A60     		str	r2, [r3]
 838:..\..\..\..\..\simplelink\source/wlan.c ****     Msg.Cmd.Args.cipher         = (UINT8)cipher;
 2472              		.loc 1 838 0
 2473 0026 3B1C     		mov	r3, r7
 2474 0028 0C33     		add	r3, r3, #12
 2475 002a FA1C     		add	r2, r7, #3
 2476 002c 1278     		ldrb	r2, [r2]
 2477 002e 1A71     		strb	r2, [r3, #4]
 839:..\..\..\..\..\simplelink\source/wlan.c ****     Msg.Cmd.Args.publicKeyLen   = (UINT8)publicKeyLen;
 2478              		.loc 1 839 0
 2479 0030 3B1C     		mov	r3, r7
 2480 0032 0C33     		add	r3, r3, #12
 2481 0034 BA1C     		add	r2, r7, #2
 2482 0036 1278     		ldrb	r2, [r2]
 2483 0038 5A71     		strb	r2, [r3, #5]
 840:..\..\..\..\..\simplelink\source/wlan.c ****     Msg.Cmd.Args.group1KeyLen   = (UINT8)group1KeyLen;
 2484              		.loc 1 840 0
 2485 003a 3B1C     		mov	r3, r7
 2486 003c 0C33     		add	r3, r3, #12
 2487 003e 7A1C     		add	r2, r7, #1
 2488 0040 1278     		ldrb	r2, [r2]
 2489 0042 9A71     		strb	r2, [r3, #6]
 841:..\..\..\..\..\simplelink\source/wlan.c ****     Msg.Cmd.Args.group2KeyLen   = (UINT8)group2KeyLen;
 2490              		.loc 1 841 0
 2491 0044 3B1C     		mov	r3, r7
 2492 0046 0C33     		add	r3, r3, #12
 2493 0048 3A1C     		mov	r2, r7
 2494 004a 5032     		add	r2, r2, #80
 2495 004c 1278     		ldrb	r2, [r2]
 2496 004e DA71     		strb	r2, [r3, #7]
 842:..\..\..\..\..\simplelink\source/wlan.c **** 
 843:..\..\..\..\..\simplelink\source/wlan.c ****     /* copy keys (if exist) after command (one after another) */
 844:..\..\..\..\..\simplelink\source/wlan.c ****     memcpy(SMART_CONFIG_START_PUBLIC_KEY_STRING(&Msg), pPublicKey, publicKeyLen);
 2497              		.loc 1 844 0
 2498 0050 BB1C     		add	r3, r7, #2
 2499 0052 1B78     		ldrb	r3, [r3]
 2500 0054 3A1C     		mov	r2, r7
 2501 0056 0C32     		add	r2, r2, #12
 2502 0058 111C     		mov	r1, r2
 2503 005a 0831     		add	r1, r1, #8
 2504 005c 7A6D     		ldr	r2, [r7, #84]
 2505 005e 081C     		mov	r0, r1
 2506 0060 111C     		mov	r1, r2
 2507 0062 1A1C     		mov	r2, r3
 2508 0064 FFF7FEFF 		bl	memcpy
 845:..\..\..\..\..\simplelink\source/wlan.c ****     memcpy(SMART_CONFIG_START_GROUP1_KEY_STRING(&Msg), pGroup1Key, group1KeyLen);
 2509              		.loc 1 845 0
 2510 0068 3B1C     		mov	r3, r7
 2511 006a 0C33     		add	r3, r3, #12
 2512 006c 5B79     		ldrb	r3, [r3, #5]
 2513 006e 0833     		add	r3, r3, #8
 2514 0070 3A1C     		mov	r2, r7
 2515 0072 0C32     		add	r2, r2, #12
 2516 0074 D118     		add	r1, r2, r3
 2517 0076 7B1C     		add	r3, r7, #1
 2518 0078 1B78     		ldrb	r3, [r3]
ARM GAS  C:\Users\X0217454\AppData\Local\Temp\ccwJRGby.s 			page 60


 2519 007a BA6D     		ldr	r2, [r7, #88]
 2520 007c 081C     		mov	r0, r1
 2521 007e 111C     		mov	r1, r2
 2522 0080 1A1C     		mov	r2, r3
 2523 0082 FFF7FEFF 		bl	memcpy
 846:..\..\..\..\..\simplelink\source/wlan.c ****     memcpy(SMART_CONFIG_START_GROUP2_KEY_STRING(&Msg), pGroup2Key, group2KeyLen);
 2524              		.loc 1 846 0
 2525 0086 3B1C     		mov	r3, r7
 2526 0088 0C33     		add	r3, r3, #12
 2527 008a 5B79     		ldrb	r3, [r3, #5]
 2528 008c 1A1C     		mov	r2, r3
 2529 008e 3B1C     		mov	r3, r7
 2530 0090 0C33     		add	r3, r3, #12
 2531 0092 9B79     		ldrb	r3, [r3, #6]
 2532 0094 D318     		add	r3, r2, r3
 2533 0096 0833     		add	r3, r3, #8
 2534 0098 3A1C     		mov	r2, r7
 2535 009a 0C32     		add	r2, r2, #12
 2536 009c D118     		add	r1, r2, r3
 2537 009e 3B1C     		mov	r3, r7
 2538 00a0 5033     		add	r3, r3, #80
 2539 00a2 1B78     		ldrb	r3, [r3]
 2540 00a4 FA6D     		ldr	r2, [r7, #92]
 2541 00a6 081C     		mov	r0, r1
 2542 00a8 111C     		mov	r1, r2
 2543 00aa 1A1C     		mov	r2, r3
 2544 00ac FFF7FEFF 		bl	memcpy
 2545              	.LBB13:
 847:..\..\..\..\..\simplelink\source/wlan.c **** 
 848:..\..\..\..\..\simplelink\source/wlan.c ****     VERIFY_RET_OK(_SlDrvCmdOp((_SlCmdCtrl_t *)&_SlSmartConfigStartCmdCtrl , &Msg, NULL));
 2546              		.loc 1 848 0
 2547 00b0 0A4A     		ldr	r2, .L141
 2548 00b2 3B1C     		mov	r3, r7
 2549 00b4 0C33     		add	r3, r3, #12
 2550 00b6 101C     		mov	r0, r2
 2551 00b8 191C     		mov	r1, r3
 2552 00ba 0022     		mov	r2, #0
 2553 00bc FFF7FEFF 		bl	_SlDrvCmdOp
 2554 00c0 031C     		mov	r3, r0
 2555 00c2 7B64     		str	r3, [r7, #68]
 2556 00c4 7B6C     		ldr	r3, [r7, #68]
 2557 00c6 002B     		cmp	r3, #0
 2558 00c8 00D0     		beq	.L138
 2559              	.L139:
 2560              		.loc 1 848 0 is_stmt 0 discriminator 1
 2561 00ca FEE7     		b	.L139
 2562              	.L138:
 2563              	.LBE13:
 849:..\..\..\..\..\simplelink\source/wlan.c **** 
 850:..\..\..\..\..\simplelink\source/wlan.c ****     return (int)Msg.Rsp.status;
 2564              		.loc 1 850 0 is_stmt 1
 2565 00cc 3B1C     		mov	r3, r7
 2566 00ce 0C33     		add	r3, r3, #12
 2567 00d0 1B88     		ldrh	r3, [r3]
 2568 00d2 1BB2     		sxth	r3, r3
 851:..\..\..\..\..\simplelink\source/wlan.c **** 
 852:..\..\..\..\..\simplelink\source/wlan.c **** 
ARM GAS  C:\Users\X0217454\AppData\Local\Temp\ccwJRGby.s 			page 61


 853:..\..\..\..\..\simplelink\source/wlan.c **** }
 2569              		.loc 1 853 0
 2570 00d4 181C     		mov	r0, r3
 2571 00d6 BD46     		mov	sp, r7
 2572 00d8 12B0     		add	sp, sp, #72
 2573              		@ sp needed for prologue
 2574 00da 80BD     		pop	{r7, pc}
 2575              	.L142:
 2576              		.align	2
 2577              	.L141:
 2578 00dc 00000000 		.word	_SlSmartConfigStartCmdCtrl
 2579              		.cfi_endproc
 2580              	.LFE15:
 2581              		.size	sl_WlanSmartConfigStart, .-sl_WlanSmartConfigStart
 2582              		.global	_SlWlanSetModeCmdCtrl
 2583              		.section	.rodata
 2584              		.align	2
 2585              		.type	_SlWlanSetModeCmdCtrl, %object
 2586              		.size	_SlWlanSetModeCmdCtrl, 4
 2587              	_SlWlanSetModeCmdCtrl:
 2588 0028 B48C     		.short	-29516
 2589 002a 04       		.byte	4
 2590 002b 04       		.byte	4
 2591              		.section	.text.sl_WlanSetMode,"ax",%progbits
 2592              		.align	2
 2593              		.global	sl_WlanSetMode
 2594              		.code	16
 2595              		.thumb_func
 2596              		.type	sl_WlanSetMode, %function
 2597              	sl_WlanSetMode:
 2598              	.LFB16:
 854:..\..\..\..\..\simplelink\source/wlan.c **** #endif
 855:..\..\..\..\..\simplelink\source/wlan.c **** 
 856:..\..\..\..\..\simplelink\source/wlan.c **** 
 857:..\..\..\..\..\simplelink\source/wlan.c **** /*******************************************************************************/
 858:..\..\..\..\..\simplelink\source/wlan.c **** /*   sl_WlanSetMode  */
 859:..\..\..\..\..\simplelink\source/wlan.c **** /*******************************************************************************/
 860:..\..\..\..\..\simplelink\source/wlan.c **** typedef union
 861:..\..\..\..\..\simplelink\source/wlan.c **** {
 862:..\..\..\..\..\simplelink\source/wlan.c **** 	_WlanSetMode_t		    Cmd;
 863:..\..\..\..\..\simplelink\source/wlan.c **** 	_BasicResponse_t	    Rsp;
 864:..\..\..\..\..\simplelink\source/wlan.c **** }_SlwlanSetModeMsg_u;
 865:..\..\..\..\..\simplelink\source/wlan.c **** 
 866:..\..\..\..\..\simplelink\source/wlan.c **** const _SlCmdCtrl_t _SlWlanSetModeCmdCtrl =
 867:..\..\..\..\..\simplelink\source/wlan.c **** {
 868:..\..\..\..\..\simplelink\source/wlan.c ****     SL_OPCODE_WLAN_SET_MODE,
 869:..\..\..\..\..\simplelink\source/wlan.c ****     sizeof(_WlanSetMode_t),
 870:..\..\..\..\..\simplelink\source/wlan.c ****     sizeof(_BasicResponse_t)
 871:..\..\..\..\..\simplelink\source/wlan.c **** };
 872:..\..\..\..\..\simplelink\source/wlan.c **** 
 873:..\..\..\..\..\simplelink\source/wlan.c **** /* possible values are: 
 874:..\..\..\..\..\simplelink\source/wlan.c ****      WLAN_SET_STA_MODE   =   1
 875:..\..\..\..\..\simplelink\source/wlan.c ****      WLAN_SET_AP_MODE    =   2
 876:..\..\..\..\..\simplelink\source/wlan.c ****      WLAN_SET_P2P_MODE   =   3  */
 877:..\..\..\..\..\simplelink\source/wlan.c **** 
 878:..\..\..\..\..\simplelink\source/wlan.c **** #if _SL_INCLUDE_FUNC(sl_WlanSetMode)
 879:..\..\..\..\..\simplelink\source/wlan.c **** int sl_WlanSetMode(const unsigned char    mode)
ARM GAS  C:\Users\X0217454\AppData\Local\Temp\ccwJRGby.s 			page 62


 880:..\..\..\..\..\simplelink\source/wlan.c **** {
 2599              		.loc 1 880 0
 2600              		.cfi_startproc
 2601 0000 80B5     		push	{r7, lr}
 2602              	.LCFI44:
 2603              		.cfi_def_cfa_offset 8
 2604              		.cfi_offset 7, -8
 2605              		.cfi_offset 14, -4
 2606 0002 84B0     		sub	sp, sp, #16
 2607              	.LCFI45:
 2608              		.cfi_def_cfa_offset 24
 2609 0004 00AF     		add	r7, sp, #0
 2610              	.LCFI46:
 2611              		.cfi_def_cfa_register 7
 2612 0006 021C     		mov	r2, r0
 2613 0008 FB1D     		add	r3, r7, #7
 2614 000a 1A70     		strb	r2, [r3]
 881:..\..\..\..\..\simplelink\source/wlan.c ****     _SlwlanSetModeMsg_u      Msg;
 882:..\..\..\..\..\simplelink\source/wlan.c **** 
 883:..\..\..\..\..\simplelink\source/wlan.c **** 	Msg.Cmd.mode  = mode;
 2615              		.loc 1 883 0
 2616 000c 3B1C     		mov	r3, r7
 2617 000e 0833     		add	r3, r3, #8
 2618 0010 FA1D     		add	r2, r7, #7
 2619 0012 1278     		ldrb	r2, [r2]
 2620 0014 1A70     		strb	r2, [r3]
 2621              	.LBB14:
 884:..\..\..\..\..\simplelink\source/wlan.c **** 
 885:..\..\..\..\..\simplelink\source/wlan.c ****     VERIFY_RET_OK(_SlDrvCmdOp((_SlCmdCtrl_t *)&_SlWlanSetModeCmdCtrl , &Msg, NULL));
 2622              		.loc 1 885 0
 2623 0016 0B4A     		ldr	r2, .L147
 2624 0018 3B1C     		mov	r3, r7
 2625 001a 0833     		add	r3, r3, #8
 2626 001c 101C     		mov	r0, r2
 2627 001e 191C     		mov	r1, r3
 2628 0020 0022     		mov	r2, #0
 2629 0022 FFF7FEFF 		bl	_SlDrvCmdOp
 2630 0026 031C     		mov	r3, r0
 2631 0028 FB60     		str	r3, [r7, #12]
 2632 002a FB68     		ldr	r3, [r7, #12]
 2633 002c 002B     		cmp	r3, #0
 2634 002e 00D0     		beq	.L144
 2635              	.L145:
 2636              		.loc 1 885 0 is_stmt 0 discriminator 1
 2637 0030 FEE7     		b	.L145
 2638              	.L144:
 2639              	.LBE14:
 886:..\..\..\..\..\simplelink\source/wlan.c **** 
 887:..\..\..\..\..\simplelink\source/wlan.c ****     return (int)Msg.Rsp.status;
 2640              		.loc 1 887 0 is_stmt 1
 2641 0032 3B1C     		mov	r3, r7
 2642 0034 0833     		add	r3, r3, #8
 2643 0036 1B88     		ldrh	r3, [r3]
 2644 0038 1BB2     		sxth	r3, r3
 888:..\..\..\..\..\simplelink\source/wlan.c **** 
 889:..\..\..\..\..\simplelink\source/wlan.c **** }
 2645              		.loc 1 889 0
ARM GAS  C:\Users\X0217454\AppData\Local\Temp\ccwJRGby.s 			page 63


 2646 003a 181C     		mov	r0, r3
 2647 003c BD46     		mov	sp, r7
 2648 003e 04B0     		add	sp, sp, #16
 2649              		@ sp needed for prologue
 2650 0040 80BD     		pop	{r7, pc}
 2651              	.L148:
 2652 0042 C046     		.align	2
 2653              	.L147:
 2654 0044 00000000 		.word	_SlWlanSetModeCmdCtrl
 2655              		.cfi_endproc
 2656              	.LFE16:
 2657              		.size	sl_WlanSetMode, .-sl_WlanSetMode
 2658              		.global	_SlWlanCfgSetCmdCtrl
 2659              		.section	.rodata
 2660              		.align	2
 2661              		.type	_SlWlanCfgSetCmdCtrl, %object
 2662              		.size	_SlWlanCfgSetCmdCtrl, 4
 2663              	_SlWlanCfgSetCmdCtrl:
 2664 002c B58C     		.short	-29515
 2665 002e 08       		.byte	8
 2666 002f 04       		.byte	4
 2667              		.section	.text.sl_WlanSet,"ax",%progbits
 2668              		.align	2
 2669              		.global	sl_WlanSet
 2670              		.code	16
 2671              		.thumb_func
 2672              		.type	sl_WlanSet, %function
 2673              	sl_WlanSet:
 2674              	.LFB17:
 890:..\..\..\..\..\simplelink\source/wlan.c **** #endif
 891:..\..\..\..\..\simplelink\source/wlan.c **** 
 892:..\..\..\..\..\simplelink\source/wlan.c **** 
 893:..\..\..\..\..\simplelink\source/wlan.c **** 
 894:..\..\..\..\..\simplelink\source/wlan.c **** 
 895:..\..\..\..\..\simplelink\source/wlan.c **** /*******************************************************************************/
 896:..\..\..\..\..\simplelink\source/wlan.c **** /*   sl_WlanSet  */
 897:..\..\..\..\..\simplelink\source/wlan.c **** /* ******************************************************************************/
 898:..\..\..\..\..\simplelink\source/wlan.c **** typedef union
 899:..\..\..\..\..\simplelink\source/wlan.c **** {
 900:..\..\..\..\..\simplelink\source/wlan.c **** 	_WlanCfgSetGet_t	    Cmd;
 901:..\..\..\..\..\simplelink\source/wlan.c **** 	_BasicResponse_t	    Rsp;
 902:..\..\..\..\..\simplelink\source/wlan.c **** }_SlWlanCfgSetMsg_u;
 903:..\..\..\..\..\simplelink\source/wlan.c **** 
 904:..\..\..\..\..\simplelink\source/wlan.c **** const _SlCmdCtrl_t _SlWlanCfgSetCmdCtrl =
 905:..\..\..\..\..\simplelink\source/wlan.c **** {
 906:..\..\..\..\..\simplelink\source/wlan.c ****     SL_OPCODE_WLAN_CFG_SET,
 907:..\..\..\..\..\simplelink\source/wlan.c ****     sizeof(_WlanCfgSetGet_t),
 908:..\..\..\..\..\simplelink\source/wlan.c ****     sizeof(_BasicResponse_t)
 909:..\..\..\..\..\simplelink\source/wlan.c **** };
 910:..\..\..\..\..\simplelink\source/wlan.c **** 
 911:..\..\..\..\..\simplelink\source/wlan.c **** 
 912:..\..\..\..\..\simplelink\source/wlan.c **** #if _SL_INCLUDE_FUNC(sl_WlanSet)
 913:..\..\..\..\..\simplelink\source/wlan.c **** int sl_WlanSet(unsigned short ConfigId ,unsigned short ConfigOpt,unsigned short ConfigLen, unsigned
 914:..\..\..\..\..\simplelink\source/wlan.c **** {
 2675              		.loc 1 914 0
 2676              		.cfi_startproc
 2677 0000 80B5     		push	{r7, lr}
ARM GAS  C:\Users\X0217454\AppData\Local\Temp\ccwJRGby.s 			page 64


 2678              	.LCFI47:
 2679              		.cfi_def_cfa_offset 8
 2680              		.cfi_offset 7, -8
 2681              		.cfi_offset 14, -4
 2682 0002 8CB0     		sub	sp, sp, #48
 2683              	.LCFI48:
 2684              		.cfi_def_cfa_offset 56
 2685 0004 00AF     		add	r7, sp, #0
 2686              	.LCFI49:
 2687              		.cfi_def_cfa_register 7
 2688 0006 7B60     		str	r3, [r7, #4]
 2689 0008 3B1C     		mov	r3, r7
 2690 000a 0E33     		add	r3, r3, #14
 2691 000c 1880     		strh	r0, [r3]
 2692 000e 3B1C     		mov	r3, r7
 2693 0010 0C33     		add	r3, r3, #12
 2694 0012 1980     		strh	r1, [r3]
 2695 0014 3B1C     		mov	r3, r7
 2696 0016 0A33     		add	r3, r3, #10
 2697 0018 1A80     		strh	r2, [r3]
 915:..\..\..\..\..\simplelink\source/wlan.c ****     _SlWlanCfgSetMsg_u         Msg;
 916:..\..\..\..\..\simplelink\source/wlan.c ****     _SlCmdExt_t                CmdExt;
 917:..\..\..\..\..\simplelink\source/wlan.c **** 
 918:..\..\..\..\..\simplelink\source/wlan.c **** 	CmdExt.TxPayloadLen = (ConfigLen+3) & (~3);
 2698              		.loc 1 918 0
 2699 001a 3B1C     		mov	r3, r7
 2700 001c 0A33     		add	r3, r3, #10
 2701 001e 1B88     		ldrh	r3, [r3]
 2702 0020 0333     		add	r3, r3, #3
 2703 0022 9BB2     		uxth	r3, r3
 2704 0024 0322     		mov	r2, #3
 2705 0026 9343     		bic	r3, r2
 2706 0028 9AB2     		uxth	r2, r3
 2707 002a 3B1C     		mov	r3, r7
 2708 002c 1433     		add	r3, r3, #20
 2709 002e 1A80     		strh	r2, [r3]
 919:..\..\..\..\..\simplelink\source/wlan.c ****     CmdExt.RxPayloadLen = 0;
 2710              		.loc 1 919 0
 2711 0030 3B1C     		mov	r3, r7
 2712 0032 1433     		add	r3, r3, #20
 2713 0034 0022     		mov	r2, #0
 2714 0036 5A80     		strh	r2, [r3, #2]
 920:..\..\..\..\..\simplelink\source/wlan.c ****     CmdExt.pTxPayload = (UINT8 *)pValues;
 2715              		.loc 1 920 0
 2716 0038 3B1C     		mov	r3, r7
 2717 003a 1433     		add	r3, r3, #20
 2718 003c 7A68     		ldr	r2, [r7, #4]
 2719 003e 9A60     		str	r2, [r3, #8]
 921:..\..\..\..\..\simplelink\source/wlan.c ****     CmdExt.pRxPayload = NULL;
 2720              		.loc 1 921 0
 2721 0040 3B1C     		mov	r3, r7
 2722 0042 1433     		add	r3, r3, #20
 2723 0044 0022     		mov	r2, #0
 2724 0046 DA60     		str	r2, [r3, #12]
 922:..\..\..\..\..\simplelink\source/wlan.c **** 
 923:..\..\..\..\..\simplelink\source/wlan.c **** 
 924:..\..\..\..\..\simplelink\source/wlan.c ****     Msg.Cmd.ConfigId    = ConfigId;
ARM GAS  C:\Users\X0217454\AppData\Local\Temp\ccwJRGby.s 			page 65


 2725              		.loc 1 924 0
 2726 0048 3B1C     		mov	r3, r7
 2727 004a 2433     		add	r3, r3, #36
 2728 004c 3A1C     		mov	r2, r7
 2729 004e 0E32     		add	r2, r2, #14
 2730 0050 1288     		ldrh	r2, [r2]
 2731 0052 5A80     		strh	r2, [r3, #2]
 925:..\..\..\..\..\simplelink\source/wlan.c ****     Msg.Cmd.ConfigLen   = ConfigLen;
 2732              		.loc 1 925 0
 2733 0054 3B1C     		mov	r3, r7
 2734 0056 2433     		add	r3, r3, #36
 2735 0058 3A1C     		mov	r2, r7
 2736 005a 0A32     		add	r2, r2, #10
 2737 005c 1288     		ldrh	r2, [r2]
 2738 005e DA80     		strh	r2, [r3, #6]
 926:..\..\..\..\..\simplelink\source/wlan.c **** 	Msg.Cmd.ConfigOpt   = ConfigOpt;
 2739              		.loc 1 926 0
 2740 0060 3B1C     		mov	r3, r7
 2741 0062 2433     		add	r3, r3, #36
 2742 0064 3A1C     		mov	r2, r7
 2743 0066 0C32     		add	r2, r2, #12
 2744 0068 1288     		ldrh	r2, [r2]
 2745 006a 9A80     		strh	r2, [r3, #4]
 2746              	.LBB15:
 927:..\..\..\..\..\simplelink\source/wlan.c **** 
 928:..\..\..\..\..\simplelink\source/wlan.c ****     VERIFY_RET_OK(_SlDrvCmdOp((_SlCmdCtrl_t *)&_SlWlanCfgSetCmdCtrl, &Msg, &CmdExt));
 2747              		.loc 1 928 0
 2748 006c 0B49     		ldr	r1, .L153
 2749 006e 3A1C     		mov	r2, r7
 2750 0070 2432     		add	r2, r2, #36
 2751 0072 3B1C     		mov	r3, r7
 2752 0074 1433     		add	r3, r3, #20
 2753 0076 081C     		mov	r0, r1
 2754 0078 111C     		mov	r1, r2
 2755 007a 1A1C     		mov	r2, r3
 2756 007c FFF7FEFF 		bl	_SlDrvCmdOp
 2757 0080 031C     		mov	r3, r0
 2758 0082 FB62     		str	r3, [r7, #44]
 2759 0084 FB6A     		ldr	r3, [r7, #44]
 2760 0086 002B     		cmp	r3, #0
 2761 0088 00D0     		beq	.L150
 2762              	.L151:
 2763              		.loc 1 928 0 is_stmt 0 discriminator 1
 2764 008a FEE7     		b	.L151
 2765              	.L150:
 2766              	.LBE15:
 929:..\..\..\..\..\simplelink\source/wlan.c **** 
 930:..\..\..\..\..\simplelink\source/wlan.c ****     return (int)Msg.Rsp.status;
 2767              		.loc 1 930 0 is_stmt 1
 2768 008c 3B1C     		mov	r3, r7
 2769 008e 2433     		add	r3, r3, #36
 2770 0090 1B88     		ldrh	r3, [r3]
 2771 0092 1BB2     		sxth	r3, r3
 931:..\..\..\..\..\simplelink\source/wlan.c **** }
 2772              		.loc 1 931 0
 2773 0094 181C     		mov	r0, r3
 2774 0096 BD46     		mov	sp, r7
ARM GAS  C:\Users\X0217454\AppData\Local\Temp\ccwJRGby.s 			page 66


 2775 0098 0CB0     		add	sp, sp, #48
 2776              		@ sp needed for prologue
 2777 009a 80BD     		pop	{r7, pc}
 2778              	.L154:
 2779              		.align	2
 2780              	.L153:
 2781 009c 00000000 		.word	_SlWlanCfgSetCmdCtrl
 2782              		.cfi_endproc
 2783              	.LFE17:
 2784              		.size	sl_WlanSet, .-sl_WlanSet
 2785              		.global	_SlWlanCfgGetCmdCtrl
 2786              		.section	.rodata
 2787              		.align	2
 2788              		.type	_SlWlanCfgGetCmdCtrl, %object
 2789              		.size	_SlWlanCfgGetCmdCtrl, 4
 2790              	_SlWlanCfgGetCmdCtrl:
 2791 0030 B68C     		.short	-29514
 2792 0032 08       		.byte	8
 2793 0033 08       		.byte	8
 2794              		.section	.text.sl_WlanGet,"ax",%progbits
 2795              		.align	2
 2796              		.global	sl_WlanGet
 2797              		.code	16
 2798              		.thumb_func
 2799              		.type	sl_WlanGet, %function
 2800              	sl_WlanGet:
 2801              	.LFB18:
 932:..\..\..\..\..\simplelink\source/wlan.c **** #endif
 933:..\..\..\..\..\simplelink\source/wlan.c **** 
 934:..\..\..\..\..\simplelink\source/wlan.c **** 
 935:..\..\..\..\..\simplelink\source/wlan.c **** /******************************************************************************/
 936:..\..\..\..\..\simplelink\source/wlan.c **** /*  sl_WlanGet  */
 937:..\..\..\..\..\simplelink\source/wlan.c **** /******************************************************************************/
 938:..\..\..\..\..\simplelink\source/wlan.c **** typedef union
 939:..\..\..\..\..\simplelink\source/wlan.c **** {
 940:..\..\..\..\..\simplelink\source/wlan.c **** 	_WlanCfgSetGet_t	    Cmd;
 941:..\..\..\..\..\simplelink\source/wlan.c **** 	_WlanCfgSetGet_t	    Rsp;
 942:..\..\..\..\..\simplelink\source/wlan.c **** }_SlWlanCfgMsgGet_u;
 943:..\..\..\..\..\simplelink\source/wlan.c **** 
 944:..\..\..\..\..\simplelink\source/wlan.c **** const _SlCmdCtrl_t _SlWlanCfgGetCmdCtrl =
 945:..\..\..\..\..\simplelink\source/wlan.c **** {
 946:..\..\..\..\..\simplelink\source/wlan.c ****     SL_OPCODE_WLAN_CFG_GET,
 947:..\..\..\..\..\simplelink\source/wlan.c ****     sizeof(_WlanCfgSetGet_t),
 948:..\..\..\..\..\simplelink\source/wlan.c ****     sizeof(_WlanCfgSetGet_t)
 949:..\..\..\..\..\simplelink\source/wlan.c **** };
 950:..\..\..\..\..\simplelink\source/wlan.c **** 
 951:..\..\..\..\..\simplelink\source/wlan.c **** #if _SL_INCLUDE_FUNC(sl_WlanGet)
 952:..\..\..\..\..\simplelink\source/wlan.c **** int sl_WlanGet(unsigned short ConfigId, unsigned short *pConfigOpt,unsigned short *pConfigLen, unsi
 953:..\..\..\..\..\simplelink\source/wlan.c **** {
 2802              		.loc 1 953 0
 2803              		.cfi_startproc
 2804 0000 80B5     		push	{r7, lr}
 2805              	.LCFI50:
 2806              		.cfi_def_cfa_offset 8
 2807              		.cfi_offset 7, -8
 2808              		.cfi_offset 14, -4
 2809 0002 8CB0     		sub	sp, sp, #48
ARM GAS  C:\Users\X0217454\AppData\Local\Temp\ccwJRGby.s 			page 67


 2810              	.LCFI51:
 2811              		.cfi_def_cfa_offset 56
 2812 0004 00AF     		add	r7, sp, #0
 2813              	.LCFI52:
 2814              		.cfi_def_cfa_register 7
 2815 0006 B960     		str	r1, [r7, #8]
 2816 0008 7A60     		str	r2, [r7, #4]
 2817 000a 3B60     		str	r3, [r7]
 2818 000c 3B1C     		mov	r3, r7
 2819 000e 0E33     		add	r3, r3, #14
 2820 0010 021C     		add	r2, r0, #0
 2821 0012 1A80     		strh	r2, [r3]
 954:..\..\..\..\..\simplelink\source/wlan.c ****     _SlWlanCfgMsgGet_u        Msg;
 955:..\..\..\..\..\simplelink\source/wlan.c ****     _SlCmdExt_t               CmdExt;
 956:..\..\..\..\..\simplelink\source/wlan.c **** 
 957:..\..\..\..\..\simplelink\source/wlan.c **** 	if (*pConfigLen == 0)
 2822              		.loc 1 957 0
 2823 0014 7B68     		ldr	r3, [r7, #4]
 2824 0016 1B88     		ldrh	r3, [r3]
 2825 0018 002B     		cmp	r3, #0
 2826 001a 01D1     		bne	.L156
 958:..\..\..\..\..\simplelink\source/wlan.c **** 	{
 959:..\..\..\..\..\simplelink\source/wlan.c **** 		return SL_EZEROLEN;
 2827              		.loc 1 959 0
 2828 001c 2E4B     		ldr	r3, .L164
 2829 001e 57E0     		b	.L163
 2830              	.L156:
 960:..\..\..\..\..\simplelink\source/wlan.c **** 	}
 961:..\..\..\..\..\simplelink\source/wlan.c ****     CmdExt.TxPayloadLen = 0;
 2831              		.loc 1 961 0
 2832 0020 3B1C     		mov	r3, r7
 2833 0022 1433     		add	r3, r3, #20
 2834 0024 0022     		mov	r2, #0
 2835 0026 1A80     		strh	r2, [r3]
 962:..\..\..\..\..\simplelink\source/wlan.c ****     CmdExt.RxPayloadLen = *pConfigLen;
 2836              		.loc 1 962 0
 2837 0028 7B68     		ldr	r3, [r7, #4]
 2838 002a 1A88     		ldrh	r2, [r3]
 2839 002c 3B1C     		mov	r3, r7
 2840 002e 1433     		add	r3, r3, #20
 2841 0030 5A80     		strh	r2, [r3, #2]
 963:..\..\..\..\..\simplelink\source/wlan.c ****     CmdExt.pTxPayload = NULL;
 2842              		.loc 1 963 0
 2843 0032 3B1C     		mov	r3, r7
 2844 0034 1433     		add	r3, r3, #20
 2845 0036 0022     		mov	r2, #0
 2846 0038 9A60     		str	r2, [r3, #8]
 964:..\..\..\..\..\simplelink\source/wlan.c ****     CmdExt.pRxPayload = (UINT8 *)pValues;
 2847              		.loc 1 964 0
 2848 003a 3B1C     		mov	r3, r7
 2849 003c 1433     		add	r3, r3, #20
 2850 003e 3A68     		ldr	r2, [r7]
 2851 0040 DA60     		str	r2, [r3, #12]
 965:..\..\..\..\..\simplelink\source/wlan.c **** 	CmdExt.ActualRxPayloadLen = 0;
 2852              		.loc 1 965 0
 2853 0042 3B1C     		mov	r3, r7
 2854 0044 1433     		add	r3, r3, #20
ARM GAS  C:\Users\X0217454\AppData\Local\Temp\ccwJRGby.s 			page 68


 2855 0046 0022     		mov	r2, #0
 2856 0048 9A80     		strh	r2, [r3, #4]
 966:..\..\..\..\..\simplelink\source/wlan.c **** 
 967:..\..\..\..\..\simplelink\source/wlan.c ****     Msg.Cmd.ConfigId    = ConfigId;
 2857              		.loc 1 967 0
 2858 004a 3B1C     		mov	r3, r7
 2859 004c 2433     		add	r3, r3, #36
 2860 004e 3A1C     		mov	r2, r7
 2861 0050 0E32     		add	r2, r2, #14
 2862 0052 1288     		ldrh	r2, [r2]
 2863 0054 5A80     		strh	r2, [r3, #2]
 968:..\..\..\..\..\simplelink\source/wlan.c ****     if( pConfigOpt )
 2864              		.loc 1 968 0
 2865 0056 BB68     		ldr	r3, [r7, #8]
 2866 0058 002B     		cmp	r3, #0
 2867 005a 04D0     		beq	.L158
 969:..\..\..\..\..\simplelink\source/wlan.c ****     {
 970:..\..\..\..\..\simplelink\source/wlan.c ****        Msg.Cmd.ConfigOpt   = (UINT16)*pConfigOpt;
 2868              		.loc 1 970 0
 2869 005c BB68     		ldr	r3, [r7, #8]
 2870 005e 1A88     		ldrh	r2, [r3]
 2871 0060 3B1C     		mov	r3, r7
 2872 0062 2433     		add	r3, r3, #36
 2873 0064 9A80     		strh	r2, [r3, #4]
 2874              	.L158:
 2875              	.LBB16:
 971:..\..\..\..\..\simplelink\source/wlan.c ****     }
 972:..\..\..\..\..\simplelink\source/wlan.c ****     VERIFY_RET_OK(_SlDrvCmdOp((_SlCmdCtrl_t *)&_SlWlanCfgGetCmdCtrl, &Msg, &CmdExt));
 2876              		.loc 1 972 0
 2877 0066 1D49     		ldr	r1, .L164+4
 2878 0068 3A1C     		mov	r2, r7
 2879 006a 2432     		add	r2, r2, #36
 2880 006c 3B1C     		mov	r3, r7
 2881 006e 1433     		add	r3, r3, #20
 2882 0070 081C     		mov	r0, r1
 2883 0072 111C     		mov	r1, r2
 2884 0074 1A1C     		mov	r2, r3
 2885 0076 FFF7FEFF 		bl	_SlDrvCmdOp
 2886 007a 031C     		mov	r3, r0
 2887 007c FB62     		str	r3, [r7, #44]
 2888 007e FB6A     		ldr	r3, [r7, #44]
 2889 0080 002B     		cmp	r3, #0
 2890 0082 00D0     		beq	.L159
 2891              	.L160:
 2892              		.loc 1 972 0 is_stmt 0 discriminator 1
 2893 0084 FEE7     		b	.L160
 2894              	.L159:
 2895              	.LBE16:
 973:..\..\..\..\..\simplelink\source/wlan.c ****     
 974:..\..\..\..\..\simplelink\source/wlan.c ****      if( pConfigOpt )
 2896              		.loc 1 974 0 is_stmt 1
 2897 0086 BB68     		ldr	r3, [r7, #8]
 2898 0088 002B     		cmp	r3, #0
 2899 008a 06D0     		beq	.L161
 975:..\..\..\..\..\simplelink\source/wlan.c ****      {
 976:..\..\..\..\..\simplelink\source/wlan.c ****        *pConfigOpt = (UINT8)Msg.Rsp.ConfigOpt;
 2900              		.loc 1 976 0
ARM GAS  C:\Users\X0217454\AppData\Local\Temp\ccwJRGby.s 			page 69


 2901 008c 3B1C     		mov	r3, r7
 2902 008e 2433     		add	r3, r3, #36
 2903 0090 9B88     		ldrh	r3, [r3, #4]
 2904 0092 DBB2     		uxtb	r3, r3
 2905 0094 1A1C     		mov	r2, r3
 2906 0096 BB68     		ldr	r3, [r7, #8]
 2907 0098 1A80     		strh	r2, [r3]
 2908              	.L161:
 977:..\..\..\..\..\simplelink\source/wlan.c ****      }
 978:..\..\..\..\..\simplelink\source/wlan.c **** 	 if (CmdExt.RxPayloadLen < CmdExt.ActualRxPayloadLen) 
 2909              		.loc 1 978 0
 2910 009a 3B1C     		mov	r3, r7
 2911 009c 1433     		add	r3, r3, #20
 2912 009e 5A88     		ldrh	r2, [r3, #2]
 2913 00a0 3B1C     		mov	r3, r7
 2914 00a2 1433     		add	r3, r3, #20
 2915 00a4 9B88     		ldrh	r3, [r3, #4]
 2916 00a6 9A42     		cmp	r2, r3
 2917 00a8 08D2     		bcs	.L162
 979:..\..\..\..\..\simplelink\source/wlan.c **** 	 {
 980:..\..\..\..\..\simplelink\source/wlan.c **** 		*pConfigLen = (UINT8)CmdExt.RxPayloadLen;
 2918              		.loc 1 980 0
 2919 00aa 3B1C     		mov	r3, r7
 2920 00ac 1433     		add	r3, r3, #20
 2921 00ae 5B88     		ldrh	r3, [r3, #2]
 2922 00b0 DBB2     		uxtb	r3, r3
 2923 00b2 1A1C     		mov	r2, r3
 2924 00b4 7B68     		ldr	r3, [r7, #4]
 2925 00b6 1A80     		strh	r2, [r3]
 981:..\..\..\..\..\simplelink\source/wlan.c **** 		return SL_ESMALLBUF;
 2926              		.loc 1 981 0
 2927 00b8 094B     		ldr	r3, .L164+8
 2928 00ba 09E0     		b	.L163
 2929              	.L162:
 982:..\..\..\..\..\simplelink\source/wlan.c **** 	 }
 983:..\..\..\..\..\simplelink\source/wlan.c **** 	else
 984:..\..\..\..\..\simplelink\source/wlan.c ****     {
 985:..\..\..\..\..\simplelink\source/wlan.c **** 		*pConfigLen = (UINT8)CmdExt.ActualRxPayloadLen;
 2930              		.loc 1 985 0
 2931 00bc 3B1C     		mov	r3, r7
 2932 00be 1433     		add	r3, r3, #20
 2933 00c0 9B88     		ldrh	r3, [r3, #4]
 2934 00c2 DBB2     		uxtb	r3, r3
 2935 00c4 1A1C     		mov	r2, r3
 2936 00c6 7B68     		ldr	r3, [r7, #4]
 2937 00c8 1A80     		strh	r2, [r3]
 986:..\..\..\..\..\simplelink\source/wlan.c **** 	}
 987:..\..\..\..\..\simplelink\source/wlan.c **** 	 
 988:..\..\..\..\..\simplelink\source/wlan.c **** 
 989:..\..\..\..\..\simplelink\source/wlan.c ****     return (int)Msg.Rsp.Status;
 2938              		.loc 1 989 0
 2939 00ca 3B1C     		mov	r3, r7
 2940 00cc 2433     		add	r3, r3, #36
 2941 00ce 1B88     		ldrh	r3, [r3]
 2942              	.L163:
 990:..\..\..\..\..\simplelink\source/wlan.c **** }
 2943              		.loc 1 990 0
ARM GAS  C:\Users\X0217454\AppData\Local\Temp\ccwJRGby.s 			page 70


 2944 00d0 181C     		mov	r0, r3
 2945 00d2 BD46     		mov	sp, r7
 2946 00d4 0CB0     		add	sp, sp, #48
 2947              		@ sp needed for prologue
 2948 00d6 80BD     		pop	{r7, pc}
 2949              	.L165:
 2950              		.align	2
 2951              	.L164:
 2952 00d8 2EF8FFFF 		.word	-2002
 2953 00dc 00000000 		.word	_SlWlanCfgGetCmdCtrl
 2954 00e0 2FF8FFFF 		.word	-2001
 2955              		.cfi_endproc
 2956              	.LFE18:
 2957              		.size	sl_WlanGet, .-sl_WlanGet
 2958              		.text
 2959              	.Letext0:
 2960              		.file 2 "..\\..\\..\\..\\..\\simplelink\\source\\datatypes.h"
 2961              		.file 3 "..\\..\\..\\..\\..\\simplelink\\include/wlan.h"
 2962              		.file 4 "..\\..\\..\\..\\..\\simplelink\\include/wlan_rx_filters.h"
 2963              		.file 5 "..\\..\\..\\..\\..\\simplelink\\source\\protocol.h"
 2964              		.file 6 "..\\..\\..\\..\\..\\simplelink\\source\\driver.h"
 2965              		.section	.debug_info,"",%progbits
 2966              	.Ldebug_info0:
 2967 0000 091C0000 		.4byte	0x1c09
 2968 0004 0200     		.2byte	0x2
 2969 0006 00000000 		.4byte	.Ldebug_abbrev0
 2970 000a 04       		.byte	0x4
 2971 000b 01       		.uleb128 0x1
 2972 000c 45030000 		.4byte	.LASF251
 2973 0010 01       		.byte	0x1
 2974 0011 350C0000 		.4byte	.LASF252
 2975 0015 DA070000 		.4byte	.LASF253
 2976 0019 00000000 		.4byte	.Ldebug_ranges0+0
 2977 001d 00000000 		.4byte	0
 2978 0021 00000000 		.4byte	0
 2979 0025 00000000 		.4byte	.Ldebug_line0
 2980 0029 02       		.uleb128 0x2
 2981 002a 91070000 		.4byte	.LASF0
 2982 002e 02       		.byte	0x2
 2983 002f 40       		.byte	0x40
 2984 0030 34000000 		.4byte	0x34
 2985 0034 03       		.uleb128 0x3
 2986 0035 01       		.byte	0x1
 2987 0036 06       		.byte	0x6
 2988 0037 D5020000 		.4byte	.LASF2
 2989 003b 02       		.uleb128 0x2
 2990 003c BD0C0000 		.4byte	.LASF1
 2991 0040 02       		.byte	0x2
 2992 0041 45       		.byte	0x45
 2993 0042 46000000 		.4byte	0x46
 2994 0046 03       		.uleb128 0x3
 2995 0047 01       		.byte	0x1
 2996 0048 08       		.byte	0x8
 2997 0049 18030000 		.4byte	.LASF3
 2998 004d 02       		.uleb128 0x2
 2999 004e 12030000 		.4byte	.LASF4
 3000 0052 02       		.byte	0x2
ARM GAS  C:\Users\X0217454\AppData\Local\Temp\ccwJRGby.s 			page 71


 3001 0053 4A       		.byte	0x4a
 3002 0054 58000000 		.4byte	0x58
 3003 0058 03       		.uleb128 0x3
 3004 0059 02       		.byte	0x2
 3005 005a 05       		.byte	0x5
 3006 005b C80D0000 		.4byte	.LASF5
 3007 005f 02       		.uleb128 0x2
 3008 0060 C1060000 		.4byte	.LASF6
 3009 0064 02       		.byte	0x2
 3010 0065 4F       		.byte	0x4f
 3011 0066 6A000000 		.4byte	0x6a
 3012 006a 03       		.uleb128 0x3
 3013 006b 02       		.byte	0x2
 3014 006c 07       		.byte	0x7
 3015 006d 7D0F0000 		.4byte	.LASF7
 3016 0071 03       		.uleb128 0x3
 3017 0072 04       		.byte	0x4
 3018 0073 05       		.byte	0x5
 3019 0074 FC010000 		.4byte	.LASF8
 3020 0078 02       		.uleb128 0x2
 3021 0079 C4080000 		.4byte	.LASF9
 3022 007d 02       		.byte	0x2
 3023 007e 63       		.byte	0x63
 3024 007f 83000000 		.4byte	0x83
 3025 0083 03       		.uleb128 0x3
 3026 0084 04       		.byte	0x4
 3027 0085 07       		.byte	0x7
 3028 0086 4D070000 		.4byte	.LASF10
 3029 008a 03       		.uleb128 0x3
 3030 008b 08       		.byte	0x8
 3031 008c 07       		.byte	0x7
 3032 008d 6B0B0000 		.4byte	.LASF11
 3033 0091 04       		.uleb128 0x4
 3034 0092 494E5400 		.ascii	"INT\000"
 3035 0096 02       		.byte	0x2
 3036 0097 6D       		.byte	0x6d
 3037 0098 9C000000 		.4byte	0x9c
 3038 009c 05       		.uleb128 0x5
 3039 009d 04       		.byte	0x4
 3040 009e 05       		.byte	0x5
 3041 009f 696E7400 		.ascii	"int\000"
 3042 00a3 03       		.uleb128 0x3
 3043 00a4 01       		.byte	0x1
 3044 00a5 08       		.byte	0x8
 3045 00a6 38040000 		.4byte	.LASF12
 3046 00aa 03       		.uleb128 0x3
 3047 00ab 04       		.byte	0x4
 3048 00ac 04       		.byte	0x4
 3049 00ad 1C0A0000 		.4byte	.LASF13
 3050 00b1 03       		.uleb128 0x3
 3051 00b2 08       		.byte	0x8
 3052 00b3 04       		.byte	0x4
 3053 00b4 E0090000 		.4byte	.LASF14
 3054 00b8 02       		.uleb128 0x2
 3055 00b9 F4020000 		.4byte	.LASF15
 3056 00bd 02       		.byte	0x2
 3057 00be 73       		.byte	0x73
ARM GAS  C:\Users\X0217454\AppData\Local\Temp\ccwJRGby.s 			page 72


 3058 00bf 5F000000 		.4byte	0x5f
 3059 00c3 02       		.uleb128 0x2
 3060 00c4 B4060000 		.4byte	.LASF16
 3061 00c8 02       		.byte	0x2
 3062 00c9 74       		.byte	0x74
 3063 00ca 3B000000 		.4byte	0x3b
 3064 00ce 02       		.uleb128 0x2
 3065 00cf B30F0000 		.4byte	.LASF17
 3066 00d3 02       		.byte	0x2
 3067 00d4 76       		.byte	0x76
 3068 00d5 91000000 		.4byte	0x91
 3069 00d9 03       		.uleb128 0x3
 3070 00da 04       		.byte	0x4
 3071 00db 07       		.byte	0x7
 3072 00dc 370A0000 		.4byte	.LASF18
 3073 00e0 03       		.uleb128 0x3
 3074 00e1 08       		.byte	0x8
 3075 00e2 05       		.byte	0x5
 3076 00e3 7D090000 		.4byte	.LASF19
 3077 00e7 03       		.uleb128 0x3
 3078 00e8 04       		.byte	0x4
 3079 00e9 07       		.byte	0x7
 3080 00ea 2D000000 		.4byte	.LASF20
 3081 00ee 06       		.uleb128 0x6
 3082 00ef 04       		.byte	0x4
 3083 00f0 46000000 		.4byte	0x46
 3084 00f4 06       		.uleb128 0x6
 3085 00f5 04       		.byte	0x4
 3086 00f6 A3000000 		.4byte	0xa3
 3087 00fa 07       		.uleb128 0x7
 3088 00fb 46000000 		.4byte	0x46
 3089 00ff 0A010000 		.4byte	0x10a
 3090 0103 08       		.uleb128 0x8
 3091 0104 E7000000 		.4byte	0xe7
 3092 0108 02       		.byte	0x2
 3093 0109 00       		.byte	0
 3094 010a 07       		.uleb128 0x7
 3095 010b 46000000 		.4byte	0x46
 3096 010f 1A010000 		.4byte	0x11a
 3097 0113 08       		.uleb128 0x8
 3098 0114 E7000000 		.4byte	0xe7
 3099 0118 00       		.byte	0
 3100 0119 00       		.byte	0
 3101 011a 07       		.uleb128 0x7
 3102 011b 46000000 		.4byte	0x46
 3103 011f 2A010000 		.4byte	0x12a
 3104 0123 08       		.uleb128 0x8
 3105 0124 E7000000 		.4byte	0xe7
 3106 0128 05       		.byte	0x5
 3107 0129 00       		.byte	0
 3108 012a 07       		.uleb128 0x7
 3109 012b 46000000 		.4byte	0x46
 3110 012f 3A010000 		.4byte	0x13a
 3111 0133 08       		.uleb128 0x8
 3112 0134 E7000000 		.4byte	0xe7
 3113 0138 1F       		.byte	0x1f
 3114 0139 00       		.byte	0
ARM GAS  C:\Users\X0217454\AppData\Local\Temp\ccwJRGby.s 			page 73


 3115 013a 07       		.uleb128 0x7
 3116 013b 46000000 		.4byte	0x46
 3117 013f 4A010000 		.4byte	0x14a
 3118 0143 08       		.uleb128 0x8
 3119 0144 E7000000 		.4byte	0xe7
 3120 0148 01       		.byte	0x1
 3121 0149 00       		.byte	0
 3122 014a 09       		.uleb128 0x9
 3123 014b 4C       		.byte	0x4c
 3124 014c 03       		.byte	0x3
 3125 014d 9201     		.2byte	0x192
 3126 014f DB010000 		.4byte	0x1db
 3127 0153 0A       		.uleb128 0xa
 3128 0154 96070000 		.4byte	.LASF21
 3129 0158 03       		.byte	0x3
 3130 0159 9401     		.2byte	0x194
 3131 015b 83000000 		.4byte	0x83
 3132 015f 02       		.byte	0x2
 3133 0160 23       		.byte	0x23
 3134 0161 00       		.uleb128 0
 3135 0162 0A       		.uleb128 0xa
 3136 0163 D30E0000 		.4byte	.LASF22
 3137 0167 03       		.byte	0x3
 3138 0168 9501     		.2byte	0x195
 3139 016a 83000000 		.4byte	0x83
 3140 016e 02       		.byte	0x2
 3141 016f 23       		.byte	0x23
 3142 0170 04       		.uleb128 0x4
 3143 0171 0A       		.uleb128 0xa
 3144 0172 5B040000 		.4byte	.LASF23
 3145 0176 03       		.byte	0x3
 3146 0177 9601     		.2byte	0x196
 3147 0179 83000000 		.4byte	0x83
 3148 017d 02       		.byte	0x2
 3149 017e 23       		.byte	0x23
 3150 017f 08       		.uleb128 0x8
 3151 0180 0A       		.uleb128 0xa
 3152 0181 E30C0000 		.4byte	.LASF24
 3153 0185 03       		.byte	0x3
 3154 0186 9701     		.2byte	0x197
 3155 0188 58000000 		.4byte	0x58
 3156 018c 02       		.byte	0x2
 3157 018d 23       		.byte	0x23
 3158 018e 0C       		.uleb128 0xc
 3159 018f 0A       		.uleb128 0xa
 3160 0190 93010000 		.4byte	.LASF25
 3161 0194 03       		.byte	0x3
 3162 0195 9801     		.2byte	0x198
 3163 0197 58000000 		.4byte	0x58
 3164 019b 02       		.byte	0x2
 3165 019c 23       		.byte	0x23
 3166 019d 0E       		.uleb128 0xe
 3167 019e 0A       		.uleb128 0xa
 3168 019f 1F000000 		.4byte	.LASF26
 3169 01a3 03       		.byte	0x3
 3170 01a4 9901     		.2byte	0x199
 3171 01a6 DB010000 		.4byte	0x1db
ARM GAS  C:\Users\X0217454\AppData\Local\Temp\ccwJRGby.s 			page 74


 3172 01aa 02       		.byte	0x2
 3173 01ab 23       		.byte	0x23
 3174 01ac 10       		.uleb128 0x10
 3175 01ad 0A       		.uleb128 0xa
 3176 01ae 200D0000 		.4byte	.LASF27
 3177 01b2 03       		.byte	0x3
 3178 01b3 9A01     		.2byte	0x19a
 3179 01b5 EB010000 		.4byte	0x1eb
 3180 01b9 02       		.byte	0x2
 3181 01ba 23       		.byte	0x23
 3182 01bb 38       		.uleb128 0x38
 3183 01bc 0A       		.uleb128 0xa
 3184 01bd D90F0000 		.4byte	.LASF28
 3185 01c1 03       		.byte	0x3
 3186 01c2 9B01     		.2byte	0x19b
 3187 01c4 83000000 		.4byte	0x83
 3188 01c8 02       		.byte	0x2
 3189 01c9 23       		.byte	0x23
 3190 01ca 44       		.uleb128 0x44
 3191 01cb 0A       		.uleb128 0xa
 3192 01cc CC0F0000 		.4byte	.LASF29
 3193 01d0 03       		.byte	0x3
 3194 01d1 9C01     		.2byte	0x19c
 3195 01d3 83000000 		.4byte	0x83
 3196 01d7 02       		.byte	0x2
 3197 01d8 23       		.byte	0x23
 3198 01d9 48       		.uleb128 0x48
 3199 01da 00       		.byte	0
 3200 01db 07       		.uleb128 0x7
 3201 01dc 6A000000 		.4byte	0x6a
 3202 01e0 EB010000 		.4byte	0x1eb
 3203 01e4 08       		.uleb128 0x8
 3204 01e5 E7000000 		.4byte	0xe7
 3205 01e9 13       		.byte	0x13
 3206 01ea 00       		.byte	0
 3207 01eb 07       		.uleb128 0x7
 3208 01ec 6A000000 		.4byte	0x6a
 3209 01f0 FB010000 		.4byte	0x1fb
 3210 01f4 08       		.uleb128 0x8
 3211 01f5 E7000000 		.4byte	0xe7
 3212 01f9 05       		.byte	0x5
 3213 01fa 00       		.byte	0
 3214 01fb 0B       		.uleb128 0xb
 3215 01fc 15010000 		.4byte	.LASF30
 3216 0200 03       		.byte	0x3
 3217 0201 9D01     		.2byte	0x19d
 3218 0203 4A010000 		.4byte	0x14a
 3219 0207 09       		.uleb128 0x9
 3220 0208 2C       		.byte	0x2c
 3221 0209 03       		.byte	0x3
 3222 020a A001     		.2byte	0x1a0
 3223 020c 6B020000 		.4byte	0x26b
 3224 0210 0A       		.uleb128 0xa
 3225 0211 F1010000 		.4byte	.LASF31
 3226 0215 03       		.byte	0x3
 3227 0216 A201     		.2byte	0x1a2
 3228 0218 2A010000 		.4byte	0x12a
ARM GAS  C:\Users\X0217454\AppData\Local\Temp\ccwJRGby.s 			page 75


 3229 021c 02       		.byte	0x2
 3230 021d 23       		.byte	0x23
 3231 021e 00       		.uleb128 0
 3232 021f 0A       		.uleb128 0xa
 3233 0220 A0100000 		.4byte	.LASF32
 3234 0224 03       		.byte	0x3
 3235 0225 A301     		.2byte	0x1a3
 3236 0227 46000000 		.4byte	0x46
 3237 022b 02       		.byte	0x2
 3238 022c 23       		.byte	0x23
 3239 022d 20       		.uleb128 0x20
 3240 022e 0A       		.uleb128 0xa
 3241 022f 0E050000 		.4byte	.LASF33
 3242 0233 03       		.byte	0x3
 3243 0234 A401     		.2byte	0x1a4
 3244 0236 46000000 		.4byte	0x46
 3245 023a 02       		.byte	0x2
 3246 023b 23       		.byte	0x23
 3247 023c 21       		.uleb128 0x21
 3248 023d 0A       		.uleb128 0xa
 3249 023e F6010000 		.4byte	.LASF34
 3250 0242 03       		.byte	0x3
 3251 0243 A501     		.2byte	0x1a5
 3252 0245 1A010000 		.4byte	0x11a
 3253 0249 02       		.byte	0x2
 3254 024a 23       		.byte	0x23
 3255 024b 22       		.uleb128 0x22
 3256 024c 0A       		.uleb128 0xa
 3257 024d 45100000 		.4byte	.LASF35
 3258 0251 03       		.byte	0x3
 3259 0252 A601     		.2byte	0x1a6
 3260 0254 34000000 		.4byte	0x34
 3261 0258 02       		.byte	0x2
 3262 0259 23       		.byte	0x23
 3263 025a 28       		.uleb128 0x28
 3264 025b 0A       		.uleb128 0xa
 3265 025c 390F0000 		.4byte	.LASF36
 3266 0260 03       		.byte	0x3
 3267 0261 A701     		.2byte	0x1a7
 3268 0263 6B020000 		.4byte	0x26b
 3269 0267 02       		.byte	0x2
 3270 0268 23       		.byte	0x23
 3271 0269 29       		.uleb128 0x29
 3272 026a 00       		.byte	0
 3273 026b 07       		.uleb128 0x7
 3274 026c A3000000 		.4byte	0xa3
 3275 0270 7B020000 		.4byte	0x27b
 3276 0274 08       		.uleb128 0x8
 3277 0275 E7000000 		.4byte	0xe7
 3278 0279 02       		.byte	0x2
 3279 027a 00       		.byte	0
 3280 027b 0B       		.uleb128 0xb
 3281 027c 560A0000 		.4byte	.LASF37
 3282 0280 03       		.byte	0x3
 3283 0281 A801     		.2byte	0x1a8
 3284 0283 07020000 		.4byte	0x207
 3285 0287 09       		.uleb128 0x9
ARM GAS  C:\Users\X0217454\AppData\Local\Temp\ccwJRGby.s 			page 76


 3286 0288 0C       		.byte	0xc
 3287 0289 03       		.byte	0x3
 3288 028a AB01     		.2byte	0x1ab
 3289 028c BE020000 		.4byte	0x2be
 3290 0290 0A       		.uleb128 0xa
 3291 0291 7D0A0000 		.4byte	.LASF38
 3292 0295 03       		.byte	0x3
 3293 0296 AD01     		.2byte	0x1ad
 3294 0298 46000000 		.4byte	0x46
 3295 029c 02       		.byte	0x2
 3296 029d 23       		.byte	0x23
 3297 029e 00       		.uleb128 0
 3298 029f 0C       		.uleb128 0xc
 3299 02a0 4B657900 		.ascii	"Key\000"
 3300 02a4 03       		.byte	0x3
 3301 02a5 AE01     		.2byte	0x1ae
 3302 02a7 F4000000 		.4byte	0xf4
 3303 02ab 02       		.byte	0x2
 3304 02ac 23       		.byte	0x23
 3305 02ad 04       		.uleb128 0x4
 3306 02ae 0A       		.uleb128 0xa
 3307 02af 69080000 		.4byte	.LASF39
 3308 02b3 03       		.byte	0x3
 3309 02b4 AF01     		.2byte	0x1af
 3310 02b6 46000000 		.4byte	0x46
 3311 02ba 02       		.byte	0x2
 3312 02bb 23       		.byte	0x23
 3313 02bc 08       		.uleb128 0x8
 3314 02bd 00       		.byte	0
 3315 02be 0B       		.uleb128 0xb
 3316 02bf B00A0000 		.4byte	.LASF40
 3317 02c3 03       		.byte	0x3
 3318 02c4 B001     		.2byte	0x1b0
 3319 02c6 87020000 		.4byte	0x287
 3320 02ca 09       		.uleb128 0x9
 3321 02cb 14       		.byte	0x14
 3322 02cc 03       		.byte	0x3
 3323 02cd B201     		.2byte	0x1b2
 3324 02cf 2E030000 		.4byte	0x32e
 3325 02d3 0A       		.uleb128 0xa
 3326 02d4 220A0000 		.4byte	.LASF41
 3327 02d8 03       		.byte	0x3
 3328 02d9 B401     		.2byte	0x1b4
 3329 02db F4000000 		.4byte	0xf4
 3330 02df 02       		.byte	0x2
 3331 02e0 23       		.byte	0x23
 3332 02e1 00       		.uleb128 0
 3333 02e2 0A       		.uleb128 0xa
 3334 02e3 A70B0000 		.4byte	.LASF42
 3335 02e7 03       		.byte	0x3
 3336 02e8 B501     		.2byte	0x1b5
 3337 02ea 46000000 		.4byte	0x46
 3338 02ee 02       		.byte	0x2
 3339 02ef 23       		.byte	0x23
 3340 02f0 04       		.uleb128 0x4
 3341 02f1 0A       		.uleb128 0xa
 3342 02f2 E8010000 		.4byte	.LASF43
ARM GAS  C:\Users\X0217454\AppData\Local\Temp\ccwJRGby.s 			page 77


 3343 02f6 03       		.byte	0x3
 3344 02f7 B601     		.2byte	0x1b6
 3345 02f9 F4000000 		.4byte	0xf4
 3346 02fd 02       		.byte	0x2
 3347 02fe 23       		.byte	0x23
 3348 02ff 08       		.uleb128 0x8
 3349 0300 0A       		.uleb128 0xa
 3350 0301 36000000 		.4byte	.LASF44
 3351 0305 03       		.byte	0x3
 3352 0306 B701     		.2byte	0x1b7
 3353 0308 46000000 		.4byte	0x46
 3354 030c 02       		.byte	0x2
 3355 030d 23       		.byte	0x23
 3356 030e 0C       		.uleb128 0xc
 3357 030f 0A       		.uleb128 0xa
 3358 0310 540B0000 		.4byte	.LASF45
 3359 0314 03       		.byte	0x3
 3360 0315 B801     		.2byte	0x1b8
 3361 0317 46000000 		.4byte	0x46
 3362 031b 02       		.byte	0x2
 3363 031c 23       		.byte	0x23
 3364 031d 0D       		.uleb128 0xd
 3365 031e 0A       		.uleb128 0xa
 3366 031f 0D0E0000 		.4byte	.LASF46
 3367 0323 03       		.byte	0x3
 3368 0324 B901     		.2byte	0x1b9
 3369 0326 83000000 		.4byte	0x83
 3370 032a 02       		.byte	0x2
 3371 032b 23       		.byte	0x23
 3372 032c 10       		.uleb128 0x10
 3373 032d 00       		.byte	0
 3374 032e 0B       		.uleb128 0xb
 3375 032f EE000000 		.4byte	.LASF47
 3376 0333 03       		.byte	0x3
 3377 0334 BA01     		.2byte	0x1ba
 3378 0336 CA020000 		.4byte	0x2ca
 3379 033a 09       		.uleb128 0x9
 3380 033b 48       		.byte	0x48
 3381 033c 03       		.byte	0x3
 3382 033d BC01     		.2byte	0x1bc
 3383 033f 9E030000 		.4byte	0x39e
 3384 0343 0A       		.uleb128 0xa
 3385 0344 220A0000 		.4byte	.LASF41
 3386 0348 03       		.byte	0x3
 3387 0349 BE01     		.2byte	0x1be
 3388 034b 9E030000 		.4byte	0x39e
 3389 034f 02       		.byte	0x2
 3390 0350 23       		.byte	0x23
 3391 0351 00       		.uleb128 0
 3392 0352 0A       		.uleb128 0xa
 3393 0353 A70B0000 		.4byte	.LASF42
 3394 0357 03       		.byte	0x3
 3395 0358 BF01     		.2byte	0x1bf
 3396 035a 46000000 		.4byte	0x46
 3397 035e 02       		.byte	0x2
 3398 035f 23       		.byte	0x23
 3399 0360 20       		.uleb128 0x20
ARM GAS  C:\Users\X0217454\AppData\Local\Temp\ccwJRGby.s 			page 78


 3400 0361 0A       		.uleb128 0xa
 3401 0362 E8010000 		.4byte	.LASF43
 3402 0366 03       		.byte	0x3
 3403 0367 C001     		.2byte	0x1c0
 3404 0369 9E030000 		.4byte	0x39e
 3405 036d 02       		.byte	0x2
 3406 036e 23       		.byte	0x23
 3407 036f 21       		.uleb128 0x21
 3408 0370 0A       		.uleb128 0xa
 3409 0371 36000000 		.4byte	.LASF44
 3410 0375 03       		.byte	0x3
 3411 0376 C101     		.2byte	0x1c1
 3412 0378 46000000 		.4byte	0x46
 3413 037c 02       		.byte	0x2
 3414 037d 23       		.byte	0x23
 3415 037e 41       		.uleb128 0x41
 3416 037f 0A       		.uleb128 0xa
 3417 0380 540B0000 		.4byte	.LASF45
 3418 0384 03       		.byte	0x3
 3419 0385 C201     		.2byte	0x1c2
 3420 0387 46000000 		.4byte	0x46
 3421 038b 02       		.byte	0x2
 3422 038c 23       		.byte	0x23
 3423 038d 42       		.uleb128 0x42
 3424 038e 0A       		.uleb128 0xa
 3425 038f 0D0E0000 		.4byte	.LASF46
 3426 0393 03       		.byte	0x3
 3427 0394 C301     		.2byte	0x1c3
 3428 0396 83000000 		.4byte	0x83
 3429 039a 02       		.byte	0x2
 3430 039b 23       		.byte	0x23
 3431 039c 44       		.uleb128 0x44
 3432 039d 00       		.byte	0
 3433 039e 07       		.uleb128 0x7
 3434 039f A3000000 		.4byte	0xa3
 3435 03a3 AE030000 		.4byte	0x3ae
 3436 03a7 08       		.uleb128 0x8
 3437 03a8 E7000000 		.4byte	0xe7
 3438 03ac 1F       		.byte	0x1f
 3439 03ad 00       		.byte	0
 3440 03ae 0B       		.uleb128 0xb
 3441 03af 24040000 		.4byte	.LASF48
 3442 03b3 03       		.byte	0x3
 3443 03b4 C401     		.2byte	0x1c4
 3444 03b6 3A030000 		.4byte	0x33a
 3445 03ba 02       		.uleb128 0x2
 3446 03bb B4020000 		.4byte	.LASF49
 3447 03bf 04       		.byte	0x4
 3448 03c0 60       		.byte	0x60
 3449 03c1 34000000 		.4byte	0x34
 3450 03c5 02       		.uleb128 0x2
 3451 03c6 E80F0000 		.4byte	.LASF50
 3452 03ca 04       		.byte	0x4
 3453 03cb 67       		.byte	0x67
 3454 03cc 46000000 		.4byte	0x46
 3455 03d0 0D       		.uleb128 0xd
 3456 03d1 66070000 		.4byte	.LASF51
ARM GAS  C:\Users\X0217454\AppData\Local\Temp\ccwJRGby.s 			page 79


 3457 03d5 20       		.byte	0x20
 3458 03d6 04       		.byte	0x4
 3459 03d7 8B       		.byte	0x8b
 3460 03d8 E9030000 		.4byte	0x3e9
 3461 03dc 0E       		.uleb128 0xe
 3462 03dd 7800     		.ascii	"x\000"
 3463 03df 04       		.byte	0x4
 3464 03e0 8D       		.byte	0x8d
 3465 03e1 2A010000 		.4byte	0x12a
 3466 03e5 02       		.byte	0x2
 3467 03e6 23       		.byte	0x23
 3468 03e7 00       		.uleb128 0
 3469 03e8 00       		.byte	0
 3470 03e9 02       		.uleb128 0x2
 3471 03ea 66070000 		.4byte	.LASF51
 3472 03ee 04       		.byte	0x4
 3473 03ef 8E       		.byte	0x8e
 3474 03f0 D0030000 		.4byte	0x3d0
 3475 03f4 02       		.uleb128 0x2
 3476 03f5 CF050000 		.4byte	.LASF52
 3477 03f9 04       		.byte	0x4
 3478 03fa 95       		.byte	0x95
 3479 03fb 46000000 		.4byte	0x46
 3480 03ff 02       		.uleb128 0x2
 3481 0400 C2090000 		.4byte	.LASF53
 3482 0404 04       		.byte	0x4
 3483 0405 9B       		.byte	0x9b
 3484 0406 46000000 		.4byte	0x46
 3485 040a 02       		.uleb128 0x2
 3486 040b CB080000 		.4byte	.LASF54
 3487 040f 04       		.byte	0x4
 3488 0410 A4       		.byte	0xa4
 3489 0411 46000000 		.4byte	0x46
 3490 0415 02       		.uleb128 0x2
 3491 0416 E1020000 		.4byte	.LASF55
 3492 041a 04       		.byte	0x4
 3493 041b AC       		.byte	0xac
 3494 041c 83000000 		.4byte	0x83
 3495 0420 02       		.uleb128 0x2
 3496 0421 21100000 		.4byte	.LASF56
 3497 0425 04       		.byte	0x4
 3498 0426 B4       		.byte	0xb4
 3499 0427 46000000 		.4byte	0x46
 3500 042b 0F       		.uleb128 0xf
 3501 042c 00030000 		.4byte	.LASF57
 3502 0430 01       		.byte	0x1
 3503 0431 04       		.byte	0x4
 3504 0432 C7       		.byte	0xc7
 3505 0433 43040000 		.4byte	0x443
 3506 0437 10       		.uleb128 0x10
 3507 0438 8D000000 		.4byte	.LASF62
 3508 043c 04       		.byte	0x4
 3509 043d E1       		.byte	0xe1
 3510 043e 46000000 		.4byte	0x46
 3511 0442 00       		.byte	0
 3512 0443 02       		.uleb128 0x2
 3513 0444 00030000 		.4byte	.LASF57
ARM GAS  C:\Users\X0217454\AppData\Local\Temp\ccwJRGby.s 			page 80


 3514 0448 04       		.byte	0x4
 3515 0449 E3       		.byte	0xe3
 3516 044a 2B040000 		.4byte	0x42b
 3517 044e 02       		.uleb128 0x2
 3518 044f 800D0000 		.4byte	.LASF58
 3519 0453 04       		.byte	0x4
 3520 0454 E9       		.byte	0xe9
 3521 0455 46000000 		.4byte	0x46
 3522 0459 02       		.uleb128 0x2
 3523 045a 3A0E0000 		.4byte	.LASF59
 3524 045e 04       		.byte	0x4
 3525 045f F5       		.byte	0xf5
 3526 0460 46000000 		.4byte	0x46
 3527 0464 0B       		.uleb128 0xb
 3528 0465 54000000 		.4byte	.LASF60
 3529 0469 04       		.byte	0x4
 3530 046a 0601     		.2byte	0x106
 3531 046c 46000000 		.4byte	0x46
 3532 0470 11       		.uleb128 0x11
 3533 0471 43020000 		.4byte	.LASF61
 3534 0475 24       		.byte	0x24
 3535 0476 04       		.byte	0x4
 3536 0477 2E01     		.2byte	0x12e
 3537 0479 C6040000 		.4byte	0x4c6
 3538 047d 12       		.uleb128 0x12
 3539 047e 6C100000 		.4byte	.LASF63
 3540 0482 04       		.byte	0x4
 3541 0483 3601     		.2byte	0x136
 3542 0485 C6040000 		.4byte	0x4c6
 3543 0489 12       		.uleb128 0x12
 3544 048a 9D0E0000 		.4byte	.LASF64
 3545 048e 04       		.byte	0x4
 3546 048f 4001     		.2byte	0x140
 3547 0491 DC040000 		.4byte	0x4dc
 3548 0495 12       		.uleb128 0x12
 3549 0496 05070000 		.4byte	.LASF65
 3550 049a 04       		.byte	0x4
 3551 049b 4601     		.2byte	0x146
 3552 049d F2040000 		.4byte	0x4f2
 3553 04a1 12       		.uleb128 0x12
 3554 04a2 3D050000 		.4byte	.LASF66
 3555 04a6 04       		.byte	0x4
 3556 04a7 4C01     		.2byte	0x14c
 3557 04a9 08050000 		.4byte	0x508
 3558 04ad 12       		.uleb128 0x12
 3559 04ae 9A050000 		.4byte	.LASF67
 3560 04b2 04       		.byte	0x4
 3561 04b3 5001     		.2byte	0x150
 3562 04b5 1E050000 		.4byte	0x51e
 3563 04b9 12       		.uleb128 0x12
 3564 04ba 70050000 		.4byte	.LASF68
 3565 04be 04       		.byte	0x4
 3566 04bf 5401     		.2byte	0x154
 3567 04c1 34050000 		.4byte	0x534
 3568 04c5 00       		.byte	0
 3569 04c6 07       		.uleb128 0x7
 3570 04c7 FF030000 		.4byte	0x3ff
ARM GAS  C:\Users\X0217454\AppData\Local\Temp\ccwJRGby.s 			page 81


 3571 04cb DC040000 		.4byte	0x4dc
 3572 04cf 08       		.uleb128 0x8
 3573 04d0 E7000000 		.4byte	0xe7
 3574 04d4 01       		.byte	0x1
 3575 04d5 08       		.uleb128 0x8
 3576 04d6 E7000000 		.4byte	0xe7
 3577 04da 0F       		.byte	0xf
 3578 04db 00       		.byte	0
 3579 04dc 07       		.uleb128 0x7
 3580 04dd FF030000 		.4byte	0x3ff
 3581 04e1 F2040000 		.4byte	0x4f2
 3582 04e5 08       		.uleb128 0x8
 3583 04e6 E7000000 		.4byte	0xe7
 3584 04ea 01       		.byte	0x1
 3585 04eb 08       		.uleb128 0x8
 3586 04ec E7000000 		.4byte	0xe7
 3587 04f0 05       		.byte	0x5
 3588 04f1 00       		.byte	0
 3589 04f2 07       		.uleb128 0x7
 3590 04f3 F4030000 		.4byte	0x3f4
 3591 04f7 08050000 		.4byte	0x508
 3592 04fb 08       		.uleb128 0x8
 3593 04fc E7000000 		.4byte	0xe7
 3594 0500 01       		.byte	0x1
 3595 0501 08       		.uleb128 0x8
 3596 0502 E7000000 		.4byte	0xe7
 3597 0506 11       		.byte	0x11
 3598 0507 00       		.byte	0
 3599 0508 07       		.uleb128 0x7
 3600 0509 FF030000 		.4byte	0x3ff
 3601 050d 1E050000 		.4byte	0x51e
 3602 0511 08       		.uleb128 0x8
 3603 0512 E7000000 		.4byte	0xe7
 3604 0516 01       		.byte	0x1
 3605 0517 08       		.uleb128 0x8
 3606 0518 E7000000 		.4byte	0xe7
 3607 051c 03       		.byte	0x3
 3608 051d 00       		.byte	0
 3609 051e 07       		.uleb128 0x7
 3610 051f F4030000 		.4byte	0x3f4
 3611 0523 34050000 		.4byte	0x534
 3612 0527 08       		.uleb128 0x8
 3613 0528 E7000000 		.4byte	0xe7
 3614 052c 01       		.byte	0x1
 3615 052d 08       		.uleb128 0x8
 3616 052e E7000000 		.4byte	0xe7
 3617 0532 04       		.byte	0x4
 3618 0533 00       		.byte	0
 3619 0534 07       		.uleb128 0x7
 3620 0535 FF030000 		.4byte	0x3ff
 3621 0539 4A050000 		.4byte	0x54a
 3622 053d 08       		.uleb128 0x8
 3623 053e E7000000 		.4byte	0xe7
 3624 0542 01       		.byte	0x1
 3625 0543 08       		.uleb128 0x8
 3626 0544 E7000000 		.4byte	0xe7
 3627 0548 00       		.byte	0
ARM GAS  C:\Users\X0217454\AppData\Local\Temp\ccwJRGby.s 			page 82


 3628 0549 00       		.byte	0
 3629 054a 0B       		.uleb128 0xb
 3630 054b 43020000 		.4byte	.LASF61
 3631 054f 04       		.byte	0x4
 3632 0550 5501     		.2byte	0x155
 3633 0552 70040000 		.4byte	0x470
 3634 0556 13       		.uleb128 0x13
 3635 0557 4A100000 		.4byte	.LASF69
 3636 055b 34       		.byte	0x34
 3637 055c 04       		.byte	0x4
 3638 055d 5D01     		.2byte	0x15d
 3639 055f 82050000 		.4byte	0x582
 3640 0563 0A       		.uleb128 0xa
 3641 0564 F5080000 		.4byte	.LASF70
 3642 0568 04       		.byte	0x4
 3643 0569 6101     		.2byte	0x161
 3644 056b 4A050000 		.4byte	0x54a
 3645 056f 02       		.byte	0x2
 3646 0570 23       		.byte	0x23
 3647 0571 00       		.uleb128 0
 3648 0572 0A       		.uleb128 0xa
 3649 0573 32090000 		.4byte	.LASF71
 3650 0577 04       		.byte	0x4
 3651 0578 6701     		.2byte	0x167
 3652 057a 82050000 		.4byte	0x582
 3653 057e 02       		.byte	0x2
 3654 057f 23       		.byte	0x23
 3655 0580 24       		.uleb128 0x24
 3656 0581 00       		.byte	0
 3657 0582 07       		.uleb128 0x7
 3658 0583 C5030000 		.4byte	0x3c5
 3659 0587 92050000 		.4byte	0x592
 3660 058b 08       		.uleb128 0x8
 3661 058c E7000000 		.4byte	0xe7
 3662 0590 0F       		.byte	0xf
 3663 0591 00       		.byte	0
 3664 0592 0B       		.uleb128 0xb
 3665 0593 4A100000 		.4byte	.LASF69
 3666 0597 04       		.byte	0x4
 3667 0598 6901     		.2byte	0x169
 3668 059a 56050000 		.4byte	0x556
 3669 059e 13       		.uleb128 0x13
 3670 059f D00A0000 		.4byte	.LASF72
 3671 05a3 38       		.byte	0x38
 3672 05a4 04       		.byte	0x4
 3673 05a5 7201     		.2byte	0x172
 3674 05a7 E8050000 		.4byte	0x5e8
 3675 05ab 0A       		.uleb128 0xa
 3676 05ac 09000000 		.4byte	.LASF73
 3677 05b0 04       		.byte	0x4
 3678 05b1 7601     		.2byte	0x176
 3679 05b3 92050000 		.4byte	0x592
 3680 05b7 02       		.byte	0x2
 3681 05b8 23       		.byte	0x23
 3682 05b9 00       		.uleb128 0
 3683 05ba 0A       		.uleb128 0xa
 3684 05bb 62090000 		.4byte	.LASF74
ARM GAS  C:\Users\X0217454\AppData\Local\Temp\ccwJRGby.s 			page 83


 3685 05bf 04       		.byte	0x4
 3686 05c0 7A01     		.2byte	0x17a
 3687 05c2 64040000 		.4byte	0x464
 3688 05c6 02       		.byte	0x2
 3689 05c7 23       		.byte	0x23
 3690 05c8 34       		.uleb128 0x34
 3691 05c9 0A       		.uleb128 0xa
 3692 05ca 22050000 		.4byte	.LASF75
 3693 05ce 04       		.byte	0x4
 3694 05cf 8001     		.2byte	0x180
 3695 05d1 4E040000 		.4byte	0x44e
 3696 05d5 02       		.byte	0x2
 3697 05d6 23       		.byte	0x23
 3698 05d7 35       		.uleb128 0x35
 3699 05d8 0A       		.uleb128 0xa
 3700 05d9 DA030000 		.4byte	.LASF76
 3701 05dd 04       		.byte	0x4
 3702 05de 8401     		.2byte	0x184
 3703 05e0 3A010000 		.4byte	0x13a
 3704 05e4 02       		.byte	0x2
 3705 05e5 23       		.byte	0x23
 3706 05e6 36       		.uleb128 0x36
 3707 05e7 00       		.byte	0
 3708 05e8 0B       		.uleb128 0xb
 3709 05e9 D00A0000 		.4byte	.LASF72
 3710 05ed 04       		.byte	0x4
 3711 05ee 8601     		.2byte	0x186
 3712 05f0 9E050000 		.4byte	0x59e
 3713 05f4 13       		.uleb128 0x13
 3714 05f5 2E0D0000 		.4byte	.LASF77
 3715 05f9 28       		.byte	0x28
 3716 05fa 04       		.byte	0x4
 3717 05fb 8D01     		.2byte	0x18d
 3718 05fd 2F060000 		.4byte	0x62f
 3719 0601 0A       		.uleb128 0xa
 3720 0602 E4050000 		.4byte	.LASF78
 3721 0606 04       		.byte	0x4
 3722 0607 9101     		.2byte	0x191
 3723 0609 E9030000 		.4byte	0x3e9
 3724 060d 02       		.byte	0x2
 3725 060e 23       		.byte	0x23
 3726 060f 00       		.uleb128 0
 3727 0610 0A       		.uleb128 0xa
 3728 0611 02050000 		.4byte	.LASF79
 3729 0615 04       		.byte	0x4
 3730 0616 9401     		.2byte	0x194
 3731 0618 15040000 		.4byte	0x415
 3732 061c 02       		.byte	0x2
 3733 061d 23       		.byte	0x23
 3734 061e 20       		.uleb128 0x20
 3735 061f 0A       		.uleb128 0xa
 3736 0620 5E060000 		.4byte	.LASF80
 3737 0624 04       		.byte	0x4
 3738 0625 9701     		.2byte	0x197
 3739 0627 15040000 		.4byte	0x415
 3740 062b 02       		.byte	0x2
 3741 062c 23       		.byte	0x23
ARM GAS  C:\Users\X0217454\AppData\Local\Temp\ccwJRGby.s 			page 84


 3742 062d 24       		.uleb128 0x24
 3743 062e 00       		.byte	0
 3744 062f 0B       		.uleb128 0xb
 3745 0630 2E0D0000 		.4byte	.LASF77
 3746 0634 04       		.byte	0x4
 3747 0635 9801     		.2byte	0x198
 3748 0637 F4050000 		.4byte	0x5f4
 3749 063b 0B       		.uleb128 0xb
 3750 063c 7C060000 		.4byte	.LASF81
 3751 0640 04       		.byte	0x4
 3752 0641 9E01     		.2byte	0x19e
 3753 0643 46000000 		.4byte	0x46
 3754 0647 13       		.uleb128 0x13
 3755 0648 630E0000 		.4byte	.LASF82
 3756 064c 04       		.byte	0x4
 3757 064d 04       		.byte	0x4
 3758 064e AE01     		.2byte	0x1ae
 3759 0650 82060000 		.4byte	0x682
 3760 0654 0A       		.uleb128 0xa
 3761 0655 CF040000 		.4byte	.LASF83
 3762 0659 04       		.byte	0x4
 3763 065a B201     		.2byte	0x1b2
 3764 065c 3B060000 		.4byte	0x63b
 3765 0660 02       		.byte	0x2
 3766 0661 23       		.byte	0x23
 3767 0662 00       		.uleb128 0
 3768 0663 0A       		.uleb128 0xa
 3769 0664 A0060000 		.4byte	.LASF84
 3770 0668 04       		.byte	0x4
 3771 0669 B501     		.2byte	0x1b5
 3772 066b 82060000 		.4byte	0x682
 3773 066f 02       		.byte	0x2
 3774 0670 23       		.byte	0x23
 3775 0671 01       		.uleb128 0x1
 3776 0672 0A       		.uleb128 0xa
 3777 0673 FE0A0000 		.4byte	.LASF85
 3778 0677 04       		.byte	0x4
 3779 0678 B801     		.2byte	0x1b8
 3780 067a 46000000 		.4byte	0x46
 3781 067e 02       		.byte	0x2
 3782 067f 23       		.byte	0x23
 3783 0680 03       		.uleb128 0x3
 3784 0681 00       		.byte	0
 3785 0682 07       		.uleb128 0x7
 3786 0683 BA030000 		.4byte	0x3ba
 3787 0687 92060000 		.4byte	0x692
 3788 068b 08       		.uleb128 0x8
 3789 068c E7000000 		.4byte	0xe7
 3790 0690 01       		.byte	0x1
 3791 0691 00       		.byte	0
 3792 0692 0B       		.uleb128 0xb
 3793 0693 630E0000 		.4byte	.LASF82
 3794 0697 04       		.byte	0x4
 3795 0698 B901     		.2byte	0x1b9
 3796 069a 47060000 		.4byte	0x647
 3797 069e 11       		.uleb128 0x11
 3798 069f 6C0A0000 		.4byte	.LASF86
ARM GAS  C:\Users\X0217454\AppData\Local\Temp\ccwJRGby.s 			page 85


 3799 06a3 38       		.byte	0x38
 3800 06a4 04       		.byte	0x4
 3801 06a5 C101     		.2byte	0x1c1
 3802 06a7 D0060000 		.4byte	0x6d0
 3803 06ab 12       		.uleb128 0x12
 3804 06ac 32050000 		.4byte	.LASF87
 3805 06b0 04       		.byte	0x4
 3806 06b1 C501     		.2byte	0x1c5
 3807 06b3 E8050000 		.4byte	0x5e8
 3808 06b7 12       		.uleb128 0x12
 3809 06b8 C3020000 		.4byte	.LASF88
 3810 06bc 04       		.byte	0x4
 3811 06bd C801     		.2byte	0x1c8
 3812 06bf 2F060000 		.4byte	0x62f
 3813 06c3 12       		.uleb128 0x12
 3814 06c4 460D0000 		.4byte	.LASF89
 3815 06c8 04       		.byte	0x4
 3816 06c9 CB01     		.2byte	0x1cb
 3817 06cb 92060000 		.4byte	0x692
 3818 06cf 00       		.byte	0
 3819 06d0 0B       		.uleb128 0xb
 3820 06d1 6C0A0000 		.4byte	.LASF86
 3821 06d5 04       		.byte	0x4
 3822 06d6 CC01     		.2byte	0x1cc
 3823 06d8 9E060000 		.4byte	0x69e
 3824 06dc 11       		.uleb128 0x11
 3825 06dd A0080000 		.4byte	.LASF90
 3826 06e1 01       		.byte	0x1
 3827 06e2 04       		.byte	0x4
 3828 06e3 D701     		.2byte	0x1d7
 3829 06e5 F6060000 		.4byte	0x6f6
 3830 06e9 12       		.uleb128 0x12
 3831 06ea 8D000000 		.4byte	.LASF62
 3832 06ee 04       		.byte	0x4
 3833 06ef E201     		.2byte	0x1e2
 3834 06f1 46000000 		.4byte	0x46
 3835 06f5 00       		.byte	0
 3836 06f6 0B       		.uleb128 0xb
 3837 06f7 A0080000 		.4byte	.LASF90
 3838 06fb 04       		.byte	0x4
 3839 06fc E401     		.2byte	0x1e4
 3840 06fe DC060000 		.4byte	0x6dc
 3841 0702 11       		.uleb128 0x11
 3842 0703 E1060000 		.4byte	.LASF91
 3843 0707 01       		.byte	0x1
 3844 0708 04       		.byte	0x4
 3845 0709 EF01     		.2byte	0x1ef
 3846 070b 1C070000 		.4byte	0x71c
 3847 070f 12       		.uleb128 0x12
 3848 0710 8D000000 		.4byte	.LASF62
 3849 0714 04       		.byte	0x4
 3850 0715 FC01     		.2byte	0x1fc
 3851 0717 46000000 		.4byte	0x46
 3852 071b 00       		.byte	0
 3853 071c 0B       		.uleb128 0xb
 3854 071d E1060000 		.4byte	.LASF91
 3855 0721 04       		.byte	0x4
ARM GAS  C:\Users\X0217454\AppData\Local\Temp\ccwJRGby.s 			page 86


 3856 0722 FE01     		.2byte	0x1fe
 3857 0724 02070000 		.4byte	0x702
 3858 0728 0B       		.uleb128 0xb
 3859 0729 9C0D0000 		.4byte	.LASF92
 3860 072d 04       		.byte	0x4
 3861 072e 0702     		.2byte	0x207
 3862 0730 83000000 		.4byte	0x83
 3863 0734 0B       		.uleb128 0xb
 3864 0735 4C090000 		.4byte	.LASF93
 3865 0739 04       		.byte	0x4
 3866 073a 0E02     		.2byte	0x20e
 3867 073c 46000000 		.4byte	0x46
 3868 0740 13       		.uleb128 0x13
 3869 0741 0C090000 		.4byte	.LASF94
 3870 0745 0C       		.byte	0xc
 3871 0746 04       		.byte	0x4
 3872 0747 3E02     		.2byte	0x23e
 3873 0749 B7070000 		.4byte	0x7b7
 3874 074d 0A       		.uleb128 0xa
 3875 074e 86100000 		.4byte	.LASF95
 3876 0752 04       		.byte	0x4
 3877 0753 4402     		.2byte	0x244
 3878 0755 BA030000 		.4byte	0x3ba
 3879 0759 02       		.byte	0x2
 3880 075a 23       		.byte	0x23
 3881 075b 00       		.uleb128 0
 3882 075c 0A       		.uleb128 0xa
 3883 075d E7040000 		.4byte	.LASF96
 3884 0761 04       		.byte	0x4
 3885 0762 4702     		.2byte	0x247
 3886 0764 34070000 		.4byte	0x734
 3887 0768 02       		.byte	0x2
 3888 0769 23       		.byte	0x23
 3889 076a 01       		.uleb128 0x1
 3890 076b 0A       		.uleb128 0xa
 3891 076c 56050000 		.4byte	.LASF97
 3892 0770 04       		.byte	0x4
 3893 0771 4A02     		.2byte	0x24a
 3894 0773 1C070000 		.4byte	0x71c
 3895 0777 02       		.byte	0x2
 3896 0778 23       		.byte	0x23
 3897 0779 02       		.uleb128 0x2
 3898 077a 0A       		.uleb128 0xa
 3899 077b 9B0A0000 		.4byte	.LASF98
 3900 077f 04       		.byte	0x4
 3901 0780 4D02     		.2byte	0x24d
 3902 0782 F6060000 		.4byte	0x6f6
 3903 0786 02       		.byte	0x2
 3904 0787 23       		.byte	0x23
 3905 0788 03       		.uleb128 0x3
 3906 0789 0A       		.uleb128 0xa
 3907 078a B9080000 		.4byte	.LASF99
 3908 078e 04       		.byte	0x4
 3909 078f 5002     		.2byte	0x250
 3910 0791 28070000 		.4byte	0x728
 3911 0795 02       		.byte	0x2
 3912 0796 23       		.byte	0x23
ARM GAS  C:\Users\X0217454\AppData\Local\Temp\ccwJRGby.s 			page 87


 3913 0797 04       		.uleb128 0x4
 3914 0798 0A       		.uleb128 0xa
 3915 0799 B8050000 		.4byte	.LASF100
 3916 079d 04       		.byte	0x4
 3917 079e 5602     		.2byte	0x256
 3918 07a0 59040000 		.4byte	0x459
 3919 07a4 02       		.byte	0x2
 3920 07a5 23       		.byte	0x23
 3921 07a6 08       		.uleb128 0x8
 3922 07a7 0A       		.uleb128 0xa
 3923 07a8 FE0A0000 		.4byte	.LASF85
 3924 07ac 04       		.byte	0x4
 3925 07ad 5A02     		.2byte	0x25a
 3926 07af FA000000 		.4byte	0xfa
 3927 07b3 02       		.byte	0x2
 3928 07b4 23       		.byte	0x23
 3929 07b5 09       		.uleb128 0x9
 3930 07b6 00       		.byte	0
 3931 07b7 0B       		.uleb128 0xb
 3932 07b8 0C090000 		.4byte	.LASF94
 3933 07bc 04       		.byte	0x4
 3934 07bd 5B02     		.2byte	0x25b
 3935 07bf 40070000 		.4byte	0x740
 3936 07c3 11       		.uleb128 0x11
 3937 07c4 8B090000 		.4byte	.LASF101
 3938 07c8 01       		.byte	0x1
 3939 07c9 04       		.byte	0x4
 3940 07ca 6D02     		.2byte	0x26d
 3941 07cc DD070000 		.4byte	0x7dd
 3942 07d0 12       		.uleb128 0x12
 3943 07d1 8D000000 		.4byte	.LASF62
 3944 07d5 04       		.byte	0x4
 3945 07d6 8602     		.2byte	0x286
 3946 07d8 46000000 		.4byte	0x46
 3947 07dc 00       		.byte	0
 3948 07dd 0B       		.uleb128 0xb
 3949 07de 8B090000 		.4byte	.LASF101
 3950 07e2 04       		.byte	0x4
 3951 07e3 8802     		.2byte	0x288
 3952 07e5 C3070000 		.4byte	0x7c3
 3953 07e9 13       		.uleb128 0x13
 3954 07ea B50D0000 		.4byte	.LASF102
 3955 07ee 08       		.byte	0x8
 3956 07ef 04       		.byte	0x4
 3957 07f0 8F02     		.2byte	0x28f
 3958 07f2 24080000 		.4byte	0x824
 3959 07f6 0A       		.uleb128 0xa
 3960 07f7 A9020000 		.4byte	.LASF103
 3961 07fb 04       		.byte	0x4
 3962 07fc 9302     		.2byte	0x293
 3963 07fe DD070000 		.4byte	0x7dd
 3964 0802 02       		.byte	0x2
 3965 0803 23       		.byte	0x23
 3966 0804 00       		.uleb128 0
 3967 0805 0A       		.uleb128 0xa
 3968 0806 2D0A0000 		.4byte	.LASF104
 3969 080a 04       		.byte	0x4
ARM GAS  C:\Users\X0217454\AppData\Local\Temp\ccwJRGby.s 			page 88


 3970 080b 9E02     		.2byte	0x29e
 3971 080d 24080000 		.4byte	0x824
 3972 0811 02       		.byte	0x2
 3973 0812 23       		.byte	0x23
 3974 0813 01       		.uleb128 0x1
 3975 0814 0A       		.uleb128 0xa
 3976 0815 FE0A0000 		.4byte	.LASF85
 3977 0819 04       		.byte	0x4
 3978 081a A202     		.2byte	0x2a2
 3979 081c 3A010000 		.4byte	0x13a
 3980 0820 02       		.byte	0x2
 3981 0821 23       		.byte	0x23
 3982 0822 06       		.uleb128 0x6
 3983 0823 00       		.byte	0
 3984 0824 07       		.uleb128 0x7
 3985 0825 0A040000 		.4byte	0x40a
 3986 0829 34080000 		.4byte	0x834
 3987 082d 08       		.uleb128 0x8
 3988 082e E7000000 		.4byte	0xe7
 3989 0832 04       		.byte	0x4
 3990 0833 00       		.byte	0
 3991 0834 0B       		.uleb128 0xb
 3992 0835 B50D0000 		.4byte	.LASF102
 3993 0839 04       		.byte	0x4
 3994 083a A402     		.2byte	0x2a4
 3995 083c E9070000 		.4byte	0x7e9
 3996 0840 07       		.uleb128 0x7
 3997 0841 3B000000 		.4byte	0x3b
 3998 0845 50080000 		.4byte	0x850
 3999 0849 08       		.uleb128 0x8
 4000 084a E7000000 		.4byte	0xe7
 4001 084e 01       		.byte	0x1
 4002 084f 00       		.byte	0
 4003 0850 0B       		.uleb128 0xb
 4004 0851 08040000 		.4byte	.LASF105
 4005 0855 04       		.byte	0x4
 4006 0856 F502     		.2byte	0x2f5
 4007 0858 46000000 		.4byte	0x46
 4008 085c 09       		.uleb128 0x9
 4009 085d 04       		.byte	0x4
 4010 085e 05       		.byte	0x5
 4011 085f 7C01     		.2byte	0x17c
 4012 0861 84080000 		.4byte	0x884
 4013 0865 0A       		.uleb128 0xa
 4014 0866 5F070000 		.4byte	.LASF106
 4015 086a 05       		.byte	0x5
 4016 086b 7E01     		.2byte	0x17e
 4017 086d 4D000000 		.4byte	0x4d
 4018 0871 02       		.byte	0x2
 4019 0872 23       		.byte	0x23
 4020 0873 00       		.uleb128 0
 4021 0874 0A       		.uleb128 0xa
 4022 0875 FA0E0000 		.4byte	.LASF107
 4023 0879 05       		.byte	0x5
 4024 087a 7F01     		.2byte	0x17f
 4025 087c 5F000000 		.4byte	0x5f
 4026 0880 02       		.byte	0x2
ARM GAS  C:\Users\X0217454\AppData\Local\Temp\ccwJRGby.s 			page 89


 4027 0881 23       		.byte	0x23
 4028 0882 02       		.uleb128 0x2
 4029 0883 00       		.byte	0
 4030 0884 0B       		.uleb128 0xb
 4031 0885 C0010000 		.4byte	.LASF108
 4032 0889 05       		.byte	0x5
 4033 088a 8101     		.2byte	0x181
 4034 088c 5C080000 		.4byte	0x85c
 4035 0890 07       		.uleb128 0x7
 4036 0891 3B000000 		.4byte	0x3b
 4037 0895 A0080000 		.4byte	0x8a0
 4038 0899 08       		.uleb128 0x8
 4039 089a E7000000 		.4byte	0xe7
 4040 089e 02       		.byte	0x2
 4041 089f 00       		.byte	0
 4042 08a0 09       		.uleb128 0x9
 4043 08a1 09       		.byte	0x9
 4044 08a2 05       		.byte	0x5
 4045 08a3 D001     		.2byte	0x1d0
 4046 08a5 E6080000 		.4byte	0x8e6
 4047 08a9 0A       		.uleb128 0xa
 4048 08aa 3D040000 		.4byte	.LASF109
 4049 08ae 05       		.byte	0x5
 4050 08af D101     		.2byte	0x1d1
 4051 08b1 3B000000 		.4byte	0x3b
 4052 08b5 02       		.byte	0x2
 4053 08b6 23       		.byte	0x23
 4054 08b7 00       		.uleb128 0
 4055 08b8 0A       		.uleb128 0xa
 4056 08b9 200F0000 		.4byte	.LASF110
 4057 08bd 05       		.byte	0x5
 4058 08be D201     		.2byte	0x1d2
 4059 08c0 3B000000 		.4byte	0x3b
 4060 08c4 02       		.byte	0x2
 4061 08c5 23       		.byte	0x23
 4062 08c6 01       		.uleb128 0x1
 4063 08c7 0A       		.uleb128 0xa
 4064 08c8 7B010000 		.4byte	.LASF111
 4065 08cc 05       		.byte	0x5
 4066 08cd D301     		.2byte	0x1d3
 4067 08cf E6080000 		.4byte	0x8e6
 4068 08d3 02       		.byte	0x2
 4069 08d4 23       		.byte	0x23
 4070 08d5 02       		.uleb128 0x2
 4071 08d6 0A       		.uleb128 0xa
 4072 08d7 570E0000 		.4byte	.LASF112
 4073 08db 05       		.byte	0x5
 4074 08dc D401     		.2byte	0x1d4
 4075 08de 3B000000 		.4byte	0x3b
 4076 08e2 02       		.byte	0x2
 4077 08e3 23       		.byte	0x23
 4078 08e4 08       		.uleb128 0x8
 4079 08e5 00       		.byte	0
 4080 08e6 07       		.uleb128 0x7
 4081 08e7 3B000000 		.4byte	0x3b
 4082 08eb F6080000 		.4byte	0x8f6
 4083 08ef 08       		.uleb128 0x8
ARM GAS  C:\Users\X0217454\AppData\Local\Temp\ccwJRGby.s 			page 90


 4084 08f0 E7000000 		.4byte	0xe7
 4085 08f4 05       		.byte	0x5
 4086 08f5 00       		.byte	0
 4087 08f6 0B       		.uleb128 0xb
 4088 08f7 B2030000 		.4byte	.LASF113
 4089 08fb 05       		.byte	0x5
 4090 08fc D501     		.2byte	0x1d5
 4091 08fe A0080000 		.4byte	0x8a0
 4092 0902 09       		.uleb128 0x9
 4093 0903 10       		.byte	0x10
 4094 0904 05       		.byte	0x5
 4095 0905 DA01     		.2byte	0x1da
 4096 0907 57090000 		.4byte	0x957
 4097 090b 0A       		.uleb128 0xa
 4098 090c 95030000 		.4byte	.LASF114
 4099 0910 05       		.byte	0x5
 4100 0911 DB01     		.2byte	0x1db
 4101 0913 F6080000 		.4byte	0x8f6
 4102 0917 02       		.byte	0x2
 4103 0918 23       		.byte	0x23
 4104 0919 00       		.uleb128 0
 4105 091a 0A       		.uleb128 0xa
 4106 091b A70B0000 		.4byte	.LASF42
 4107 091f 05       		.byte	0x5
 4108 0920 DC01     		.2byte	0x1dc
 4109 0922 3B000000 		.4byte	0x3b
 4110 0926 02       		.byte	0x2
 4111 0927 23       		.byte	0x23
 4112 0928 09       		.uleb128 0x9
 4113 0929 0A       		.uleb128 0xa
 4114 092a 36000000 		.4byte	.LASF44
 4115 092e 05       		.byte	0x5
 4116 092f DD01     		.2byte	0x1dd
 4117 0931 3B000000 		.4byte	0x3b
 4118 0935 02       		.byte	0x2
 4119 0936 23       		.byte	0x23
 4120 0937 0A       		.uleb128 0xa
 4121 0938 0A       		.uleb128 0xa
 4122 0939 540B0000 		.4byte	.LASF45
 4123 093d 05       		.byte	0x5
 4124 093e DE01     		.2byte	0x1de
 4125 0940 3B000000 		.4byte	0x3b
 4126 0944 02       		.byte	0x2
 4127 0945 23       		.byte	0x23
 4128 0946 0B       		.uleb128 0xb
 4129 0947 0A       		.uleb128 0xa
 4130 0948 7F020000 		.4byte	.LASF115
 4131 094c 05       		.byte	0x5
 4132 094d DF01     		.2byte	0x1df
 4133 094f 78000000 		.4byte	0x78
 4134 0953 02       		.byte	0x2
 4135 0954 23       		.byte	0x23
 4136 0955 0C       		.uleb128 0xc
 4137 0956 00       		.byte	0
 4138 0957 0B       		.uleb128 0xb
 4139 0958 820A0000 		.4byte	.LASF116
 4140 095c 05       		.byte	0x5
ARM GAS  C:\Users\X0217454\AppData\Local\Temp\ccwJRGby.s 			page 91


 4141 095d E001     		.2byte	0x1e0
 4142 095f 02090000 		.4byte	0x902
 4143 0963 09       		.uleb128 0x9
 4144 0964 04       		.byte	0x4
 4145 0965 05       		.byte	0x5
 4146 0966 E801     		.2byte	0x1e8
 4147 0968 A9090000 		.4byte	0x9a9
 4148 096c 0A       		.uleb128 0xa
 4149 096d 42000000 		.4byte	.LASF117
 4150 0971 05       		.byte	0x5
 4151 0972 EA01     		.2byte	0x1ea
 4152 0974 3B000000 		.4byte	0x3b
 4153 0978 02       		.byte	0x2
 4154 0979 23       		.byte	0x23
 4155 097a 00       		.uleb128 0
 4156 097b 0A       		.uleb128 0xa
 4157 097c FE0A0000 		.4byte	.LASF85
 4158 0980 05       		.byte	0x5
 4159 0981 EB01     		.2byte	0x1eb
 4160 0983 3B000000 		.4byte	0x3b
 4161 0987 02       		.byte	0x2
 4162 0988 23       		.byte	0x23
 4163 0989 01       		.uleb128 0x1
 4164 098a 0A       		.uleb128 0xa
 4165 098b FB090000 		.4byte	.LASF118
 4166 098f 05       		.byte	0x5
 4167 0990 EC01     		.2byte	0x1ec
 4168 0992 3B000000 		.4byte	0x3b
 4169 0996 02       		.byte	0x2
 4170 0997 23       		.byte	0x23
 4171 0998 02       		.uleb128 0x2
 4172 0999 0A       		.uleb128 0xa
 4173 099a FA0B0000 		.4byte	.LASF119
 4174 099e 05       		.byte	0x5
 4175 099f ED01     		.2byte	0x1ed
 4176 09a1 3B000000 		.4byte	0x3b
 4177 09a5 02       		.byte	0x2
 4178 09a6 23       		.byte	0x23
 4179 09a7 03       		.uleb128 0x3
 4180 09a8 00       		.byte	0
 4181 09a9 0B       		.uleb128 0xb
 4182 09aa 38070000 		.4byte	.LASF120
 4183 09ae 05       		.byte	0x5
 4184 09af EE01     		.2byte	0x1ee
 4185 09b1 63090000 		.4byte	0x963
 4186 09b5 09       		.uleb128 0x9
 4187 09b6 0B       		.byte	0xb
 4188 09b7 05       		.byte	0x5
 4189 09b8 FD01     		.2byte	0x1fd
 4190 09ba 190A0000 		.4byte	0xa19
 4191 09be 0A       		.uleb128 0xa
 4192 09bf 3D040000 		.4byte	.LASF109
 4193 09c3 05       		.byte	0x5
 4194 09c4 FE01     		.2byte	0x1fe
 4195 09c6 29000000 		.4byte	0x29
 4196 09ca 02       		.byte	0x2
 4197 09cb 23       		.byte	0x23
ARM GAS  C:\Users\X0217454\AppData\Local\Temp\ccwJRGby.s 			page 92


 4198 09cc 00       		.uleb128 0
 4199 09cd 0A       		.uleb128 0xa
 4200 09ce 200F0000 		.4byte	.LASF110
 4201 09d2 05       		.byte	0x5
 4202 09d3 FF01     		.2byte	0x1ff
 4203 09d5 3B000000 		.4byte	0x3b
 4204 09d9 02       		.byte	0x2
 4205 09da 23       		.byte	0x23
 4206 09db 01       		.uleb128 0x1
 4207 09dc 0A       		.uleb128 0xa
 4208 09dd 1F020000 		.4byte	.LASF121
 4209 09e1 05       		.byte	0x5
 4210 09e2 0002     		.2byte	0x200
 4211 09e4 3B000000 		.4byte	0x3b
 4212 09e8 02       		.byte	0x2
 4213 09e9 23       		.byte	0x23
 4214 09ea 02       		.uleb128 0x2
 4215 09eb 0A       		.uleb128 0xa
 4216 09ec 7B010000 		.4byte	.LASF111
 4217 09f0 05       		.byte	0x5
 4218 09f1 0102     		.2byte	0x201
 4219 09f3 E6080000 		.4byte	0x8e6
 4220 09f7 02       		.byte	0x2
 4221 09f8 23       		.byte	0x23
 4222 09f9 03       		.uleb128 0x3
 4223 09fa 0A       		.uleb128 0xa
 4224 09fb 570E0000 		.4byte	.LASF112
 4225 09ff 05       		.byte	0x5
 4226 0a00 0202     		.2byte	0x202
 4227 0a02 3B000000 		.4byte	0x3b
 4228 0a06 02       		.byte	0x2
 4229 0a07 23       		.byte	0x23
 4230 0a08 09       		.uleb128 0x9
 4231 0a09 0A       		.uleb128 0xa
 4232 0a0a 5D0C0000 		.4byte	.LASF122
 4233 0a0e 05       		.byte	0x5
 4234 0a0f 0302     		.2byte	0x203
 4235 0a11 3B000000 		.4byte	0x3b
 4236 0a15 02       		.byte	0x2
 4237 0a16 23       		.byte	0x23
 4238 0a17 0A       		.uleb128 0xa
 4239 0a18 00       		.byte	0
 4240 0a19 0B       		.uleb128 0xb
 4241 0a1a 3F0B0000 		.4byte	.LASF123
 4242 0a1e 05       		.byte	0x5
 4243 0a1f 0402     		.2byte	0x204
 4244 0a21 B5090000 		.4byte	0x9b5
 4245 0a25 09       		.uleb128 0x9
 4246 0a26 14       		.byte	0x14
 4247 0a27 05       		.byte	0x5
 4248 0a28 0702     		.2byte	0x207
 4249 0a2a 890A0000 		.4byte	0xa89
 4250 0a2e 0A       		.uleb128 0xa
 4251 0a2f 95030000 		.4byte	.LASF114
 4252 0a33 05       		.byte	0x5
 4253 0a34 0802     		.2byte	0x208
 4254 0a36 190A0000 		.4byte	0xa19
ARM GAS  C:\Users\X0217454\AppData\Local\Temp\ccwJRGby.s 			page 93


 4255 0a3a 02       		.byte	0x2
 4256 0a3b 23       		.byte	0x23
 4257 0a3c 00       		.uleb128 0
 4258 0a3d 0A       		.uleb128 0xa
 4259 0a3e A70B0000 		.4byte	.LASF42
 4260 0a42 05       		.byte	0x5
 4261 0a43 0902     		.2byte	0x209
 4262 0a45 3B000000 		.4byte	0x3b
 4263 0a49 02       		.byte	0x2
 4264 0a4a 23       		.byte	0x23
 4265 0a4b 0B       		.uleb128 0xb
 4266 0a4c 0A       		.uleb128 0xa
 4267 0a4d 36000000 		.4byte	.LASF44
 4268 0a51 05       		.byte	0x5
 4269 0a52 0A02     		.2byte	0x20a
 4270 0a54 3B000000 		.4byte	0x3b
 4271 0a58 02       		.byte	0x2
 4272 0a59 23       		.byte	0x23
 4273 0a5a 0C       		.uleb128 0xc
 4274 0a5b 0A       		.uleb128 0xa
 4275 0a5c 540B0000 		.4byte	.LASF45
 4276 0a60 05       		.byte	0x5
 4277 0a61 0B02     		.2byte	0x20b
 4278 0a63 3B000000 		.4byte	0x3b
 4279 0a67 02       		.byte	0x2
 4280 0a68 23       		.byte	0x23
 4281 0a69 0D       		.uleb128 0xd
 4282 0a6a 0A       		.uleb128 0xa
 4283 0a6b FA0E0000 		.4byte	.LASF107
 4284 0a6f 05       		.byte	0x5
 4285 0a70 0C02     		.2byte	0x20c
 4286 0a72 5F000000 		.4byte	0x5f
 4287 0a76 02       		.byte	0x2
 4288 0a77 23       		.byte	0x23
 4289 0a78 0E       		.uleb128 0xe
 4290 0a79 0A       		.uleb128 0xa
 4291 0a7a 7F020000 		.4byte	.LASF115
 4292 0a7e 05       		.byte	0x5
 4293 0a7f 0D02     		.2byte	0x20d
 4294 0a81 78000000 		.4byte	0x78
 4295 0a85 02       		.byte	0x2
 4296 0a86 23       		.byte	0x23
 4297 0a87 10       		.uleb128 0x10
 4298 0a88 00       		.byte	0
 4299 0a89 0B       		.uleb128 0xb
 4300 0a8a C30C0000 		.4byte	.LASF124
 4301 0a8e 05       		.byte	0x5
 4302 0a8f 0E02     		.2byte	0x20e
 4303 0a91 250A0000 		.4byte	0xa25
 4304 0a95 09       		.uleb128 0x9
 4305 0a96 04       		.byte	0x4
 4306 0a97 05       		.byte	0x5
 4307 0a98 1D02     		.2byte	0x21d
 4308 0a9a BD0A0000 		.4byte	0xabd
 4309 0a9e 0A       		.uleb128 0xa
 4310 0a9f C8060000 		.4byte	.LASF125
 4311 0aa3 05       		.byte	0x5
ARM GAS  C:\Users\X0217454\AppData\Local\Temp\ccwJRGby.s 			page 94


 4312 0aa4 1F02     		.2byte	0x21f
 4313 0aa6 3B000000 		.4byte	0x3b
 4314 0aaa 02       		.byte	0x2
 4315 0aab 23       		.byte	0x23
 4316 0aac 00       		.uleb128 0
 4317 0aad 0A       		.uleb128 0xa
 4318 0aae FA0E0000 		.4byte	.LASF107
 4319 0ab2 05       		.byte	0x5
 4320 0ab3 2002     		.2byte	0x220
 4321 0ab5 90080000 		.4byte	0x890
 4322 0ab9 02       		.byte	0x2
 4323 0aba 23       		.byte	0x23
 4324 0abb 01       		.uleb128 0x1
 4325 0abc 00       		.byte	0
 4326 0abd 0B       		.uleb128 0xb
 4327 0abe A4010000 		.4byte	.LASF126
 4328 0ac2 05       		.byte	0x5
 4329 0ac3 2102     		.2byte	0x221
 4330 0ac5 950A0000 		.4byte	0xa95
 4331 0ac9 0B       		.uleb128 0xb
 4332 0aca BC070000 		.4byte	.LASF127
 4333 0ace 05       		.byte	0x5
 4334 0acf 2302     		.2byte	0x223
 4335 0ad1 84080000 		.4byte	0x884
 4336 0ad5 09       		.uleb128 0x9
 4337 0ad6 04       		.byte	0x4
 4338 0ad7 05       		.byte	0x5
 4339 0ad8 2502     		.2byte	0x225
 4340 0ada 0C0B0000 		.4byte	0xb0c
 4341 0ade 0A       		.uleb128 0xa
 4342 0adf C8060000 		.4byte	.LASF125
 4343 0ae3 05       		.byte	0x5
 4344 0ae4 2702     		.2byte	0x227
 4345 0ae6 3B000000 		.4byte	0x3b
 4346 0aea 02       		.byte	0x2
 4347 0aeb 23       		.byte	0x23
 4348 0aec 00       		.uleb128 0
 4349 0aed 0A       		.uleb128 0xa
 4350 0aee 270A0000 		.4byte	.LASF128
 4351 0af2 05       		.byte	0x5
 4352 0af3 2802     		.2byte	0x228
 4353 0af5 3B000000 		.4byte	0x3b
 4354 0af9 02       		.byte	0x2
 4355 0afa 23       		.byte	0x23
 4356 0afb 01       		.uleb128 0x1
 4357 0afc 0A       		.uleb128 0xa
 4358 0afd FA0E0000 		.4byte	.LASF107
 4359 0b01 05       		.byte	0x5
 4360 0b02 2902     		.2byte	0x229
 4361 0b04 0C0B0000 		.4byte	0xb0c
 4362 0b08 02       		.byte	0x2
 4363 0b09 23       		.byte	0x23
 4364 0b0a 02       		.uleb128 0x2
 4365 0b0b 00       		.byte	0
 4366 0b0c 07       		.uleb128 0x7
 4367 0b0d A3000000 		.4byte	0xa3
 4368 0b11 1C0B0000 		.4byte	0xb1c
ARM GAS  C:\Users\X0217454\AppData\Local\Temp\ccwJRGby.s 			page 95


 4369 0b15 08       		.uleb128 0x8
 4370 0b16 E7000000 		.4byte	0xe7
 4371 0b1a 01       		.byte	0x1
 4372 0b1b 00       		.byte	0
 4373 0b1c 0B       		.uleb128 0xb
 4374 0b1d 570F0000 		.4byte	.LASF129
 4375 0b21 05       		.byte	0x5
 4376 0b22 2A02     		.2byte	0x22a
 4377 0b24 D50A0000 		.4byte	0xad5
 4378 0b28 09       		.uleb128 0x9
 4379 0b29 08       		.byte	0x8
 4380 0b2a 05       		.byte	0x5
 4381 0b2b 2F02     		.2byte	0x22f
 4382 0b2d 7D0B0000 		.4byte	0xb7d
 4383 0b31 0A       		.uleb128 0xa
 4384 0b32 480F0000 		.4byte	.LASF130
 4385 0b36 05       		.byte	0x5
 4386 0b37 3102     		.2byte	0x231
 4387 0b39 78000000 		.4byte	0x78
 4388 0b3d 02       		.byte	0x2
 4389 0b3e 23       		.byte	0x23
 4390 0b3f 00       		.uleb128 0
 4391 0b40 0A       		.uleb128 0xa
 4392 0b41 C8040000 		.4byte	.LASF131
 4393 0b45 05       		.byte	0x5
 4394 0b46 3202     		.2byte	0x232
 4395 0b48 3B000000 		.4byte	0x3b
 4396 0b4c 02       		.byte	0x2
 4397 0b4d 23       		.byte	0x23
 4398 0b4e 04       		.uleb128 0x4
 4399 0b4f 0A       		.uleb128 0xa
 4400 0b50 08010000 		.4byte	.LASF132
 4401 0b54 05       		.byte	0x5
 4402 0b55 3302     		.2byte	0x233
 4403 0b57 3B000000 		.4byte	0x3b
 4404 0b5b 02       		.byte	0x2
 4405 0b5c 23       		.byte	0x23
 4406 0b5d 05       		.uleb128 0x5
 4407 0b5e 0A       		.uleb128 0xa
 4408 0b5f 9C020000 		.4byte	.LASF133
 4409 0b63 05       		.byte	0x5
 4410 0b64 3402     		.2byte	0x234
 4411 0b66 3B000000 		.4byte	0x3b
 4412 0b6a 02       		.byte	0x2
 4413 0b6b 23       		.byte	0x23
 4414 0b6c 06       		.uleb128 0x6
 4415 0b6d 0A       		.uleb128 0xa
 4416 0b6e A5030000 		.4byte	.LASF134
 4417 0b72 05       		.byte	0x5
 4418 0b73 3502     		.2byte	0x235
 4419 0b75 3B000000 		.4byte	0x3b
 4420 0b79 02       		.byte	0x2
 4421 0b7a 23       		.byte	0x23
 4422 0b7b 07       		.uleb128 0x7
 4423 0b7c 00       		.byte	0
 4424 0b7d 0B       		.uleb128 0xb
 4425 0b7e 010D0000 		.4byte	.LASF135
ARM GAS  C:\Users\X0217454\AppData\Local\Temp\ccwJRGby.s 			page 96


 4426 0b82 05       		.byte	0x5
 4427 0b83 3602     		.2byte	0x236
 4428 0b85 280B0000 		.4byte	0xb28
 4429 0b89 09       		.uleb128 0x9
 4430 0b8a 04       		.byte	0x4
 4431 0b8b 05       		.byte	0x5
 4432 0b8c 3E02     		.2byte	0x23e
 4433 0b8e B10B0000 		.4byte	0xbb1
 4434 0b92 0A       		.uleb128 0xa
 4435 0b93 F60D0000 		.4byte	.LASF136
 4436 0b97 05       		.byte	0x5
 4437 0b98 4002     		.2byte	0x240
 4438 0b9a 3B000000 		.4byte	0x3b
 4439 0b9e 02       		.byte	0x2
 4440 0b9f 23       		.byte	0x23
 4441 0ba0 00       		.uleb128 0
 4442 0ba1 0A       		.uleb128 0xa
 4443 0ba2 FA0E0000 		.4byte	.LASF107
 4444 0ba6 05       		.byte	0x5
 4445 0ba7 4102     		.2byte	0x241
 4446 0ba9 90080000 		.4byte	0x890
 4447 0bad 02       		.byte	0x2
 4448 0bae 23       		.byte	0x23
 4449 0baf 01       		.uleb128 0x1
 4450 0bb0 00       		.byte	0
 4451 0bb1 0B       		.uleb128 0xb
 4452 0bb2 45040000 		.4byte	.LASF137
 4453 0bb6 05       		.byte	0x5
 4454 0bb7 4202     		.2byte	0x242
 4455 0bb9 890B0000 		.4byte	0xb89
 4456 0bbd 09       		.uleb128 0x9
 4457 0bbe 08       		.byte	0x8
 4458 0bbf 05       		.byte	0x5
 4459 0bc0 4702     		.2byte	0x247
 4460 0bc2 030C0000 		.4byte	0xc03
 4461 0bc6 0A       		.uleb128 0xa
 4462 0bc7 45090000 		.4byte	.LASF138
 4463 0bcb 05       		.byte	0x5
 4464 0bcc 4902     		.2byte	0x249
 4465 0bce 5F000000 		.4byte	0x5f
 4466 0bd2 02       		.byte	0x2
 4467 0bd3 23       		.byte	0x23
 4468 0bd4 00       		.uleb128 0
 4469 0bd5 0A       		.uleb128 0xa
 4470 0bd6 310E0000 		.4byte	.LASF139
 4471 0bda 05       		.byte	0x5
 4472 0bdb 4A02     		.2byte	0x24a
 4473 0bdd 5F000000 		.4byte	0x5f
 4474 0be1 02       		.byte	0x2
 4475 0be2 23       		.byte	0x23
 4476 0be3 02       		.uleb128 0x2
 4477 0be4 0A       		.uleb128 0xa
 4478 0be5 E70A0000 		.4byte	.LASF140
 4479 0be9 05       		.byte	0x5
 4480 0bea 4B02     		.2byte	0x24b
 4481 0bec 5F000000 		.4byte	0x5f
 4482 0bf0 02       		.byte	0x2
ARM GAS  C:\Users\X0217454\AppData\Local\Temp\ccwJRGby.s 			page 97


 4483 0bf1 23       		.byte	0x23
 4484 0bf2 04       		.uleb128 0x4
 4485 0bf3 0A       		.uleb128 0xa
 4486 0bf4 220B0000 		.4byte	.LASF141
 4487 0bf8 05       		.byte	0x5
 4488 0bf9 4C02     		.2byte	0x24c
 4489 0bfb 5F000000 		.4byte	0x5f
 4490 0bff 02       		.byte	0x2
 4491 0c00 23       		.byte	0x23
 4492 0c01 06       		.uleb128 0x6
 4493 0c02 00       		.byte	0
 4494 0c03 0B       		.uleb128 0xb
 4495 0c04 7C000000 		.4byte	.LASF142
 4496 0c08 05       		.byte	0x5
 4497 0c09 4D02     		.2byte	0x24d
 4498 0c0b BD0B0000 		.4byte	0xbbd
 4499 0c0f 13       		.uleb128 0x13
 4500 0c10 70080000 		.4byte	.LASF143
 4501 0c14 50       		.byte	0x50
 4502 0c15 05       		.byte	0x5
 4503 0c16 5402     		.2byte	0x254
 4504 0c18 860C0000 		.4byte	0xc86
 4505 0c1c 0A       		.uleb128 0xa
 4506 0c1d 9C030000 		.4byte	.LASF144
 4507 0c21 05       		.byte	0x5
 4508 0c22 5702     		.2byte	0x257
 4509 0c24 20040000 		.4byte	0x420
 4510 0c28 02       		.byte	0x2
 4511 0c29 23       		.byte	0x23
 4512 0c2a 00       		.uleb128 0
 4513 0c2b 0A       		.uleb128 0xa
 4514 0c2c E7090000 		.4byte	.LASF145
 4515 0c30 05       		.byte	0x5
 4516 0c31 5902     		.2byte	0x259
 4517 0c33 43040000 		.4byte	0x443
 4518 0c37 02       		.byte	0x2
 4519 0c38 23       		.byte	0x23
 4520 0c39 01       		.uleb128 0x1
 4521 0c3a 0A       		.uleb128 0xa
 4522 0c3b 740F0000 		.4byte	.LASF146
 4523 0c3f 05       		.byte	0x5
 4524 0c40 5B02     		.2byte	0x25b
 4525 0c42 BA030000 		.4byte	0x3ba
 4526 0c46 02       		.byte	0x2
 4527 0c47 23       		.byte	0x23
 4528 0c48 02       		.uleb128 0x2
 4529 0c49 0A       		.uleb128 0xa
 4530 0c4a FE0A0000 		.4byte	.LASF85
 4531 0c4e 05       		.byte	0x5
 4532 0c4f 5D02     		.2byte	0x25d
 4533 0c51 3B000000 		.4byte	0x3b
 4534 0c55 02       		.byte	0x2
 4535 0c56 23       		.byte	0x23
 4536 0c57 03       		.uleb128 0x3
 4537 0c58 0A       		.uleb128 0xa
 4538 0c59 060B0000 		.4byte	.LASF147
 4539 0c5d 05       		.byte	0x5
ARM GAS  C:\Users\X0217454\AppData\Local\Temp\ccwJRGby.s 			page 98


 4540 0c5e 5F02     		.2byte	0x25f
 4541 0c60 D0060000 		.4byte	0x6d0
 4542 0c64 02       		.byte	0x2
 4543 0c65 23       		.byte	0x23
 4544 0c66 04       		.uleb128 0x4
 4545 0c67 0A       		.uleb128 0xa
 4546 0c68 E7040000 		.4byte	.LASF96
 4547 0c6c 05       		.byte	0x5
 4548 0c6d 6102     		.2byte	0x261
 4549 0c6f B7070000 		.4byte	0x7b7
 4550 0c73 02       		.byte	0x2
 4551 0c74 23       		.byte	0x23
 4552 0c75 3C       		.uleb128 0x3c
 4553 0c76 0A       		.uleb128 0xa
 4554 0c77 54040000 		.4byte	.LASF148
 4555 0c7b 05       		.byte	0x5
 4556 0c7c 6302     		.2byte	0x263
 4557 0c7e 34080000 		.4byte	0x834
 4558 0c82 02       		.byte	0x2
 4559 0c83 23       		.byte	0x23
 4560 0c84 48       		.uleb128 0x48
 4561 0c85 00       		.byte	0
 4562 0c86 0B       		.uleb128 0xb
 4563 0c87 70080000 		.4byte	.LASF143
 4564 0c8b 05       		.byte	0x5
 4565 0c8c 6402     		.2byte	0x264
 4566 0c8e 0F0C0000 		.4byte	0xc0f
 4567 0c92 13       		.uleb128 0x13
 4568 0c93 E6030000 		.4byte	.LASF149
 4569 0c97 04       		.byte	0x4
 4570 0c98 05       		.byte	0x5
 4571 0c99 6902     		.2byte	0x269
 4572 0c9b CD0C0000 		.4byte	0xccd
 4573 0c9f 0A       		.uleb128 0xa
 4574 0ca0 740F0000 		.4byte	.LASF146
 4575 0ca4 05       		.byte	0x5
 4576 0ca5 6C02     		.2byte	0x26c
 4577 0ca7 BA030000 		.4byte	0x3ba
 4578 0cab 02       		.byte	0x2
 4579 0cac 23       		.byte	0x23
 4580 0cad 00       		.uleb128 0
 4581 0cae 0A       		.uleb128 0xa
 4582 0caf 45090000 		.4byte	.LASF138
 4583 0cb3 05       		.byte	0x5
 4584 0cb4 6E02     		.2byte	0x26e
 4585 0cb6 3B000000 		.4byte	0x3b
 4586 0cba 02       		.byte	0x2
 4587 0cbb 23       		.byte	0x23
 4588 0cbc 01       		.uleb128 0x1
 4589 0cbd 0A       		.uleb128 0xa
 4590 0cbe FE0A0000 		.4byte	.LASF85
 4591 0cc2 05       		.byte	0x5
 4592 0cc3 7002     		.2byte	0x270
 4593 0cc5 40080000 		.4byte	0x840
 4594 0cc9 02       		.byte	0x2
 4595 0cca 23       		.byte	0x23
 4596 0ccb 02       		.uleb128 0x2
ARM GAS  C:\Users\X0217454\AppData\Local\Temp\ccwJRGby.s 			page 99


 4597 0ccc 00       		.byte	0
 4598 0ccd 0B       		.uleb128 0xb
 4599 0cce 89040000 		.4byte	.LASF150
 4600 0cd2 05       		.byte	0x5
 4601 0cd3 7202     		.2byte	0x272
 4602 0cd5 920C0000 		.4byte	0xc92
 4603 0cd9 13       		.uleb128 0x13
 4604 0cda AF0B0000 		.4byte	.LASF151
 4605 0cde 04       		.byte	0x4
 4606 0cdf 05       		.byte	0x5
 4607 0ce0 7902     		.2byte	0x279
 4608 0ce2 140D0000 		.4byte	0xd14
 4609 0ce6 0A       		.uleb128 0xa
 4610 0ce7 BE0A0000 		.4byte	.LASF152
 4611 0ceb 05       		.byte	0x5
 4612 0cec 7B02     		.2byte	0x27b
 4613 0cee 5F000000 		.4byte	0x5f
 4614 0cf2 02       		.byte	0x2
 4615 0cf3 23       		.byte	0x23
 4616 0cf4 00       		.uleb128 0
 4617 0cf5 0A       		.uleb128 0xa
 4618 0cf6 820B0000 		.4byte	.LASF153
 4619 0cfa 05       		.byte	0x5
 4620 0cfb 7D02     		.2byte	0x27d
 4621 0cfd 50080000 		.4byte	0x850
 4622 0d01 02       		.byte	0x2
 4623 0d02 23       		.byte	0x23
 4624 0d03 02       		.uleb128 0x2
 4625 0d04 0A       		.uleb128 0xa
 4626 0d05 FE0A0000 		.4byte	.LASF85
 4627 0d09 05       		.byte	0x5
 4628 0d0a 7E02     		.2byte	0x27e
 4629 0d0c 0A010000 		.4byte	0x10a
 4630 0d10 02       		.byte	0x2
 4631 0d11 23       		.byte	0x23
 4632 0d12 03       		.uleb128 0x3
 4633 0d13 00       		.byte	0
 4634 0d14 0B       		.uleb128 0xb
 4635 0d15 AF0B0000 		.4byte	.LASF151
 4636 0d19 05       		.byte	0x5
 4637 0d1a 7F02     		.2byte	0x27f
 4638 0d1c D90C0000 		.4byte	0xcd9
 4639 0d20 13       		.uleb128 0x13
 4640 0d21 3D060000 		.4byte	.LASF154
 4641 0d25 04       		.byte	0x4
 4642 0d26 05       		.byte	0x5
 4643 0d27 8402     		.2byte	0x284
 4644 0d29 4C0D0000 		.4byte	0xd4c
 4645 0d2d 0A       		.uleb128 0xa
 4646 0d2e 45090000 		.4byte	.LASF138
 4647 0d32 05       		.byte	0x5
 4648 0d33 8702     		.2byte	0x287
 4649 0d35 3B000000 		.4byte	0x3b
 4650 0d39 02       		.byte	0x2
 4651 0d3a 23       		.byte	0x23
 4652 0d3b 00       		.uleb128 0
 4653 0d3c 0A       		.uleb128 0xa
ARM GAS  C:\Users\X0217454\AppData\Local\Temp\ccwJRGby.s 			page 100


 4654 0d3d FE0A0000 		.4byte	.LASF85
 4655 0d41 05       		.byte	0x5
 4656 0d42 8902     		.2byte	0x289
 4657 0d44 FA000000 		.4byte	0xfa
 4658 0d48 02       		.byte	0x2
 4659 0d49 23       		.byte	0x23
 4660 0d4a 01       		.uleb128 0x1
 4661 0d4b 00       		.byte	0
 4662 0d4c 0B       		.uleb128 0xb
 4663 0d4d 3D060000 		.4byte	.LASF154
 4664 0d51 05       		.byte	0x5
 4665 0d52 8B02     		.2byte	0x28b
 4666 0d54 200D0000 		.4byte	0xd20
 4667 0d58 13       		.uleb128 0x13
 4668 0d59 05020000 		.4byte	.LASF155
 4669 0d5d 04       		.byte	0x4
 4670 0d5e 05       		.byte	0x5
 4671 0d5f 9002     		.2byte	0x290
 4672 0d61 930D0000 		.4byte	0xd93
 4673 0d65 0A       		.uleb128 0xa
 4674 0d66 2C0B0000 		.4byte	.LASF156
 4675 0d6a 05       		.byte	0x5
 4676 0d6b 9202     		.2byte	0x292
 4677 0d6d 5F000000 		.4byte	0x5f
 4678 0d71 02       		.byte	0x2
 4679 0d72 23       		.byte	0x23
 4680 0d73 00       		.uleb128 0
 4681 0d74 0A       		.uleb128 0xa
 4682 0d75 820B0000 		.4byte	.LASF153
 4683 0d79 05       		.byte	0x5
 4684 0d7a 9402     		.2byte	0x294
 4685 0d7c 50080000 		.4byte	0x850
 4686 0d80 02       		.byte	0x2
 4687 0d81 23       		.byte	0x23
 4688 0d82 02       		.uleb128 0x2
 4689 0d83 0A       		.uleb128 0xa
 4690 0d84 FE0A0000 		.4byte	.LASF85
 4691 0d88 05       		.byte	0x5
 4692 0d89 9502     		.2byte	0x295
 4693 0d8b 0A010000 		.4byte	0x10a
 4694 0d8f 02       		.byte	0x2
 4695 0d90 23       		.byte	0x23
 4696 0d91 03       		.uleb128 0x3
 4697 0d92 00       		.byte	0
 4698 0d93 0B       		.uleb128 0xb
 4699 0d94 05020000 		.4byte	.LASF155
 4700 0d98 05       		.byte	0x5
 4701 0d99 9602     		.2byte	0x296
 4702 0d9b 580D0000 		.4byte	0xd58
 4703 0d9f 13       		.uleb128 0x13
 4704 0da0 00100000 		.4byte	.LASF157
 4705 0da4 04       		.byte	0x4
 4706 0da5 05       		.byte	0x5
 4707 0da6 9B02     		.2byte	0x29b
 4708 0da8 DA0D0000 		.4byte	0xdda
 4709 0dac 0A       		.uleb128 0xa
 4710 0dad 45090000 		.4byte	.LASF138
ARM GAS  C:\Users\X0217454\AppData\Local\Temp\ccwJRGby.s 			page 101


 4711 0db1 05       		.byte	0x5
 4712 0db2 9E02     		.2byte	0x29e
 4713 0db4 3B000000 		.4byte	0x3b
 4714 0db8 02       		.byte	0x2
 4715 0db9 23       		.byte	0x23
 4716 0dba 00       		.uleb128 0
 4717 0dbb 0A       		.uleb128 0xa
 4718 0dbc FE0A0000 		.4byte	.LASF85
 4719 0dc0 05       		.byte	0x5
 4720 0dc1 A002     		.2byte	0x2a0
 4721 0dc3 46000000 		.4byte	0x46
 4722 0dc7 02       		.byte	0x2
 4723 0dc8 23       		.byte	0x23
 4724 0dc9 01       		.uleb128 0x1
 4725 0dca 0A       		.uleb128 0xa
 4726 0dcb 2C0B0000 		.4byte	.LASF156
 4727 0dcf 05       		.byte	0x5
 4728 0dd0 A202     		.2byte	0x2a2
 4729 0dd2 5F000000 		.4byte	0x5f
 4730 0dd6 02       		.byte	0x2
 4731 0dd7 23       		.byte	0x23
 4732 0dd8 02       		.uleb128 0x2
 4733 0dd9 00       		.byte	0
 4734 0dda 0B       		.uleb128 0xb
 4735 0ddb 00100000 		.4byte	.LASF157
 4736 0ddf 05       		.byte	0x5
 4737 0de0 A402     		.2byte	0x2a4
 4738 0de2 9F0D0000 		.4byte	0xd9f
 4739 0de6 14       		.uleb128 0x14
 4740 0de7 04       		.byte	0x4
 4741 0de8 06       		.byte	0x6
 4742 0de9 28       		.byte	0x28
 4743 0dea 190E0000 		.4byte	0xe19
 4744 0dee 15       		.uleb128 0x15
 4745 0def 990C0000 		.4byte	.LASF158
 4746 0df3 06       		.byte	0x6
 4747 0df4 2A       		.byte	0x2a
 4748 0df5 B8000000 		.4byte	0xb8
 4749 0df9 02       		.byte	0x2
 4750 0dfa 23       		.byte	0x23
 4751 0dfb 00       		.uleb128 0
 4752 0dfc 15       		.uleb128 0x15
 4753 0dfd 26030000 		.4byte	.LASF159
 4754 0e01 06       		.byte	0x6
 4755 0e02 2B       		.byte	0x2b
 4756 0e03 C3000000 		.4byte	0xc3
 4757 0e07 02       		.byte	0x2
 4758 0e08 23       		.byte	0x23
 4759 0e09 02       		.uleb128 0x2
 4760 0e0a 15       		.uleb128 0x15
 4761 0e0b F70C0000 		.4byte	.LASF160
 4762 0e0f 06       		.byte	0x6
 4763 0e10 2C       		.byte	0x2c
 4764 0e11 C3000000 		.4byte	0xc3
 4765 0e15 02       		.byte	0x2
 4766 0e16 23       		.byte	0x23
 4767 0e17 03       		.uleb128 0x3
ARM GAS  C:\Users\X0217454\AppData\Local\Temp\ccwJRGby.s 			page 102


 4768 0e18 00       		.byte	0
 4769 0e19 02       		.uleb128 0x2
 4770 0e1a 5E0B0000 		.4byte	.LASF161
 4771 0e1e 06       		.byte	0x6
 4772 0e1f 2D       		.byte	0x2d
 4773 0e20 E60D0000 		.4byte	0xde6
 4774 0e24 14       		.uleb128 0x14
 4775 0e25 10       		.byte	0x10
 4776 0e26 06       		.byte	0x6
 4777 0e27 2F       		.byte	0x2f
 4778 0e28 730E0000 		.4byte	0xe73
 4779 0e2c 15       		.uleb128 0x15
 4780 0e2d F10A0000 		.4byte	.LASF162
 4781 0e31 06       		.byte	0x6
 4782 0e32 31       		.byte	0x31
 4783 0e33 5F000000 		.4byte	0x5f
 4784 0e37 02       		.byte	0x2
 4785 0e38 23       		.byte	0x23
 4786 0e39 00       		.uleb128 0
 4787 0e3a 15       		.uleb128 0x15
 4788 0e3b 59010000 		.4byte	.LASF163
 4789 0e3f 06       		.byte	0x6
 4790 0e40 32       		.byte	0x32
 4791 0e41 5F000000 		.4byte	0x5f
 4792 0e45 02       		.byte	0x2
 4793 0e46 23       		.byte	0x23
 4794 0e47 02       		.uleb128 0x2
 4795 0e48 15       		.uleb128 0x15
 4796 0e49 780C0000 		.4byte	.LASF164
 4797 0e4d 06       		.byte	0x6
 4798 0e4e 33       		.byte	0x33
 4799 0e4f 5F000000 		.4byte	0x5f
 4800 0e53 02       		.byte	0x2
 4801 0e54 23       		.byte	0x23
 4802 0e55 04       		.uleb128 0x4
 4803 0e56 15       		.uleb128 0x15
 4804 0e57 A00C0000 		.4byte	.LASF165
 4805 0e5b 06       		.byte	0x6
 4806 0e5c 34       		.byte	0x34
 4807 0e5d 730E0000 		.4byte	0xe73
 4808 0e61 02       		.byte	0x2
 4809 0e62 23       		.byte	0x23
 4810 0e63 08       		.uleb128 0x8
 4811 0e64 15       		.uleb128 0x15
 4812 0e65 17050000 		.4byte	.LASF166
 4813 0e69 06       		.byte	0x6
 4814 0e6a 35       		.byte	0x35
 4815 0e6b 730E0000 		.4byte	0xe73
 4816 0e6f 02       		.byte	0x2
 4817 0e70 23       		.byte	0x23
 4818 0e71 0C       		.uleb128 0xc
 4819 0e72 00       		.byte	0
 4820 0e73 06       		.uleb128 0x6
 4821 0e74 04       		.byte	0x4
 4822 0e75 3B000000 		.4byte	0x3b
 4823 0e79 02       		.uleb128 0x2
 4824 0e7a 9F000000 		.4byte	.LASF167
ARM GAS  C:\Users\X0217454\AppData\Local\Temp\ccwJRGby.s 			page 103


 4825 0e7e 06       		.byte	0x6
 4826 0e7f 36       		.byte	0x36
 4827 0e80 240E0000 		.4byte	0xe24
 4828 0e84 14       		.uleb128 0x14
 4829 0e85 B0       		.byte	0xb0
 4830 0e86 01       		.byte	0x1
 4831 0e87 3A       		.byte	0x3a
 4832 0e88 A90E0000 		.4byte	0xea9
 4833 0e8c 15       		.uleb128 0x15
 4834 0e8d EF040000 		.4byte	.LASF168
 4835 0e91 01       		.byte	0x1
 4836 0e92 3C       		.byte	0x3c
 4837 0e93 57090000 		.4byte	0x957
 4838 0e97 02       		.byte	0x2
 4839 0e98 23       		.byte	0x23
 4840 0e99 00       		.uleb128 0
 4841 0e9a 15       		.uleb128 0x15
 4842 0e9b 020F0000 		.4byte	.LASF169
 4843 0e9f 01       		.byte	0x1
 4844 0ea0 3D       		.byte	0x3d
 4845 0ea1 A90E0000 		.4byte	0xea9
 4846 0ea5 02       		.byte	0x2
 4847 0ea6 23       		.byte	0x23
 4848 0ea7 10       		.uleb128 0x10
 4849 0ea8 00       		.byte	0
 4850 0ea9 07       		.uleb128 0x7
 4851 0eaa A3000000 		.4byte	0xa3
 4852 0eae B90E0000 		.4byte	0xeb9
 4853 0eb2 08       		.uleb128 0x8
 4854 0eb3 E7000000 		.4byte	0xe7
 4855 0eb7 9E       		.byte	0x9e
 4856 0eb8 00       		.byte	0
 4857 0eb9 02       		.uleb128 0x2
 4858 0eba 20090000 		.4byte	.LASF170
 4859 0ebe 01       		.byte	0x1
 4860 0ebf 3E       		.byte	0x3e
 4861 0ec0 840E0000 		.4byte	0xe84
 4862 0ec4 16       		.uleb128 0x16
 4863 0ec5 B0       		.byte	0xb0
 4864 0ec6 01       		.byte	0x1
 4865 0ec7 40       		.byte	0x40
 4866 0ec8 E30E0000 		.4byte	0xee3
 4867 0ecc 17       		.uleb128 0x17
 4868 0ecd 436D6400 		.ascii	"Cmd\000"
 4869 0ed1 01       		.byte	0x1
 4870 0ed2 42       		.byte	0x42
 4871 0ed3 B90E0000 		.4byte	0xeb9
 4872 0ed7 17       		.uleb128 0x17
 4873 0ed8 52737000 		.ascii	"Rsp\000"
 4874 0edc 01       		.byte	0x1
 4875 0edd 43       		.byte	0x43
 4876 0ede 84080000 		.4byte	0x884
 4877 0ee2 00       		.byte	0
 4878 0ee3 02       		.uleb128 0x2
 4879 0ee4 C90B0000 		.4byte	.LASF171
 4880 0ee8 01       		.byte	0x1
 4881 0ee9 44       		.byte	0x44
ARM GAS  C:\Users\X0217454\AppData\Local\Temp\ccwJRGby.s 			page 104


 4882 0eea C40E0000 		.4byte	0xec4
 4883 0eee 16       		.uleb128 0x16
 4884 0eef 04       		.byte	0x4
 4885 0ef0 01       		.byte	0x1
 4886 0ef1 D8       		.byte	0xd8
 4887 0ef2 0D0F0000 		.4byte	0xf0d
 4888 0ef6 17       		.uleb128 0x17
 4889 0ef7 436D6400 		.ascii	"Cmd\000"
 4890 0efb 01       		.byte	0x1
 4891 0efc DA       		.byte	0xda
 4892 0efd A9090000 		.4byte	0x9a9
 4893 0f01 17       		.uleb128 0x17
 4894 0f02 52737000 		.ascii	"Rsp\000"
 4895 0f06 01       		.byte	0x1
 4896 0f07 DB       		.byte	0xdb
 4897 0f08 84080000 		.4byte	0x884
 4898 0f0c 00       		.byte	0
 4899 0f0d 02       		.uleb128 0x2
 4900 0f0e 7A040000 		.4byte	.LASF172
 4901 0f12 01       		.byte	0x1
 4902 0f13 DC       		.byte	0xdc
 4903 0f14 EE0E0000 		.4byte	0xeee
 4904 0f18 16       		.uleb128 0x16
 4905 0f19 04       		.byte	0x4
 4906 0f1a 01       		.byte	0x1
 4907 0f1b FF       		.byte	0xff
 4908 0f1c 390F0000 		.4byte	0xf39
 4909 0f20 18       		.uleb128 0x18
 4910 0f21 436D6400 		.ascii	"Cmd\000"
 4911 0f25 01       		.byte	0x1
 4912 0f26 0101     		.2byte	0x101
 4913 0f28 A9090000 		.4byte	0x9a9
 4914 0f2c 18       		.uleb128 0x18
 4915 0f2d 52737000 		.ascii	"Rsp\000"
 4916 0f31 01       		.byte	0x1
 4917 0f32 0201     		.2byte	0x102
 4918 0f34 A9090000 		.4byte	0x9a9
 4919 0f38 00       		.byte	0
 4920 0f39 0B       		.uleb128 0xb
 4921 0f3a C10E0000 		.4byte	.LASF173
 4922 0f3e 01       		.byte	0x1
 4923 0f3f 0301     		.2byte	0x103
 4924 0f41 180F0000 		.4byte	0xf18
 4925 0f45 09       		.uleb128 0x9
 4926 0f46 B4       		.byte	0xb4
 4927 0f47 01       		.byte	0x1
 4928 0f48 3B01     		.2byte	0x13b
 4929 0f4a 6D0F0000 		.4byte	0xf6d
 4930 0f4e 0A       		.uleb128 0xa
 4931 0f4f EF040000 		.4byte	.LASF168
 4932 0f53 01       		.byte	0x1
 4933 0f54 3D01     		.2byte	0x13d
 4934 0f56 890A0000 		.4byte	0xa89
 4935 0f5a 02       		.byte	0x2
 4936 0f5b 23       		.byte	0x23
 4937 0f5c 00       		.uleb128 0
 4938 0f5d 0A       		.uleb128 0xa
ARM GAS  C:\Users\X0217454\AppData\Local\Temp\ccwJRGby.s 			page 105


 4939 0f5e 020F0000 		.4byte	.LASF169
 4940 0f62 01       		.byte	0x1
 4941 0f63 3E01     		.2byte	0x13e
 4942 0f65 A90E0000 		.4byte	0xea9
 4943 0f69 02       		.byte	0x2
 4944 0f6a 23       		.byte	0x23
 4945 0f6b 14       		.uleb128 0x14
 4946 0f6c 00       		.byte	0
 4947 0f6d 0B       		.uleb128 0xb
 4948 0f6e 7E070000 		.4byte	.LASF174
 4949 0f72 01       		.byte	0x1
 4950 0f73 3F01     		.2byte	0x13f
 4951 0f75 450F0000 		.4byte	0xf45
 4952 0f79 19       		.uleb128 0x19
 4953 0f7a B4       		.byte	0xb4
 4954 0f7b 01       		.byte	0x1
 4955 0f7c 4101     		.2byte	0x141
 4956 0f7e 9B0F0000 		.4byte	0xf9b
 4957 0f82 18       		.uleb128 0x18
 4958 0f83 436D6400 		.ascii	"Cmd\000"
 4959 0f87 01       		.byte	0x1
 4960 0f88 4301     		.2byte	0x143
 4961 0f8a 6D0F0000 		.4byte	0xf6d
 4962 0f8e 18       		.uleb128 0x18
 4963 0f8f 52737000 		.ascii	"Rsp\000"
 4964 0f93 01       		.byte	0x1
 4965 0f94 4401     		.2byte	0x144
 4966 0f96 84080000 		.4byte	0x884
 4967 0f9a 00       		.byte	0
 4968 0f9b 0B       		.uleb128 0xb
 4969 0f9c 59020000 		.4byte	.LASF175
 4970 0fa0 01       		.byte	0x1
 4971 0fa1 4501     		.2byte	0x145
 4972 0fa3 790F0000 		.4byte	0xf79
 4973 0fa7 19       		.uleb128 0x19
 4974 0fa8 B4       		.byte	0xb4
 4975 0fa9 01       		.byte	0x1
 4976 0faa E501     		.2byte	0x1e5
 4977 0fac C90F0000 		.4byte	0xfc9
 4978 0fb0 18       		.uleb128 0x18
 4979 0fb1 436D6400 		.ascii	"Cmd\000"
 4980 0fb5 01       		.byte	0x1
 4981 0fb6 E701     		.2byte	0x1e7
 4982 0fb8 BD0A0000 		.4byte	0xabd
 4983 0fbc 18       		.uleb128 0x18
 4984 0fbd 52737000 		.ascii	"Rsp\000"
 4985 0fc1 01       		.byte	0x1
 4986 0fc2 E801     		.2byte	0x1e8
 4987 0fc4 6D0F0000 		.4byte	0xf6d
 4988 0fc8 00       		.byte	0
 4989 0fc9 0B       		.uleb128 0xb
 4990 0fca 1E0E0000 		.4byte	.LASF176
 4991 0fce 01       		.byte	0x1
 4992 0fcf E901     		.2byte	0x1e9
 4993 0fd1 A70F0000 		.4byte	0xfa7
 4994 0fd5 19       		.uleb128 0x19
 4995 0fd6 04       		.byte	0x4
ARM GAS  C:\Users\X0217454\AppData\Local\Temp\ccwJRGby.s 			page 106


 4996 0fd7 01       		.byte	0x1
 4997 0fd8 1D02     		.2byte	0x21d
 4998 0fda F70F0000 		.4byte	0xff7
 4999 0fde 18       		.uleb128 0x18
 5000 0fdf 436D6400 		.ascii	"Cmd\000"
 5001 0fe3 01       		.byte	0x1
 5002 0fe4 1F02     		.2byte	0x21f
 5003 0fe6 BD0A0000 		.4byte	0xabd
 5004 0fea 18       		.uleb128 0x18
 5005 0feb 52737000 		.ascii	"Rsp\000"
 5006 0fef 01       		.byte	0x1
 5007 0ff0 2002     		.2byte	0x220
 5008 0ff2 84080000 		.4byte	0x884
 5009 0ff6 00       		.byte	0
 5010 0ff7 0B       		.uleb128 0xb
 5011 0ff8 AB000000 		.4byte	.LASF177
 5012 0ffc 01       		.byte	0x1
 5013 0ffd 2102     		.2byte	0x221
 5014 0fff D50F0000 		.4byte	0xfd5
 5015 1003 19       		.uleb128 0x19
 5016 1004 04       		.byte	0x4
 5017 1005 01       		.byte	0x1
 5018 1006 3B02     		.2byte	0x23b
 5019 1008 25100000 		.4byte	0x1025
 5020 100c 18       		.uleb128 0x18
 5021 100d 436D6400 		.ascii	"Cmd\000"
 5022 1011 01       		.byte	0x1
 5023 1012 3D02     		.2byte	0x23d
 5024 1014 1C0B0000 		.4byte	0xb1c
 5025 1018 18       		.uleb128 0x18
 5026 1019 52737000 		.ascii	"Rsp\000"
 5027 101d 01       		.byte	0x1
 5028 101e 3E02     		.2byte	0x23e
 5029 1020 C90A0000 		.4byte	0xac9
 5030 1024 00       		.byte	0
 5031 1025 0B       		.uleb128 0xb
 5032 1026 22060000 		.4byte	.LASF178
 5033 102a 01       		.byte	0x1
 5034 102b 3F02     		.2byte	0x23f
 5035 102d 03100000 		.4byte	0x1003
 5036 1031 19       		.uleb128 0x19
 5037 1032 50       		.byte	0x50
 5038 1033 01       		.byte	0x1
 5039 1034 6C02     		.2byte	0x26c
 5040 1036 53100000 		.4byte	0x1053
 5041 103a 18       		.uleb128 0x18
 5042 103b 436D6400 		.ascii	"Cmd\000"
 5043 103f 01       		.byte	0x1
 5044 1040 6E02     		.2byte	0x26e
 5045 1042 860C0000 		.4byte	0xc86
 5046 1046 18       		.uleb128 0x18
 5047 1047 52737000 		.ascii	"Rsp\000"
 5048 104b 01       		.byte	0x1
 5049 104c 6F02     		.2byte	0x26f
 5050 104e CD0C0000 		.4byte	0xccd
 5051 1052 00       		.byte	0
 5052 1053 0B       		.uleb128 0xb
ARM GAS  C:\Users\X0217454\AppData\Local\Temp\ccwJRGby.s 			page 107


 5053 1054 E1080000 		.4byte	.LASF179
 5054 1058 01       		.byte	0x1
 5055 1059 7002     		.2byte	0x270
 5056 105b 31100000 		.4byte	0x1031
 5057 105f 11       		.uleb128 0x11
 5058 1060 DA000000 		.4byte	.LASF180
 5059 1064 04       		.byte	0x4
 5060 1065 01       		.byte	0x1
 5061 1066 7B02     		.2byte	0x27b
 5062 1068 85100000 		.4byte	0x1085
 5063 106c 18       		.uleb128 0x18
 5064 106d 436D6400 		.ascii	"Cmd\000"
 5065 1071 01       		.byte	0x1
 5066 1072 7D02     		.2byte	0x27d
 5067 1074 140D0000 		.4byte	0xd14
 5068 1078 18       		.uleb128 0x18
 5069 1079 52737000 		.ascii	"Rsp\000"
 5070 107d 01       		.byte	0x1
 5071 107e 7E02     		.2byte	0x27e
 5072 1080 4C0D0000 		.4byte	0xd4c
 5073 1084 00       		.byte	0
 5074 1085 0B       		.uleb128 0xb
 5075 1086 DA000000 		.4byte	.LASF180
 5076 108a 01       		.byte	0x1
 5077 108b 7F02     		.2byte	0x27f
 5078 108d 5F100000 		.4byte	0x105f
 5079 1091 11       		.uleb128 0x11
 5080 1092 45010000 		.4byte	.LASF181
 5081 1096 04       		.byte	0x4
 5082 1097 01       		.byte	0x1
 5083 1098 8A02     		.2byte	0x28a
 5084 109a B7100000 		.4byte	0x10b7
 5085 109e 18       		.uleb128 0x18
 5086 109f 436D6400 		.ascii	"Cmd\000"
 5087 10a3 01       		.byte	0x1
 5088 10a4 8C02     		.2byte	0x28c
 5089 10a6 930D0000 		.4byte	0xd93
 5090 10aa 18       		.uleb128 0x18
 5091 10ab 52737000 		.ascii	"Rsp\000"
 5092 10af 01       		.byte	0x1
 5093 10b0 8D02     		.2byte	0x28d
 5094 10b2 DA0D0000 		.4byte	0xdda
 5095 10b6 00       		.byte	0
 5096 10b7 0B       		.uleb128 0xb
 5097 10b8 45010000 		.4byte	.LASF181
 5098 10bc 01       		.byte	0x1
 5099 10bd 8E02     		.2byte	0x28e
 5100 10bf 91100000 		.4byte	0x1091
 5101 10c3 09       		.uleb128 0x9
 5102 10c4 38       		.byte	0x38
 5103 10c5 01       		.byte	0x1
 5104 10c6 2603     		.2byte	0x326
 5105 10c8 EB100000 		.4byte	0x10eb
 5106 10cc 0A       		.uleb128 0xa
 5107 10cd EF040000 		.4byte	.LASF168
 5108 10d1 01       		.byte	0x1
 5109 10d2 2803     		.2byte	0x328
ARM GAS  C:\Users\X0217454\AppData\Local\Temp\ccwJRGby.s 			page 108


 5110 10d4 7D0B0000 		.4byte	0xb7d
 5111 10d8 02       		.byte	0x2
 5112 10d9 23       		.byte	0x23
 5113 10da 00       		.uleb128 0
 5114 10db 0A       		.uleb128 0xa
 5115 10dc 020F0000 		.4byte	.LASF169
 5116 10e0 01       		.byte	0x1
 5117 10e1 2903     		.2byte	0x329
 5118 10e3 EB100000 		.4byte	0x10eb
 5119 10e7 02       		.byte	0x2
 5120 10e8 23       		.byte	0x23
 5121 10e9 08       		.uleb128 0x8
 5122 10ea 00       		.byte	0
 5123 10eb 07       		.uleb128 0x7
 5124 10ec A3000000 		.4byte	0xa3
 5125 10f0 FB100000 		.4byte	0x10fb
 5126 10f4 08       		.uleb128 0x8
 5127 10f5 E7000000 		.4byte	0xe7
 5128 10f9 2F       		.byte	0x2f
 5129 10fa 00       		.byte	0
 5130 10fb 0B       		.uleb128 0xb
 5131 10fc FB050000 		.4byte	.LASF182
 5132 1100 01       		.byte	0x1
 5133 1101 2A03     		.2byte	0x32a
 5134 1103 C3100000 		.4byte	0x10c3
 5135 1107 19       		.uleb128 0x19
 5136 1108 38       		.byte	0x38
 5137 1109 01       		.byte	0x1
 5138 110a 2C03     		.2byte	0x32c
 5139 110c 29110000 		.4byte	0x1129
 5140 1110 18       		.uleb128 0x18
 5141 1111 436D6400 		.ascii	"Cmd\000"
 5142 1115 01       		.byte	0x1
 5143 1116 2E03     		.2byte	0x32e
 5144 1118 FB100000 		.4byte	0x10fb
 5145 111c 18       		.uleb128 0x18
 5146 111d 52737000 		.ascii	"Rsp\000"
 5147 1121 01       		.byte	0x1
 5148 1122 2F03     		.2byte	0x32f
 5149 1124 84080000 		.4byte	0x884
 5150 1128 00       		.byte	0
 5151 1129 0B       		.uleb128 0xb
 5152 112a D20D0000 		.4byte	.LASF183
 5153 112e 01       		.byte	0x1
 5154 112f 3003     		.2byte	0x330
 5155 1131 07110000 		.4byte	0x1107
 5156 1135 19       		.uleb128 0x19
 5157 1136 04       		.byte	0x4
 5158 1137 01       		.byte	0x1
 5159 1138 5C03     		.2byte	0x35c
 5160 113a 57110000 		.4byte	0x1157
 5161 113e 18       		.uleb128 0x18
 5162 113f 436D6400 		.ascii	"Cmd\000"
 5163 1143 01       		.byte	0x1
 5164 1144 5E03     		.2byte	0x35e
 5165 1146 B10B0000 		.4byte	0xbb1
 5166 114a 18       		.uleb128 0x18
ARM GAS  C:\Users\X0217454\AppData\Local\Temp\ccwJRGby.s 			page 109


 5167 114b 52737000 		.ascii	"Rsp\000"
 5168 114f 01       		.byte	0x1
 5169 1150 5F03     		.2byte	0x35f
 5170 1152 84080000 		.4byte	0x884
 5171 1156 00       		.byte	0
 5172 1157 0B       		.uleb128 0xb
 5173 1158 24070000 		.4byte	.LASF184
 5174 115c 01       		.byte	0x1
 5175 115d 6003     		.2byte	0x360
 5176 115f 35110000 		.4byte	0x1135
 5177 1163 19       		.uleb128 0x19
 5178 1164 08       		.byte	0x8
 5179 1165 01       		.byte	0x1
 5180 1166 8203     		.2byte	0x382
 5181 1168 85110000 		.4byte	0x1185
 5182 116c 18       		.uleb128 0x18
 5183 116d 436D6400 		.ascii	"Cmd\000"
 5184 1171 01       		.byte	0x1
 5185 1172 8403     		.2byte	0x384
 5186 1174 030C0000 		.4byte	0xc03
 5187 1178 18       		.uleb128 0x18
 5188 1179 52737000 		.ascii	"Rsp\000"
 5189 117d 01       		.byte	0x1
 5190 117e 8503     		.2byte	0x385
 5191 1180 84080000 		.4byte	0x884
 5192 1184 00       		.byte	0
 5193 1185 0B       		.uleb128 0xb
 5194 1186 6C020000 		.4byte	.LASF185
 5195 118a 01       		.byte	0x1
 5196 118b 8603     		.2byte	0x386
 5197 118d 63110000 		.4byte	0x1163
 5198 1191 19       		.uleb128 0x19
 5199 1192 08       		.byte	0x8
 5200 1193 01       		.byte	0x1
 5201 1194 AA03     		.2byte	0x3aa
 5202 1196 B3110000 		.4byte	0x11b3
 5203 119a 18       		.uleb128 0x18
 5204 119b 436D6400 		.ascii	"Cmd\000"
 5205 119f 01       		.byte	0x1
 5206 11a0 AC03     		.2byte	0x3ac
 5207 11a2 030C0000 		.4byte	0xc03
 5208 11a6 18       		.uleb128 0x18
 5209 11a7 52737000 		.ascii	"Rsp\000"
 5210 11ab 01       		.byte	0x1
 5211 11ac AD03     		.2byte	0x3ad
 5212 11ae 030C0000 		.4byte	0xc03
 5213 11b2 00       		.byte	0
 5214 11b3 0B       		.uleb128 0xb
 5215 11b4 C7030000 		.4byte	.LASF186
 5216 11b8 01       		.byte	0x1
 5217 11b9 AE03     		.2byte	0x3ae
 5218 11bb 91110000 		.4byte	0x1191
 5219 11bf 1A       		.uleb128 0x1a
 5220 11c0 01       		.byte	0x1
 5221 11c1 36100000 		.4byte	.LASF194
 5222 11c5 01       		.byte	0x1
 5223 11c6 4A       		.byte	0x4a
ARM GAS  C:\Users\X0217454\AppData\Local\Temp\ccwJRGby.s 			page 110


 5224 11c7 01       		.byte	0x1
 5225 11c8 9C000000 		.4byte	0x9c
 5226 11cc 00000000 		.4byte	.LFB0
 5227 11d0 54030000 		.4byte	.LFE0
 5228 11d4 00000000 		.4byte	.LLST0
 5229 11d8 01       		.byte	0x1
 5230 11d9 5E120000 		.4byte	0x125e
 5231 11dd 1B       		.uleb128 0x1b
 5232 11de 420F0000 		.4byte	.LASF187
 5233 11e2 01       		.byte	0x1
 5234 11e3 4A       		.byte	0x4a
 5235 11e4 F4000000 		.4byte	0xf4
 5236 11e8 03       		.byte	0x3
 5237 11e9 91       		.byte	0x91
 5238 11ea BC7E     		.sleb128 -196
 5239 11ec 1B       		.uleb128 0x1b
 5240 11ed F3090000 		.4byte	.LASF188
 5241 11f1 01       		.byte	0x1
 5242 11f2 4A       		.byte	0x4a
 5243 11f3 9C000000 		.4byte	0x9c
 5244 11f7 03       		.byte	0x3
 5245 11f8 91       		.byte	0x91
 5246 11f9 B87E     		.sleb128 -200
 5247 11fb 1B       		.uleb128 0x1b
 5248 11fc 00000000 		.4byte	.LASF189
 5249 1200 01       		.byte	0x1
 5250 1201 4A       		.byte	0x4a
 5251 1202 EE000000 		.4byte	0xee
 5252 1206 03       		.byte	0x3
 5253 1207 91       		.byte	0x91
 5254 1208 B47E     		.sleb128 -204
 5255 120a 1B       		.uleb128 0x1b
 5256 120b 4B0A0000 		.4byte	.LASF190
 5257 120f 01       		.byte	0x1
 5258 1210 4A       		.byte	0x4a
 5259 1211 5E120000 		.4byte	0x125e
 5260 1215 03       		.byte	0x3
 5261 1216 91       		.byte	0x91
 5262 1217 B07E     		.sleb128 -208
 5263 1219 1B       		.uleb128 0x1b
 5264 121a F4040000 		.4byte	.LASF191
 5265 121e 01       		.byte	0x1
 5266 121f 4A       		.byte	0x4a
 5267 1220 64120000 		.4byte	0x1264
 5268 1224 02       		.byte	0x2
 5269 1225 91       		.byte	0x91
 5270 1226 00       		.sleb128 0
 5271 1227 1C       		.uleb128 0x1c
 5272 1228 4D736700 		.ascii	"Msg\000"
 5273 122c 01       		.byte	0x1
 5274 122d 4C       		.byte	0x4c
 5275 122e E30E0000 		.4byte	0xee3
 5276 1232 03       		.byte	0x3
 5277 1233 91       		.byte	0x91
 5278 1234 C47E     		.sleb128 -188
 5279 1236 1D       		.uleb128 0x1d
 5280 1237 BE000000 		.4byte	.LASF192
ARM GAS  C:\Users\X0217454\AppData\Local\Temp\ccwJRGby.s 			page 111


 5281 123b 01       		.byte	0x1
 5282 123c 4D       		.byte	0x4d
 5283 123d 190E0000 		.4byte	0xe19
 5284 1241 03       		.byte	0x3
 5285 1242 91       		.byte	0x91
 5286 1243 C07E     		.sleb128 -192
 5287 1245 1E       		.uleb128 0x1e
 5288 1246 10030000 		.4byte	.LBB2
 5289 124a 36030000 		.4byte	.LBE2
 5290 124e 1D       		.uleb128 0x1d
 5291 124f 7F0E0000 		.4byte	.LASF193
 5292 1253 01       		.byte	0x1
 5293 1254 C5       		.byte	0xc5
 5294 1255 CE000000 		.4byte	0xce
 5295 1259 02       		.byte	0x2
 5296 125a 91       		.byte	0x91
 5297 125b 74       		.sleb128 -12
 5298 125c 00       		.byte	0
 5299 125d 00       		.byte	0
 5300 125e 06       		.uleb128 0x6
 5301 125f 04       		.byte	0x4
 5302 1260 BE020000 		.4byte	0x2be
 5303 1264 06       		.uleb128 0x6
 5304 1265 04       		.byte	0x4
 5305 1266 2E030000 		.4byte	0x32e
 5306 126a 1F       		.uleb128 0x1f
 5307 126b 01       		.byte	0x1
 5308 126c FB0D0000 		.4byte	.LASF222
 5309 1270 01       		.byte	0x1
 5310 1271 CF       		.byte	0xcf
 5311 1272 01       		.byte	0x1
 5312 1273 9C000000 		.4byte	0x9c
 5313 1277 00000000 		.4byte	.LFB1
 5314 127b 18000000 		.4byte	.LFE1
 5315 127f 3A000000 		.4byte	.LLST1
 5316 1283 01       		.byte	0x1
 5317 1284 1A       		.uleb128 0x1a
 5318 1285 01       		.byte	0x1
 5319 1286 89050000 		.4byte	.LASF195
 5320 128a 01       		.byte	0x1
 5321 128b E6       		.byte	0xe6
 5322 128c 01       		.byte	0x1
 5323 128d 9C000000 		.4byte	0x9c
 5324 1291 00000000 		.4byte	.LFB2
 5325 1295 8C000000 		.4byte	.LFE2
 5326 1299 66000000 		.4byte	.LLST2
 5327 129d 01       		.byte	0x1
 5328 129e 0F130000 		.4byte	0x130f
 5329 12a2 1B       		.uleb128 0x1b
 5330 12a3 7D0A0000 		.4byte	.LASF38
 5331 12a7 01       		.byte	0x1
 5332 12a8 E6       		.byte	0xe6
 5333 12a9 46000000 		.4byte	0x46
 5334 12ad 02       		.byte	0x2
 5335 12ae 91       		.byte	0x91
 5336 12af 5F       		.sleb128 -33
 5337 12b0 1B       		.uleb128 0x1b
ARM GAS  C:\Users\X0217454\AppData\Local\Temp\ccwJRGby.s 			page 112


 5338 12b1 170E0000 		.4byte	.LASF196
 5339 12b5 01       		.byte	0x1
 5340 12b6 E6       		.byte	0xe6
 5341 12b7 0F130000 		.4byte	0x130f
 5342 12bb 02       		.byte	0x2
 5343 12bc 91       		.byte	0x91
 5344 12bd 5E       		.sleb128 -34
 5345 12be 1B       		.uleb128 0x1b
 5346 12bf F0050000 		.4byte	.LASF197
 5347 12c3 01       		.byte	0x1
 5348 12c4 E6       		.byte	0xe6
 5349 12c5 EE000000 		.4byte	0xee
 5350 12c9 02       		.byte	0x2
 5351 12ca 91       		.byte	0x91
 5352 12cb 58       		.sleb128 -40
 5353 12cc 1B       		.uleb128 0x1b
 5354 12cd 440A0000 		.4byte	.LASF198
 5355 12d1 01       		.byte	0x1
 5356 12d2 E6       		.byte	0xe6
 5357 12d3 46000000 		.4byte	0x46
 5358 12d7 02       		.byte	0x2
 5359 12d8 91       		.byte	0x91
 5360 12d9 5D       		.sleb128 -35
 5361 12da 1C       		.uleb128 0x1c
 5362 12db 4D736700 		.ascii	"Msg\000"
 5363 12df 01       		.byte	0x1
 5364 12e0 E8       		.byte	0xe8
 5365 12e1 0D0F0000 		.4byte	0xf0d
 5366 12e5 02       		.byte	0x2
 5367 12e6 91       		.byte	0x91
 5368 12e7 70       		.sleb128 -16
 5369 12e8 1D       		.uleb128 0x1d
 5370 12e9 8E030000 		.4byte	.LASF199
 5371 12ed 01       		.byte	0x1
 5372 12ee E9       		.byte	0xe9
 5373 12ef 790E0000 		.4byte	0xe79
 5374 12f3 02       		.byte	0x2
 5375 12f4 91       		.byte	0x91
 5376 12f5 60       		.sleb128 -32
 5377 12f6 1E       		.uleb128 0x1e
 5378 12f7 58000000 		.4byte	.LBB3
 5379 12fb 78000000 		.4byte	.LBE3
 5380 12ff 1D       		.uleb128 0x1d
 5381 1300 7F0E0000 		.4byte	.LASF193
 5382 1304 01       		.byte	0x1
 5383 1305 F5       		.byte	0xf5
 5384 1306 CE000000 		.4byte	0xce
 5385 130a 02       		.byte	0x2
 5386 130b 91       		.byte	0x91
 5387 130c 74       		.sleb128 -12
 5388 130d 00       		.byte	0
 5389 130e 00       		.byte	0
 5390 130f 20       		.uleb128 0x20
 5391 1310 46000000 		.4byte	0x46
 5392 1314 21       		.uleb128 0x21
 5393 1315 01       		.byte	0x1
 5394 1316 280F0000 		.4byte	.LASF200
ARM GAS  C:\Users\X0217454\AppData\Local\Temp\ccwJRGby.s 			page 113


 5395 131a 01       		.byte	0x1
 5396 131b 0D01     		.2byte	0x10d
 5397 131d 01       		.byte	0x1
 5398 131e 9C000000 		.4byte	0x9c
 5399 1322 00000000 		.4byte	.LFB3
 5400 1326 E4000000 		.4byte	.LFE3
 5401 132a 9E000000 		.4byte	.LLST3
 5402 132e 01       		.byte	0x1
 5403 132f A7130000 		.4byte	0x13a7
 5404 1333 22       		.uleb128 0x22
 5405 1334 7D0A0000 		.4byte	.LASF38
 5406 1338 01       		.byte	0x1
 5407 1339 0D01     		.2byte	0x10d
 5408 133b 46000000 		.4byte	0x46
 5409 133f 02       		.byte	0x2
 5410 1340 91       		.byte	0x91
 5411 1341 5F       		.sleb128 -33
 5412 1342 22       		.uleb128 0x22
 5413 1343 170E0000 		.4byte	.LASF196
 5414 1347 01       		.byte	0x1
 5415 1348 0D01     		.2byte	0x10d
 5416 134a 46000000 		.4byte	0x46
 5417 134e 02       		.byte	0x2
 5418 134f 91       		.byte	0x91
 5419 1350 5E       		.sleb128 -34
 5420 1351 22       		.uleb128 0x22
 5421 1352 F0050000 		.4byte	.LASF197
 5422 1356 01       		.byte	0x1
 5423 1357 0D01     		.2byte	0x10d
 5424 1359 EE000000 		.4byte	0xee
 5425 135d 02       		.byte	0x2
 5426 135e 91       		.byte	0x91
 5427 135f 58       		.sleb128 -40
 5428 1360 22       		.uleb128 0x22
 5429 1361 D8090000 		.4byte	.LASF201
 5430 1365 01       		.byte	0x1
 5431 1366 0D01     		.2byte	0x10d
 5432 1368 EE000000 		.4byte	0xee
 5433 136c 02       		.byte	0x2
 5434 136d 91       		.byte	0x91
 5435 136e 54       		.sleb128 -44
 5436 136f 23       		.uleb128 0x23
 5437 1370 4D736700 		.ascii	"Msg\000"
 5438 1374 01       		.byte	0x1
 5439 1375 0F01     		.2byte	0x10f
 5440 1377 390F0000 		.4byte	0xf39
 5441 137b 02       		.byte	0x2
 5442 137c 91       		.byte	0x91
 5443 137d 70       		.sleb128 -16
 5444 137e 24       		.uleb128 0x24
 5445 137f 8E030000 		.4byte	.LASF199
 5446 1383 01       		.byte	0x1
 5447 1384 1001     		.2byte	0x110
 5448 1386 790E0000 		.4byte	0xe79
 5449 138a 02       		.byte	0x2
 5450 138b 91       		.byte	0x91
 5451 138c 60       		.sleb128 -32
ARM GAS  C:\Users\X0217454\AppData\Local\Temp\ccwJRGby.s 			page 114


 5452 138d 1E       		.uleb128 0x1e
 5453 138e 6A000000 		.4byte	.LBB4
 5454 1392 8A000000 		.4byte	.LBE4
 5455 1396 24       		.uleb128 0x24
 5456 1397 7F0E0000 		.4byte	.LASF193
 5457 139b 01       		.byte	0x1
 5458 139c 1F01     		.2byte	0x11f
 5459 139e CE000000 		.4byte	0xce
 5460 13a2 02       		.byte	0x2
 5461 13a3 91       		.byte	0x91
 5462 13a4 74       		.sleb128 -12
 5463 13a5 00       		.byte	0
 5464 13a6 00       		.byte	0
 5465 13a7 21       		.uleb128 0x21
 5466 13a8 01       		.byte	0x1
 5467 13a9 81010000 		.4byte	.LASF202
 5468 13ad 01       		.byte	0x1
 5469 13ae 4A01     		.2byte	0x14a
 5470 13b0 01       		.byte	0x1
 5471 13b1 9C000000 		.4byte	0x9c
 5472 13b5 00000000 		.4byte	.LFB4
 5473 13b9 8C030000 		.4byte	.LFE4
 5474 13bd D6000000 		.4byte	.LLST4
 5475 13c1 01       		.byte	0x1
 5476 13c2 6D140000 		.4byte	0x146d
 5477 13c6 22       		.uleb128 0x22
 5478 13c7 420F0000 		.4byte	.LASF187
 5479 13cb 01       		.byte	0x1
 5480 13cc 4A01     		.2byte	0x14a
 5481 13ce F4000000 		.4byte	0xf4
 5482 13d2 03       		.byte	0x3
 5483 13d3 91       		.byte	0x91
 5484 13d4 B47E     		.sleb128 -204
 5485 13d6 22       		.uleb128 0x22
 5486 13d7 F3090000 		.4byte	.LASF188
 5487 13db 01       		.byte	0x1
 5488 13dc 4A01     		.2byte	0x14a
 5489 13de 9C000000 		.4byte	0x9c
 5490 13e2 03       		.byte	0x3
 5491 13e3 91       		.byte	0x91
 5492 13e4 B07E     		.sleb128 -208
 5493 13e6 22       		.uleb128 0x22
 5494 13e7 00000000 		.4byte	.LASF189
 5495 13eb 01       		.byte	0x1
 5496 13ec 4A01     		.2byte	0x14a
 5497 13ee EE000000 		.4byte	0xee
 5498 13f2 03       		.byte	0x3
 5499 13f3 91       		.byte	0x91
 5500 13f4 AC7E     		.sleb128 -212
 5501 13f6 22       		.uleb128 0x22
 5502 13f7 4B0A0000 		.4byte	.LASF190
 5503 13fb 01       		.byte	0x1
 5504 13fc 4A01     		.2byte	0x14a
 5505 13fe 5E120000 		.4byte	0x125e
 5506 1402 03       		.byte	0x3
 5507 1403 91       		.byte	0x91
 5508 1404 A87E     		.sleb128 -216
ARM GAS  C:\Users\X0217454\AppData\Local\Temp\ccwJRGby.s 			page 115


 5509 1406 22       		.uleb128 0x22
 5510 1407 F4040000 		.4byte	.LASF191
 5511 140b 01       		.byte	0x1
 5512 140c 4A01     		.2byte	0x14a
 5513 140e 64120000 		.4byte	0x1264
 5514 1412 02       		.byte	0x2
 5515 1413 91       		.byte	0x91
 5516 1414 00       		.sleb128 0
 5517 1415 22       		.uleb128 0x22
 5518 1416 1F020000 		.4byte	.LASF121
 5519 141a 01       		.byte	0x1
 5520 141b 4A01     		.2byte	0x14a
 5521 141d 83000000 		.4byte	0x83
 5522 1421 02       		.byte	0x2
 5523 1422 91       		.byte	0x91
 5524 1423 04       		.sleb128 4
 5525 1424 22       		.uleb128 0x22
 5526 1425 F20B0000 		.4byte	.LASF203
 5527 1429 01       		.byte	0x1
 5528 142a 4A01     		.2byte	0x14a
 5529 142c 83000000 		.4byte	0x83
 5530 1430 02       		.byte	0x2
 5531 1431 91       		.byte	0x91
 5532 1432 08       		.sleb128 8
 5533 1433 23       		.uleb128 0x23
 5534 1434 4D736700 		.ascii	"Msg\000"
 5535 1438 01       		.byte	0x1
 5536 1439 4C01     		.2byte	0x14c
 5537 143b 9B0F0000 		.4byte	0xf9b
 5538 143f 03       		.byte	0x3
 5539 1440 91       		.byte	0x91
 5540 1441 C07E     		.sleb128 -192
 5541 1443 24       		.uleb128 0x24
 5542 1444 BE000000 		.4byte	.LASF192
 5543 1448 01       		.byte	0x1
 5544 1449 4D01     		.2byte	0x14d
 5545 144b 190E0000 		.4byte	0xe19
 5546 144f 03       		.byte	0x3
 5547 1450 91       		.byte	0x91
 5548 1451 BC7E     		.sleb128 -196
 5549 1453 1E       		.uleb128 0x1e
 5550 1454 48030000 		.4byte	.LBB5
 5551 1458 6E030000 		.4byte	.LBE5
 5552 145c 24       		.uleb128 0x24
 5553 145d 7F0E0000 		.4byte	.LASF193
 5554 1461 01       		.byte	0x1
 5555 1462 DD01     		.2byte	0x1dd
 5556 1464 CE000000 		.4byte	0xce
 5557 1468 02       		.byte	0x2
 5558 1469 91       		.byte	0x91
 5559 146a 74       		.sleb128 -12
 5560 146b 00       		.byte	0
 5561 146c 00       		.byte	0
 5562 146d 21       		.uleb128 0x21
 5563 146e 01       		.byte	0x1
 5564 146f 6A060000 		.4byte	.LASF204
 5565 1473 01       		.byte	0x1
ARM GAS  C:\Users\X0217454\AppData\Local\Temp\ccwJRGby.s 			page 116


 5566 1474 F201     		.2byte	0x1f2
 5567 1476 01       		.byte	0x1
 5568 1477 9C000000 		.4byte	0x9c
 5569 147b 00000000 		.4byte	.LFB5
 5570 147f 6C010000 		.4byte	.LFE5
 5571 1483 10010000 		.4byte	.LLST5
 5572 1487 01       		.byte	0x1
 5573 1488 23150000 		.4byte	0x1523
 5574 148c 22       		.uleb128 0x22
 5575 148d F5050000 		.4byte	.LASF205
 5576 1491 01       		.byte	0x1
 5577 1492 F201     		.2byte	0x1f2
 5578 1494 9C000000 		.4byte	0x9c
 5579 1498 03       		.byte	0x3
 5580 1499 91       		.byte	0x91
 5581 149a BC7E     		.sleb128 -196
 5582 149c 22       		.uleb128 0x22
 5583 149d 420F0000 		.4byte	.LASF187
 5584 14a1 01       		.byte	0x1
 5585 14a2 F201     		.2byte	0x1f2
 5586 14a4 F4000000 		.4byte	0xf4
 5587 14a8 03       		.byte	0x3
 5588 14a9 91       		.byte	0x91
 5589 14aa B87E     		.sleb128 -200
 5590 14ac 22       		.uleb128 0x22
 5591 14ad F10E0000 		.4byte	.LASF206
 5592 14b1 01       		.byte	0x1
 5593 14b2 F201     		.2byte	0x1f2
 5594 14b4 23150000 		.4byte	0x1523
 5595 14b8 03       		.byte	0x3
 5596 14b9 91       		.byte	0x91
 5597 14ba B47E     		.sleb128 -204
 5598 14bc 22       		.uleb128 0x22
 5599 14bd 00000000 		.4byte	.LASF189
 5600 14c1 01       		.byte	0x1
 5601 14c2 F201     		.2byte	0x1f2
 5602 14c4 EE000000 		.4byte	0xee
 5603 14c8 03       		.byte	0x3
 5604 14c9 91       		.byte	0x91
 5605 14ca B07E     		.sleb128 -208
 5606 14cc 22       		.uleb128 0x22
 5607 14cd 4B0A0000 		.4byte	.LASF190
 5608 14d1 01       		.byte	0x1
 5609 14d2 F201     		.2byte	0x1f2
 5610 14d4 5E120000 		.4byte	0x125e
 5611 14d8 02       		.byte	0x2
 5612 14d9 91       		.byte	0x91
 5613 14da 00       		.sleb128 0
 5614 14db 22       		.uleb128 0x22
 5615 14dc B1070000 		.4byte	.LASF207
 5616 14e0 01       		.byte	0x1
 5617 14e1 F201     		.2byte	0x1f2
 5618 14e3 29150000 		.4byte	0x1529
 5619 14e7 02       		.byte	0x2
 5620 14e8 91       		.byte	0x91
 5621 14e9 04       		.sleb128 4
 5622 14ea 22       		.uleb128 0x22
ARM GAS  C:\Users\X0217454\AppData\Local\Temp\ccwJRGby.s 			page 117


 5623 14eb C20F0000 		.4byte	.LASF208
 5624 14ef 01       		.byte	0x1
 5625 14f0 F201     		.2byte	0x1f2
 5626 14f2 2F150000 		.4byte	0x152f
 5627 14f6 02       		.byte	0x2
 5628 14f7 91       		.byte	0x91
 5629 14f8 08       		.sleb128 8
 5630 14f9 23       		.uleb128 0x23
 5631 14fa 4D736700 		.ascii	"Msg\000"
 5632 14fe 01       		.byte	0x1
 5633 14ff F401     		.2byte	0x1f4
 5634 1501 C90F0000 		.4byte	0xfc9
 5635 1505 03       		.byte	0x3
 5636 1506 91       		.byte	0x91
 5637 1507 C07E     		.sleb128 -192
 5638 1509 1E       		.uleb128 0x1e
 5639 150a 18000000 		.4byte	.LBB6
 5640 150e 3C000000 		.4byte	.LBE6
 5641 1512 24       		.uleb128 0x24
 5642 1513 7F0E0000 		.4byte	.LASF193
 5643 1517 01       		.byte	0x1
 5644 1518 F701     		.2byte	0x1f7
 5645 151a CE000000 		.4byte	0xce
 5646 151e 02       		.byte	0x2
 5647 151f 91       		.byte	0x91
 5648 1520 74       		.sleb128 -12
 5649 1521 00       		.byte	0
 5650 1522 00       		.byte	0
 5651 1523 06       		.uleb128 0x6
 5652 1524 04       		.byte	0x4
 5653 1525 9C000000 		.4byte	0x9c
 5654 1529 06       		.uleb128 0x6
 5655 152a 04       		.byte	0x4
 5656 152b AE030000 		.4byte	0x3ae
 5657 152f 06       		.uleb128 0x6
 5658 1530 04       		.byte	0x4
 5659 1531 83000000 		.4byte	0x83
 5660 1535 21       		.uleb128 0x21
 5661 1536 01       		.byte	0x1
 5662 1537 AB0C0000 		.4byte	.LASF209
 5663 153b 01       		.byte	0x1
 5664 153c 2B02     		.2byte	0x22b
 5665 153e 01       		.byte	0x1
 5666 153f 9C000000 		.4byte	0x9c
 5667 1543 00000000 		.4byte	.LFB6
 5668 1547 44000000 		.4byte	.LFE6
 5669 154b 4A010000 		.4byte	.LLST6
 5670 154f 01       		.byte	0x1
 5671 1550 8C150000 		.4byte	0x158c
 5672 1554 22       		.uleb128 0x22
 5673 1555 F5050000 		.4byte	.LASF205
 5674 1559 01       		.byte	0x1
 5675 155a 2B02     		.2byte	0x22b
 5676 155c 9C000000 		.4byte	0x9c
 5677 1560 02       		.byte	0x2
 5678 1561 91       		.byte	0x91
 5679 1562 6C       		.sleb128 -20
ARM GAS  C:\Users\X0217454\AppData\Local\Temp\ccwJRGby.s 			page 118


 5680 1563 23       		.uleb128 0x23
 5681 1564 4D736700 		.ascii	"Msg\000"
 5682 1568 01       		.byte	0x1
 5683 1569 2D02     		.2byte	0x22d
 5684 156b F70F0000 		.4byte	0xff7
 5685 156f 02       		.byte	0x2
 5686 1570 91       		.byte	0x91
 5687 1571 70       		.sleb128 -16
 5688 1572 1E       		.uleb128 0x1e
 5689 1573 12000000 		.4byte	.LBB7
 5690 1577 2E000000 		.4byte	.LBE7
 5691 157b 24       		.uleb128 0x24
 5692 157c 7F0E0000 		.4byte	.LASF193
 5693 1580 01       		.byte	0x1
 5694 1581 3102     		.2byte	0x231
 5695 1583 CE000000 		.4byte	0xce
 5696 1587 02       		.byte	0x2
 5697 1588 91       		.byte	0x91
 5698 1589 74       		.sleb128 -12
 5699 158a 00       		.byte	0
 5700 158b 00       		.byte	0
 5701 158c 21       		.uleb128 0x21
 5702 158d 01       		.byte	0x1
 5703 158e 870E0000 		.4byte	.LASF210
 5704 1592 01       		.byte	0x1
 5705 1593 4A02     		.2byte	0x24a
 5706 1595 01       		.byte	0x1
 5707 1596 9C000000 		.4byte	0x9c
 5708 159a 00000000 		.4byte	.LFB7
 5709 159e A0000000 		.4byte	.LFE7
 5710 15a2 82010000 		.4byte	.LLST7
 5711 15a6 01       		.byte	0x1
 5712 15a7 1F160000 		.4byte	0x161f
 5713 15ab 22       		.uleb128 0x22
 5714 15ac F5050000 		.4byte	.LASF205
 5715 15b0 01       		.byte	0x1
 5716 15b1 4A02     		.2byte	0x24a
 5717 15b3 46000000 		.4byte	0x46
 5718 15b7 02       		.byte	0x2
 5719 15b8 91       		.byte	0x91
 5720 15b9 57       		.sleb128 -41
 5721 15ba 22       		.uleb128 0x22
 5722 15bb BC090000 		.4byte	.LASF211
 5723 15bf 01       		.byte	0x1
 5724 15c0 4A02     		.2byte	0x24a
 5725 15c2 46000000 		.4byte	0x46
 5726 15c6 02       		.byte	0x2
 5727 15c7 91       		.byte	0x91
 5728 15c8 56       		.sleb128 -42
 5729 15c9 22       		.uleb128 0x22
 5730 15ca FF000000 		.4byte	.LASF212
 5731 15ce 01       		.byte	0x1
 5732 15cf 4A02     		.2byte	0x24a
 5733 15d1 1F160000 		.4byte	0x161f
 5734 15d5 02       		.byte	0x2
 5735 15d6 91       		.byte	0x91
 5736 15d7 50       		.sleb128 -48
ARM GAS  C:\Users\X0217454\AppData\Local\Temp\ccwJRGby.s 			page 119


 5737 15d8 24       		.uleb128 0x24
 5738 15d9 4D000000 		.4byte	.LASF213
 5739 15dd 01       		.byte	0x1
 5740 15de 4C02     		.2byte	0x24c
 5741 15e0 9C000000 		.4byte	0x9c
 5742 15e4 02       		.byte	0x2
 5743 15e5 91       		.byte	0x91
 5744 15e6 74       		.sleb128 -12
 5745 15e7 23       		.uleb128 0x23
 5746 15e8 4D736700 		.ascii	"Msg\000"
 5747 15ec 01       		.byte	0x1
 5748 15ed 4D02     		.2byte	0x24d
 5749 15ef 25100000 		.4byte	0x1025
 5750 15f3 02       		.byte	0x2
 5751 15f4 91       		.byte	0x91
 5752 15f5 6C       		.sleb128 -20
 5753 15f6 24       		.uleb128 0x24
 5754 15f7 8E030000 		.4byte	.LASF199
 5755 15fb 01       		.byte	0x1
 5756 15fc 4E02     		.2byte	0x24e
 5757 15fe 790E0000 		.4byte	0xe79
 5758 1602 02       		.byte	0x2
 5759 1603 91       		.byte	0x91
 5760 1604 5C       		.sleb128 -36
 5761 1605 1E       		.uleb128 0x1e
 5762 1606 62000000 		.4byte	.LBB8
 5763 160a 82000000 		.4byte	.LBE8
 5764 160e 24       		.uleb128 0x24
 5765 160f 7F0E0000 		.4byte	.LASF193
 5766 1613 01       		.byte	0x1
 5767 1614 5C02     		.2byte	0x25c
 5768 1616 CE000000 		.4byte	0xce
 5769 161a 02       		.byte	0x2
 5770 161b 91       		.byte	0x91
 5771 161c 70       		.sleb128 -16
 5772 161d 00       		.byte	0
 5773 161e 00       		.byte	0
 5774 161f 06       		.uleb128 0x6
 5775 1620 04       		.byte	0x4
 5776 1621 7B020000 		.4byte	0x27b
 5777 1625 21       		.uleb128 0x21
 5778 1626 01       		.byte	0x1
 5779 1627 69000000 		.4byte	.LASF214
 5780 162b 01       		.byte	0x1
 5781 162c 9E02     		.2byte	0x29e
 5782 162e 01       		.byte	0x1
 5783 162f BA030000 		.4byte	0x3ba
 5784 1633 00000000 		.4byte	.LFB8
 5785 1637 B0000000 		.4byte	.LFE8
 5786 163b BA010000 		.4byte	.LLST8
 5787 163f 01       		.byte	0x1
 5788 1640 CC160000 		.4byte	0x16cc
 5789 1644 22       		.uleb128 0x22
 5790 1645 9C030000 		.4byte	.LASF144
 5791 1649 01       		.byte	0x1
 5792 164a 9E02     		.2byte	0x29e
 5793 164c 20040000 		.4byte	0x420
ARM GAS  C:\Users\X0217454\AppData\Local\Temp\ccwJRGby.s 			page 120


 5794 1650 03       		.byte	0x3
 5795 1651 91       		.byte	0x91
 5796 1652 977F     		.sleb128 -105
 5797 1654 22       		.uleb128 0x22
 5798 1655 E7090000 		.4byte	.LASF145
 5799 1659 01       		.byte	0x1
 5800 165a 9F02     		.2byte	0x29f
 5801 165c 43040000 		.4byte	0x443
 5802 1660 03       		.byte	0x3
 5803 1661 91       		.byte	0x91
 5804 1662 947F     		.sleb128 -108
 5805 1664 22       		.uleb128 0x22
 5806 1665 060B0000 		.4byte	.LASF147
 5807 1669 01       		.byte	0x1
 5808 166a A002     		.2byte	0x2a0
 5809 166c CC160000 		.4byte	0x16cc
 5810 1670 03       		.byte	0x3
 5811 1671 91       		.byte	0x91
 5812 1672 907F     		.sleb128 -112
 5813 1674 22       		.uleb128 0x22
 5814 1675 E7040000 		.4byte	.LASF96
 5815 1679 01       		.byte	0x1
 5816 167a A102     		.2byte	0x2a1
 5817 167c DC160000 		.4byte	0x16dc
 5818 1680 03       		.byte	0x3
 5819 1681 91       		.byte	0x91
 5820 1682 8C7F     		.sleb128 -116
 5821 1684 22       		.uleb128 0x22
 5822 1685 54040000 		.4byte	.LASF148
 5823 1689 01       		.byte	0x1
 5824 168a A202     		.2byte	0x2a2
 5825 168c EC160000 		.4byte	0x16ec
 5826 1690 02       		.byte	0x2
 5827 1691 91       		.byte	0x91
 5828 1692 00       		.sleb128 0
 5829 1693 22       		.uleb128 0x22
 5830 1694 DD0B0000 		.4byte	.LASF215
 5831 1698 01       		.byte	0x1
 5832 1699 A302     		.2byte	0x2a3
 5833 169b FC160000 		.4byte	0x16fc
 5834 169f 02       		.byte	0x2
 5835 16a0 91       		.byte	0x91
 5836 16a1 04       		.sleb128 4
 5837 16a2 23       		.uleb128 0x23
 5838 16a3 4D736700 		.ascii	"Msg\000"
 5839 16a7 01       		.byte	0x1
 5840 16a8 A802     		.2byte	0x2a8
 5841 16aa 53100000 		.4byte	0x1053
 5842 16ae 03       		.byte	0x3
 5843 16af 91       		.byte	0x91
 5844 16b0 9C7F     		.sleb128 -100
 5845 16b2 1E       		.uleb128 0x1e
 5846 16b3 74000000 		.4byte	.LBB9
 5847 16b7 90000000 		.4byte	.LBE9
 5848 16bb 24       		.uleb128 0x24
 5849 16bc 7F0E0000 		.4byte	.LASF193
 5850 16c0 01       		.byte	0x1
ARM GAS  C:\Users\X0217454\AppData\Local\Temp\ccwJRGby.s 			page 121


 5851 16c1 B002     		.2byte	0x2b0
 5852 16c3 CE000000 		.4byte	0xce
 5853 16c7 02       		.byte	0x2
 5854 16c8 91       		.byte	0x91
 5855 16c9 6C       		.sleb128 -20
 5856 16ca 00       		.byte	0
 5857 16cb 00       		.byte	0
 5858 16cc 20       		.uleb128 0x20
 5859 16cd D1160000 		.4byte	0x16d1
 5860 16d1 06       		.uleb128 0x6
 5861 16d2 04       		.byte	0x4
 5862 16d3 D7160000 		.4byte	0x16d7
 5863 16d7 20       		.uleb128 0x20
 5864 16d8 D0060000 		.4byte	0x6d0
 5865 16dc 20       		.uleb128 0x20
 5866 16dd E1160000 		.4byte	0x16e1
 5867 16e1 06       		.uleb128 0x6
 5868 16e2 04       		.byte	0x4
 5869 16e3 E7160000 		.4byte	0x16e7
 5870 16e7 20       		.uleb128 0x20
 5871 16e8 B7070000 		.4byte	0x7b7
 5872 16ec 20       		.uleb128 0x20
 5873 16ed F1160000 		.4byte	0x16f1
 5874 16f1 06       		.uleb128 0x6
 5875 16f2 04       		.byte	0x4
 5876 16f3 F7160000 		.4byte	0x16f7
 5877 16f7 20       		.uleb128 0x20
 5878 16f8 34080000 		.4byte	0x834
 5879 16fc 06       		.uleb128 0x6
 5880 16fd 04       		.byte	0x4
 5881 16fe BA030000 		.4byte	0x3ba
 5882 1702 21       		.uleb128 0x21
 5883 1703 01       		.byte	0x1
 5884 1704 940B0000 		.4byte	.LASF216
 5885 1708 01       		.byte	0x1
 5886 1709 BD02     		.2byte	0x2bd
 5887 170b 01       		.byte	0x1
 5888 170c 9C000000 		.4byte	0x9c
 5889 1710 00000000 		.4byte	.LFB9
 5890 1714 7C000000 		.4byte	.LFE9
 5891 1718 F4010000 		.4byte	.LLST9
 5892 171c 01       		.byte	0x1
 5893 171d 86170000 		.4byte	0x1786
 5894 1721 22       		.uleb128 0x22
 5895 1722 820B0000 		.4byte	.LASF153
 5896 1726 01       		.byte	0x1
 5897 1727 BD02     		.2byte	0x2bd
 5898 1729 86170000 		.4byte	0x1786
 5899 172d 02       		.byte	0x2
 5900 172e 91       		.byte	0x91
 5901 172f 5F       		.sleb128 -33
 5902 1730 22       		.uleb128 0x22
 5903 1731 900F0000 		.4byte	.LASF217
 5904 1735 01       		.byte	0x1
 5905 1736 BE02     		.2byte	0x2be
 5906 1738 8B170000 		.4byte	0x178b
 5907 173c 02       		.byte	0x2
ARM GAS  C:\Users\X0217454\AppData\Local\Temp\ccwJRGby.s 			page 122


 5908 173d 91       		.byte	0x91
 5909 173e 58       		.sleb128 -40
 5910 173f 22       		.uleb128 0x22
 5911 1740 8A020000 		.4byte	.LASF218
 5912 1744 01       		.byte	0x1
 5913 1745 BF02     		.2byte	0x2bf
 5914 1747 5F000000 		.4byte	0x5f
 5915 174b 02       		.byte	0x2
 5916 174c 91       		.byte	0x91
 5917 174d 5C       		.sleb128 -36
 5918 174e 23       		.uleb128 0x23
 5919 174f 4D736700 		.ascii	"Msg\000"
 5920 1753 01       		.byte	0x1
 5921 1754 C102     		.2byte	0x2c1
 5922 1756 85100000 		.4byte	0x1085
 5923 175a 02       		.byte	0x2
 5924 175b 91       		.byte	0x91
 5925 175c 70       		.sleb128 -16
 5926 175d 24       		.uleb128 0x24
 5927 175e 8E030000 		.4byte	.LASF199
 5928 1762 01       		.byte	0x1
 5929 1763 C202     		.2byte	0x2c2
 5930 1765 790E0000 		.4byte	0xe79
 5931 1769 02       		.byte	0x2
 5932 176a 91       		.byte	0x91
 5933 176b 60       		.sleb128 -32
 5934 176c 1E       		.uleb128 0x1e
 5935 176d 48000000 		.4byte	.LBB10
 5936 1771 68000000 		.4byte	.LBE10
 5937 1775 24       		.uleb128 0x24
 5938 1776 7F0E0000 		.4byte	.LASF193
 5939 177a 01       		.byte	0x1
 5940 177b CD02     		.2byte	0x2cd
 5941 177d CE000000 		.4byte	0xce
 5942 1781 02       		.byte	0x2
 5943 1782 91       		.byte	0x91
 5944 1783 74       		.sleb128 -12
 5945 1784 00       		.byte	0
 5946 1785 00       		.byte	0
 5947 1786 20       		.uleb128 0x20
 5948 1787 50080000 		.4byte	0x850
 5949 178b 20       		.uleb128 0x20
 5950 178c 90170000 		.4byte	0x1790
 5951 1790 06       		.uleb128 0x6
 5952 1791 04       		.byte	0x4
 5953 1792 0F130000 		.4byte	0x130f
 5954 1796 21       		.uleb128 0x21
 5955 1797 01       		.byte	0x1
 5956 1798 AA040000 		.4byte	.LASF219
 5957 179c 01       		.byte	0x1
 5958 179d D802     		.2byte	0x2d8
 5959 179f 01       		.byte	0x1
 5960 17a0 9C000000 		.4byte	0x9c
 5961 17a4 00000000 		.4byte	.LFB10
 5962 17a8 AC000000 		.4byte	.LFE10
 5963 17ac 2C020000 		.4byte	.LLST10
 5964 17b0 01       		.byte	0x1
ARM GAS  C:\Users\X0217454\AppData\Local\Temp\ccwJRGby.s 			page 123


 5965 17b1 1A180000 		.4byte	0x181a
 5966 17b5 22       		.uleb128 0x22
 5967 17b6 820B0000 		.4byte	.LASF153
 5968 17ba 01       		.byte	0x1
 5969 17bb D802     		.2byte	0x2d8
 5970 17bd 86170000 		.4byte	0x1786
 5971 17c1 02       		.byte	0x2
 5972 17c2 91       		.byte	0x91
 5973 17c3 5F       		.sleb128 -33
 5974 17c4 22       		.uleb128 0x22
 5975 17c5 8B0C0000 		.4byte	.LASF220
 5976 17c9 01       		.byte	0x1
 5977 17ca D902     		.2byte	0x2d9
 5978 17cc EE000000 		.4byte	0xee
 5979 17d0 02       		.byte	0x2
 5980 17d1 91       		.byte	0x91
 5981 17d2 58       		.sleb128 -40
 5982 17d3 22       		.uleb128 0x22
 5983 17d4 220C0000 		.4byte	.LASF221
 5984 17d8 01       		.byte	0x1
 5985 17d9 DA02     		.2byte	0x2da
 5986 17db 5F000000 		.4byte	0x5f
 5987 17df 02       		.byte	0x2
 5988 17e0 91       		.byte	0x91
 5989 17e1 5C       		.sleb128 -36
 5990 17e2 23       		.uleb128 0x23
 5991 17e3 4D736700 		.ascii	"Msg\000"
 5992 17e7 01       		.byte	0x1
 5993 17e8 DC02     		.2byte	0x2dc
 5994 17ea B7100000 		.4byte	0x10b7
 5995 17ee 02       		.byte	0x2
 5996 17ef 91       		.byte	0x91
 5997 17f0 70       		.sleb128 -16
 5998 17f1 24       		.uleb128 0x24
 5999 17f2 8E030000 		.4byte	.LASF199
 6000 17f6 01       		.byte	0x1
 6001 17f7 DD02     		.2byte	0x2dd
 6002 17f9 790E0000 		.4byte	0xe79
 6003 17fd 02       		.byte	0x2
 6004 17fe 91       		.byte	0x91
 6005 17ff 60       		.sleb128 -32
 6006 1800 1E       		.uleb128 0x1e
 6007 1801 5C000000 		.4byte	.LBB11
 6008 1805 7C000000 		.4byte	.LBE11
 6009 1809 24       		.uleb128 0x24
 6010 180a 7F0E0000 		.4byte	.LASF193
 6011 180e 01       		.byte	0x1
 6012 180f ED02     		.2byte	0x2ed
 6013 1811 CE000000 		.4byte	0xce
 6014 1815 02       		.byte	0x2
 6015 1816 91       		.byte	0x91
 6016 1817 74       		.sleb128 -12
 6017 1818 00       		.byte	0
 6018 1819 00       		.byte	0
 6019 181a 25       		.uleb128 0x25
 6020 181b 01       		.byte	0x1
 6021 181c CE060000 		.4byte	.LASF223
ARM GAS  C:\Users\X0217454\AppData\Local\Temp\ccwJRGby.s 			page 124


 6022 1820 01       		.byte	0x1
 6023 1821 FC02     		.2byte	0x2fc
 6024 1823 01       		.byte	0x1
 6025 1824 9C000000 		.4byte	0x9c
 6026 1828 00000000 		.4byte	.LFB11
 6027 182c 18000000 		.4byte	.LFE11
 6028 1830 64020000 		.4byte	.LLST11
 6029 1834 01       		.byte	0x1
 6030 1835 25       		.uleb128 0x25
 6031 1836 01       		.byte	0x1
 6032 1837 660C0000 		.4byte	.LASF224
 6033 183b 01       		.byte	0x1
 6034 183c 0303     		.2byte	0x303
 6035 183e 01       		.byte	0x1
 6036 183f 9C000000 		.4byte	0x9c
 6037 1843 00000000 		.4byte	.LFB12
 6038 1847 18000000 		.4byte	.LFE12
 6039 184b 90020000 		.4byte	.LLST12
 6040 184f 01       		.byte	0x1
 6041 1850 21       		.uleb128 0x21
 6042 1851 01       		.byte	0x1
 6043 1852 11060000 		.4byte	.LASF225
 6044 1856 01       		.byte	0x1
 6045 1857 0A03     		.2byte	0x30a
 6046 1859 01       		.byte	0x1
 6047 185a 9C000000 		.4byte	0x9c
 6048 185e 00000000 		.4byte	.LFB13
 6049 1862 58000000 		.4byte	.LFE13
 6050 1866 BC020000 		.4byte	.LLST13
 6051 186a 01       		.byte	0x1
 6052 186b B6180000 		.4byte	0x18b6
 6053 186f 22       		.uleb128 0x22
 6054 1870 04090000 		.4byte	.LASF226
 6055 1874 01       		.byte	0x1
 6056 1875 0A03     		.2byte	0x30a
 6057 1877 B6180000 		.4byte	0x18b6
 6058 187b 02       		.byte	0x2
 6059 187c 91       		.byte	0x91
 6060 187d 6C       		.sleb128 -20
 6061 187e 22       		.uleb128 0x22
 6062 187f 1E040000 		.4byte	.LASF227
 6063 1883 01       		.byte	0x1
 6064 1884 0A03     		.2byte	0x30a
 6065 1886 83000000 		.4byte	0x83
 6066 188a 02       		.byte	0x2
 6067 188b 91       		.byte	0x91
 6068 188c 68       		.sleb128 -24
 6069 188d 24       		.uleb128 0x24
 6070 188e BE000000 		.4byte	.LASF192
 6071 1892 01       		.byte	0x1
 6072 1893 0C03     		.2byte	0x30c
 6073 1895 190E0000 		.4byte	0xe19
 6074 1899 02       		.byte	0x2
 6075 189a 91       		.byte	0x91
 6076 189b 70       		.sleb128 -16
 6077 189c 1E       		.uleb128 0x1e
 6078 189d 2C000000 		.4byte	.LBB12
ARM GAS  C:\Users\X0217454\AppData\Local\Temp\ccwJRGby.s 			page 125


 6079 18a1 48000000 		.4byte	.LBE12
 6080 18a5 24       		.uleb128 0x24
 6081 18a6 7F0E0000 		.4byte	.LASF193
 6082 18aa 01       		.byte	0x1
 6083 18ab 0E03     		.2byte	0x30e
 6084 18ad CE000000 		.4byte	0xce
 6085 18b1 02       		.byte	0x2
 6086 18b2 91       		.byte	0x91
 6087 18b3 74       		.sleb128 -12
 6088 18b4 00       		.byte	0
 6089 18b5 00       		.byte	0
 6090 18b6 06       		.uleb128 0x6
 6091 18b7 04       		.byte	0x4
 6092 18b8 FB010000 		.4byte	0x1fb
 6093 18bc 25       		.uleb128 0x25
 6094 18bd 01       		.byte	0x1
 6095 18be 0B0B0000 		.4byte	.LASF228
 6096 18c2 01       		.byte	0x1
 6097 18c3 1A03     		.2byte	0x31a
 6098 18c5 01       		.byte	0x1
 6099 18c6 9C000000 		.4byte	0x9c
 6100 18ca 00000000 		.4byte	.LFB14
 6101 18ce 18000000 		.4byte	.LFE14
 6102 18d2 F4020000 		.4byte	.LLST14
 6103 18d6 01       		.byte	0x1
 6104 18d7 21       		.uleb128 0x21
 6105 18d8 01       		.byte	0x1
 6106 18d9 0A0C0000 		.4byte	.LASF229
 6107 18dd 01       		.byte	0x1
 6108 18de 3A03     		.2byte	0x33a
 6109 18e0 01       		.byte	0x1
 6110 18e1 9C000000 		.4byte	0x9c
 6111 18e5 00000000 		.4byte	.LFB15
 6112 18e9 E0000000 		.4byte	.LFE15
 6113 18ed 20030000 		.4byte	.LLST15
 6114 18f1 01       		.byte	0x1
 6115 18f2 9C190000 		.4byte	0x199c
 6116 18f6 22       		.uleb128 0x22
 6117 18f7 480F0000 		.4byte	.LASF130
 6118 18fb 01       		.byte	0x1
 6119 18fc 3A03     		.2byte	0x33a
 6120 18fe 9C190000 		.4byte	0x199c
 6121 1902 03       		.byte	0x3
 6122 1903 91       		.byte	0x91
 6123 1904 B47F     		.sleb128 -76
 6124 1906 22       		.uleb128 0x22
 6125 1907 C8040000 		.4byte	.LASF131
 6126 190b 01       		.byte	0x1
 6127 190c 3B03     		.2byte	0x33b
 6128 190e 0F130000 		.4byte	0x130f
 6129 1912 03       		.byte	0x3
 6130 1913 91       		.byte	0x91
 6131 1914 B37F     		.sleb128 -77
 6132 1916 22       		.uleb128 0x22
 6133 1917 08010000 		.4byte	.LASF132
 6134 191b 01       		.byte	0x1
 6135 191c 3C03     		.2byte	0x33c
ARM GAS  C:\Users\X0217454\AppData\Local\Temp\ccwJRGby.s 			page 126


 6136 191e 0F130000 		.4byte	0x130f
 6137 1922 03       		.byte	0x3
 6138 1923 91       		.byte	0x91
 6139 1924 B27F     		.sleb128 -78
 6140 1926 22       		.uleb128 0x22
 6141 1927 9C020000 		.4byte	.LASF133
 6142 192b 01       		.byte	0x1
 6143 192c 3D03     		.2byte	0x33d
 6144 192e 0F130000 		.4byte	0x130f
 6145 1932 03       		.byte	0x3
 6146 1933 91       		.byte	0x91
 6147 1934 B17F     		.sleb128 -79
 6148 1936 22       		.uleb128 0x22
 6149 1937 A5030000 		.4byte	.LASF134
 6150 193b 01       		.byte	0x1
 6151 193c 3E03     		.2byte	0x33e
 6152 193e 0F130000 		.4byte	0x130f
 6153 1942 02       		.byte	0x2
 6154 1943 91       		.byte	0x91
 6155 1944 00       		.sleb128 0
 6156 1945 22       		.uleb128 0x22
 6157 1946 2B010000 		.4byte	.LASF230
 6158 194a 01       		.byte	0x1
 6159 194b 3F03     		.2byte	0x33f
 6160 194d 90170000 		.4byte	0x1790
 6161 1951 02       		.byte	0x2
 6162 1952 91       		.byte	0x91
 6163 1953 04       		.sleb128 4
 6164 1954 22       		.uleb128 0x22
 6165 1955 95100000 		.4byte	.LASF231
 6166 1959 01       		.byte	0x1
 6167 195a 4003     		.2byte	0x340
 6168 195c 90170000 		.4byte	0x1790
 6169 1960 02       		.byte	0x2
 6170 1961 91       		.byte	0x91
 6171 1962 08       		.sleb128 8
 6172 1963 22       		.uleb128 0x22
 6173 1964 72090000 		.4byte	.LASF232
 6174 1968 01       		.byte	0x1
 6175 1969 4103     		.2byte	0x341
 6176 196b 90170000 		.4byte	0x1790
 6177 196f 02       		.byte	0x2
 6178 1970 91       		.byte	0x91
 6179 1971 0C       		.sleb128 12
 6180 1972 23       		.uleb128 0x23
 6181 1973 4D736700 		.ascii	"Msg\000"
 6182 1977 01       		.byte	0x1
 6183 1978 4303     		.2byte	0x343
 6184 197a 29110000 		.4byte	0x1129
 6185 197e 03       		.byte	0x3
 6186 197f 91       		.byte	0x91
 6187 1980 BC7F     		.sleb128 -68
 6188 1982 1E       		.uleb128 0x1e
 6189 1983 B0000000 		.4byte	.LBB13
 6190 1987 CC000000 		.4byte	.LBE13
 6191 198b 24       		.uleb128 0x24
 6192 198c 7F0E0000 		.4byte	.LASF193
ARM GAS  C:\Users\X0217454\AppData\Local\Temp\ccwJRGby.s 			page 127


 6193 1990 01       		.byte	0x1
 6194 1991 5003     		.2byte	0x350
 6195 1993 CE000000 		.4byte	0xce
 6196 1997 02       		.byte	0x2
 6197 1998 91       		.byte	0x91
 6198 1999 74       		.sleb128 -12
 6199 199a 00       		.byte	0
 6200 199b 00       		.byte	0
 6201 199c 20       		.uleb128 0x20
 6202 199d 83000000 		.4byte	0x83
 6203 19a1 21       		.uleb128 0x21
 6204 19a2 01       		.byte	0x1
 6205 19a3 36010000 		.4byte	.LASF233
 6206 19a7 01       		.byte	0x1
 6207 19a8 6F03     		.2byte	0x36f
 6208 19aa 01       		.byte	0x1
 6209 19ab 9C000000 		.4byte	0x9c
 6210 19af 00000000 		.4byte	.LFB16
 6211 19b3 48000000 		.4byte	.LFE16
 6212 19b7 5A030000 		.4byte	.LLST16
 6213 19bb 01       		.byte	0x1
 6214 19bc F8190000 		.4byte	0x19f8
 6215 19c0 22       		.uleb128 0x22
 6216 19c1 F60D0000 		.4byte	.LASF136
 6217 19c5 01       		.byte	0x1
 6218 19c6 6F03     		.2byte	0x36f
 6219 19c8 0F130000 		.4byte	0x130f
 6220 19cc 02       		.byte	0x2
 6221 19cd 91       		.byte	0x91
 6222 19ce 6F       		.sleb128 -17
 6223 19cf 23       		.uleb128 0x23
 6224 19d0 4D736700 		.ascii	"Msg\000"
 6225 19d4 01       		.byte	0x1
 6226 19d5 7103     		.2byte	0x371
 6227 19d7 57110000 		.4byte	0x1157
 6228 19db 02       		.byte	0x2
 6229 19dc 91       		.byte	0x91
 6230 19dd 70       		.sleb128 -16
 6231 19de 1E       		.uleb128 0x1e
 6232 19df 16000000 		.4byte	.LBB14
 6233 19e3 32000000 		.4byte	.LBE14
 6234 19e7 24       		.uleb128 0x24
 6235 19e8 7F0E0000 		.4byte	.LASF193
 6236 19ec 01       		.byte	0x1
 6237 19ed 7503     		.2byte	0x375
 6238 19ef CE000000 		.4byte	0xce
 6239 19f3 02       		.byte	0x2
 6240 19f4 91       		.byte	0x91
 6241 19f5 74       		.sleb128 -12
 6242 19f6 00       		.byte	0
 6243 19f7 00       		.byte	0
 6244 19f8 21       		.uleb128 0x21
 6245 19f9 01       		.byte	0x1
 6246 19fa BD040000 		.4byte	.LASF234
 6247 19fe 01       		.byte	0x1
 6248 19ff 9103     		.2byte	0x391
 6249 1a01 01       		.byte	0x1
ARM GAS  C:\Users\X0217454\AppData\Local\Temp\ccwJRGby.s 			page 128


 6250 1a02 9C000000 		.4byte	0x9c
 6251 1a06 00000000 		.4byte	.LFB17
 6252 1a0a A0000000 		.4byte	.LFE17
 6253 1a0e 92030000 		.4byte	.LLST17
 6254 1a12 01       		.byte	0x1
 6255 1a13 8B1A0000 		.4byte	0x1a8b
 6256 1a17 22       		.uleb128 0x22
 6257 1a18 310E0000 		.4byte	.LASF139
 6258 1a1c 01       		.byte	0x1
 6259 1a1d 9103     		.2byte	0x391
 6260 1a1f 6A000000 		.4byte	0x6a
 6261 1a23 02       		.byte	0x2
 6262 1a24 91       		.byte	0x91
 6263 1a25 56       		.sleb128 -42
 6264 1a26 22       		.uleb128 0x22
 6265 1a27 E70A0000 		.4byte	.LASF140
 6266 1a2b 01       		.byte	0x1
 6267 1a2c 9103     		.2byte	0x391
 6268 1a2e 6A000000 		.4byte	0x6a
 6269 1a32 02       		.byte	0x2
 6270 1a33 91       		.byte	0x91
 6271 1a34 54       		.sleb128 -44
 6272 1a35 22       		.uleb128 0x22
 6273 1a36 220B0000 		.4byte	.LASF141
 6274 1a3a 01       		.byte	0x1
 6275 1a3b 9103     		.2byte	0x391
 6276 1a3d 6A000000 		.4byte	0x6a
 6277 1a41 02       		.byte	0x2
 6278 1a42 91       		.byte	0x91
 6279 1a43 52       		.sleb128 -46
 6280 1a44 22       		.uleb128 0x22
 6281 1a45 DB0C0000 		.4byte	.LASF235
 6282 1a49 01       		.byte	0x1
 6283 1a4a 9103     		.2byte	0x391
 6284 1a4c EE000000 		.4byte	0xee
 6285 1a50 02       		.byte	0x2
 6286 1a51 91       		.byte	0x91
 6287 1a52 4C       		.sleb128 -52
 6288 1a53 23       		.uleb128 0x23
 6289 1a54 4D736700 		.ascii	"Msg\000"
 6290 1a58 01       		.byte	0x1
 6291 1a59 9303     		.2byte	0x393
 6292 1a5b 85110000 		.4byte	0x1185
 6293 1a5f 02       		.byte	0x2
 6294 1a60 91       		.byte	0x91
 6295 1a61 6C       		.sleb128 -20
 6296 1a62 24       		.uleb128 0x24
 6297 1a63 8E030000 		.4byte	.LASF199
 6298 1a67 01       		.byte	0x1
 6299 1a68 9403     		.2byte	0x394
 6300 1a6a 790E0000 		.4byte	0xe79
 6301 1a6e 02       		.byte	0x2
 6302 1a6f 91       		.byte	0x91
 6303 1a70 5C       		.sleb128 -36
 6304 1a71 1E       		.uleb128 0x1e
 6305 1a72 6C000000 		.4byte	.LBB15
 6306 1a76 8C000000 		.4byte	.LBE15
ARM GAS  C:\Users\X0217454\AppData\Local\Temp\ccwJRGby.s 			page 129


 6307 1a7a 24       		.uleb128 0x24
 6308 1a7b 7F0E0000 		.4byte	.LASF193
 6309 1a7f 01       		.byte	0x1
 6310 1a80 A003     		.2byte	0x3a0
 6311 1a82 CE000000 		.4byte	0xce
 6312 1a86 02       		.byte	0x2
 6313 1a87 91       		.byte	0x91
 6314 1a88 74       		.sleb128 -12
 6315 1a89 00       		.byte	0
 6316 1a8a 00       		.byte	0
 6317 1a8b 21       		.uleb128 0x21
 6318 1a8c 01       		.byte	0x1
 6319 1a8d B60E0000 		.4byte	.LASF236
 6320 1a91 01       		.byte	0x1
 6321 1a92 B803     		.2byte	0x3b8
 6322 1a94 01       		.byte	0x1
 6323 1a95 9C000000 		.4byte	0x9c
 6324 1a99 00000000 		.4byte	.LFB18
 6325 1a9d E4000000 		.4byte	.LFE18
 6326 1aa1 CA030000 		.4byte	.LLST18
 6327 1aa5 01       		.byte	0x1
 6328 1aa6 1E1B0000 		.4byte	0x1b1e
 6329 1aaa 22       		.uleb128 0x22
 6330 1aab 310E0000 		.4byte	.LASF139
 6331 1aaf 01       		.byte	0x1
 6332 1ab0 B803     		.2byte	0x3b8
 6333 1ab2 6A000000 		.4byte	0x6a
 6334 1ab6 02       		.byte	0x2
 6335 1ab7 91       		.byte	0x91
 6336 1ab8 56       		.sleb128 -42
 6337 1ab9 22       		.uleb128 0x22
 6338 1aba EB0D0000 		.4byte	.LASF237
 6339 1abe 01       		.byte	0x1
 6340 1abf B803     		.2byte	0x3b8
 6341 1ac1 1E1B0000 		.4byte	0x1b1e
 6342 1ac5 02       		.byte	0x2
 6343 1ac6 91       		.byte	0x91
 6344 1ac7 50       		.sleb128 -48
 6345 1ac8 22       		.uleb128 0x22
 6346 1ac9 E70B0000 		.4byte	.LASF238
 6347 1acd 01       		.byte	0x1
 6348 1ace B803     		.2byte	0x3b8
 6349 1ad0 1E1B0000 		.4byte	0x1b1e
 6350 1ad4 02       		.byte	0x2
 6351 1ad5 91       		.byte	0x91
 6352 1ad6 4C       		.sleb128 -52
 6353 1ad7 22       		.uleb128 0x22
 6354 1ad8 DB0C0000 		.4byte	.LASF235
 6355 1adc 01       		.byte	0x1
 6356 1add B803     		.2byte	0x3b8
 6357 1adf EE000000 		.4byte	0xee
 6358 1ae3 02       		.byte	0x2
 6359 1ae4 91       		.byte	0x91
 6360 1ae5 48       		.sleb128 -56
 6361 1ae6 23       		.uleb128 0x23
 6362 1ae7 4D736700 		.ascii	"Msg\000"
 6363 1aeb 01       		.byte	0x1
ARM GAS  C:\Users\X0217454\AppData\Local\Temp\ccwJRGby.s 			page 130


 6364 1aec BA03     		.2byte	0x3ba
 6365 1aee B3110000 		.4byte	0x11b3
 6366 1af2 02       		.byte	0x2
 6367 1af3 91       		.byte	0x91
 6368 1af4 6C       		.sleb128 -20
 6369 1af5 24       		.uleb128 0x24
 6370 1af6 8E030000 		.4byte	.LASF199
 6371 1afa 01       		.byte	0x1
 6372 1afb BB03     		.2byte	0x3bb
 6373 1afd 790E0000 		.4byte	0xe79
 6374 1b01 02       		.byte	0x2
 6375 1b02 91       		.byte	0x91
 6376 1b03 5C       		.sleb128 -36
 6377 1b04 1E       		.uleb128 0x1e
 6378 1b05 66000000 		.4byte	.LBB16
 6379 1b09 86000000 		.4byte	.LBE16
 6380 1b0d 24       		.uleb128 0x24
 6381 1b0e 7F0E0000 		.4byte	.LASF193
 6382 1b12 01       		.byte	0x1
 6383 1b13 CC03     		.2byte	0x3cc
 6384 1b15 CE000000 		.4byte	0xce
 6385 1b19 02       		.byte	0x2
 6386 1b1a 91       		.byte	0x91
 6387 1b1b 74       		.sleb128 -12
 6388 1b1c 00       		.byte	0
 6389 1b1d 00       		.byte	0
 6390 1b1e 06       		.uleb128 0x6
 6391 1b1f 04       		.byte	0x4
 6392 1b20 6A000000 		.4byte	0x6a
 6393 1b24 26       		.uleb128 0x26
 6394 1b25 C6000000 		.4byte	.LASF239
 6395 1b29 01       		.byte	0x1
 6396 1b2a DE       		.byte	0xde
 6397 1b2b 361B0000 		.4byte	0x1b36
 6398 1b2f 01       		.byte	0x1
 6399 1b30 05       		.byte	0x5
 6400 1b31 03       		.byte	0x3
 6401 1b32 00000000 		.4byte	_SlPolicySetCmdCtrl
 6402 1b36 20       		.uleb128 0x20
 6403 1b37 190E0000 		.4byte	0xe19
 6404 1b3b 27       		.uleb128 0x27
 6405 1b3c 080A0000 		.4byte	.LASF240
 6406 1b40 01       		.byte	0x1
 6407 1b41 0501     		.2byte	0x105
 6408 1b43 361B0000 		.4byte	0x1b36
 6409 1b47 01       		.byte	0x1
 6410 1b48 05       		.byte	0x5
 6411 1b49 03       		.byte	0x3
 6412 1b4a 00000000 		.4byte	_SlPolicyGetCmdCtrl
 6413 1b4e 27       		.uleb128 0x27
 6414 1b4f 66010000 		.4byte	.LASF241
 6415 1b53 01       		.byte	0x1
 6416 1b54 EB01     		.2byte	0x1eb
 6417 1b56 361B0000 		.4byte	0x1b36
 6418 1b5a 01       		.byte	0x1
 6419 1b5b 05       		.byte	0x5
 6420 1b5c 03       		.byte	0x3
ARM GAS  C:\Users\X0217454\AppData\Local\Temp\ccwJRGby.s 			page 131


 6421 1b5d 00000000 		.4byte	_SlProfileGetCmdCtrl
 6422 1b61 27       		.uleb128 0x27
 6423 1b62 30030000 		.4byte	.LASF242
 6424 1b66 01       		.byte	0x1
 6425 1b67 2302     		.2byte	0x223
 6426 1b69 361B0000 		.4byte	0x1b36
 6427 1b6d 01       		.byte	0x1
 6428 1b6e 05       		.byte	0x5
 6429 1b6f 03       		.byte	0x3
 6430 1b70 00000000 		.4byte	_SlProfileDelCmdCtrl
 6431 1b74 27       		.uleb128 0x27
 6432 1b75 A2090000 		.4byte	.LASF243
 6433 1b79 01       		.byte	0x1
 6434 1b7a 4102     		.2byte	0x241
 6435 1b7c 361B0000 		.4byte	0x1b36
 6436 1b80 01       		.byte	0x1
 6437 1b81 05       		.byte	0x5
 6438 1b82 03       		.byte	0x3
 6439 1b83 00000000 		.4byte	_SlWlanGetNetworkListCtrl
 6440 1b87 27       		.uleb128 0x27
 6441 1b88 D1010000 		.4byte	.LASF244
 6442 1b8c 01       		.byte	0x1
 6443 1b8d 7202     		.2byte	0x272
 6444 1b8f 361B0000 		.4byte	0x1b36
 6445 1b93 01       		.byte	0x1
 6446 1b94 05       		.byte	0x5
 6447 1b95 03       		.byte	0x3
 6448 1b96 00000000 		.4byte	_SlRxFilterAddtCmdCtrl
 6449 1b9a 27       		.uleb128 0x27
 6450 1b9b 8A080000 		.4byte	.LASF245
 6451 1b9f 01       		.byte	0x1
 6452 1ba0 8202     		.2byte	0x282
 6453 1ba2 361B0000 		.4byte	0x1b36
 6454 1ba6 01       		.byte	0x1
 6455 1ba7 05       		.byte	0x5
 6456 1ba8 03       		.byte	0x3
 6457 1ba9 00000000 		.4byte	_SlRxFilterSetCmdCtrl
 6458 1bad 27       		.uleb128 0x27
 6459 1bae 9D0F0000 		.4byte	.LASF246
 6460 1bb2 01       		.byte	0x1
 6461 1bb3 9102     		.2byte	0x291
 6462 1bb5 361B0000 		.4byte	0x1b36
 6463 1bb9 01       		.byte	0x1
 6464 1bba 05       		.byte	0x5
 6465 1bbb 03       		.byte	0x3
 6466 1bbc 00000000 		.4byte	_SlRxFilterGetCmdCtrl
 6467 1bc0 27       		.uleb128 0x27
 6468 1bc1 28020000 		.4byte	.LASF247
 6469 1bc5 01       		.byte	0x1
 6470 1bc6 3203     		.2byte	0x332
 6471 1bc8 361B0000 		.4byte	0x1b36
 6472 1bcc 01       		.byte	0x1
 6473 1bcd 05       		.byte	0x5
 6474 1bce 03       		.byte	0x3
 6475 1bcf 00000000 		.4byte	_SlSmartConfigStartCmdCtrl
 6476 1bd3 27       		.uleb128 0x27
 6477 1bd4 0A0F0000 		.4byte	.LASF248
ARM GAS  C:\Users\X0217454\AppData\Local\Temp\ccwJRGby.s 			page 132


 6478 1bd8 01       		.byte	0x1
 6479 1bd9 6203     		.2byte	0x362
 6480 1bdb 361B0000 		.4byte	0x1b36
 6481 1bdf 01       		.byte	0x1
 6482 1be0 05       		.byte	0x5
 6483 1be1 03       		.byte	0x3
 6484 1be2 00000000 		.4byte	_SlWlanSetModeCmdCtrl
 6485 1be6 27       		.uleb128 0x27
 6486 1be7 560D0000 		.4byte	.LASF249
 6487 1beb 01       		.byte	0x1
 6488 1bec 8803     		.2byte	0x388
 6489 1bee 361B0000 		.4byte	0x1b36
 6490 1bf2 01       		.byte	0x1
 6491 1bf3 05       		.byte	0x5
 6492 1bf4 03       		.byte	0x3
 6493 1bf5 00000000 		.4byte	_SlWlanCfgSetCmdCtrl
 6494 1bf9 27       		.uleb128 0x27
 6495 1bfa 6B0D0000 		.4byte	.LASF250
 6496 1bfe 01       		.byte	0x1
 6497 1bff B003     		.2byte	0x3b0
 6498 1c01 361B0000 		.4byte	0x1b36
 6499 1c05 01       		.byte	0x1
 6500 1c06 05       		.byte	0x5
 6501 1c07 03       		.byte	0x3
 6502 1c08 00000000 		.4byte	_SlWlanCfgGetCmdCtrl
 6503 1c0c 00       		.byte	0
 6504              		.section	.debug_abbrev,"",%progbits
 6505              	.Ldebug_abbrev0:
 6506 0000 01       		.uleb128 0x1
 6507 0001 11       		.uleb128 0x11
 6508 0002 01       		.byte	0x1
 6509 0003 25       		.uleb128 0x25
 6510 0004 0E       		.uleb128 0xe
 6511 0005 13       		.uleb128 0x13
 6512 0006 0B       		.uleb128 0xb
 6513 0007 03       		.uleb128 0x3
 6514 0008 0E       		.uleb128 0xe
 6515 0009 1B       		.uleb128 0x1b
 6516 000a 0E       		.uleb128 0xe
 6517 000b 55       		.uleb128 0x55
 6518 000c 06       		.uleb128 0x6
 6519 000d 11       		.uleb128 0x11
 6520 000e 01       		.uleb128 0x1
 6521 000f 52       		.uleb128 0x52
 6522 0010 01       		.uleb128 0x1
 6523 0011 10       		.uleb128 0x10
 6524 0012 06       		.uleb128 0x6
 6525 0013 00       		.byte	0
 6526 0014 00       		.byte	0
 6527 0015 02       		.uleb128 0x2
 6528 0016 16       		.uleb128 0x16
 6529 0017 00       		.byte	0
 6530 0018 03       		.uleb128 0x3
 6531 0019 0E       		.uleb128 0xe
 6532 001a 3A       		.uleb128 0x3a
 6533 001b 0B       		.uleb128 0xb
 6534 001c 3B       		.uleb128 0x3b
ARM GAS  C:\Users\X0217454\AppData\Local\Temp\ccwJRGby.s 			page 133


 6535 001d 0B       		.uleb128 0xb
 6536 001e 49       		.uleb128 0x49
 6537 001f 13       		.uleb128 0x13
 6538 0020 00       		.byte	0
 6539 0021 00       		.byte	0
 6540 0022 03       		.uleb128 0x3
 6541 0023 24       		.uleb128 0x24
 6542 0024 00       		.byte	0
 6543 0025 0B       		.uleb128 0xb
 6544 0026 0B       		.uleb128 0xb
 6545 0027 3E       		.uleb128 0x3e
 6546 0028 0B       		.uleb128 0xb
 6547 0029 03       		.uleb128 0x3
 6548 002a 0E       		.uleb128 0xe
 6549 002b 00       		.byte	0
 6550 002c 00       		.byte	0
 6551 002d 04       		.uleb128 0x4
 6552 002e 16       		.uleb128 0x16
 6553 002f 00       		.byte	0
 6554 0030 03       		.uleb128 0x3
 6555 0031 08       		.uleb128 0x8
 6556 0032 3A       		.uleb128 0x3a
 6557 0033 0B       		.uleb128 0xb
 6558 0034 3B       		.uleb128 0x3b
 6559 0035 0B       		.uleb128 0xb
 6560 0036 49       		.uleb128 0x49
 6561 0037 13       		.uleb128 0x13
 6562 0038 00       		.byte	0
 6563 0039 00       		.byte	0
 6564 003a 05       		.uleb128 0x5
 6565 003b 24       		.uleb128 0x24
 6566 003c 00       		.byte	0
 6567 003d 0B       		.uleb128 0xb
 6568 003e 0B       		.uleb128 0xb
 6569 003f 3E       		.uleb128 0x3e
 6570 0040 0B       		.uleb128 0xb
 6571 0041 03       		.uleb128 0x3
 6572 0042 08       		.uleb128 0x8
 6573 0043 00       		.byte	0
 6574 0044 00       		.byte	0
 6575 0045 06       		.uleb128 0x6
 6576 0046 0F       		.uleb128 0xf
 6577 0047 00       		.byte	0
 6578 0048 0B       		.uleb128 0xb
 6579 0049 0B       		.uleb128 0xb
 6580 004a 49       		.uleb128 0x49
 6581 004b 13       		.uleb128 0x13
 6582 004c 00       		.byte	0
 6583 004d 00       		.byte	0
 6584 004e 07       		.uleb128 0x7
 6585 004f 01       		.uleb128 0x1
 6586 0050 01       		.byte	0x1
 6587 0051 49       		.uleb128 0x49
 6588 0052 13       		.uleb128 0x13
 6589 0053 01       		.uleb128 0x1
 6590 0054 13       		.uleb128 0x13
 6591 0055 00       		.byte	0
ARM GAS  C:\Users\X0217454\AppData\Local\Temp\ccwJRGby.s 			page 134


 6592 0056 00       		.byte	0
 6593 0057 08       		.uleb128 0x8
 6594 0058 21       		.uleb128 0x21
 6595 0059 00       		.byte	0
 6596 005a 49       		.uleb128 0x49
 6597 005b 13       		.uleb128 0x13
 6598 005c 2F       		.uleb128 0x2f
 6599 005d 0B       		.uleb128 0xb
 6600 005e 00       		.byte	0
 6601 005f 00       		.byte	0
 6602 0060 09       		.uleb128 0x9
 6603 0061 13       		.uleb128 0x13
 6604 0062 01       		.byte	0x1
 6605 0063 0B       		.uleb128 0xb
 6606 0064 0B       		.uleb128 0xb
 6607 0065 3A       		.uleb128 0x3a
 6608 0066 0B       		.uleb128 0xb
 6609 0067 3B       		.uleb128 0x3b
 6610 0068 05       		.uleb128 0x5
 6611 0069 01       		.uleb128 0x1
 6612 006a 13       		.uleb128 0x13
 6613 006b 00       		.byte	0
 6614 006c 00       		.byte	0
 6615 006d 0A       		.uleb128 0xa
 6616 006e 0D       		.uleb128 0xd
 6617 006f 00       		.byte	0
 6618 0070 03       		.uleb128 0x3
 6619 0071 0E       		.uleb128 0xe
 6620 0072 3A       		.uleb128 0x3a
 6621 0073 0B       		.uleb128 0xb
 6622 0074 3B       		.uleb128 0x3b
 6623 0075 05       		.uleb128 0x5
 6624 0076 49       		.uleb128 0x49
 6625 0077 13       		.uleb128 0x13
 6626 0078 38       		.uleb128 0x38
 6627 0079 0A       		.uleb128 0xa
 6628 007a 00       		.byte	0
 6629 007b 00       		.byte	0
 6630 007c 0B       		.uleb128 0xb
 6631 007d 16       		.uleb128 0x16
 6632 007e 00       		.byte	0
 6633 007f 03       		.uleb128 0x3
 6634 0080 0E       		.uleb128 0xe
 6635 0081 3A       		.uleb128 0x3a
 6636 0082 0B       		.uleb128 0xb
 6637 0083 3B       		.uleb128 0x3b
 6638 0084 05       		.uleb128 0x5
 6639 0085 49       		.uleb128 0x49
 6640 0086 13       		.uleb128 0x13
 6641 0087 00       		.byte	0
 6642 0088 00       		.byte	0
 6643 0089 0C       		.uleb128 0xc
 6644 008a 0D       		.uleb128 0xd
 6645 008b 00       		.byte	0
 6646 008c 03       		.uleb128 0x3
 6647 008d 08       		.uleb128 0x8
 6648 008e 3A       		.uleb128 0x3a
ARM GAS  C:\Users\X0217454\AppData\Local\Temp\ccwJRGby.s 			page 135


 6649 008f 0B       		.uleb128 0xb
 6650 0090 3B       		.uleb128 0x3b
 6651 0091 05       		.uleb128 0x5
 6652 0092 49       		.uleb128 0x49
 6653 0093 13       		.uleb128 0x13
 6654 0094 38       		.uleb128 0x38
 6655 0095 0A       		.uleb128 0xa
 6656 0096 00       		.byte	0
 6657 0097 00       		.byte	0
 6658 0098 0D       		.uleb128 0xd
 6659 0099 13       		.uleb128 0x13
 6660 009a 01       		.byte	0x1
 6661 009b 03       		.uleb128 0x3
 6662 009c 0E       		.uleb128 0xe
 6663 009d 0B       		.uleb128 0xb
 6664 009e 0B       		.uleb128 0xb
 6665 009f 3A       		.uleb128 0x3a
 6666 00a0 0B       		.uleb128 0xb
 6667 00a1 3B       		.uleb128 0x3b
 6668 00a2 0B       		.uleb128 0xb
 6669 00a3 01       		.uleb128 0x1
 6670 00a4 13       		.uleb128 0x13
 6671 00a5 00       		.byte	0
 6672 00a6 00       		.byte	0
 6673 00a7 0E       		.uleb128 0xe
 6674 00a8 0D       		.uleb128 0xd
 6675 00a9 00       		.byte	0
 6676 00aa 03       		.uleb128 0x3
 6677 00ab 08       		.uleb128 0x8
 6678 00ac 3A       		.uleb128 0x3a
 6679 00ad 0B       		.uleb128 0xb
 6680 00ae 3B       		.uleb128 0x3b
 6681 00af 0B       		.uleb128 0xb
 6682 00b0 49       		.uleb128 0x49
 6683 00b1 13       		.uleb128 0x13
 6684 00b2 38       		.uleb128 0x38
 6685 00b3 0A       		.uleb128 0xa
 6686 00b4 00       		.byte	0
 6687 00b5 00       		.byte	0
 6688 00b6 0F       		.uleb128 0xf
 6689 00b7 17       		.uleb128 0x17
 6690 00b8 01       		.byte	0x1
 6691 00b9 03       		.uleb128 0x3
 6692 00ba 0E       		.uleb128 0xe
 6693 00bb 0B       		.uleb128 0xb
 6694 00bc 0B       		.uleb128 0xb
 6695 00bd 3A       		.uleb128 0x3a
 6696 00be 0B       		.uleb128 0xb
 6697 00bf 3B       		.uleb128 0x3b
 6698 00c0 0B       		.uleb128 0xb
 6699 00c1 01       		.uleb128 0x1
 6700 00c2 13       		.uleb128 0x13
 6701 00c3 00       		.byte	0
 6702 00c4 00       		.byte	0
 6703 00c5 10       		.uleb128 0x10
 6704 00c6 0D       		.uleb128 0xd
 6705 00c7 00       		.byte	0
ARM GAS  C:\Users\X0217454\AppData\Local\Temp\ccwJRGby.s 			page 136


 6706 00c8 03       		.uleb128 0x3
 6707 00c9 0E       		.uleb128 0xe
 6708 00ca 3A       		.uleb128 0x3a
 6709 00cb 0B       		.uleb128 0xb
 6710 00cc 3B       		.uleb128 0x3b
 6711 00cd 0B       		.uleb128 0xb
 6712 00ce 49       		.uleb128 0x49
 6713 00cf 13       		.uleb128 0x13
 6714 00d0 00       		.byte	0
 6715 00d1 00       		.byte	0
 6716 00d2 11       		.uleb128 0x11
 6717 00d3 17       		.uleb128 0x17
 6718 00d4 01       		.byte	0x1
 6719 00d5 03       		.uleb128 0x3
 6720 00d6 0E       		.uleb128 0xe
 6721 00d7 0B       		.uleb128 0xb
 6722 00d8 0B       		.uleb128 0xb
 6723 00d9 3A       		.uleb128 0x3a
 6724 00da 0B       		.uleb128 0xb
 6725 00db 3B       		.uleb128 0x3b
 6726 00dc 05       		.uleb128 0x5
 6727 00dd 01       		.uleb128 0x1
 6728 00de 13       		.uleb128 0x13
 6729 00df 00       		.byte	0
 6730 00e0 00       		.byte	0
 6731 00e1 12       		.uleb128 0x12
 6732 00e2 0D       		.uleb128 0xd
 6733 00e3 00       		.byte	0
 6734 00e4 03       		.uleb128 0x3
 6735 00e5 0E       		.uleb128 0xe
 6736 00e6 3A       		.uleb128 0x3a
 6737 00e7 0B       		.uleb128 0xb
 6738 00e8 3B       		.uleb128 0x3b
 6739 00e9 05       		.uleb128 0x5
 6740 00ea 49       		.uleb128 0x49
 6741 00eb 13       		.uleb128 0x13
 6742 00ec 00       		.byte	0
 6743 00ed 00       		.byte	0
 6744 00ee 13       		.uleb128 0x13
 6745 00ef 13       		.uleb128 0x13
 6746 00f0 01       		.byte	0x1
 6747 00f1 03       		.uleb128 0x3
 6748 00f2 0E       		.uleb128 0xe
 6749 00f3 0B       		.uleb128 0xb
 6750 00f4 0B       		.uleb128 0xb
 6751 00f5 3A       		.uleb128 0x3a
 6752 00f6 0B       		.uleb128 0xb
 6753 00f7 3B       		.uleb128 0x3b
 6754 00f8 05       		.uleb128 0x5
 6755 00f9 01       		.uleb128 0x1
 6756 00fa 13       		.uleb128 0x13
 6757 00fb 00       		.byte	0
 6758 00fc 00       		.byte	0
 6759 00fd 14       		.uleb128 0x14
 6760 00fe 13       		.uleb128 0x13
 6761 00ff 01       		.byte	0x1
 6762 0100 0B       		.uleb128 0xb
ARM GAS  C:\Users\X0217454\AppData\Local\Temp\ccwJRGby.s 			page 137


 6763 0101 0B       		.uleb128 0xb
 6764 0102 3A       		.uleb128 0x3a
 6765 0103 0B       		.uleb128 0xb
 6766 0104 3B       		.uleb128 0x3b
 6767 0105 0B       		.uleb128 0xb
 6768 0106 01       		.uleb128 0x1
 6769 0107 13       		.uleb128 0x13
 6770 0108 00       		.byte	0
 6771 0109 00       		.byte	0
 6772 010a 15       		.uleb128 0x15
 6773 010b 0D       		.uleb128 0xd
 6774 010c 00       		.byte	0
 6775 010d 03       		.uleb128 0x3
 6776 010e 0E       		.uleb128 0xe
 6777 010f 3A       		.uleb128 0x3a
 6778 0110 0B       		.uleb128 0xb
 6779 0111 3B       		.uleb128 0x3b
 6780 0112 0B       		.uleb128 0xb
 6781 0113 49       		.uleb128 0x49
 6782 0114 13       		.uleb128 0x13
 6783 0115 38       		.uleb128 0x38
 6784 0116 0A       		.uleb128 0xa
 6785 0117 00       		.byte	0
 6786 0118 00       		.byte	0
 6787 0119 16       		.uleb128 0x16
 6788 011a 17       		.uleb128 0x17
 6789 011b 01       		.byte	0x1
 6790 011c 0B       		.uleb128 0xb
 6791 011d 0B       		.uleb128 0xb
 6792 011e 3A       		.uleb128 0x3a
 6793 011f 0B       		.uleb128 0xb
 6794 0120 3B       		.uleb128 0x3b
 6795 0121 0B       		.uleb128 0xb
 6796 0122 01       		.uleb128 0x1
 6797 0123 13       		.uleb128 0x13
 6798 0124 00       		.byte	0
 6799 0125 00       		.byte	0
 6800 0126 17       		.uleb128 0x17
 6801 0127 0D       		.uleb128 0xd
 6802 0128 00       		.byte	0
 6803 0129 03       		.uleb128 0x3
 6804 012a 08       		.uleb128 0x8
 6805 012b 3A       		.uleb128 0x3a
 6806 012c 0B       		.uleb128 0xb
 6807 012d 3B       		.uleb128 0x3b
 6808 012e 0B       		.uleb128 0xb
 6809 012f 49       		.uleb128 0x49
 6810 0130 13       		.uleb128 0x13
 6811 0131 00       		.byte	0
 6812 0132 00       		.byte	0
 6813 0133 18       		.uleb128 0x18
 6814 0134 0D       		.uleb128 0xd
 6815 0135 00       		.byte	0
 6816 0136 03       		.uleb128 0x3
 6817 0137 08       		.uleb128 0x8
 6818 0138 3A       		.uleb128 0x3a
 6819 0139 0B       		.uleb128 0xb
ARM GAS  C:\Users\X0217454\AppData\Local\Temp\ccwJRGby.s 			page 138


 6820 013a 3B       		.uleb128 0x3b
 6821 013b 05       		.uleb128 0x5
 6822 013c 49       		.uleb128 0x49
 6823 013d 13       		.uleb128 0x13
 6824 013e 00       		.byte	0
 6825 013f 00       		.byte	0
 6826 0140 19       		.uleb128 0x19
 6827 0141 17       		.uleb128 0x17
 6828 0142 01       		.byte	0x1
 6829 0143 0B       		.uleb128 0xb
 6830 0144 0B       		.uleb128 0xb
 6831 0145 3A       		.uleb128 0x3a
 6832 0146 0B       		.uleb128 0xb
 6833 0147 3B       		.uleb128 0x3b
 6834 0148 05       		.uleb128 0x5
 6835 0149 01       		.uleb128 0x1
 6836 014a 13       		.uleb128 0x13
 6837 014b 00       		.byte	0
 6838 014c 00       		.byte	0
 6839 014d 1A       		.uleb128 0x1a
 6840 014e 2E       		.uleb128 0x2e
 6841 014f 01       		.byte	0x1
 6842 0150 3F       		.uleb128 0x3f
 6843 0151 0C       		.uleb128 0xc
 6844 0152 03       		.uleb128 0x3
 6845 0153 0E       		.uleb128 0xe
 6846 0154 3A       		.uleb128 0x3a
 6847 0155 0B       		.uleb128 0xb
 6848 0156 3B       		.uleb128 0x3b
 6849 0157 0B       		.uleb128 0xb
 6850 0158 27       		.uleb128 0x27
 6851 0159 0C       		.uleb128 0xc
 6852 015a 49       		.uleb128 0x49
 6853 015b 13       		.uleb128 0x13
 6854 015c 11       		.uleb128 0x11
 6855 015d 01       		.uleb128 0x1
 6856 015e 12       		.uleb128 0x12
 6857 015f 01       		.uleb128 0x1
 6858 0160 40       		.uleb128 0x40
 6859 0161 06       		.uleb128 0x6
 6860 0162 9642     		.uleb128 0x2116
 6861 0164 0C       		.uleb128 0xc
 6862 0165 01       		.uleb128 0x1
 6863 0166 13       		.uleb128 0x13
 6864 0167 00       		.byte	0
 6865 0168 00       		.byte	0
 6866 0169 1B       		.uleb128 0x1b
 6867 016a 05       		.uleb128 0x5
 6868 016b 00       		.byte	0
 6869 016c 03       		.uleb128 0x3
 6870 016d 0E       		.uleb128 0xe
 6871 016e 3A       		.uleb128 0x3a
 6872 016f 0B       		.uleb128 0xb
 6873 0170 3B       		.uleb128 0x3b
 6874 0171 0B       		.uleb128 0xb
 6875 0172 49       		.uleb128 0x49
 6876 0173 13       		.uleb128 0x13
ARM GAS  C:\Users\X0217454\AppData\Local\Temp\ccwJRGby.s 			page 139


 6877 0174 02       		.uleb128 0x2
 6878 0175 0A       		.uleb128 0xa
 6879 0176 00       		.byte	0
 6880 0177 00       		.byte	0
 6881 0178 1C       		.uleb128 0x1c
 6882 0179 34       		.uleb128 0x34
 6883 017a 00       		.byte	0
 6884 017b 03       		.uleb128 0x3
 6885 017c 08       		.uleb128 0x8
 6886 017d 3A       		.uleb128 0x3a
 6887 017e 0B       		.uleb128 0xb
 6888 017f 3B       		.uleb128 0x3b
 6889 0180 0B       		.uleb128 0xb
 6890 0181 49       		.uleb128 0x49
 6891 0182 13       		.uleb128 0x13
 6892 0183 02       		.uleb128 0x2
 6893 0184 0A       		.uleb128 0xa
 6894 0185 00       		.byte	0
 6895 0186 00       		.byte	0
 6896 0187 1D       		.uleb128 0x1d
 6897 0188 34       		.uleb128 0x34
 6898 0189 00       		.byte	0
 6899 018a 03       		.uleb128 0x3
 6900 018b 0E       		.uleb128 0xe
 6901 018c 3A       		.uleb128 0x3a
 6902 018d 0B       		.uleb128 0xb
 6903 018e 3B       		.uleb128 0x3b
 6904 018f 0B       		.uleb128 0xb
 6905 0190 49       		.uleb128 0x49
 6906 0191 13       		.uleb128 0x13
 6907 0192 02       		.uleb128 0x2
 6908 0193 0A       		.uleb128 0xa
 6909 0194 00       		.byte	0
 6910 0195 00       		.byte	0
 6911 0196 1E       		.uleb128 0x1e
 6912 0197 0B       		.uleb128 0xb
 6913 0198 01       		.byte	0x1
 6914 0199 11       		.uleb128 0x11
 6915 019a 01       		.uleb128 0x1
 6916 019b 12       		.uleb128 0x12
 6917 019c 01       		.uleb128 0x1
 6918 019d 00       		.byte	0
 6919 019e 00       		.byte	0
 6920 019f 1F       		.uleb128 0x1f
 6921 01a0 2E       		.uleb128 0x2e
 6922 01a1 00       		.byte	0
 6923 01a2 3F       		.uleb128 0x3f
 6924 01a3 0C       		.uleb128 0xc
 6925 01a4 03       		.uleb128 0x3
 6926 01a5 0E       		.uleb128 0xe
 6927 01a6 3A       		.uleb128 0x3a
 6928 01a7 0B       		.uleb128 0xb
 6929 01a8 3B       		.uleb128 0x3b
 6930 01a9 0B       		.uleb128 0xb
 6931 01aa 27       		.uleb128 0x27
 6932 01ab 0C       		.uleb128 0xc
 6933 01ac 49       		.uleb128 0x49
ARM GAS  C:\Users\X0217454\AppData\Local\Temp\ccwJRGby.s 			page 140


 6934 01ad 13       		.uleb128 0x13
 6935 01ae 11       		.uleb128 0x11
 6936 01af 01       		.uleb128 0x1
 6937 01b0 12       		.uleb128 0x12
 6938 01b1 01       		.uleb128 0x1
 6939 01b2 40       		.uleb128 0x40
 6940 01b3 06       		.uleb128 0x6
 6941 01b4 9642     		.uleb128 0x2116
 6942 01b6 0C       		.uleb128 0xc
 6943 01b7 00       		.byte	0
 6944 01b8 00       		.byte	0
 6945 01b9 20       		.uleb128 0x20
 6946 01ba 26       		.uleb128 0x26
 6947 01bb 00       		.byte	0
 6948 01bc 49       		.uleb128 0x49
 6949 01bd 13       		.uleb128 0x13
 6950 01be 00       		.byte	0
 6951 01bf 00       		.byte	0
 6952 01c0 21       		.uleb128 0x21
 6953 01c1 2E       		.uleb128 0x2e
 6954 01c2 01       		.byte	0x1
 6955 01c3 3F       		.uleb128 0x3f
 6956 01c4 0C       		.uleb128 0xc
 6957 01c5 03       		.uleb128 0x3
 6958 01c6 0E       		.uleb128 0xe
 6959 01c7 3A       		.uleb128 0x3a
 6960 01c8 0B       		.uleb128 0xb
 6961 01c9 3B       		.uleb128 0x3b
 6962 01ca 05       		.uleb128 0x5
 6963 01cb 27       		.uleb128 0x27
 6964 01cc 0C       		.uleb128 0xc
 6965 01cd 49       		.uleb128 0x49
 6966 01ce 13       		.uleb128 0x13
 6967 01cf 11       		.uleb128 0x11
 6968 01d0 01       		.uleb128 0x1
 6969 01d1 12       		.uleb128 0x12
 6970 01d2 01       		.uleb128 0x1
 6971 01d3 40       		.uleb128 0x40
 6972 01d4 06       		.uleb128 0x6
 6973 01d5 9642     		.uleb128 0x2116
 6974 01d7 0C       		.uleb128 0xc
 6975 01d8 01       		.uleb128 0x1
 6976 01d9 13       		.uleb128 0x13
 6977 01da 00       		.byte	0
 6978 01db 00       		.byte	0
 6979 01dc 22       		.uleb128 0x22
 6980 01dd 05       		.uleb128 0x5
 6981 01de 00       		.byte	0
 6982 01df 03       		.uleb128 0x3
 6983 01e0 0E       		.uleb128 0xe
 6984 01e1 3A       		.uleb128 0x3a
 6985 01e2 0B       		.uleb128 0xb
 6986 01e3 3B       		.uleb128 0x3b
 6987 01e4 05       		.uleb128 0x5
 6988 01e5 49       		.uleb128 0x49
 6989 01e6 13       		.uleb128 0x13
 6990 01e7 02       		.uleb128 0x2
ARM GAS  C:\Users\X0217454\AppData\Local\Temp\ccwJRGby.s 			page 141


 6991 01e8 0A       		.uleb128 0xa
 6992 01e9 00       		.byte	0
 6993 01ea 00       		.byte	0
 6994 01eb 23       		.uleb128 0x23
 6995 01ec 34       		.uleb128 0x34
 6996 01ed 00       		.byte	0
 6997 01ee 03       		.uleb128 0x3
 6998 01ef 08       		.uleb128 0x8
 6999 01f0 3A       		.uleb128 0x3a
 7000 01f1 0B       		.uleb128 0xb
 7001 01f2 3B       		.uleb128 0x3b
 7002 01f3 05       		.uleb128 0x5
 7003 01f4 49       		.uleb128 0x49
 7004 01f5 13       		.uleb128 0x13
 7005 01f6 02       		.uleb128 0x2
 7006 01f7 0A       		.uleb128 0xa
 7007 01f8 00       		.byte	0
 7008 01f9 00       		.byte	0
 7009 01fa 24       		.uleb128 0x24
 7010 01fb 34       		.uleb128 0x34
 7011 01fc 00       		.byte	0
 7012 01fd 03       		.uleb128 0x3
 7013 01fe 0E       		.uleb128 0xe
 7014 01ff 3A       		.uleb128 0x3a
 7015 0200 0B       		.uleb128 0xb
 7016 0201 3B       		.uleb128 0x3b
 7017 0202 05       		.uleb128 0x5
 7018 0203 49       		.uleb128 0x49
 7019 0204 13       		.uleb128 0x13
 7020 0205 02       		.uleb128 0x2
 7021 0206 0A       		.uleb128 0xa
 7022 0207 00       		.byte	0
 7023 0208 00       		.byte	0
 7024 0209 25       		.uleb128 0x25
 7025 020a 2E       		.uleb128 0x2e
 7026 020b 00       		.byte	0
 7027 020c 3F       		.uleb128 0x3f
 7028 020d 0C       		.uleb128 0xc
 7029 020e 03       		.uleb128 0x3
 7030 020f 0E       		.uleb128 0xe
 7031 0210 3A       		.uleb128 0x3a
 7032 0211 0B       		.uleb128 0xb
 7033 0212 3B       		.uleb128 0x3b
 7034 0213 05       		.uleb128 0x5
 7035 0214 27       		.uleb128 0x27
 7036 0215 0C       		.uleb128 0xc
 7037 0216 49       		.uleb128 0x49
 7038 0217 13       		.uleb128 0x13
 7039 0218 11       		.uleb128 0x11
 7040 0219 01       		.uleb128 0x1
 7041 021a 12       		.uleb128 0x12
 7042 021b 01       		.uleb128 0x1
 7043 021c 40       		.uleb128 0x40
 7044 021d 06       		.uleb128 0x6
 7045 021e 9642     		.uleb128 0x2116
 7046 0220 0C       		.uleb128 0xc
 7047 0221 00       		.byte	0
ARM GAS  C:\Users\X0217454\AppData\Local\Temp\ccwJRGby.s 			page 142


 7048 0222 00       		.byte	0
 7049 0223 26       		.uleb128 0x26
 7050 0224 34       		.uleb128 0x34
 7051 0225 00       		.byte	0
 7052 0226 03       		.uleb128 0x3
 7053 0227 0E       		.uleb128 0xe
 7054 0228 3A       		.uleb128 0x3a
 7055 0229 0B       		.uleb128 0xb
 7056 022a 3B       		.uleb128 0x3b
 7057 022b 0B       		.uleb128 0xb
 7058 022c 49       		.uleb128 0x49
 7059 022d 13       		.uleb128 0x13
 7060 022e 3F       		.uleb128 0x3f
 7061 022f 0C       		.uleb128 0xc
 7062 0230 02       		.uleb128 0x2
 7063 0231 0A       		.uleb128 0xa
 7064 0232 00       		.byte	0
 7065 0233 00       		.byte	0
 7066 0234 27       		.uleb128 0x27
 7067 0235 34       		.uleb128 0x34
 7068 0236 00       		.byte	0
 7069 0237 03       		.uleb128 0x3
 7070 0238 0E       		.uleb128 0xe
 7071 0239 3A       		.uleb128 0x3a
 7072 023a 0B       		.uleb128 0xb
 7073 023b 3B       		.uleb128 0x3b
 7074 023c 05       		.uleb128 0x5
 7075 023d 49       		.uleb128 0x49
 7076 023e 13       		.uleb128 0x13
 7077 023f 3F       		.uleb128 0x3f
 7078 0240 0C       		.uleb128 0xc
 7079 0241 02       		.uleb128 0x2
 7080 0242 0A       		.uleb128 0xa
 7081 0243 00       		.byte	0
 7082 0244 00       		.byte	0
 7083 0245 00       		.byte	0
 7084              		.section	.debug_loc,"",%progbits
 7085              	.Ldebug_loc0:
 7086              	.LLST0:
 7087 0000 00000000 		.4byte	.LFB0
 7088 0004 02000000 		.4byte	.LCFI0
 7089 0008 0200     		.2byte	0x2
 7090 000a 7D       		.byte	0x7d
 7091 000b 00       		.sleb128 0
 7092 000c 02000000 		.4byte	.LCFI0
 7093 0010 04000000 		.4byte	.LCFI1
 7094 0014 0200     		.2byte	0x2
 7095 0016 7D       		.byte	0x7d
 7096 0017 08       		.sleb128 8
 7097 0018 04000000 		.4byte	.LCFI1
 7098 001c 06000000 		.4byte	.LCFI2
 7099 0020 0300     		.2byte	0x3
 7100 0022 7D       		.byte	0x7d
 7101 0023 D001     		.sleb128 208
 7102 0025 06000000 		.4byte	.LCFI2
 7103 0029 54030000 		.4byte	.LFE0
 7104 002d 0300     		.2byte	0x3
ARM GAS  C:\Users\X0217454\AppData\Local\Temp\ccwJRGby.s 			page 143


 7105 002f 77       		.byte	0x77
 7106 0030 D001     		.sleb128 208
 7107 0032 00000000 		.4byte	0
 7108 0036 00000000 		.4byte	0
 7109              	.LLST1:
 7110 003a 00000000 		.4byte	.LFB1
 7111 003e 02000000 		.4byte	.LCFI3
 7112 0042 0200     		.2byte	0x2
 7113 0044 7D       		.byte	0x7d
 7114 0045 00       		.sleb128 0
 7115 0046 02000000 		.4byte	.LCFI3
 7116 004a 04000000 		.4byte	.LCFI4
 7117 004e 0200     		.2byte	0x2
 7118 0050 7D       		.byte	0x7d
 7119 0051 08       		.sleb128 8
 7120 0052 04000000 		.4byte	.LCFI4
 7121 0056 18000000 		.4byte	.LFE1
 7122 005a 0200     		.2byte	0x2
 7123 005c 77       		.byte	0x77
 7124 005d 08       		.sleb128 8
 7125 005e 00000000 		.4byte	0
 7126 0062 00000000 		.4byte	0
 7127              	.LLST2:
 7128 0066 00000000 		.4byte	.LFB2
 7129 006a 02000000 		.4byte	.LCFI5
 7130 006e 0200     		.2byte	0x2
 7131 0070 7D       		.byte	0x7d
 7132 0071 00       		.sleb128 0
 7133 0072 02000000 		.4byte	.LCFI5
 7134 0076 04000000 		.4byte	.LCFI6
 7135 007a 0200     		.2byte	0x2
 7136 007c 7D       		.byte	0x7d
 7137 007d 08       		.sleb128 8
 7138 007e 04000000 		.4byte	.LCFI6
 7139 0082 06000000 		.4byte	.LCFI7
 7140 0086 0200     		.2byte	0x2
 7141 0088 7D       		.byte	0x7d
 7142 0089 28       		.sleb128 40
 7143 008a 06000000 		.4byte	.LCFI7
 7144 008e 8C000000 		.4byte	.LFE2
 7145 0092 0200     		.2byte	0x2
 7146 0094 77       		.byte	0x77
 7147 0095 28       		.sleb128 40
 7148 0096 00000000 		.4byte	0
 7149 009a 00000000 		.4byte	0
 7150              	.LLST3:
 7151 009e 00000000 		.4byte	.LFB3
 7152 00a2 02000000 		.4byte	.LCFI8
 7153 00a6 0200     		.2byte	0x2
 7154 00a8 7D       		.byte	0x7d
 7155 00a9 00       		.sleb128 0
 7156 00aa 02000000 		.4byte	.LCFI8
 7157 00ae 04000000 		.4byte	.LCFI9
 7158 00b2 0200     		.2byte	0x2
 7159 00b4 7D       		.byte	0x7d
 7160 00b5 08       		.sleb128 8
 7161 00b6 04000000 		.4byte	.LCFI9
ARM GAS  C:\Users\X0217454\AppData\Local\Temp\ccwJRGby.s 			page 144


 7162 00ba 06000000 		.4byte	.LCFI10
 7163 00be 0200     		.2byte	0x2
 7164 00c0 7D       		.byte	0x7d
 7165 00c1 30       		.sleb128 48
 7166 00c2 06000000 		.4byte	.LCFI10
 7167 00c6 E4000000 		.4byte	.LFE3
 7168 00ca 0200     		.2byte	0x2
 7169 00cc 77       		.byte	0x77
 7170 00cd 30       		.sleb128 48
 7171 00ce 00000000 		.4byte	0
 7172 00d2 00000000 		.4byte	0
 7173              	.LLST4:
 7174 00d6 00000000 		.4byte	.LFB4
 7175 00da 02000000 		.4byte	.LCFI11
 7176 00de 0200     		.2byte	0x2
 7177 00e0 7D       		.byte	0x7d
 7178 00e1 00       		.sleb128 0
 7179 00e2 02000000 		.4byte	.LCFI11
 7180 00e6 04000000 		.4byte	.LCFI12
 7181 00ea 0200     		.2byte	0x2
 7182 00ec 7D       		.byte	0x7d
 7183 00ed 08       		.sleb128 8
 7184 00ee 04000000 		.4byte	.LCFI12
 7185 00f2 06000000 		.4byte	.LCFI13
 7186 00f6 0300     		.2byte	0x3
 7187 00f8 7D       		.byte	0x7d
 7188 00f9 D801     		.sleb128 216
 7189 00fb 06000000 		.4byte	.LCFI13
 7190 00ff 8C030000 		.4byte	.LFE4
 7191 0103 0300     		.2byte	0x3
 7192 0105 77       		.byte	0x77
 7193 0106 D801     		.sleb128 216
 7194 0108 00000000 		.4byte	0
 7195 010c 00000000 		.4byte	0
 7196              	.LLST5:
 7197 0110 00000000 		.4byte	.LFB5
 7198 0114 02000000 		.4byte	.LCFI14
 7199 0118 0200     		.2byte	0x2
 7200 011a 7D       		.byte	0x7d
 7201 011b 00       		.sleb128 0
 7202 011c 02000000 		.4byte	.LCFI14
 7203 0120 04000000 		.4byte	.LCFI15
 7204 0124 0200     		.2byte	0x2
 7205 0126 7D       		.byte	0x7d
 7206 0127 08       		.sleb128 8
 7207 0128 04000000 		.4byte	.LCFI15
 7208 012c 06000000 		.4byte	.LCFI16
 7209 0130 0300     		.2byte	0x3
 7210 0132 7D       		.byte	0x7d
 7211 0133 D001     		.sleb128 208
 7212 0135 06000000 		.4byte	.LCFI16
 7213 0139 6C010000 		.4byte	.LFE5
 7214 013d 0300     		.2byte	0x3
 7215 013f 77       		.byte	0x77
 7216 0140 D001     		.sleb128 208
 7217 0142 00000000 		.4byte	0
 7218 0146 00000000 		.4byte	0
ARM GAS  C:\Users\X0217454\AppData\Local\Temp\ccwJRGby.s 			page 145


 7219              	.LLST6:
 7220 014a 00000000 		.4byte	.LFB6
 7221 014e 02000000 		.4byte	.LCFI17
 7222 0152 0200     		.2byte	0x2
 7223 0154 7D       		.byte	0x7d
 7224 0155 00       		.sleb128 0
 7225 0156 02000000 		.4byte	.LCFI17
 7226 015a 04000000 		.4byte	.LCFI18
 7227 015e 0200     		.2byte	0x2
 7228 0160 7D       		.byte	0x7d
 7229 0161 08       		.sleb128 8
 7230 0162 04000000 		.4byte	.LCFI18
 7231 0166 06000000 		.4byte	.LCFI19
 7232 016a 0200     		.2byte	0x2
 7233 016c 7D       		.byte	0x7d
 7234 016d 18       		.sleb128 24
 7235 016e 06000000 		.4byte	.LCFI19
 7236 0172 44000000 		.4byte	.LFE6
 7237 0176 0200     		.2byte	0x2
 7238 0178 77       		.byte	0x77
 7239 0179 18       		.sleb128 24
 7240 017a 00000000 		.4byte	0
 7241 017e 00000000 		.4byte	0
 7242              	.LLST7:
 7243 0182 00000000 		.4byte	.LFB7
 7244 0186 02000000 		.4byte	.LCFI20
 7245 018a 0200     		.2byte	0x2
 7246 018c 7D       		.byte	0x7d
 7247 018d 00       		.sleb128 0
 7248 018e 02000000 		.4byte	.LCFI20
 7249 0192 04000000 		.4byte	.LCFI21
 7250 0196 0200     		.2byte	0x2
 7251 0198 7D       		.byte	0x7d
 7252 0199 08       		.sleb128 8
 7253 019a 04000000 		.4byte	.LCFI21
 7254 019e 06000000 		.4byte	.LCFI22
 7255 01a2 0200     		.2byte	0x2
 7256 01a4 7D       		.byte	0x7d
 7257 01a5 30       		.sleb128 48
 7258 01a6 06000000 		.4byte	.LCFI22
 7259 01aa A0000000 		.4byte	.LFE7
 7260 01ae 0200     		.2byte	0x2
 7261 01b0 77       		.byte	0x77
 7262 01b1 30       		.sleb128 48
 7263 01b2 00000000 		.4byte	0
 7264 01b6 00000000 		.4byte	0
 7265              	.LLST8:
 7266 01ba 00000000 		.4byte	.LFB8
 7267 01be 02000000 		.4byte	.LCFI23
 7268 01c2 0200     		.2byte	0x2
 7269 01c4 7D       		.byte	0x7d
 7270 01c5 00       		.sleb128 0
 7271 01c6 02000000 		.4byte	.LCFI23
 7272 01ca 04000000 		.4byte	.LCFI24
 7273 01ce 0200     		.2byte	0x2
 7274 01d0 7D       		.byte	0x7d
 7275 01d1 0C       		.sleb128 12
ARM GAS  C:\Users\X0217454\AppData\Local\Temp\ccwJRGby.s 			page 146


 7276 01d2 04000000 		.4byte	.LCFI24
 7277 01d6 06000000 		.4byte	.LCFI25
 7278 01da 0300     		.2byte	0x3
 7279 01dc 7D       		.byte	0x7d
 7280 01dd F800     		.sleb128 120
 7281 01df 06000000 		.4byte	.LCFI25
 7282 01e3 B0000000 		.4byte	.LFE8
 7283 01e7 0300     		.2byte	0x3
 7284 01e9 77       		.byte	0x77
 7285 01ea F800     		.sleb128 120
 7286 01ec 00000000 		.4byte	0
 7287 01f0 00000000 		.4byte	0
 7288              	.LLST9:
 7289 01f4 00000000 		.4byte	.LFB9
 7290 01f8 02000000 		.4byte	.LCFI26
 7291 01fc 0200     		.2byte	0x2
 7292 01fe 7D       		.byte	0x7d
 7293 01ff 00       		.sleb128 0
 7294 0200 02000000 		.4byte	.LCFI26
 7295 0204 04000000 		.4byte	.LCFI27
 7296 0208 0200     		.2byte	0x2
 7297 020a 7D       		.byte	0x7d
 7298 020b 08       		.sleb128 8
 7299 020c 04000000 		.4byte	.LCFI27
 7300 0210 06000000 		.4byte	.LCFI28
 7301 0214 0200     		.2byte	0x2
 7302 0216 7D       		.byte	0x7d
 7303 0217 28       		.sleb128 40
 7304 0218 06000000 		.4byte	.LCFI28
 7305 021c 7C000000 		.4byte	.LFE9
 7306 0220 0200     		.2byte	0x2
 7307 0222 77       		.byte	0x77
 7308 0223 28       		.sleb128 40
 7309 0224 00000000 		.4byte	0
 7310 0228 00000000 		.4byte	0
 7311              	.LLST10:
 7312 022c 00000000 		.4byte	.LFB10
 7313 0230 02000000 		.4byte	.LCFI29
 7314 0234 0200     		.2byte	0x2
 7315 0236 7D       		.byte	0x7d
 7316 0237 00       		.sleb128 0
 7317 0238 02000000 		.4byte	.LCFI29
 7318 023c 04000000 		.4byte	.LCFI30
 7319 0240 0200     		.2byte	0x2
 7320 0242 7D       		.byte	0x7d
 7321 0243 08       		.sleb128 8
 7322 0244 04000000 		.4byte	.LCFI30
 7323 0248 06000000 		.4byte	.LCFI31
 7324 024c 0200     		.2byte	0x2
 7325 024e 7D       		.byte	0x7d
 7326 024f 28       		.sleb128 40
 7327 0250 06000000 		.4byte	.LCFI31
 7328 0254 AC000000 		.4byte	.LFE10
 7329 0258 0200     		.2byte	0x2
 7330 025a 77       		.byte	0x77
 7331 025b 28       		.sleb128 40
 7332 025c 00000000 		.4byte	0
ARM GAS  C:\Users\X0217454\AppData\Local\Temp\ccwJRGby.s 			page 147


 7333 0260 00000000 		.4byte	0
 7334              	.LLST11:
 7335 0264 00000000 		.4byte	.LFB11
 7336 0268 02000000 		.4byte	.LCFI32
 7337 026c 0200     		.2byte	0x2
 7338 026e 7D       		.byte	0x7d
 7339 026f 00       		.sleb128 0
 7340 0270 02000000 		.4byte	.LCFI32
 7341 0274 04000000 		.4byte	.LCFI33
 7342 0278 0200     		.2byte	0x2
 7343 027a 7D       		.byte	0x7d
 7344 027b 08       		.sleb128 8
 7345 027c 04000000 		.4byte	.LCFI33
 7346 0280 18000000 		.4byte	.LFE11
 7347 0284 0200     		.2byte	0x2
 7348 0286 77       		.byte	0x77
 7349 0287 08       		.sleb128 8
 7350 0288 00000000 		.4byte	0
 7351 028c 00000000 		.4byte	0
 7352              	.LLST12:
 7353 0290 00000000 		.4byte	.LFB12
 7354 0294 02000000 		.4byte	.LCFI34
 7355 0298 0200     		.2byte	0x2
 7356 029a 7D       		.byte	0x7d
 7357 029b 00       		.sleb128 0
 7358 029c 02000000 		.4byte	.LCFI34
 7359 02a0 04000000 		.4byte	.LCFI35
 7360 02a4 0200     		.2byte	0x2
 7361 02a6 7D       		.byte	0x7d
 7362 02a7 08       		.sleb128 8
 7363 02a8 04000000 		.4byte	.LCFI35
 7364 02ac 18000000 		.4byte	.LFE12
 7365 02b0 0200     		.2byte	0x2
 7366 02b2 77       		.byte	0x77
 7367 02b3 08       		.sleb128 8
 7368 02b4 00000000 		.4byte	0
 7369 02b8 00000000 		.4byte	0
 7370              	.LLST13:
 7371 02bc 00000000 		.4byte	.LFB13
 7372 02c0 02000000 		.4byte	.LCFI36
 7373 02c4 0200     		.2byte	0x2
 7374 02c6 7D       		.byte	0x7d
 7375 02c7 00       		.sleb128 0
 7376 02c8 02000000 		.4byte	.LCFI36
 7377 02cc 04000000 		.4byte	.LCFI37
 7378 02d0 0200     		.2byte	0x2
 7379 02d2 7D       		.byte	0x7d
 7380 02d3 08       		.sleb128 8
 7381 02d4 04000000 		.4byte	.LCFI37
 7382 02d8 06000000 		.4byte	.LCFI38
 7383 02dc 0200     		.2byte	0x2
 7384 02de 7D       		.byte	0x7d
 7385 02df 18       		.sleb128 24
 7386 02e0 06000000 		.4byte	.LCFI38
 7387 02e4 58000000 		.4byte	.LFE13
 7388 02e8 0200     		.2byte	0x2
 7389 02ea 77       		.byte	0x77
ARM GAS  C:\Users\X0217454\AppData\Local\Temp\ccwJRGby.s 			page 148


 7390 02eb 18       		.sleb128 24
 7391 02ec 00000000 		.4byte	0
 7392 02f0 00000000 		.4byte	0
 7393              	.LLST14:
 7394 02f4 00000000 		.4byte	.LFB14
 7395 02f8 02000000 		.4byte	.LCFI39
 7396 02fc 0200     		.2byte	0x2
 7397 02fe 7D       		.byte	0x7d
 7398 02ff 00       		.sleb128 0
 7399 0300 02000000 		.4byte	.LCFI39
 7400 0304 04000000 		.4byte	.LCFI40
 7401 0308 0200     		.2byte	0x2
 7402 030a 7D       		.byte	0x7d
 7403 030b 08       		.sleb128 8
 7404 030c 04000000 		.4byte	.LCFI40
 7405 0310 18000000 		.4byte	.LFE14
 7406 0314 0200     		.2byte	0x2
 7407 0316 77       		.byte	0x77
 7408 0317 08       		.sleb128 8
 7409 0318 00000000 		.4byte	0
 7410 031c 00000000 		.4byte	0
 7411              	.LLST15:
 7412 0320 00000000 		.4byte	.LFB15
 7413 0324 02000000 		.4byte	.LCFI41
 7414 0328 0200     		.2byte	0x2
 7415 032a 7D       		.byte	0x7d
 7416 032b 00       		.sleb128 0
 7417 032c 02000000 		.4byte	.LCFI41
 7418 0330 04000000 		.4byte	.LCFI42
 7419 0334 0200     		.2byte	0x2
 7420 0336 7D       		.byte	0x7d
 7421 0337 08       		.sleb128 8
 7422 0338 04000000 		.4byte	.LCFI42
 7423 033c 06000000 		.4byte	.LCFI43
 7424 0340 0300     		.2byte	0x3
 7425 0342 7D       		.byte	0x7d
 7426 0343 D000     		.sleb128 80
 7427 0345 06000000 		.4byte	.LCFI43
 7428 0349 E0000000 		.4byte	.LFE15
 7429 034d 0300     		.2byte	0x3
 7430 034f 77       		.byte	0x77
 7431 0350 D000     		.sleb128 80
 7432 0352 00000000 		.4byte	0
 7433 0356 00000000 		.4byte	0
 7434              	.LLST16:
 7435 035a 00000000 		.4byte	.LFB16
 7436 035e 02000000 		.4byte	.LCFI44
 7437 0362 0200     		.2byte	0x2
 7438 0364 7D       		.byte	0x7d
 7439 0365 00       		.sleb128 0
 7440 0366 02000000 		.4byte	.LCFI44
 7441 036a 04000000 		.4byte	.LCFI45
 7442 036e 0200     		.2byte	0x2
 7443 0370 7D       		.byte	0x7d
 7444 0371 08       		.sleb128 8
 7445 0372 04000000 		.4byte	.LCFI45
 7446 0376 06000000 		.4byte	.LCFI46
ARM GAS  C:\Users\X0217454\AppData\Local\Temp\ccwJRGby.s 			page 149


 7447 037a 0200     		.2byte	0x2
 7448 037c 7D       		.byte	0x7d
 7449 037d 18       		.sleb128 24
 7450 037e 06000000 		.4byte	.LCFI46
 7451 0382 48000000 		.4byte	.LFE16
 7452 0386 0200     		.2byte	0x2
 7453 0388 77       		.byte	0x77
 7454 0389 18       		.sleb128 24
 7455 038a 00000000 		.4byte	0
 7456 038e 00000000 		.4byte	0
 7457              	.LLST17:
 7458 0392 00000000 		.4byte	.LFB17
 7459 0396 02000000 		.4byte	.LCFI47
 7460 039a 0200     		.2byte	0x2
 7461 039c 7D       		.byte	0x7d
 7462 039d 00       		.sleb128 0
 7463 039e 02000000 		.4byte	.LCFI47
 7464 03a2 04000000 		.4byte	.LCFI48
 7465 03a6 0200     		.2byte	0x2
 7466 03a8 7D       		.byte	0x7d
 7467 03a9 08       		.sleb128 8
 7468 03aa 04000000 		.4byte	.LCFI48
 7469 03ae 06000000 		.4byte	.LCFI49
 7470 03b2 0200     		.2byte	0x2
 7471 03b4 7D       		.byte	0x7d
 7472 03b5 38       		.sleb128 56
 7473 03b6 06000000 		.4byte	.LCFI49
 7474 03ba A0000000 		.4byte	.LFE17
 7475 03be 0200     		.2byte	0x2
 7476 03c0 77       		.byte	0x77
 7477 03c1 38       		.sleb128 56
 7478 03c2 00000000 		.4byte	0
 7479 03c6 00000000 		.4byte	0
 7480              	.LLST18:
 7481 03ca 00000000 		.4byte	.LFB18
 7482 03ce 02000000 		.4byte	.LCFI50
 7483 03d2 0200     		.2byte	0x2
 7484 03d4 7D       		.byte	0x7d
 7485 03d5 00       		.sleb128 0
 7486 03d6 02000000 		.4byte	.LCFI50
 7487 03da 04000000 		.4byte	.LCFI51
 7488 03de 0200     		.2byte	0x2
 7489 03e0 7D       		.byte	0x7d
 7490 03e1 08       		.sleb128 8
 7491 03e2 04000000 		.4byte	.LCFI51
 7492 03e6 06000000 		.4byte	.LCFI52
 7493 03ea 0200     		.2byte	0x2
 7494 03ec 7D       		.byte	0x7d
 7495 03ed 38       		.sleb128 56
 7496 03ee 06000000 		.4byte	.LCFI52
 7497 03f2 E4000000 		.4byte	.LFE18
 7498 03f6 0200     		.2byte	0x2
 7499 03f8 77       		.byte	0x77
 7500 03f9 38       		.sleb128 56
 7501 03fa 00000000 		.4byte	0
 7502 03fe 00000000 		.4byte	0
 7503              		.section	.debug_aranges,"",%progbits
ARM GAS  C:\Users\X0217454\AppData\Local\Temp\ccwJRGby.s 			page 150


 7504 0000 AC000000 		.4byte	0xac
 7505 0004 0200     		.2byte	0x2
 7506 0006 00000000 		.4byte	.Ldebug_info0
 7507 000a 04       		.byte	0x4
 7508 000b 00       		.byte	0
 7509 000c 0000     		.2byte	0
 7510 000e 0000     		.2byte	0
 7511 0010 00000000 		.4byte	.LFB0
 7512 0014 54030000 		.4byte	.LFE0-.LFB0
 7513 0018 00000000 		.4byte	.LFB1
 7514 001c 18000000 		.4byte	.LFE1-.LFB1
 7515 0020 00000000 		.4byte	.LFB2
 7516 0024 8C000000 		.4byte	.LFE2-.LFB2
 7517 0028 00000000 		.4byte	.LFB3
 7518 002c E4000000 		.4byte	.LFE3-.LFB3
 7519 0030 00000000 		.4byte	.LFB4
 7520 0034 8C030000 		.4byte	.LFE4-.LFB4
 7521 0038 00000000 		.4byte	.LFB5
 7522 003c 6C010000 		.4byte	.LFE5-.LFB5
 7523 0040 00000000 		.4byte	.LFB6
 7524 0044 44000000 		.4byte	.LFE6-.LFB6
 7525 0048 00000000 		.4byte	.LFB7
 7526 004c A0000000 		.4byte	.LFE7-.LFB7
 7527 0050 00000000 		.4byte	.LFB8
 7528 0054 B0000000 		.4byte	.LFE8-.LFB8
 7529 0058 00000000 		.4byte	.LFB9
 7530 005c 7C000000 		.4byte	.LFE9-.LFB9
 7531 0060 00000000 		.4byte	.LFB10
 7532 0064 AC000000 		.4byte	.LFE10-.LFB10
 7533 0068 00000000 		.4byte	.LFB11
 7534 006c 18000000 		.4byte	.LFE11-.LFB11
 7535 0070 00000000 		.4byte	.LFB12
 7536 0074 18000000 		.4byte	.LFE12-.LFB12
 7537 0078 00000000 		.4byte	.LFB13
 7538 007c 58000000 		.4byte	.LFE13-.LFB13
 7539 0080 00000000 		.4byte	.LFB14
 7540 0084 18000000 		.4byte	.LFE14-.LFB14
 7541 0088 00000000 		.4byte	.LFB15
 7542 008c E0000000 		.4byte	.LFE15-.LFB15
 7543 0090 00000000 		.4byte	.LFB16
 7544 0094 48000000 		.4byte	.LFE16-.LFB16
 7545 0098 00000000 		.4byte	.LFB17
 7546 009c A0000000 		.4byte	.LFE17-.LFB17
 7547 00a0 00000000 		.4byte	.LFB18
 7548 00a4 E4000000 		.4byte	.LFE18-.LFB18
 7549 00a8 00000000 		.4byte	0
 7550 00ac 00000000 		.4byte	0
 7551              		.section	.debug_ranges,"",%progbits
 7552              	.Ldebug_ranges0:
 7553 0000 00000000 		.4byte	.LFB0
 7554 0004 54030000 		.4byte	.LFE0
 7555 0008 00000000 		.4byte	.LFB1
 7556 000c 18000000 		.4byte	.LFE1
 7557 0010 00000000 		.4byte	.LFB2
 7558 0014 8C000000 		.4byte	.LFE2
 7559 0018 00000000 		.4byte	.LFB3
 7560 001c E4000000 		.4byte	.LFE3
ARM GAS  C:\Users\X0217454\AppData\Local\Temp\ccwJRGby.s 			page 151


 7561 0020 00000000 		.4byte	.LFB4
 7562 0024 8C030000 		.4byte	.LFE4
 7563 0028 00000000 		.4byte	.LFB5
 7564 002c 6C010000 		.4byte	.LFE5
 7565 0030 00000000 		.4byte	.LFB6
 7566 0034 44000000 		.4byte	.LFE6
 7567 0038 00000000 		.4byte	.LFB7
 7568 003c A0000000 		.4byte	.LFE7
 7569 0040 00000000 		.4byte	.LFB8
 7570 0044 B0000000 		.4byte	.LFE8
 7571 0048 00000000 		.4byte	.LFB9
 7572 004c 7C000000 		.4byte	.LFE9
 7573 0050 00000000 		.4byte	.LFB10
 7574 0054 AC000000 		.4byte	.LFE10
 7575 0058 00000000 		.4byte	.LFB11
 7576 005c 18000000 		.4byte	.LFE11
 7577 0060 00000000 		.4byte	.LFB12
 7578 0064 18000000 		.4byte	.LFE12
 7579 0068 00000000 		.4byte	.LFB13
 7580 006c 58000000 		.4byte	.LFE13
 7581 0070 00000000 		.4byte	.LFB14
 7582 0074 18000000 		.4byte	.LFE14
 7583 0078 00000000 		.4byte	.LFB15
 7584 007c E0000000 		.4byte	.LFE15
 7585 0080 00000000 		.4byte	.LFB16
 7586 0084 48000000 		.4byte	.LFE16
 7587 0088 00000000 		.4byte	.LFB17
 7588 008c A0000000 		.4byte	.LFE17
 7589 0090 00000000 		.4byte	.LFB18
 7590 0094 E4000000 		.4byte	.LFE18
 7591 0098 00000000 		.4byte	0
 7592 009c 00000000 		.4byte	0
 7593              		.section	.debug_line,"",%progbits
 7594              	.Ldebug_line0:
 7595 0000 A2030000 		.section	.debug_str,"MS",%progbits,1
 7595      0200A800 
 7595      00000201 
 7595      FB0E0D00 
 7595      01010101 
 7596              	.LASF189:
 7597 0000 704D6163 		.ascii	"pMacAddr\000"
 7597      41646472 
 7597      00
 7598              	.LASF73:
 7599 0009 52756C65 		.ascii	"RuleHeaderArgsAndMask\000"
 7599      48656164 
 7599      65724172 
 7599      6773416E 
 7599      644D6173 
 7600              	.LASF26:
 7601 001f 52617465 		.ascii	"RateHistogram\000"
 7601      48697374 
 7601      6F677261 
 7601      6D00
 7602              	.LASF20:
 7603 002d 73697A65 		.ascii	"sizetype\000"
 7603      74797065 
ARM GAS  C:\Users\X0217454\AppData\Local\Temp\ccwJRGby.s 			page 152


 7603      00
 7604              	.LASF44:
 7605 0036 416E6F6E 		.ascii	"AnonUserLen\000"
 7605      55736572 
 7605      4C656E00 
 7606              	.LASF117:
 7607 0042 506F6C69 		.ascii	"PolicyType\000"
 7607      63795479 
 7607      706500
 7608              	.LASF213:
 7609 004d 72657456 		.ascii	"retVal\000"
 7609      616C00
 7610              	.LASF60:
 7611 0054 536C7278 		.ascii	"SlrxFilterHdrField_t\000"
 7611      46696C74 
 7611      65724864 
 7611      72466965 
 7611      6C645F74 
 7612              	.LASF214:
 7613 0069 736C5F57 		.ascii	"sl_WlanRxFilterAdd\000"
 7613      6C616E52 
 7613      7846696C 
 7613      74657241 
 7613      646400
 7614              	.LASF142:
 7615 007c 5F576C61 		.ascii	"_WlanCfgSetGet_t\000"
 7615      6E436667 
 7615      53657447 
 7615      65745F74 
 7615      00
 7616              	.LASF62:
 7617 008d 496E7452 		.ascii	"IntRepresentation\000"
 7617      65707265 
 7617      73656E74 
 7617      6174696F 
 7617      6E00
 7618              	.LASF167:
 7619 009f 5F536C43 		.ascii	"_SlCmdExt_t\000"
 7619      6D644578 
 7619      745F7400 
 7620              	.LASF177:
 7621 00ab 5F536C50 		.ascii	"_SlProfileDelMsg_u\000"
 7621      726F6669 
 7621      6C654465 
 7621      6C4D7367 
 7621      5F7500
 7622              	.LASF192:
 7623 00be 436D6443 		.ascii	"CmdCtrl\000"
 7623      74726C00 
 7624              	.LASF239:
 7625 00c6 5F536C50 		.ascii	"_SlPolicySetCmdCtrl\000"
 7625      6F6C6963 
 7625      79536574 
 7625      436D6443 
 7625      74726C00 
 7626              	.LASF180:
 7627 00da 5F536C52 		.ascii	"_SlRxFilterSetMsg_u\000"
ARM GAS  C:\Users\X0217454\AppData\Local\Temp\ccwJRGby.s 			page 153


 7627      7846696C 
 7627      74657253 
 7627      65744D73 
 7627      675F7500 
 7628              	.LASF47:
 7629 00ee 536C5365 		.ascii	"SlSecParamsExt_t\000"
 7629      63506172 
 7629      616D7345 
 7629      78745F74 
 7629      00
 7630              	.LASF212:
 7631 00ff 70456E74 		.ascii	"pEntries\000"
 7631      72696573 
 7631      00
 7632              	.LASF132:
 7633 0108 7075626C 		.ascii	"publicKeyLen\000"
 7633      69634B65 
 7633      794C656E 
 7633      00
 7634              	.LASF30:
 7635 0115 536C4765 		.ascii	"SlGetRxStatResponse_t\000"
 7635      74527853 
 7635      74617452 
 7635      6573706F 
 7635      6E73655F 
 7636              	.LASF230:
 7637 012b 70507562 		.ascii	"pPublicKey\000"
 7637      6C69634B 
 7637      657900
 7638              	.LASF233:
 7639 0136 736C5F57 		.ascii	"sl_WlanSetMode\000"
 7639      6C616E53 
 7639      65744D6F 
 7639      646500
 7640              	.LASF181:
 7641 0145 5F536C52 		.ascii	"_SlRxFilterGetMsg_u\000"
 7641      7846696C 
 7641      74657247 
 7641      65744D73 
 7641      675F7500 
 7642              	.LASF163:
 7643 0159 52785061 		.ascii	"RxPayloadLen\000"
 7643      796C6F61 
 7643      644C656E 
 7643      00
 7644              	.LASF241:
 7645 0166 5F536C50 		.ascii	"_SlProfileGetCmdCtrl\000"
 7645      726F6669 
 7645      6C654765 
 7645      74436D64 
 7645      4374726C 
 7646              	.LASF111:
 7647 017b 42737369 		.ascii	"Bssid\000"
 7647      6400
 7648              	.LASF202:
 7649 0181 736C5F57 		.ascii	"sl_WlanProfileAdd\000"
 7649      6C616E50 
ARM GAS  C:\Users\X0217454\AppData\Local\Temp\ccwJRGby.s 			page 154


 7649      726F6669 
 7649      6C654164 
 7649      6400
 7650              	.LASF25:
 7651 0193 41766172 		.ascii	"AvarageMgMntRssi\000"
 7651      6167654D 
 7651      674D6E74 
 7651      52737369 
 7651      00
 7652              	.LASF126:
 7653 01a4 5F576C61 		.ascii	"_WlanProfileDelGetCommand_t\000"
 7653      6E50726F 
 7653      66696C65 
 7653      44656C47 
 7653      6574436F 
 7654              	.LASF108:
 7655 01c0 5F426173 		.ascii	"_BasicResponse_t\000"
 7655      69635265 
 7655      73706F6E 
 7655      73655F74 
 7655      00
 7656              	.LASF244:
 7657 01d1 5F536C52 		.ascii	"_SlRxFilterAddtCmdCtrl\000"
 7657      7846696C 
 7657      74657241 
 7657      64647443 
 7657      6D644374 
 7658              	.LASF43:
 7659 01e8 416E6F6E 		.ascii	"AnonUser\000"
 7659      55736572 
 7659      00
 7660              	.LASF31:
 7661 01f1 73736964 		.ascii	"ssid\000"
 7661      00
 7662              	.LASF34:
 7663 01f6 62737369 		.ascii	"bssid\000"
 7663      6400
 7664              	.LASF8:
 7665 01fc 6C6F6E67 		.ascii	"long int\000"
 7665      20696E74 
 7665      00
 7666              	.LASF155:
 7667 0205 5F576C61 		.ascii	"_WlanRxFilterGetCommand_t\000"
 7667      6E527846 
 7667      696C7465 
 7667      72476574 
 7667      436F6D6D 
 7668              	.LASF121:
 7669 021f 5072696F 		.ascii	"Priority\000"
 7669      72697479 
 7669      00
 7670              	.LASF247:
 7671 0228 5F536C53 		.ascii	"_SlSmartConfigStartCmdCtrl\000"
 7671      6D617274 
 7671      436F6E66 
 7671      69675374 
 7671      61727443 
ARM GAS  C:\Users\X0217454\AppData\Local\Temp\ccwJRGby.s 			page 155


 7672              	.LASF61:
 7673 0243 536C7278 		.ascii	"SlrxFilterHeaderArg_t\000"
 7673      46696C74 
 7673      65724865 
 7673      61646572 
 7673      4172675F 
 7674              	.LASF175:
 7675 0259 5F536C50 		.ascii	"_SlProfileAddMsg_u\000"
 7675      726F6669 
 7675      6C654164 
 7675      644D7367 
 7675      5F7500
 7676              	.LASF185:
 7677 026c 5F536C57 		.ascii	"_SlWlanCfgSetMsg_u\000"
 7677      6C616E43 
 7677      66675365 
 7677      744D7367 
 7677      5F7500
 7678              	.LASF115:
 7679 027f 45617042 		.ascii	"EapBitmask\000"
 7679      69746D61 
 7679      736B00
 7680              	.LASF218:
 7681 028a 496E7075 		.ascii	"InputbufferLength\000"
 7681      74627566 
 7681      6665724C 
 7681      656E6774 
 7681      6800
 7682              	.LASF133:
 7683 029c 67726F75 		.ascii	"group1KeyLen\000"
 7683      70314B65 
 7683      794C656E 
 7683      00
 7684              	.LASF103:
 7685 02a9 41637469 		.ascii	"ActionType\000"
 7685      6F6E5479 
 7685      706500
 7686              	.LASF49:
 7687 02b4 536C7278 		.ascii	"SlrxFilterID_t\000"
 7687      46696C74 
 7687      65724944 
 7687      5F7400
 7688              	.LASF88:
 7689 02c3 5061794C 		.ascii	"PayLoadHeaderType\000"
 7689      6F616448 
 7689      65616465 
 7689      72547970 
 7689      6500
 7690              	.LASF2:
 7691 02d5 7369676E 		.ascii	"signed char\000"
 7691      65642063 
 7691      68617200 
 7692              	.LASF55:
 7693 02e1 536C7278 		.ascii	"SlrxFilterOffset_t\000"
 7693      46696C74 
 7693      65724F66 
 7693      66736574 
ARM GAS  C:\Users\X0217454\AppData\Local\Temp\ccwJRGby.s 			page 156


 7693      5F7400
 7694              	.LASF15:
 7695 02f4 5F536C4F 		.ascii	"_SlOpcode_t\000"
 7695      70636F64 
 7695      655F7400 
 7696              	.LASF57:
 7697 0300 536C7278 		.ascii	"SlrxFilterFlags_t\000"
 7697      46696C74 
 7697      6572466C 
 7697      6167735F 
 7697      7400
 7698              	.LASF4:
 7699 0312 494E5431 		.ascii	"INT16\000"
 7699      3600
 7700              	.LASF3:
 7701 0318 756E7369 		.ascii	"unsigned char\000"
 7701      676E6564 
 7701      20636861 
 7701      7200
 7702              	.LASF159:
 7703 0326 54784465 		.ascii	"TxDescLen\000"
 7703      73634C65 
 7703      6E00
 7704              	.LASF242:
 7705 0330 5F536C50 		.ascii	"_SlProfileDelCmdCtrl\000"
 7705      726F6669 
 7705      6C654465 
 7705      6C436D64 
 7705      4374726C 
 7706              	.LASF251:
 7707 0345 474E5520 		.ascii	"GNU C 4.7.3 20130312 (release) [ARM/embedded-4_7-br"
 7707      4320342E 
 7707      372E3320 
 7707      32303133 
 7707      30333132 
 7708 0378 616E6368 		.ascii	"anch revision 196615]\000"
 7708      20726576 
 7708      6973696F 
 7708      6E203139 
 7708      36363135 
 7709              	.LASF199:
 7710 038e 436D6445 		.ascii	"CmdExt\000"
 7710      787400
 7711              	.LASF114:
 7712 0395 436F6D6D 		.ascii	"Common\000"
 7712      6F6E00
 7713              	.LASF144:
 7714 039c 52756C65 		.ascii	"RuleType\000"
 7714      54797065 
 7714      00
 7715              	.LASF134:
 7716 03a5 67726F75 		.ascii	"group2KeyLen\000"
 7716      70324B65 
 7716      794C656E 
 7716      00
 7717              	.LASF113:
 7718 03b2 5F576C61 		.ascii	"_WlanConnectCommon_t\000"
ARM GAS  C:\Users\X0217454\AppData\Local\Temp\ccwJRGby.s 			page 157


 7718      6E436F6E 
 7718      6E656374 
 7718      436F6D6D 
 7718      6F6E5F74 
 7719              	.LASF186:
 7720 03c7 5F536C57 		.ascii	"_SlWlanCfgMsgGet_u\000"
 7720      6C616E43 
 7720      66674D73 
 7720      67476574 
 7720      5F7500
 7721              	.LASF76:
 7722 03da 52756C65 		.ascii	"RulePadding\000"
 7722      50616464 
 7722      696E6700 
 7723              	.LASF149:
 7724 03e6 6C5F576C 		.ascii	"l_WlanRxFilterAddCommandReponse_t\000"
 7724      616E5278 
 7724      46696C74 
 7724      65724164 
 7724      64436F6D 
 7725              	.LASF105:
 7726 0408 534C7278 		.ascii	"SLrxFilterOperation_t\000"
 7726      46696C74 
 7726      65724F70 
 7726      65726174 
 7726      696F6E5F 
 7727              	.LASF227:
 7728 041e 466C6167 		.ascii	"Flags\000"
 7728      7300
 7729              	.LASF48:
 7730 0424 536C4765 		.ascii	"SlGetSecParamsExt_t\000"
 7730      74536563 
 7730      50617261 
 7730      6D734578 
 7730      745F7400 
 7731              	.LASF12:
 7732 0438 63686172 		.ascii	"char\000"
 7732      00
 7733              	.LASF109:
 7734 043d 53656354 		.ascii	"SecType\000"
 7734      79706500 
 7735              	.LASF137:
 7736 0445 5F576C61 		.ascii	"_WlanSetMode_t\000"
 7736      6E536574 
 7736      4D6F6465 
 7736      5F7400
 7737              	.LASF148:
 7738 0454 41637469 		.ascii	"Action\000"
 7738      6F6E00
 7739              	.LASF23:
 7740 045b 52656365 		.ascii	"ReceivedPlcpErrorPacketsNumber\000"
 7740      69766564 
 7740      506C6370 
 7740      4572726F 
 7740      72506163 
 7741              	.LASF172:
 7742 047a 5F536C50 		.ascii	"_SlPolicyMsg_u\000"
ARM GAS  C:\Users\X0217454\AppData\Local\Temp\ccwJRGby.s 			page 158


 7742      6F6C6963 
 7742      794D7367 
 7742      5F7500
 7743              	.LASF150:
 7744 0489 5F576C61 		.ascii	"_WlanRxFilterAddCommandReponse_t\000"
 7744      6E527846 
 7744      696C7465 
 7744      72416464 
 7744      436F6D6D 
 7745              	.LASF219:
 7746 04aa 736C5F57 		.ascii	"sl_WlanRxFilterGet\000"
 7746      6C616E52 
 7746      7846696C 
 7746      74657247 
 7746      657400
 7747              	.LASF234:
 7748 04bd 736C5F57 		.ascii	"sl_WlanSet\000"
 7748      6C616E53 
 7748      657400
 7749              	.LASF131:
 7750 04c8 63697068 		.ascii	"cipher\000"
 7750      657200
 7751              	.LASF83:
 7752 04cf 436F6D62 		.ascii	"CombinationTypeOperator\000"
 7752      696E6174 
 7752      696F6E54 
 7752      7970654F 
 7752      70657261 
 7753              	.LASF96:
 7754 04e7 54726967 		.ascii	"Trigger\000"
 7754      67657200 
 7755              	.LASF168:
 7756 04ef 41726773 		.ascii	"Args\000"
 7756      00
 7757              	.LASF191:
 7758 04f4 70536563 		.ascii	"pSecExtParams\000"
 7758      45787450 
 7758      6172616D 
 7758      7300
 7759              	.LASF79:
 7760 0502 4C6F7765 		.ascii	"LowerOffset\000"
 7760      724F6666 
 7760      73657400 
 7761              	.LASF33:
 7762 050e 7365635F 		.ascii	"sec_type\000"
 7762      74797065 
 7762      00
 7763              	.LASF166:
 7764 0517 70527850 		.ascii	"pRxPayload\000"
 7764      61796C6F 
 7764      616400
 7765              	.LASF75:
 7766 0522 52756C65 		.ascii	"RuleCompareFunc\000"
 7766      436F6D70 
 7766      61726546 
 7766      756E6300 
 7767              	.LASF87:
ARM GAS  C:\Users\X0217454\AppData\Local\Temp\ccwJRGby.s 			page 159


 7768 0532 48656164 		.ascii	"HeaderType\000"
 7768      65725479 
 7768      706500
 7769              	.LASF66:
 7770 053d 52784669 		.ascii	"RxFilterDB4BytesRuleArgs\000"
 7770      6C746572 
 7770      44423442 
 7770      79746573 
 7770      52756C65 
 7771              	.LASF97:
 7772 0556 54726967 		.ascii	"TriggerArgConnectionState\000"
 7772      67657241 
 7772      7267436F 
 7772      6E6E6563 
 7772      74696F6E 
 7773              	.LASF68:
 7774 0570 52784669 		.ascii	"RxFilterDB1BytesRuleArgs\000"
 7774      6C746572 
 7774      44423142 
 7774      79746573 
 7774      52756C65 
 7775              	.LASF195:
 7776 0589 736C5F57 		.ascii	"sl_WlanPolicySet\000"
 7776      6C616E50 
 7776      6F6C6963 
 7776      79536574 
 7776      00
 7777              	.LASF67:
 7778 059a 52784669 		.ascii	"RxFilterDB5BytesRuleAsciiArgs\000"
 7778      6C746572 
 7778      44423542 
 7778      79746573 
 7778      52756C65 
 7779              	.LASF100:
 7780 05b8 54726967 		.ascii	"TriggerCompareFunction\000"
 7780      67657243 
 7780      6F6D7061 
 7780      72654675 
 7780      6E637469 
 7781              	.LASF52:
 7782 05cf 536C7278 		.ascii	"SlrxFilterAsciiArg_t\000"
 7782      46696C74 
 7782      65724173 
 7782      63696941 
 7782      72675F74 
 7783              	.LASF78:
 7784 05e4 52656778 		.ascii	"RegxPattern\000"
 7784      50617474 
 7784      65726E00 
 7785              	.LASF197:
 7786 05f0 7056616C 		.ascii	"pVal\000"
 7786      00
 7787              	.LASF205:
 7788 05f5 496E6465 		.ascii	"Index\000"
 7788      7800
 7789              	.LASF182:
 7790 05fb 5F536C53 		.ascii	"_SlSmartConfigStart_t\000"
ARM GAS  C:\Users\X0217454\AppData\Local\Temp\ccwJRGby.s 			page 160


 7790      6D617274 
 7790      436F6E66 
 7790      69675374 
 7790      6172745F 
 7791              	.LASF225:
 7792 0611 736C5F57 		.ascii	"sl_WlanRxStatGet\000"
 7792      6C616E52 
 7792      78537461 
 7792      74476574 
 7792      00
 7793              	.LASF178:
 7794 0622 5F536C57 		.ascii	"_SlWlanGetNetworkListMsg_u\000"
 7794      6C616E47 
 7794      65744E65 
 7794      74776F72 
 7794      6B4C6973 
 7795              	.LASF154:
 7796 063d 5F576C61 		.ascii	"_WlanRxFilterSetCommandReponse_t\000"
 7796      6E527846 
 7796      696C7465 
 7796      72536574 
 7796      436F6D6D 
 7797              	.LASF80:
 7798 065e 55707065 		.ascii	"UpperOffset\000"
 7798      724F6666 
 7798      73657400 
 7799              	.LASF204:
 7800 066a 736C5F57 		.ascii	"sl_WlanProfileGet\000"
 7800      6C616E50 
 7800      726F6669 
 7800      6C654765 
 7800      7400
 7801              	.LASF81:
 7802 067c 536C7278 		.ascii	"SlrxFilterCombinationTypeOperator_t\000"
 7802      46696C74 
 7802      6572436F 
 7802      6D62696E 
 7802      6174696F 
 7803              	.LASF84:
 7804 06a0 436F6D62 		.ascii	"CombinationFilterId\000"
 7804      696E6174 
 7804      696F6E46 
 7804      696C7465 
 7804      72496400 
 7805              	.LASF16:
 7806 06b4 5F536C41 		.ascii	"_SlArgSize_t\000"
 7806      72675369 
 7806      7A655F74 
 7806      00
 7807              	.LASF6:
 7808 06c1 55494E54 		.ascii	"UINT16\000"
 7808      313600
 7809              	.LASF125:
 7810 06c8 696E6465 		.ascii	"index\000"
 7810      7800
 7811              	.LASF223:
 7812 06ce 736C5F57 		.ascii	"sl_WlanRxStatStart\000"
ARM GAS  C:\Users\X0217454\AppData\Local\Temp\ccwJRGby.s 			page 161


 7812      6C616E52 
 7812      78537461 
 7812      74537461 
 7812      727400
 7813              	.LASF91:
 7814 06e1 536C7278 		.ascii	"SlrxFilterTriggerConnectionStates_t\000"
 7814      46696C74 
 7814      65725472 
 7814      69676765 
 7814      72436F6E 
 7815              	.LASF65:
 7816 0705 52784669 		.ascii	"RxFilterDB18BytesAsciiRuleArgs\000"
 7816      6C746572 
 7816      44423138 
 7816      42797465 
 7816      73417363 
 7817              	.LASF184:
 7818 0724 5F536C77 		.ascii	"_SlwlanSetModeMsg_u\000"
 7818      6C616E53 
 7818      65744D6F 
 7818      64654D73 
 7818      675F7500 
 7819              	.LASF120:
 7820 0738 5F576C61 		.ascii	"_WlanPoliciySetGet_t\000"
 7820      6E506F6C 
 7820      69636979 
 7820      53657447 
 7820      65745F74 
 7821              	.LASF10:
 7822 074d 6C6F6E67 		.ascii	"long unsigned int\000"
 7822      20756E73 
 7822      69676E65 
 7822      6420696E 
 7822      7400
 7823              	.LASF106:
 7824 075f 73746174 		.ascii	"status\000"
 7824      757300
 7825              	.LASF51:
 7826 0766 536C7278 		.ascii	"SlrxFilterRegxPattern_t\000"
 7826      46696C74 
 7826      65725265 
 7826      67785061 
 7826      74746572 
 7827              	.LASF174:
 7828 077e 5F536C50 		.ascii	"_SlProfileParams_t\000"
 7828      726F6669 
 7828      6C655061 
 7828      72616D73 
 7828      5F7400
 7829              	.LASF0:
 7830 0791 494E5438 		.ascii	"INT8\000"
 7830      00
 7831              	.LASF21:
 7832 0796 52656365 		.ascii	"ReceivedValidPacketsNumber\000"
 7832      69766564 
 7832      56616C69 
 7832      64506163 
ARM GAS  C:\Users\X0217454\AppData\Local\Temp\ccwJRGby.s 			page 162


 7832      6B657473 
 7833              	.LASF207:
 7834 07b1 70456E74 		.ascii	"pEntParams\000"
 7834      50617261 
 7834      6D7300
 7835              	.LASF127:
 7836 07bc 5F576C61 		.ascii	"_WlanGetNetworkListResponse_t\000"
 7836      6E476574 
 7836      4E657477 
 7836      6F726B4C 
 7836      69737452 
 7837              	.LASF253:
 7838 07da 433A5C55 		.ascii	"C:\\Users\\X0217454\\Desktop\\CC31xx\\CC3100 - 0.5\\"
 7838      73657273 
 7838      5C583032 
 7838      31373435 
 7838      345C4465 
 7839 0808 43433331 		.ascii	"CC3100 SDK 0.5\\cc3100-sdk\\platform\\cypress_SDK.5"
 7839      30302053 
 7839      444B2030 
 7839      2E355C63 
 7839      63333130 
 7840 0838 5C657861 		.ascii	"\\example\\wlan_station_spi\\wlan_station_spi.cydsn"
 7840      6D706C65 
 7840      5C776C61 
 7840      6E5F7374 
 7840      6174696F 
 7841 0868 00       		.ascii	"\000"
 7842              	.LASF39:
 7843 0869 4B65794C 		.ascii	"KeyLen\000"
 7843      656E00
 7844              	.LASF143:
 7845 0870 5F576C61 		.ascii	"_WlanRxFilterAddCommand_t\000"
 7845      6E527846 
 7845      696C7465 
 7845      72416464 
 7845      436F6D6D 
 7846              	.LASF245:
 7847 088a 5F536C52 		.ascii	"_SlRxFilterSetCmdCtrl\000"
 7847      7846696C 
 7847      74657253 
 7847      6574436D 
 7847      64437472 
 7848              	.LASF90:
 7849 08a0 536C7278 		.ascii	"SlrxFilterTriggerRoles_t\000"
 7849      46696C74 
 7849      65725472 
 7849      69676765 
 7849      72526F6C 
 7850              	.LASF99:
 7851 08b9 54726967 		.ascii	"TriggerArg\000"
 7851      67657241 
 7851      726700
 7852              	.LASF9:
 7853 08c4 55494E54 		.ascii	"UINT32\000"
 7853      333200
 7854              	.LASF54:
ARM GAS  C:\Users\X0217454\AppData\Local\Temp\ccwJRGby.s 			page 163


 7855 08cb 536C7278 		.ascii	"SlrxFilterActionArg_t\000"
 7855      46696C74 
 7855      65724163 
 7855      74696F6E 
 7855      4172675F 
 7856              	.LASF179:
 7857 08e1 5F536C72 		.ascii	"_SlrxFilterAddMsg_u\000"
 7857      7846696C 
 7857      74657241 
 7857      64644D73 
 7857      675F7500 
 7858              	.LASF70:
 7859 08f5 52756C65 		.ascii	"RuleHeaderArgs\000"
 7859      48656164 
 7859      65724172 
 7859      677300
 7860              	.LASF226:
 7861 0904 70527853 		.ascii	"pRxStat\000"
 7861      74617400 
 7862              	.LASF94:
 7863 090c 536C7278 		.ascii	"SlrxFilterTrigger_t\000"
 7863      46696C74 
 7863      65725472 
 7863      69676765 
 7863      725F7400 
 7864              	.LASF170:
 7865 0920 5F576C61 		.ascii	"_WlanConnectCmd_t\000"
 7865      6E436F6E 
 7865      6E656374 
 7865      436D645F 
 7865      7400
 7866              	.LASF71:
 7867 0932 52756C65 		.ascii	"RuleHeaderArgsMask\000"
 7867      48656164 
 7867      65724172 
 7867      67734D61 
 7867      736B00
 7868              	.LASF138:
 7869 0945 53746174 		.ascii	"Status\000"
 7869      757300
 7870              	.LASF93:
 7871 094c 536C7278 		.ascii	"SlrxFilterCounterId_t\000"
 7871      46696C74 
 7871      6572436F 
 7871      756E7465 
 7871      7249645F 
 7872              	.LASF74:
 7873 0962 52756C65 		.ascii	"RuleHeaderfield\000"
 7873      48656164 
 7873      65726669 
 7873      656C6400 
 7874              	.LASF232:
 7875 0972 7047726F 		.ascii	"pGroup2Key\000"
 7875      7570324B 
 7875      657900
 7876              	.LASF19:
 7877 097d 6C6F6E67 		.ascii	"long long int\000"
ARM GAS  C:\Users\X0217454\AppData\Local\Temp\ccwJRGby.s 			page 164


 7877      206C6F6E 
 7877      6720696E 
 7877      7400
 7878              	.LASF101:
 7879 098b 536C7278 		.ascii	"SlrxFilterActionType_t\000"
 7879      46696C74 
 7879      65724163 
 7879      74696F6E 
 7879      54797065 
 7880              	.LASF243:
 7881 09a2 5F536C57 		.ascii	"_SlWlanGetNetworkListCtrl\000"
 7881      6C616E47 
 7881      65744E65 
 7881      74776F72 
 7881      6B4C6973 
 7882              	.LASF211:
 7883 09bc 436F756E 		.ascii	"Count\000"
 7883      7400
 7884              	.LASF53:
 7885 09c2 536C7278 		.ascii	"SlrxFilterBinaryArg_t\000"
 7885      46696C74 
 7885      65724269 
 7885      6E617279 
 7885      4172675F 
 7886              	.LASF201:
 7887 09d8 7056616C 		.ascii	"pValLen\000"
 7887      4C656E00 
 7888              	.LASF14:
 7889 09e0 646F7562 		.ascii	"double\000"
 7889      6C6500
 7890              	.LASF145:
 7891 09e7 46696C74 		.ascii	"FilterFlags\000"
 7891      6572466C 
 7891      61677300 
 7892              	.LASF188:
 7893 09f3 4E616D65 		.ascii	"NameLen\000"
 7893      4C656E00 
 7894              	.LASF118:
 7895 09fb 506F6C69 		.ascii	"PolicyOption\000"
 7895      63794F70 
 7895      74696F6E 
 7895      00
 7896              	.LASF240:
 7897 0a08 5F536C50 		.ascii	"_SlPolicyGetCmdCtrl\000"
 7897      6F6C6963 
 7897      79476574 
 7897      436D6443 
 7897      74726C00 
 7898              	.LASF13:
 7899 0a1c 666C6F61 		.ascii	"float\000"
 7899      7400
 7900              	.LASF41:
 7901 0a22 55736572 		.ascii	"User\000"
 7901      00
 7902              	.LASF128:
 7903 0a27 636F756E 		.ascii	"count\000"
 7903      7400
ARM GAS  C:\Users\X0217454\AppData\Local\Temp\ccwJRGby.s 			page 165


 7904              	.LASF104:
 7905 0a2d 41637469 		.ascii	"ActionArg\000"
 7905      6F6E4172 
 7905      6700
 7906              	.LASF18:
 7907 0a37 756E7369 		.ascii	"unsigned int\000"
 7907      676E6564 
 7907      20696E74 
 7907      00
 7908              	.LASF198:
 7909 0a44 56616C4C 		.ascii	"ValLen\000"
 7909      656E00
 7910              	.LASF190:
 7911 0a4b 70536563 		.ascii	"pSecParams\000"
 7911      50617261 
 7911      6D7300
 7912              	.LASF37:
 7913 0a56 536C5F57 		.ascii	"Sl_WlanNetworkEntry_t\000"
 7913      6C616E4E 
 7913      6574776F 
 7913      726B456E 
 7913      7472795F 
 7914              	.LASF86:
 7915 0a6c 536C7278 		.ascii	"SlrxFilterRule_t\000"
 7915      46696C74 
 7915      65725275 
 7915      6C655F74 
 7915      00
 7916              	.LASF38:
 7917 0a7d 54797065 		.ascii	"Type\000"
 7917      00
 7918              	.LASF116:
 7919 0a82 5F576C61 		.ascii	"_WlanConnectEapCommand_t\000"
 7919      6E436F6E 
 7919      6E656374 
 7919      45617043 
 7919      6F6D6D61 
 7920              	.LASF98:
 7921 0a9b 54726967 		.ascii	"TriggerArgRoleStatus\000"
 7921      67657241 
 7921      7267526F 
 7921      6C655374 
 7921      61747573 
 7922              	.LASF40:
 7923 0ab0 536C5365 		.ascii	"SlSecParams_t\000"
 7923      63506172 
 7923      616D735F 
 7923      7400
 7924              	.LASF152:
 7925 0abe 496E7075 		.ascii	"InputBufferLength\000"
 7925      74427566 
 7925      6665724C 
 7925      656E6774 
 7925      6800
 7926              	.LASF72:
 7927 0ad0 536C7278 		.ascii	"SlrxFilterHeaderType_t\000"
 7927      46696C74 
ARM GAS  C:\Users\X0217454\AppData\Local\Temp\ccwJRGby.s 			page 166


 7927      65724865 
 7927      61646572 
 7927      54797065 
 7928              	.LASF140:
 7929 0ae7 436F6E66 		.ascii	"ConfigOpt\000"
 7929      69674F70 
 7929      7400
 7930              	.LASF162:
 7931 0af1 54785061 		.ascii	"TxPayloadLen\000"
 7931      796C6F61 
 7931      644C656E 
 7931      00
 7932              	.LASF85:
 7933 0afe 50616464 		.ascii	"Padding\000"
 7933      696E6700 
 7934              	.LASF147:
 7935 0b06 52756C65 		.ascii	"Rule\000"
 7935      00
 7936              	.LASF228:
 7937 0b0b 736C5F57 		.ascii	"sl_WlanSmartConfigStop\000"
 7937      6C616E53 
 7937      6D617274 
 7937      436F6E66 
 7937      69675374 
 7938              	.LASF141:
 7939 0b22 436F6E66 		.ascii	"ConfigLen\000"
 7939      69674C65 
 7939      6E00
 7940              	.LASF156:
 7941 0b2c 4F757470 		.ascii	"OutputBufferLength\000"
 7941      75744275 
 7941      66666572 
 7941      4C656E67 
 7941      746800
 7942              	.LASF123:
 7943 0b3f 5F576C61 		.ascii	"_WlanAddGetProfile_t\000"
 7943      6E416464 
 7943      47657450 
 7943      726F6669 
 7943      6C655F74 
 7944              	.LASF45:
 7945 0b54 43657274 		.ascii	"CertIndex\000"
 7945      496E6465 
 7945      7800
 7946              	.LASF161:
 7947 0b5e 5F536C43 		.ascii	"_SlCmdCtrl_t\000"
 7947      6D644374 
 7947      726C5F74 
 7947      00
 7948              	.LASF11:
 7949 0b6b 6C6F6E67 		.ascii	"long long unsigned int\000"
 7949      206C6F6E 
 7949      6720756E 
 7949      7369676E 
 7949      65642069 
 7950              	.LASF153:
 7951 0b82 52784669 		.ascii	"RxFilterOperation\000"
ARM GAS  C:\Users\X0217454\AppData\Local\Temp\ccwJRGby.s 			page 167


 7951      6C746572 
 7951      4F706572 
 7951      6174696F 
 7951      6E00
 7952              	.LASF216:
 7953 0b94 736C5F57 		.ascii	"sl_WlanRxFilterSet\000"
 7953      6C616E52 
 7953      7846696C 
 7953      74657253 
 7953      657400
 7954              	.LASF42:
 7955 0ba7 55736572 		.ascii	"UserLen\000"
 7955      4C656E00 
 7956              	.LASF151:
 7957 0baf 5F576C61 		.ascii	"_WlanRxFilterSetCommand_t\000"
 7957      6E527846 
 7957      696C7465 
 7957      72536574 
 7957      436F6D6D 
 7958              	.LASF171:
 7959 0bc9 5F536C57 		.ascii	"_SlWlanConnectMsg_u\000"
 7959      6C616E43 
 7959      6F6E6E65 
 7959      63744D73 
 7959      675F7500 
 7960              	.LASF215:
 7961 0bdd 7046696C 		.ascii	"pFilterId\000"
 7961      74657249 
 7961      6400
 7962              	.LASF238:
 7963 0be7 70436F6E 		.ascii	"pConfigLen\000"
 7963      6669674C 
 7963      656E00
 7964              	.LASF203:
 7965 0bf2 4F707469 		.ascii	"Options\000"
 7965      6F6E7300 
 7966              	.LASF119:
 7967 0bfa 506F6C69 		.ascii	"PolicyOptionLen\000"
 7967      63794F70 
 7967      74696F6E 
 7967      4C656E00 
 7968              	.LASF229:
 7969 0c0a 736C5F57 		.ascii	"sl_WlanSmartConfigStart\000"
 7969      6C616E53 
 7969      6D617274 
 7969      436F6E66 
 7969      69675374 
 7970              	.LASF221:
 7971 0c22 4F757470 		.ascii	"OutputbufferLength\000"
 7971      75746275 
 7971      66666572 
 7971      4C656E67 
 7971      746800
 7972              	.LASF252:
 7973 0c35 2E2E5C2E 		.ascii	"..\\..\\..\\..\\..\\simplelink\\source\\wlan.c\000"
 7973      2E5C2E2E 
 7973      5C2E2E5C 
ARM GAS  C:\Users\X0217454\AppData\Local\Temp\ccwJRGby.s 			page 168


 7973      2E2E5C73 
 7973      696D706C 
 7974              	.LASF122:
 7975 0c5d 5765704B 		.ascii	"WepKeyId\000"
 7975      65794964 
 7975      00
 7976              	.LASF224:
 7977 0c66 736C5F57 		.ascii	"sl_WlanRxStatStop\000"
 7977      6C616E52 
 7977      78537461 
 7977      7453746F 
 7977      7000
 7978              	.LASF164:
 7979 0c78 41637475 		.ascii	"ActualRxPayloadLen\000"
 7979      616C5278 
 7979      5061796C 
 7979      6F61644C 
 7979      656E00
 7980              	.LASF220:
 7981 0c8b 704F7574 		.ascii	"pOutputBuffer\000"
 7981      70757442 
 7981      75666665 
 7981      7200
 7982              	.LASF158:
 7983 0c99 4F70636F 		.ascii	"Opcode\000"
 7983      646500
 7984              	.LASF165:
 7985 0ca0 70547850 		.ascii	"pTxPayload\000"
 7985      61796C6F 
 7985      616400
 7986              	.LASF209:
 7987 0cab 736C5F57 		.ascii	"sl_WlanProfileDel\000"
 7987      6C616E50 
 7987      726F6669 
 7987      6C654465 
 7987      6C00
 7988              	.LASF1:
 7989 0cbd 55494E54 		.ascii	"UINT8\000"
 7989      3800
 7990              	.LASF124:
 7991 0cc3 5F576C61 		.ascii	"_WlanAddGetEapProfile_t\000"
 7991      6E416464 
 7991      47657445 
 7991      61705072 
 7991      6F66696C 
 7992              	.LASF235:
 7993 0cdb 7056616C 		.ascii	"pValues\000"
 7993      75657300 
 7994              	.LASF24:
 7995 0ce3 41766172 		.ascii	"AvarageDataCtrlRssi\000"
 7995      61676544 
 7995      61746143 
 7995      74726C52 
 7995      73736900 
 7996              	.LASF160:
 7997 0cf7 52784465 		.ascii	"RxDescLen\000"
 7997      73634C65 
ARM GAS  C:\Users\X0217454\AppData\Local\Temp\ccwJRGby.s 			page 169


 7997      6E00
 7998              	.LASF135:
 7999 0d01 5F576C61 		.ascii	"_WlanSmartConfigStartCommand_t\000"
 7999      6E536D61 
 7999      7274436F 
 7999      6E666967 
 7999      53746172 
 8000              	.LASF27:
 8001 0d20 52737369 		.ascii	"RssiHistogram\000"
 8001      48697374 
 8001      6F677261 
 8001      6D00
 8002              	.LASF77:
 8003 0d2e 536C7278 		.ascii	"SlrxFilterPayloadType_t\000"
 8003      46696C74 
 8003      65725061 
 8003      796C6F61 
 8003      64547970 
 8004              	.LASF89:
 8005 0d46 436F6D62 		.ascii	"CombinationType\000"
 8005      696E6174 
 8005      696F6E54 
 8005      79706500 
 8006              	.LASF249:
 8007 0d56 5F536C57 		.ascii	"_SlWlanCfgSetCmdCtrl\000"
 8007      6C616E43 
 8007      66675365 
 8007      74436D64 
 8007      4374726C 
 8008              	.LASF250:
 8009 0d6b 5F536C57 		.ascii	"_SlWlanCfgGetCmdCtrl\000"
 8009      6C616E43 
 8009      66674765 
 8009      74436D64 
 8009      4374726C 
 8010              	.LASF58:
 8011 0d80 536C7278 		.ascii	"SlrxFilterCompareFunction_t\000"
 8011      46696C74 
 8011      6572436F 
 8011      6D706172 
 8011      6546756E 
 8012              	.LASF92:
 8013 0d9c 536C7278 		.ascii	"SlrxFilterDBTriggerArg_t\000"
 8013      46696C74 
 8013      65724442 
 8013      54726967 
 8013      67657241 
 8014              	.LASF102:
 8015 0db5 536C7278 		.ascii	"SlrxFilterAction_t\000"
 8015      46696C74 
 8015      65724163 
 8015      74696F6E 
 8015      5F7400
 8016              	.LASF5:
 8017 0dc8 73686F72 		.ascii	"short int\000"
 8017      7420696E 
 8017      7400
ARM GAS  C:\Users\X0217454\AppData\Local\Temp\ccwJRGby.s 			page 170


 8018              	.LASF183:
 8019 0dd2 5F536C53 		.ascii	"_SlSmartConfigStartMsg_u\000"
 8019      6D617274 
 8019      436F6E66 
 8019      69675374 
 8019      6172744D 
 8020              	.LASF237:
 8021 0deb 70436F6E 		.ascii	"pConfigOpt\000"
 8021      6669674F 
 8021      707400
 8022              	.LASF136:
 8023 0df6 6D6F6465 		.ascii	"mode\000"
 8023      00
 8024              	.LASF222:
 8025 0dfb 736C5F57 		.ascii	"sl_WlanDisconnect\000"
 8025      6C616E44 
 8025      6973636F 
 8025      6E6E6563 
 8025      7400
 8026              	.LASF46:
 8027 0e0d 4561704D 		.ascii	"EapMethod\000"
 8027      6574686F 
 8027      6400
 8028              	.LASF196:
 8029 0e17 506F6C69 		.ascii	"Policy\000"
 8029      637900
 8030              	.LASF176:
 8031 0e1e 5F536C50 		.ascii	"_SlProfileGetMsg_u\000"
 8031      726F6669 
 8031      6C654765 
 8031      744D7367 
 8031      5F7500
 8032              	.LASF139:
 8033 0e31 436F6E66 		.ascii	"ConfigId\000"
 8033      69674964 
 8033      00
 8034              	.LASF59:
 8035 0e3a 536C7278 		.ascii	"SlrxTriggerCompareFunction_t\000"
 8035      54726967 
 8035      67657243 
 8035      6F6D7061 
 8035      72654675 
 8036              	.LASF112:
 8037 0e57 50617373 		.ascii	"PasswordLen\000"
 8037      776F7264 
 8037      4C656E00 
 8038              	.LASF82:
 8039 0e63 536C7278 		.ascii	"SlrxFilterCombinationType_t\000"
 8039      46696C74 
 8039      6572436F 
 8039      6D62696E 
 8039      6174696F 
 8040              	.LASF193:
 8041 0e7f 5F526574 		.ascii	"_RetVal\000"
 8041      56616C00 
 8042              	.LASF210:
 8043 0e87 736C5F57 		.ascii	"sl_WlanGetNetworkList\000"
ARM GAS  C:\Users\X0217454\AppData\Local\Temp\ccwJRGby.s 			page 171


 8043      6C616E47 
 8043      65744E65 
 8043      74776F72 
 8043      6B4C6973 
 8044              	.LASF64:
 8045 0e9d 52784669 		.ascii	"RxFilterDB6BytesRuleArgs\000"
 8045      6C746572 
 8045      44423642 
 8045      79746573 
 8045      52756C65 
 8046              	.LASF236:
 8047 0eb6 736C5F57 		.ascii	"sl_WlanGet\000"
 8047      6C616E47 
 8047      657400
 8048              	.LASF173:
 8049 0ec1 5F536C50 		.ascii	"_SlPolicyGetMsg_u\000"
 8049      6F6C6963 
 8049      79476574 
 8049      4D73675F 
 8049      7500
 8050              	.LASF22:
 8051 0ed3 52656365 		.ascii	"ReceivedFcsErrorPacketsNumber\000"
 8051      69766564 
 8051      46637345 
 8051      72726F72 
 8051      5061636B 
 8052              	.LASF206:
 8053 0ef1 704E616D 		.ascii	"pNameLen\000"
 8053      654C656E 
 8053      00
 8054              	.LASF107:
 8055 0efa 70616464 		.ascii	"padding\000"
 8055      696E6700 
 8056              	.LASF169:
 8057 0f02 53747269 		.ascii	"Strings\000"
 8057      6E677300 
 8058              	.LASF248:
 8059 0f0a 5F536C57 		.ascii	"_SlWlanSetModeCmdCtrl\000"
 8059      6C616E53 
 8059      65744D6F 
 8059      6465436D 
 8059      64437472 
 8060              	.LASF110:
 8061 0f20 53736964 		.ascii	"SsidLen\000"
 8061      4C656E00 
 8062              	.LASF200:
 8063 0f28 736C5F57 		.ascii	"sl_WlanPolicyGet\000"
 8063      6C616E50 
 8063      6F6C6963 
 8063      79476574 
 8063      00
 8064              	.LASF36:
 8065 0f39 72657365 		.ascii	"reserved\000"
 8065      72766564 
 8065      00
 8066              	.LASF187:
 8067 0f42 704E616D 		.ascii	"pName\000"
ARM GAS  C:\Users\X0217454\AppData\Local\Temp\ccwJRGby.s 			page 172


 8067      6500
 8068              	.LASF130:
 8069 0f48 67726F75 		.ascii	"groupIdBitmask\000"
 8069      70496442 
 8069      69746D61 
 8069      736B00
 8070              	.LASF129:
 8071 0f57 5F576C61 		.ascii	"_WlanGetNetworkListCommand_t\000"
 8071      6E476574 
 8071      4E657477 
 8071      6F726B4C 
 8071      69737443 
 8072              	.LASF146:
 8073 0f74 46696C74 		.ascii	"FilterId\000"
 8073      65724964 
 8073      00
 8074              	.LASF7:
 8075 0f7d 73686F72 		.ascii	"short unsigned int\000"
 8075      7420756E 
 8075      7369676E 
 8075      65642069 
 8075      6E7400
 8076              	.LASF217:
 8077 0f90 70496E70 		.ascii	"pInputBuffer\000"
 8077      75744275 
 8077      66666572 
 8077      00
 8078              	.LASF246:
 8079 0f9d 5F536C52 		.ascii	"_SlRxFilterGetCmdCtrl\000"
 8079      7846696C 
 8079      74657247 
 8079      6574436D 
 8079      64437472 
 8080              	.LASF17:
 8081 0fb3 5F536C52 		.ascii	"_SlReturnVal_t\000"
 8081      65747572 
 8081      6E56616C 
 8081      5F7400
 8082              	.LASF208:
 8083 0fc2 70507269 		.ascii	"pPriority\000"
 8083      6F726974 
 8083      7900
 8084              	.LASF29:
 8085 0fcc 47657454 		.ascii	"GetTimeStamp\000"
 8085      696D6553 
 8085      74616D70 
 8085      00
 8086              	.LASF28:
 8087 0fd9 53746172 		.ascii	"StartTimeStamp\000"
 8087      7454696D 
 8087      65537461 
 8087      6D7000
 8088              	.LASF50:
 8089 0fe8 536C7278 		.ascii	"SlrxFilterCompareMask_t\000"
 8089      46696C74 
 8089      6572436F 
 8089      6D706172 
ARM GAS  C:\Users\X0217454\AppData\Local\Temp\ccwJRGby.s 			page 173


 8089      654D6173 
 8090              	.LASF157:
 8091 1000 5F576C61 		.ascii	"_WlanRxFilterGetCommandReponse_t\000"
 8091      6E527846 
 8091      696C7465 
 8091      72476574 
 8091      436F6D6D 
 8092              	.LASF56:
 8093 1021 536C7278 		.ascii	"SlrxFilterRuleType_t\000"
 8093      46696C74 
 8093      65725275 
 8093      6C655479 
 8093      70655F74 
 8094              	.LASF194:
 8095 1036 736C5F57 		.ascii	"sl_WlanConnect\000"
 8095      6C616E43 
 8095      6F6E6E65 
 8095      637400
 8096              	.LASF35:
 8097 1045 72737369 		.ascii	"rssi\000"
 8097      00
 8098              	.LASF69:
 8099 104a 536C7278 		.ascii	"SlrxFilterRuleHeaderArgsAndMask_t\000"
 8099      46696C74 
 8099      65725275 
 8099      6C654865 
 8099      61646572 
 8100              	.LASF63:
 8101 106c 52784669 		.ascii	"RxFilterDB16BytesRuleArgs\000"
 8101      6C746572 
 8101      44423136 
 8101      42797465 
 8101      7352756C 
 8102              	.LASF95:
 8103 1086 50617265 		.ascii	"ParentFilterID\000"
 8103      6E744669 
 8103      6C746572 
 8103      494400
 8104              	.LASF231:
 8105 1095 7047726F 		.ascii	"pGroup1Key\000"
 8105      7570314B 
 8105      657900
 8106              	.LASF32:
 8107 10a0 73736964 		.ascii	"ssid_len\000"
 8107      5F6C656E 
 8107      00
 8108              		.ident	"GCC: (GNU Tools for ARM Embedded Processors) 4.7.3 20130312 (release) [ARM/embedded-4_7-br
